Time	Cycle	PC	Insn	Decoded instruction	Register and memory contents
        2202000	         8	80000080	40001f37	lui	x30,0x40001	 x30=0x40001000
        2362000	        16	80000084	106f0f13	addi	x30,x30,262	 x30:0x40001000 x30=0x40001106
        2642000	        30	80000088	301f1073	csrrw	x0,misa,x30	 x30:0x40001106  x0=0x00000000
        2702000	        33	8000008c	00026297	auipc	x5,0x26	  x5=0x8002608c
        2862000	        41	80000090	c5828293	addi	x5,x5,-936	  x5:0x8002608c  x5=0x80025ce4
        2882000	        42	80000094	00002f17	auipc	x30,0x2	 x30=0x80002094
        2902000	        43	80000098	66cf0f13	addi	x30,x30,1644	 x30:0x80002094 x30=0x80002700
        3142000	        55	8000009c	001f6f13	ori	x30,x30,1	 x30:0x80002700 x30=0x80002701
        3402000	        68	800000a0	305f1073	csrrw	x0,mtvec,x30	 x30:0x80002701  x0=0x00000000
        3462000	        71	800000a4	74725073	csrrwi	x0,0x747,4	  x0=0x00000000
        3522000	        74	800000a8	00003797	auipc	x15,0x3	 x15=0x800030a8
        3542000	        75	800000ac	41478793	addi	x15,x15,1044	 x15:0x800030a8 x15=0x800034bc
        3562000	        76	800000b0	4f01	c.li	x30,0	 x30=0x00000000
        3582000	        77	800000b2	97fa	c.add	x15,x30	 x15:0x800034bc x30:0x00000000 x15=0x800034bc
        3862000	        91	800000b4	8389	c.srli	x15,0x2	 x15:0x800034bc x15=0x20000d2f
        3882000	        92	800000b6	3b079073	csrrw	x0,pmpaddr0,x15	 x15:0x20000d2f  x0=0x00000000
        4302000	       113	800000ba	00003797	auipc	x15,0x3	 x15=0x800030ba
        4362000	       116	800000be	40278793	addi	x15,x15,1026	 x15:0x800030ba x15=0x800034bc
        4382000	       117	800000c2	11111f37	lui	x30,0x11111	 x30=0x11111000
        4462000	       121	800000c6	111f0f13	addi	x30,x30,273	 x30:0x11111000 x30=0x11111111
        4482000	       122	800000ca	97fa	c.add	x15,x30	 x15:0x800034bc x30:0x11111111 x15=0x911145cd
        4742000	       135	800000cc	8389	c.srli	x15,0x2	 x15:0x911145cd x15=0x24445173
        4762000	       136	800000ce	3b179073	csrrw	x0,pmpaddr1,x15	 x15:0x24445173  x0=0x00000000
        4922000	       144	800000d2	00003797	auipc	x15,0x3	 x15=0x800030d2
        4942000	       145	800000d6	3ea78793	addi	x15,x15,1002	 x15:0x800030d2 x15=0x800034bc
        4962000	       146	800000da	22222f37	lui	x30,0x22222	 x30=0x22222000
        4982000	       147	800000de	222f0f13	addi	x30,x30,546	 x30:0x22222000 x30=0x22222222
        5002000	       148	800000e2	97fa	c.add	x15,x30	 x15:0x800034bc x30:0x22222222 x15=0xa22256de
        5082000	       152	800000e4	8389	c.srli	x15,0x2	 x15:0xa22256de x15=0x288895b7
        5242000	       160	800000e6	3b279073	csrrw	x0,pmpaddr2,x15	 x15:0x288895b7  x0=0x00000000
        5302000	       163	800000ea	00003797	auipc	x15,0x3	 x15=0x800030ea
        5322000	       164	800000ee	3d278793	addi	x15,x15,978	 x15:0x800030ea x15=0x800034bc
        5342000	       165	800000f2	33333f37	lui	x30,0x33333	 x30=0x33333000
        5362000	       166	800000f6	333f0f13	addi	x30,x30,819	 x30:0x33333000 x30=0x33333333
        5382000	       167	800000fa	97fa	c.add	x15,x30	 x15:0x800034bc x30:0x33333333 x15=0xb33367ef
        5502000	       173	800000fc	8389	c.srli	x15,0x2	 x15:0xb33367ef x15=0x2cccd9fb
        5542000	       175	800000fe	3b379073	csrrw	x0,pmpaddr3,x15	 x15:0x2cccd9fb  x0=0x00000000
        5602000	       178	80000102	0f0f17b7	lui	x15,0xf0f1	 x15=0x0f0f1000
        5622000	       179	80000106	f0f78793	addi	x15,x15,-241	 x15:0x0f0f1000 x15=0x0f0f0f0f
        5642000	       180	8000010a	3a079073	csrrw	x0,pmpcfg0,x15	 x15:0x0f0f0f0f  x0=0x00000000
        5722000	       184	8000010e	00003797	auipc	x15,0x3	 x15=0x8000310e
        5742000	       185	80000112	3ae78793	addi	x15,x15,942	 x15:0x8000310e x15=0x800034bc
        6262000	       211	80000116	44444f37	lui	x30,0x44444	 x30=0x44444000
        6302000	       213	8000011a	444f0f13	addi	x30,x30,1092	 x30:0x44444000 x30=0x44444444
        6322000	       214	8000011e	97fa	c.add	x15,x30	 x15:0x800034bc x30:0x44444444 x15=0xc4447900
        6342000	       215	80000120	8389	c.srli	x15,0x2	 x15:0xc4447900 x15=0x31111e40
        6362000	       216	80000122	3b479073	csrrw	x0,pmpaddr4,x15	 x15:0x31111e40  x0=0x00000000
        6762000	       236	80000126	00003797	auipc	x15,0x3	 x15=0x80003126
        6782000	       237	8000012a	39678793	addi	x15,x15,918	 x15:0x80003126 x15=0x800034bc
        7202000	       258	8000012e	55555f37	lui	x30,0x55555	 x30=0x55555000
        7222000	       259	80000132	555f0f13	addi	x30,x30,1365	 x30:0x55555000 x30=0x55555555
        7242000	       260	80000136	97fa	c.add	x15,x30	 x15:0x800034bc x30:0x55555555 x15=0xd5558a11
        7342000	       265	80000138	8389	c.srli	x15,0x2	 x15:0xd5558a11 x15=0x35556284
        7502000	       273	8000013a	3b579073	csrrw	x0,pmpaddr5,x15	 x15:0x35556284  x0=0x00000000
        7562000	       276	8000013e	00003797	auipc	x15,0x3	 x15=0x8000313e
        7582000	       277	80000142	37e78793	addi	x15,x15,894	 x15:0x8000313e x15=0x800034bc
        7602000	       278	80000146	66666f37	lui	x30,0x66666	 x30=0x66666000
        7842000	       290	8000014a	666f0f13	addi	x30,x30,1638	 x30:0x66666000 x30=0x66666666
        7862000	       291	8000014e	97fa	c.add	x15,x30	 x15:0x800034bc x30:0x66666666 x15=0xe6669b22
        8042000	       300	80000150	8389	c.srli	x15,0x2	 x15:0xe6669b22 x15=0x3999a6c8
        8462000	       321	80000152	3b679073	csrrw	x0,pmpaddr6,x15	 x15:0x3999a6c8  x0=0x00000000
        8522000	       324	80000156	00003797	auipc	x15,0x3	 x15=0x80003156
        8742000	       335	8000015a	36678793	addi	x15,x15,870	 x15:0x80003156 x15=0x800034bc
        9022000	       349	8000015e	77777f37	lui	x30,0x77777	 x30=0x77777000
        9042000	       350	80000162	777f0f13	addi	x30,x30,1911	 x30:0x77777000 x30=0x77777777
        9062000	       351	80000166	97fa	c.add	x15,x30	 x15:0x800034bc x30:0x77777777 x15=0xf777ac33
        9082000	       352	80000168	8389	c.srli	x15,0x2	 x15:0xf777ac33 x15=0x3dddeb0c
        9102000	       353	8000016a	3b779073	csrrw	x0,pmpaddr7,x15	 x15:0x3dddeb0c  x0=0x00000000
        9242000	       360	8000016e	0f0f17b7	lui	x15,0xf0f1	 x15=0x0f0f1000
        9402000	       368	80000172	f0f78793	addi	x15,x15,-241	 x15:0x0f0f1000 x15=0x0f0f0f0f
        9542000	       375	80000176	3a179073	csrrw	x0,pmpcfg1,x15	 x15:0x0f0f0f0f  x0=0x00000000
        9662000	       381	8000017a	00003797	auipc	x15,0x3	 x15=0x8000317a
        9682000	       382	8000017e	34278793	addi	x15,x15,834	 x15:0x8000317a x15=0x800034bc
        9702000	       383	80000182	88889f37	lui	x30,0x88889	 x30=0x88889000
       10062000	       401	80000186	888f0f13	addi	x30,x30,-1912	 x30:0x88889000 x30=0x88888888
       10082000	       402	8000018a	97fa	c.add	x15,x30	 x15:0x800034bc x30:0x88888888 x15=0x0888bd44
       10102000	       403	8000018c	8389	c.srli	x15,0x2	 x15:0x0888bd44 x15=0x02222f51
       10122000	       404	8000018e	3b879073	csrrw	x0,pmpaddr8,x15	 x15:0x02222f51  x0=0x00000000
       10522000	       424	80000192	00003797	auipc	x15,0x3	 x15=0x80003192
       10902000	       443	80000196	32a78793	addi	x15,x15,810	 x15:0x80003192 x15=0x800034bc
       10922000	       444	8000019a	9999af37	lui	x30,0x9999a	 x30=0x9999a000
       10942000	       445	8000019e	999f0f13	addi	x30,x30,-1639	 x30:0x9999a000 x30=0x99999999
       10962000	       446	800001a2	97fa	c.add	x15,x30	 x15:0x800034bc x30:0x99999999 x15=0x1999ce55
       10982000	       447	800001a4	8389	c.srli	x15,0x2	 x15:0x1999ce55 x15=0x06667395
       11002000	       448	800001a6	3b979073	csrrw	x0,pmpaddr9,x15	 x15:0x06667395  x0=0x00000000
       11062000	       451	800001aa	00003797	auipc	x15,0x3	 x15=0x800031aa
       11082000	       452	800001ae	31278793	addi	x15,x15,786	 x15:0x800031aa x15=0x800034bc
       11302000	       463	800001b2	aaaabf37	lui	x30,0xaaaab	 x30=0xaaaab000
       11402000	       468	800001b6	aaaf0f13	addi	x30,x30,-1366	 x30:0xaaaab000 x30=0xaaaaaaaa
       11422000	       469	800001ba	97fa	c.add	x15,x30	 x15:0x800034bc x30:0xaaaaaaaa x15=0x2aaadf66
       11642000	       480	800001bc	8389	c.srli	x15,0x2	 x15:0x2aaadf66 x15=0x0aaab7d9
       11662000	       481	800001be	3ba79073	csrrw	x0,pmpaddr10,x15	 x15:0x0aaab7d9  x0=0x00000000
       11842000	       490	800001c2	00003797	auipc	x15,0x3	 x15=0x800031c2
       11982000	       497	800001c6	2fa78793	addi	x15,x15,762	 x15:0x800031c2 x15=0x800034bc
       12002000	       498	800001ca	bbbbcf37	lui	x30,0xbbbbc	 x30=0xbbbbc000
       12022000	       499	800001ce	bbbf0f13	addi	x30,x30,-1093	 x30:0xbbbbc000 x30=0xbbbbbbbb
       12042000	       500	800001d2	97fa	c.add	x15,x30	 x15:0x800034bc x30:0xbbbbbbbb x15=0x3bbbf077
       12182000	       507	800001d4	8389	c.srli	x15,0x2	 x15:0x3bbbf077 x15=0x0eeefc1d
       12482000	       522	800001d6	3bb79073	csrrw	x0,pmpaddr11,x15	 x15:0x0eeefc1d  x0=0x00000000
       12722000	       534	800001da	0f0f17b7	lui	x15,0xf0f1	 x15=0x0f0f1000
       12742000	       535	800001de	f0f78793	addi	x15,x15,-241	 x15:0x0f0f1000 x15=0x0f0f0f0f
       12862000	       541	800001e2	3a279073	csrrw	x0,pmpcfg2,x15	 x15:0x0f0f0f0f  x0=0x00000000
       12962000	       546	800001e6	00003797	auipc	x15,0x3	 x15=0x800031e6
       12982000	       547	800001ea	2d678793	addi	x15,x15,726	 x15:0x800031e6 x15=0x800034bc
       13262000	       561	800001ee	ccccdf37	lui	x30,0xccccd	 x30=0xccccd000
       13682000	       582	800001f2	cccf0f13	addi	x30,x30,-820	 x30:0xccccd000 x30=0xcccccccc
       13702000	       583	800001f6	97fa	c.add	x15,x30	 x15:0x800034bc x30:0xcccccccc x15=0x4ccd0188
       13722000	       584	800001f8	8389	c.srli	x15,0x2	 x15:0x4ccd0188 x15=0x13334062
       13862000	       591	800001fa	3bc79073	csrrw	x0,pmpaddr12,x15	 x15:0x13334062  x0=0x00000000
       14002000	       598	800001fe	00003797	auipc	x15,0x3	 x15=0x800031fe
       14022000	       599	80000202	2be78793	addi	x15,x15,702	 x15:0x800031fe x15=0x800034bc
       14202000	       608	80000206	ddddef37	lui	x30,0xdddde	 x30=0xdddde000
       14222000	       609	8000020a	dddf0f13	addi	x30,x30,-547	 x30:0xdddde000 x30=0xdddddddd
       14242000	       610	8000020e	97fa	c.add	x15,x30	 x15:0x800034bc x30:0xdddddddd x15=0x5dde1299
       14262000	       611	80000210	8389	c.srli	x15,0x2	 x15:0x5dde1299 x15=0x177784a6
       14282000	       612	80000212	3bd79073	csrrw	x0,pmpaddr13,x15	 x15:0x177784a6  x0=0x00000000
       14342000	       615	80000216	00003797	auipc	x15,0x3	 x15=0x80003216
       14362000	       616	8000021a	2a678793	addi	x15,x15,678	 x15:0x80003216 x15=0x800034bc
       14502000	       623	8000021e	eeeeff37	lui	x30,0xeeeef	 x30=0xeeeef000
       14582000	       627	80000222	eeef0f13	addi	x30,x30,-274	 x30:0xeeeef000 x30=0xeeeeeeee
       14602000	       628	80000226	97fa	c.add	x15,x30	 x15:0x800034bc x30:0xeeeeeeee x15=0x6eef23aa
       14662000	       631	80000228	8389	c.srli	x15,0x2	 x15:0x6eef23aa x15=0x1bbbc8ea
       14702000	       633	8000022a	3be79073	csrrw	x0,pmpaddr14,x15	 x15:0x1bbbc8ea  x0=0x00000000
       15022000	       649	8000022e	00003797	auipc	x15,0x3	 x15=0x8000322e
       15442000	       670	80000232	28e78793	addi	x15,x15,654	 x15:0x8000322e x15=0x800034bc
       15462000	       671	80000236	fff00f13	addi	x30,x0,-1	  x0:0x00000000 x30=0xffffffff
       15482000	       672	8000023a	97fa	c.add	x15,x30	 x15:0x800034bc x30:0xffffffff x15=0x800034bb
       15662000	       681	8000023c	8389	c.srli	x15,0x2	 x15:0x800034bb x15=0x20000d2e
       15702000	       683	8000023e	3bf79073	csrrw	x0,pmpaddr15,x15	 x15:0x20000d2e  x0=0x00000000
       15762000	       686	80000242	0f0f17b7	lui	x15,0xf0f1	 x15=0x0f0f1000
       15782000	       687	80000246	f0f78793	addi	x15,x15,-241	 x15:0x0f0f1000 x15=0x0f0f0f0f
       15802000	       688	8000024a	3a379073	csrrw	x0,pmpcfg3,x15	 x15:0x0f0f0f0f  x0=0x00000000
       16202000	       708	8000024e	00000f17	auipc	x30,0x0	 x30=0x8000024e
       16222000	       709	80000252	058f0f13	addi	x30,x30,88	 x30:0x8000024e x30=0x800002a6
       16242000	       710	80000256	341f1073	csrrw	x0,mepc,x30	 x30:0x800002a6  x0=0x00000000
       16262000	       711	8000025a	7c00d073	csrrwi	x0,0x7c0,1	  x0=0x00000000
       16322000	       714	8000025e	6f09	c.lui	x30,0x2	 x30=0x00002000
       16622000	       729	80000260	800f0f13	addi	x30,x30,-2048	 x30:0x00002000 x30=0x00001800
       16682000	       732	80000264	300f1073	csrrw	x0,mstatus,x30	 x30:0x00001800  x0=0x00000000
       17062000	       751	80000268	4f01	c.li	x30,0	 x30=0x00000000
       17442000	       770	8000026a	304f1073	csrrw	x0,mie,x30	 x30:0x00000000  x0=0x00000000
       17502000	       773	8000026e	90000c37	lui	x24,0x90000	 x24=0x90000000
       17522000	       774	80000272	1c71	c.addi	x24,-4	 x24:0x90000000 x24=0x8ffffffc
       17882000	       792	80000274	30000f13	addi	x30,x0,768	  x0:0x00000000 x30=0x00000300
       17902000	       793	80000278	0f22	c.slli	x30,0x8	 x30:0x00000300 x30=0x00030000
       17922000	       794	8000027a	0f0d	c.addi	x30,3	 x30:0x00030000 x30=0x00030003
       18382000	       817	8000027c	01ec2023	sw	x30,0(x24)	 x24:0x8ffffffc x30:0x00030003 PA:0x8ffffffc store:0x00030003 load:0xffffffff
       18402000	       818	80000280	30002f73	csrrs	x30,mstatus,x0	  x0:0x00000000 x30=0x00001800
       18982000	       847	80000284	01ec2023	sw	x30,0(x24)	 x24:0x8ffffffc x30:0x00001800 PA:0x8ffffffc store:0x00001800 load:0xffffffff
       19002000	       848	80000288	90000c37	lui	x24,0x90000	 x24=0x90000000
       19022000	       849	8000028c	1c71	c.addi	x24,-4	 x24:0x90000000 x24=0x8ffffffc
       19042000	       850	8000028e	30400f13	addi	x30,x0,772	  x0:0x00000000 x30=0x00000304
       19062000	       851	80000292	0f22	c.slli	x30,0x8	 x30:0x00000304 x30=0x00030400
       19082000	       852	80000294	0f0d	c.addi	x30,3	 x30:0x00030400 x30=0x00030403
       19242000	       860	80000296	01ec2023	sw	x30,0(x24)	 x24:0x8ffffffc x30:0x00030403 PA:0x8ffffffc store:0x00030403 load:0xffffffff
       19262000	       861	8000029a	30402f73	csrrs	x30,mie,x0	  x0:0x00000000 x30=0x00000000
       19722000	       884	8000029e	01ec2023	sw	x30,0(x24)	 x24:0x8ffffffc x30:0x00000000 PA:0x8ffffffc store:0x00000000 load:0xffffffff
       19742000	       885	800002a2	30200073	mret	
       19822000	       889	800002a6	00200013	addi	x0,x0,2	  x0:0x00000000  x0=0x00000000
       19842000	       890	800002aa	800000b7	lui	x1,0x80000	  x1=0x80000000
       19862000	       891	800002ae	4121	c.li	x2,8	  x2=0x00000008
       21062000	       951	800002b0	fb2c31b7	lui	x3,0xfb2c3	  x3=0xfb2c3000
       21262000	       961	800002b4	ec418193	addi	x3,x3,-316	  x3:0xfb2c3000  x3=0xfb2c2ec4
       21462000	       971	800002b8	fadcf237	lui	x4,0xfadcf	  x4=0xfadcf000
       21482000	       972	800002bc	87920213	addi	x4,x4,-1927	  x4:0xfadcf000  x4=0xfadce879
       21502000	       973	800002c0	80000337	lui	x6,0x80000	  x6=0x80000000
       21522000	       974	800002c4	43bd	c.li	x7,15	  x7=0x0000000f
       21842000	       990	800002c6	834b0437	lui	x8,0x834b0	  x8=0x834b0000
       21862000	       991	800002ca	f3d40413	addi	x8,x8,-195	  x8:0x834b0000  x8=0x834aff3d
       21882000	       992	800002ce	4481	c.li	x9,0	  x9=0x00000000
       21902000	       993	800002d0	80000537	lui	x10,0x80000	 x10=0x80000000
       21922000	       994	800002d4	fc76e5b7	lui	x11,0xfc76e	 x11=0xfc76e000
       21942000	       995	800002d8	4c958593	addi	x11,x11,1225	 x11:0xfc76e000 x11=0xfc76e4c9
       22122000	      1004	800002dc	80000637	lui	x12,0x80000	 x12=0x80000000
       22142000	      1005	800002e0	4681	c.li	x13,0	 x13=0x00000000
       22162000	      1006	800002e2	b76a4737	lui	x14,0xb76a4	 x14=0xb76a4000
       22342000	      1015	800002e6	cb870713	addi	x14,x14,-840	 x14:0xb76a4000 x14=0xb76a3cb8
       22362000	      1016	800002ea	4781	c.li	x15,0	 x15=0x00000000
       22382000	      1017	800002ec	f5e2d837	lui	x16,0xf5e2d	 x16=0xf5e2d000
       22502000	      1023	800002f0	1bd80813	addi	x16,x16,445	 x16:0xf5e2d000 x16=0xf5e2d1bd
       22662000	      1031	800002f4	4881	c.li	x17,0	 x17=0x00000000
       22702000	      1033	800002f6	f8439937	lui	x18,0xf8439	 x18=0xf8439000
       22782000	      1037	800002fa	4fe90913	addi	x18,x18,1278	 x18:0xf8439000 x18=0xf84394fe
       22802000	      1038	800002fe	800009b7	lui	x19,0x80000	 x19=0x80000000
       22822000	      1039	80000302	4a01	c.li	x20,0	 x20=0x00000000
       22922000	      1044	80000304	fbac3ab7	lui	x21,0xfbac3	 x21=0xfbac3000
       23122000	      1054	80000308	d00a8a93	addi	x21,x21,-768	 x21:0xfbac3000 x21=0xfbac2d00
       23142000	      1055	8000030c	4b01	c.li	x22,0	 x22=0x00000000
       23362000	      1066	8000030e	46a94c37	lui	x24,0x46a94	 x24=0x46a94000
       23482000	      1072	80000312	8a7c0c13	addi	x24,x24,-1881	 x24:0x46a94000 x24=0x46a938a7
       23682000	      1082	80000316	80000cb7	lui	x25,0x80000	 x25=0x80000000
       23842000	      1090	8000031a	f9271d37	lui	x26,0xf9271	 x26=0xf9271000
       23982000	      1097	8000031e	2f8d0d13	addi	x26,x26,760	 x26:0xf9271000 x26=0xf92712f8
       24382000	      1117	80000322	a4a80db7	lui	x27,0xa4a80	 x27=0xa4a80000
       24802000	      1138	80000326	b50d8d93	addi	x27,x27,-1200	 x27:0xa4a80000 x27=0xa4a7fb50
       24822000	      1139	8000032a	80000e37	lui	x28,0x80000	 x28=0x80000000
       24842000	      1140	8000032e	80000eb7	lui	x29,0x80000	 x29=0x80000000
       24862000	      1141	80000332	4f35	c.li	x30,13	 x30=0x0000000d
       25262000	      1161	80000334	4fad	c.li	x31,11	 x31=0x0000000b
       25682000	      1182	80000336	00022b97	auipc	x23,0x22	 x23=0x80022336
       25942000	      1195	8000033a	b2eb8b93	addi	x23,x23,-1234	 x23:0x80022336 x23=0x80021e64
       25962000	      1196	8000033e	90000c37	lui	x24,0x90000	 x24=0x90000000
       25982000	      1197	80000342	1c71	c.addi	x24,-4	 x24:0x90000000 x24=0x8ffffffc
       26002000	      1198	80000344	4f01	c.li	x30,0	 x30=0x00000000
       26022000	      1199	80000346	0f22	c.slli	x30,0x8	 x30:0x00000000 x30=0x00000000
       26102000	      1203	80000348	000f0f13	addi	x30,x30,0	 x30:0x00000000 x30=0x00000000
       26422000	      1219	8000034c	01ec2023	sw	x30,0(x24)	 x24:0x8ffffffc x30:0x00000000 PA:0x8ffffffc store:0x00000000 load:0xffffffff
       26442000	      1220	80000350	16c0306f	jal	x0,800034bc	  x0=0x00000000
       27742000	      1285	800034bc	778ae013	ori	x0,x21,1912	 x21:0xfbac2d00  x0=0x00000000
       28682000	      1332	800034c0	0393d5b3	divu	x11,x7,x25	  x7:0x0000000f x25:0x80000000 x11=0x00000000
       28702000	      1333	800034c4	577d	c.li	x14,-1	 x14=0xffffffff
       28722000	      1334	800034c6	9e6e	c.add	x28,x27	 x28:0x80000000 x27:0xa4a7fb50 x28=0x24a7fb50
       28742000	      1335	800034c8	7191f013	andi	x0,x3,1817	  x3:0xfb2c2ec4  x0=0x00000000
       28762000	      1336	800034cc	1031f493	andi	x9,x3,259	  x3:0xfb2c2ec4  x9=0x00000000
       28782000	      1337	800034d0	b830db73	csrrwi	x22,mhpmcounter3h,1	 x22=0x00000000
       28842000	      1340	800034d4	b8301473	csrrw	x8,mhpmcounter3h,x0	  x0:0x00000000  x8=0x00000000
       28962000	      1346	800034d8	b8306473	csrrsi	x8,mhpmcounter3h,0	  x8=0x00000000
       28982000	      1347	800034dc	4b4d	c.li	x22,19	 x22=0x00000013
       29002000	      1348	800034de	0130bb33	sltu	x22,x1,x19	  x1:0x80000000 x19:0x80000000 x22=0x00000000
       29022000	      1349	800034e2	8dfd	c.and	x11,x15	 x11:0x00000000 x15:0x00000000 x11=0x00000000
       29062000	      1351	800034e4	03eb5b33	divu	x22,x22,x30	 x22:0x00000000 x30:0x00000000 x22=0xffffffff
       29082000	      1352	800034e8	e4defc13	andi	x24,x29,-435	 x29:0x80000000 x24=0x80000000
       29102000	      1353	800034ec	0001	c.addi	x0,0	  x0:0x00000000  x0=0x00000000
       29122000	      1354	800034ee	0001	c.addi	x0,0	  x0:0x00000000  x0=0x00000000
       30242000	      1410	800034f0	0387e4b3	rem	x9,x15,x24	 x15:0x00000000 x24:0x80000000  x9=0x00000000
       30262000	      1411	800034f4	01f6e033	or	x0,x13,x31	 x13:0x00000000 x31:0x0000000b  x0=0x00000000
       30282000	      1412	800034f8	0001	c.addi	x0,0	  x0:0x00000000  x0=0x00000000
       30302000	      1413	800034fa	06416463	bltu	x2,x4,80003562	  x2:0x00000008  x4:0xfadce879
       30662000	      1431	80003562	98cebc93	sltiu	x25,x29,-1652	 x29:0x80000000 x25=0x00000001
       30682000	      1432	80003566	00dd9093	slli	x1,x27,0xd	 x27:0xa4a7fb50  x1=0xff6a0000
       30702000	      1433	8000356a	00c41513	slli	x10,x8,0xc	  x8:0x00000000 x10=0x00000000
       30722000	      1434	8000356e	8f79	c.and	x14,x14	 x14:0xffffffff x14:0xffffffff x14=0xffffffff
       30742000	      1435	80003570	6d11	c.lui	x26,0x4	 x26=0x00004000
       31482000	      1472	80003572	027cc0b3	div	x1,x25,x7	 x25:0x00000001  x7:0x0000000f  x1=0x00000000
       31502000	      1473	80003576	8d39	c.xor	x10,x14	 x10:0x00000000 x14:0xffffffff x10=0xffffffff
       31522000	      1474	80003578	417cde93	srai	x29,x25,0x17	 x25:0x00000001 x29=0x00000000
       31542000	      1475	8000357c	0584	c.addi4spn	x9,x2,704	  x9=0x000002c8
       31562000	      1476	8000357e	9f89f117	auipc	x2,0x9f89f	  x2=0x1f8a257e
       31582000	      1477	80003582	23aa4513	xori	x10,x20,570	 x20:0x00000000 x10=0x0000023a
       31602000	      1478	80003586	7417bc13	sltiu	x24,x15,1857	 x15:0x00000000 x24=0x00000001
       31622000	      1479	8000358a	0001	c.addi	x0,0	  x0:0x00000000  x0=0x00000000
       31642000	      1480	8000358c	02574763	blt	x14,x5,800035ba	 x14:0xffffffff  x5:0x80025ce4
       31862000	      1491	80003590	9f7a	c.add	x30,x30	 x30:0x00000000 x30:0x00000000 x30=0x00000000
       31882000	      1492	80003592	f13de573	csrrsi	x0,mimpid,27	  x0=0x00000000
       32542000	      1525	80002700	0800006f	jal	x0,80002780	  x0=0x00000000
       33782000	      1587	80002780	12f1	c.addi	x5,-4	  x5:0x80025ce4  x5=0x80025ce0
       34142000	      1605	80002782	0172a023	sw	x23,0(x5)	  x5:0x80025ce0 x23:0x80021e64 PA:0x80025ce0 store:0x80021e64 load:0xffffffff
       34202000	      1608	80002786	00028bb3	add	x23,x5,x0	  x5:0x80025ce0  x0:0x00000000 x23=0x80025ce0
       34482000	      1622	8000278a	f80b8b93	addi	x23,x23,-128	 x23:0x80025ce0 x23=0x80025c60
       34842000	      1640	8000278e	001ba223	sw	x1,4(x23)	 x23:0x80025c60  x1:0x00000000 PA:0x80025c64 store:0x00000000 load:0xffffffff
       34902000	      1643	80002792	002ba423	sw	x2,8(x23)	 x23:0x80025c60  x2:0x1f8a257e PA:0x80025c68 store:0x1f8a257e load:0xffffffff
       35242000	      1660	80002796	003ba623	sw	x3,12(x23)	 x23:0x80025c60  x3:0xfb2c2ec4 PA:0x80025c6c store:0xfb2c2ec4 load:0xffffffff
       35342000	      1665	8000279a	004ba823	sw	x4,16(x23)	 x23:0x80025c60  x4:0xfadce879 PA:0x80025c70 store:0xfadce879 load:0xffffffff
       35402000	      1668	8000279e	005baa23	sw	x5,20(x23)	 x23:0x80025c60  x5:0x80025ce0 PA:0x80025c74 store:0x80025ce0 load:0xffffffff
       35442000	      1670	800027a2	006bac23	sw	x6,24(x23)	 x23:0x80025c60  x6:0x80000000 PA:0x80025c78 store:0x80000000 load:0xffffffff
       35542000	      1675	800027a6	007bae23	sw	x7,28(x23)	 x23:0x80025c60  x7:0x0000000f PA:0x80025c7c store:0x0000000f load:0xffffffff
       36122000	      1704	800027aa	028ba023	sw	x8,32(x23)	 x23:0x80025c60  x8:0x00000000 PA:0x80025c80 store:0x00000000 load:0xffffffff
       36242000	      1710	800027ae	029ba223	sw	x9,36(x23)	 x23:0x80025c60  x9:0x000002c8 PA:0x80025c84 store:0x000002c8 load:0xffffffff
       36402000	      1718	800027b2	02aba423	sw	x10,40(x23)	 x23:0x80025c60 x10:0x0000023a PA:0x80025c88 store:0x0000023a load:0xffffffff
       36422000	      1719	800027b6	02bba623	sw	x11,44(x23)	 x23:0x80025c60 x11:0x00000000 PA:0x80025c8c store:0x00000000 load:0xffffffff
       36442000	      1720	800027ba	02cba823	sw	x12,48(x23)	 x23:0x80025c60 x12:0x80000000 PA:0x80025c90 store:0x80000000 load:0xffffffff
       36642000	      1730	800027be	02dbaa23	sw	x13,52(x23)	 x23:0x80025c60 x13:0x00000000 PA:0x80025c94 store:0x00000000 load:0xffffffff
       36702000	      1733	800027c2	02ebac23	sw	x14,56(x23)	 x23:0x80025c60 x14:0xffffffff PA:0x80025c98 store:0xffffffff load:0xffffffff
       36922000	      1744	800027c6	02fbae23	sw	x15,60(x23)	 x23:0x80025c60 x15:0x00000000 PA:0x80025c9c store:0x00000000 load:0xffffffff
       37342000	      1765	800027ca	050ba023	sw	x16,64(x23)	 x23:0x80025c60 x16:0xf5e2d1bd PA:0x80025ca0 store:0xf5e2d1bd load:0xffffffff
       37462000	      1771	800027ce	051ba223	sw	x17,68(x23)	 x23:0x80025c60 x17:0x00000000 PA:0x80025ca4 store:0x00000000 load:0xffffffff
       37882000	      1792	800027d2	052ba423	sw	x18,72(x23)	 x23:0x80025c60 x18:0xf84394fe PA:0x80025ca8 store:0xf84394fe load:0xffffffff
       38342000	      1815	800027d6	053ba623	sw	x19,76(x23)	 x23:0x80025c60 x19:0x80000000 PA:0x80025cac store:0x80000000 load:0xffffffff
       38802000	      1838	800027da	054ba823	sw	x20,80(x23)	 x23:0x80025c60 x20:0x00000000 PA:0x80025cb0 store:0x00000000 load:0xffffffff
       39062000	      1851	800027de	055baa23	sw	x21,84(x23)	 x23:0x80025c60 x21:0xfbac2d00 PA:0x80025cb4 store:0xfbac2d00 load:0xffffffff
       39242000	      1860	800027e2	056bac23	sw	x22,88(x23)	 x23:0x80025c60 x22:0xffffffff PA:0x80025cb8 store:0xffffffff load:0xffffffff
       39322000	      1864	800027e6	057bae23	sw	x23,92(x23)	 x23:0x80025c60 x23:0x80025c60 PA:0x80025cbc store:0x80025c60 load:0xffffffff
       47862000	      2291	800027ea	078ba023	sw	x24,96(x23)	 x23:0x80025c60 x24:0x00000001 PA:0x80025cc0 store:0x00000001 load:0xffffffff
       47882000	      2292	800027ee	079ba223	sw	x25,100(x23)	 x23:0x80025c60 x25:0x00000001 PA:0x80025cc4 store:0x00000001 load:0xffffffff
       47902000	      2293	800027f2	07aba423	sw	x26,104(x23)	 x23:0x80025c60 x26:0x00004000 PA:0x80025cc8 store:0x00004000 load:0xffffffff
       48042000	      2300	800027f6	07bba623	sw	x27,108(x23)	 x23:0x80025c60 x27:0xa4a7fb50 PA:0x80025ccc store:0xa4a7fb50 load:0xffffffff
       48102000	      2303	800027fa	07cba823	sw	x28,112(x23)	 x23:0x80025c60 x28:0x24a7fb50 PA:0x80025cd0 store:0x24a7fb50 load:0xffffffff
       48122000	      2304	800027fe	07dbaa23	sw	x29,116(x23)	 x23:0x80025c60 x29:0x00000000 PA:0x80025cd4 store:0x00000000 load:0xffffffff
       48202000	      2308	80002802	07ebac23	sw	x30,120(x23)	 x23:0x80025c60 x30:0x00000000 PA:0x80025cd8 store:0x00000000 load:0xffffffff
       48402000	      2318	80002806	07fbae23	sw	x31,124(x23)	 x23:0x80025c60 x31:0x0000000b PA:0x80025cdc store:0x0000000b load:0xffffffff
       48522000	      2324	8000280a	000b82b3	add	x5,x23,x0	 x23:0x80025c60  x0:0x00000000  x5=0x80025c60
       48942000	      2345	8000280e	90000c37	lui	x24,0x90000	 x24=0x90000000
       48962000	      2346	80002812	1c71	c.addi	x24,-4	 x24:0x90000000 x24=0x8ffffffc
       48982000	      2347	80002814	4f21	c.li	x30,8	 x30=0x00000008
       49002000	      2348	80002816	0f22	c.slli	x30,0x8	 x30:0x00000008 x30=0x00000800
       49022000	      2349	80002818	000f0f13	addi	x30,x30,0	 x30:0x00000800 x30=0x00000800
       49242000	      2360	8000281c	01ec2023	sw	x30,0(x24)	 x24:0x8ffffffc x30:0x00000800 PA:0x8ffffffc store:0x00000800 load:0xffffffff
       49262000	      2361	80002820	34102f73	csrrs	x30,mepc,x0	  x0:0x00000000 x30=0x80003592
       49282000	      2362	80002824	34202f73	csrrs	x30,mcause,x0	  x0:0x00000000 x30=0x00000002
       49562000	      2376	80002828	4c0d	c.li	x24,3	 x24=0x00000003
       49582000	      2377	8000282a	018f1463	bne	x30,x24,80002832	 x30:0x00000002 x24:0x00000003
       50482000	      2422	80002832	4c21	c.li	x24,8	 x24=0x00000008
       50522000	      2424	80002834	058f0d63	beq	x30,x24,8000288e	 x30:0x00000002 x24:0x00000008
       50762000	      2436	80002838	4c25	c.li	x24,9	 x24=0x00000009
       51182000	      2457	8000283a	058f0a63	beq	x30,x24,8000288e	 x30:0x00000002 x24:0x00000009
       51202000	      2458	8000283e	4c2d	c.li	x24,11	 x24=0x0000000b
       51222000	      2459	80002840	058f0763	beq	x30,x24,8000288e	 x30:0x00000002 x24:0x0000000b
       51582000	      2477	80002844	4c05	c.li	x24,1	 x24=0x00000001
       51722000	      2484	80002846	358f0363	beq	x30,x24,80002b8c	 x30:0x00000002 x24:0x00000001
       51742000	      2485	8000284a	4c15	c.li	x24,5	 x24=0x00000005
       51922000	      2494	8000284c	638f0a63	beq	x30,x24,80002e80	 x30:0x00000002 x24:0x00000005
       51942000	      2495	80002850	4c1d	c.li	x24,7	 x24=0x00000007
       51962000	      2496	80002852	158f0ce3	beq	x30,x24,800031aa	 x30:0x00000002 x24:0x00000007
       51982000	      2497	80002856	4c31	c.li	x24,12	 x24=0x0000000c
       52142000	      2505	80002858	018f1463	bne	x30,x24,80002860	 x30:0x00000002 x24:0x0000000c
       52762000	      2536	80002860	4c35	c.li	x24,13	 x24=0x0000000d
       52782000	      2537	80002862	018f1463	bne	x30,x24,8000286a	 x30:0x00000002 x24:0x0000000d
       52822000	      2539	8000286a	4c3d	c.li	x24,15	 x24=0x0000000f
       52842000	      2540	8000286c	018f1463	bne	x30,x24,80002874	 x30:0x00000002 x24:0x0000000f
       54222000	      2609	80002874	4c09	c.li	x24,2	 x24=0x00000002
       54622000	      2629	80002876	018f1463	bne	x30,x24,8000287e	 x30:0x00000002 x24:0x00000002
       54822000	      2639	8000287a	3740906f	jal	x0,8000bbee	  x0=0x00000000
       55362000	      2666	8000bbee	90000c37	lui	x24,0x90000	 x24=0x90000000
       55382000	      2667	8000bbf2	1c71	c.addi	x24,-4	 x24:0x90000000 x24=0x8ffffffc
       55402000	      2668	8000bbf4	4f29	c.li	x30,10	 x30=0x0000000a
       55422000	      2669	8000bbf6	0f22	c.slli	x30,0x8	 x30:0x0000000a x30=0x00000a00
       55582000	      2677	8000bbf8	000f0f13	addi	x30,x30,0	 x30:0x00000a00 x30=0x00000a00
       56442000	      2720	8000bbfc	01ec2023	sw	x30,0(x24)	 x24:0x8ffffffc x30:0x00000a00 PA:0x8ffffffc store:0x00000a00 load:0xffffffff
       56462000	      2721	8000bc00	90000c37	lui	x24,0x90000	 x24=0x90000000
       56482000	      2722	8000bc04	1c71	c.addi	x24,-4	 x24:0x90000000 x24=0x8ffffffc
       56502000	      2723	8000bc06	34200f13	addi	x30,x0,834	  x0:0x00000000 x30=0x00000342
       56522000	      2724	8000bc0a	0f22	c.slli	x30,0x8	 x30:0x00000342 x30=0x00034200
       56542000	      2725	8000bc0c	0f0d	c.addi	x30,3	 x30:0x00034200 x30=0x00034203
       56942000	      2745	8000bc0e	01ec2023	sw	x30,0(x24)	 x24:0x8ffffffc x30:0x00034203 PA:0x8ffffffc store:0x00034203 load:0xffffffff
       56962000	      2746	8000bc12	34202f73	csrrs	x30,mcause,x0	  x0:0x00000000 x30=0x00000002
       57222000	      2759	8000bc16	01ec2023	sw	x30,0(x24)	 x24:0x8ffffffc x30:0x00000002 PA:0x8ffffffc store:0x00000002 load:0xffffffff
       57242000	      2760	8000bc1a	34102f73	csrrs	x30,mepc,x0	  x0:0x00000000 x30=0x80003592
       57262000	      2761	8000bc1e	0f11	c.addi	x30,4	 x30:0x80003592 x30=0x80003596
       57282000	      2762	8000bc20	341f1073	csrrw	x0,mepc,x30	 x30:0x80003596  x0=0x00000000
       57622000	      2779	8000bc24	00028bb3	add	x23,x5,x0	  x5:0x80025c60  x0:0x00000000 x23=0x80025c60
       57782000	      2787	8000bc28	004ba083	lw	x1,4(x23)	 x23:0x80025c60  x1=0x00000000 PA:0x80025c64 load:0x00000000
       57982000	      2797	8000bc2c	008ba103	lw	x2,8(x23)	 x23:0x80025c60  x2=0x1f8a257e PA:0x80025c68 load:0x1f8a257e
       58142000	      2805	8000bc30	00cba183	lw	x3,12(x23)	 x23:0x80025c60  x3=0xfb2c2ec4 PA:0x80025c6c load:0xfb2c2ec4
       58402000	      2818	8000bc34	010ba203	lw	x4,16(x23)	 x23:0x80025c60  x4=0xfadce879 PA:0x80025c70 load:0xfadce879
       58642000	      2830	8000bc38	014ba283	lw	x5,20(x23)	 x23:0x80025c60  x5=0x80025ce0 PA:0x80025c74 load:0x80025ce0
       58722000	      2834	8000bc3c	018ba303	lw	x6,24(x23)	 x23:0x80025c60  x6=0x80000000 PA:0x80025c78 load:0x80000000
       58742000	      2835	8000bc40	01cba383	lw	x7,28(x23)	 x23:0x80025c60  x7=0x0000000f PA:0x80025c7c load:0x0000000f
       58782000	      2837	8000bc44	020ba403	lw	x8,32(x23)	 x23:0x80025c60  x8=0x00000000 PA:0x80025c80 load:0x00000000
       58802000	      2838	8000bc48	024ba483	lw	x9,36(x23)	 x23:0x80025c60  x9=0x000002c8 PA:0x80025c84 load:0x000002c8
       59022000	      2849	8000bc4c	028ba503	lw	x10,40(x23)	 x23:0x80025c60 x10=0x0000023a PA:0x80025c88 load:0x0000023a
       59222000	      2859	8000bc50	02cba583	lw	x11,44(x23)	 x23:0x80025c60 x11=0x00000000 PA:0x80025c8c load:0x00000000
       59242000	      2860	8000bc54	030ba603	lw	x12,48(x23)	 x23:0x80025c60 x12=0x80000000 PA:0x80025c90 load:0x80000000
       59702000	      2883	8000bc58	034ba683	lw	x13,52(x23)	 x23:0x80025c60 x13=0x00000000 PA:0x80025c94 load:0x00000000
       60062000	      2901	8000bc5c	038ba703	lw	x14,56(x23)	 x23:0x80025c60 x14=0xffffffff PA:0x80025c98 load:0xffffffff
       60502000	      2923	8000bc60	03cba783	lw	x15,60(x23)	 x23:0x80025c60 x15=0x00000000 PA:0x80025c9c load:0x00000000
       60762000	      2936	8000bc64	040ba803	lw	x16,64(x23)	 x23:0x80025c60 x16=0xf5e2d1bd PA:0x80025ca0 load:0xf5e2d1bd
       60782000	      2937	8000bc68	044ba883	lw	x17,68(x23)	 x23:0x80025c60 x17=0x00000000 PA:0x80025ca4 load:0x00000000
       60802000	      2938	8000bc6c	048ba903	lw	x18,72(x23)	 x23:0x80025c60 x18=0xf84394fe PA:0x80025ca8 load:0xf84394fe
       60822000	      2939	8000bc70	04cba983	lw	x19,76(x23)	 x23:0x80025c60 x19=0x80000000 PA:0x80025cac load:0x80000000
       60842000	      2940	8000bc74	050baa03	lw	x20,80(x23)	 x23:0x80025c60 x20=0x00000000 PA:0x80025cb0 load:0x00000000
       61442000	      2970	8000bc78	054baa83	lw	x21,84(x23)	 x23:0x80025c60 x21=0xfbac2d00 PA:0x80025cb4 load:0xfbac2d00
       61502000	      2973	8000bc7c	058bab03	lw	x22,88(x23)	 x23:0x80025c60 x22=0xffffffff PA:0x80025cb8 load:0xffffffff
       61522000	      2974	8000bc80	05cbab83	lw	x23,92(x23)	 x23:0x80025c60 x23=0x80025c60 PA:0x80025cbc load:0x80025c60
       61562000	      2976	8000bc84	060bac03	lw	x24,96(x23)	 x23:0x80025c60 x24=0x00000001 PA:0x80025cc0 load:0x00000001
       61802000	      2988	8000bc88	064bac83	lw	x25,100(x23)	 x23:0x80025c60 x25=0x00000001 PA:0x80025cc4 load:0x00000001
       61822000	      2989	8000bc8c	068bad03	lw	x26,104(x23)	 x23:0x80025c60 x26=0x00004000 PA:0x80025cc8 load:0x00004000
       61842000	      2990	8000bc90	06cbad83	lw	x27,108(x23)	 x23:0x80025c60 x27=0xa4a7fb50 PA:0x80025ccc load:0xa4a7fb50
       61862000	      2991	8000bc94	070bae03	lw	x28,112(x23)	 x23:0x80025c60 x28=0x24a7fb50 PA:0x80025cd0 load:0x24a7fb50
       62062000	      3001	8000bc98	074bae83	lw	x29,116(x23)	 x23:0x80025c60 x29=0x00000000 PA:0x80025cd4 load:0x00000000
       62442000	      3020	8000bc9c	078baf03	lw	x30,120(x23)	 x23:0x80025c60 x30=0x00000000 PA:0x80025cd8 load:0x00000000
       62702000	      3033	8000bca0	07cbaf83	lw	x31,124(x23)	 x23:0x80025c60 x31=0x0000000b PA:0x80025cdc load:0x0000000b
       62722000	      3034	8000bca4	080b8b93	addi	x23,x23,128	 x23:0x80025c60 x23=0x80025ce0
       62742000	      3035	8000bca8	000b82b3	add	x5,x23,x0	 x23:0x80025ce0  x0:0x00000000  x5=0x80025ce0
       62802000	      3038	8000bcac	0002ab83	lw	x23,0(x5)	  x5:0x80025ce0 x23=0x80021e64 PA:0x80025ce0 load:0x80021e64
       62822000	      3039	8000bcb0	0291	c.addi	x5,4	  x5:0x80025ce0  x5=0x80025ce4
       62842000	      3040	8000bcb2	30200073	mret	
       62902000	      3043	80003596	11fd	c.addi	x3,-1	  x3:0xfb2c2ec4  x3=0xfb2c2ec3
       62922000	      3044	80003598	01738fb3	add	x31,x7,x23	  x7:0x0000000f x23:0x80021e64 x31=0x80021e73
       62942000	      3045	8000359c	1610	c.addi4spn	x12,x2,800	 x12=0x1f8a289e
       62962000	      3046	8000359e	8cf9	c.and	x9,x14	  x9:0x000002c8 x14:0xffffffff  x9=0x000002c8
       62982000	      3047	800035a0	8851	c.andi	x8,20	  x8:0x00000000  x8=0x00000000
       63002000	      3048	800035a2	8c09	c.sub	x8,x10	  x8:0x00000000 x10:0x0000023a  x8=0xfffffdc6
       63022000	      3049	800035a4	01f4f8b3	and	x17,x9,x31	  x9:0x000002c8 x31:0x80021e73 x17=0x00000240
       63522000	      3074	800035a8	9f6c6593	ori	x11,x24,-1546	 x24:0x00000001 x11=0xfffff9f7
       63922000	      3094	800035ac	40e98cb3	sub	x25,x19,x14	 x19:0x80000000 x14:0xffffffff x25=0x80000001
       63962000	      3096	800035b0	00c82a33	slt	x20,x16,x12	 x16:0xf5e2d1bd x12:0x1f8a289e x20=0x00000001
       63982000	      3097	800035b4	02ca0063	beq	x20,x12,800035d4	 x20:0x00000001 x12:0x1f8a289e
       64182000	      3107	800035b8	557d	c.li	x10,-1	 x10=0xffffffff
       64282000	      3112	800035ba	03863db3	mulhu	x27,x12,x24	 x12:0x1f8a289e x24:0x00000001 x27=0x00000000
       64302000	      3113	800035be	f152fa73	csrrci	x0,0xf15,5	  x0=0x00000000
       64362000	      3116	80002700	0800006f	jal	x0,80002780	  x0=0x00000000
       64422000	      3119	80002780	12f1	c.addi	x5,-4	  x5:0x80025ce4  x5=0x80025ce0
       64882000	      3142	80002782	0172a023	sw	x23,0(x5)	  x5:0x80025ce0 x23:0x80021e64 PA:0x80025ce0 store:0x80021e64 load:0xffffffff
       64902000	      3143	80002786	00028bb3	add	x23,x5,x0	  x5:0x80025ce0  x0:0x00000000 x23=0x80025ce0
       64922000	      3144	8000278a	f80b8b93	addi	x23,x23,-128	 x23:0x80025ce0 x23=0x80025c60
       64982000	      3147	8000278e	001ba223	sw	x1,4(x23)	 x23:0x80025c60  x1:0x00000000 PA:0x80025c64 store:0x00000000 load:0xffffffff
       65062000	      3151	80002792	002ba423	sw	x2,8(x23)	 x23:0x80025c60  x2:0x1f8a257e PA:0x80025c68 store:0x1f8a257e load:0xffffffff
       65122000	      3154	80002796	003ba623	sw	x3,12(x23)	 x23:0x80025c60  x3:0xfb2c2ec3 PA:0x80025c6c store:0xfb2c2ec3 load:0xffffffff
       65382000	      3167	8000279a	004ba823	sw	x4,16(x23)	 x23:0x80025c60  x4:0xfadce879 PA:0x80025c70 store:0xfadce879 load:0xffffffff
       65442000	      3170	8000279e	005baa23	sw	x5,20(x23)	 x23:0x80025c60  x5:0x80025ce0 PA:0x80025c74 store:0x80025ce0 load:0xffffffff
       65662000	      3181	800027a2	006bac23	sw	x6,24(x23)	 x23:0x80025c60  x6:0x80000000 PA:0x80025c78 store:0x80000000 load:0xffffffff
       65842000	      3190	800027a6	007bae23	sw	x7,28(x23)	 x23:0x80025c60  x7:0x0000000f PA:0x80025c7c store:0x0000000f load:0xffffffff
       65982000	      3197	800027aa	028ba023	sw	x8,32(x23)	 x23:0x80025c60  x8:0xfffffdc6 PA:0x80025c80 store:0xfffffdc6 load:0xffffffff
       66082000	      3202	800027ae	029ba223	sw	x9,36(x23)	 x23:0x80025c60  x9:0x000002c8 PA:0x80025c84 store:0x000002c8 load:0xffffffff
       66222000	      3209	800027b2	02aba423	sw	x10,40(x23)	 x23:0x80025c60 x10:0xffffffff PA:0x80025c88 store:0xffffffff load:0xffffffff
       66302000	      3213	800027b6	02bba623	sw	x11,44(x23)	 x23:0x80025c60 x11:0xfffff9f7 PA:0x80025c8c store:0xfffff9f7 load:0xffffffff
       66322000	      3214	800027ba	02cba823	sw	x12,48(x23)	 x23:0x80025c60 x12:0x1f8a289e PA:0x80025c90 store:0x1f8a289e load:0xffffffff
       66462000	      3221	800027be	02dbaa23	sw	x13,52(x23)	 x23:0x80025c60 x13:0x00000000 PA:0x80025c94 store:0x00000000 load:0xffffffff
       66522000	      3224	800027c2	02ebac23	sw	x14,56(x23)	 x23:0x80025c60 x14:0xffffffff PA:0x80025c98 store:0xffffffff load:0xffffffff
       66682000	      3232	800027c6	02fbae23	sw	x15,60(x23)	 x23:0x80025c60 x15:0x00000000 PA:0x80025c9c store:0x00000000 load:0xffffffff
       67062000	      3251	800027ca	050ba023	sw	x16,64(x23)	 x23:0x80025c60 x16:0xf5e2d1bd PA:0x80025ca0 store:0xf5e2d1bd load:0xffffffff
       67122000	      3254	800027ce	051ba223	sw	x17,68(x23)	 x23:0x80025c60 x17:0x00000240 PA:0x80025ca4 store:0x00000240 load:0xffffffff
       67282000	      3262	800027d2	052ba423	sw	x18,72(x23)	 x23:0x80025c60 x18:0xf84394fe PA:0x80025ca8 store:0xf84394fe load:0xffffffff
       67342000	      3265	800027d6	053ba623	sw	x19,76(x23)	 x23:0x80025c60 x19:0x80000000 PA:0x80025cac store:0x80000000 load:0xffffffff
       67762000	      3286	800027da	054ba823	sw	x20,80(x23)	 x23:0x80025c60 x20:0x00000001 PA:0x80025cb0 store:0x00000001 load:0xffffffff
       67822000	      3289	800027de	055baa23	sw	x21,84(x23)	 x23:0x80025c60 x21:0xfbac2d00 PA:0x80025cb4 store:0xfbac2d00 load:0xffffffff
       67882000	      3292	800027e2	056bac23	sw	x22,88(x23)	 x23:0x80025c60 x22:0xffffffff PA:0x80025cb8 store:0xffffffff load:0xffffffff
       68202000	      3308	800027e6	057bae23	sw	x23,92(x23)	 x23:0x80025c60 x23:0x80025c60 PA:0x80025cbc store:0x80025c60 load:0xffffffff
       68262000	      3311	800027ea	078ba023	sw	x24,96(x23)	 x23:0x80025c60 x24:0x00000001 PA:0x80025cc0 store:0x00000001 load:0xffffffff
       68322000	      3314	800027ee	079ba223	sw	x25,100(x23)	 x23:0x80025c60 x25:0x80000001 PA:0x80025cc4 store:0x80000001 load:0xffffffff
       68382000	      3317	800027f2	07aba423	sw	x26,104(x23)	 x23:0x80025c60 x26:0x00004000 PA:0x80025cc8 store:0x00004000 load:0xffffffff
       68482000	      3322	800027f6	07bba623	sw	x27,108(x23)	 x23:0x80025c60 x27:0x00000000 PA:0x80025ccc store:0x00000000 load:0xffffffff
       68942000	      3345	800027fa	07cba823	sw	x28,112(x23)	 x23:0x80025c60 x28:0x24a7fb50 PA:0x80025cd0 store:0x24a7fb50 load:0xffffffff
       69402000	      3368	800027fe	07dbaa23	sw	x29,116(x23)	 x23:0x80025c60 x29:0x00000000 PA:0x80025cd4 store:0x00000000 load:0xffffffff
       69842000	      3390	80002802	07ebac23	sw	x30,120(x23)	 x23:0x80025c60 x30:0x00000000 PA:0x80025cd8 store:0x00000000 load:0xffffffff
       70482000	      3422	80002806	07fbae23	sw	x31,124(x23)	 x23:0x80025c60 x31:0x80021e73 PA:0x80025cdc store:0x80021e73 load:0xffffffff
       70502000	      3423	8000280a	000b82b3	add	x5,x23,x0	 x23:0x80025c60  x0:0x00000000  x5=0x80025c60
       70522000	      3424	8000280e	90000c37	lui	x24,0x90000	 x24=0x90000000
       70542000	      3425	80002812	1c71	c.addi	x24,-4	 x24:0x90000000 x24=0x8ffffffc
       70562000	      3426	80002814	4f21	c.li	x30,8	 x30=0x00000008
       70582000	      3427	80002816	0f22	c.slli	x30,0x8	 x30:0x00000008 x30=0x00000800
       70602000	      3428	80002818	000f0f13	addi	x30,x30,0	 x30:0x00000800 x30=0x00000800
       70702000	      3433	8000281c	01ec2023	sw	x30,0(x24)	 x24:0x8ffffffc x30:0x00000800 PA:0x8ffffffc store:0x00000800 load:0xffffffff
       70722000	      3434	80002820	34102f73	csrrs	x30,mepc,x0	  x0:0x00000000 x30=0x800035be
       70742000	      3435	80002824	34202f73	csrrs	x30,mcause,x0	  x0:0x00000000 x30=0x00000002
       70762000	      3436	80002828	4c0d	c.li	x24,3	 x24=0x00000003
       70782000	      3437	8000282a	018f1463	bne	x30,x24,80002832	 x30:0x00000002 x24:0x00000003
       70822000	      3439	80002832	4c21	c.li	x24,8	 x24=0x00000008
       70842000	      3440	80002834	058f0d63	beq	x30,x24,8000288e	 x30:0x00000002 x24:0x00000008
       70862000	      3441	80002838	4c25	c.li	x24,9	 x24=0x00000009
       70882000	      3442	8000283a	058f0a63	beq	x30,x24,8000288e	 x30:0x00000002 x24:0x00000009
       70902000	      3443	8000283e	4c2d	c.li	x24,11	 x24=0x0000000b
       70922000	      3444	80002840	058f0763	beq	x30,x24,8000288e	 x30:0x00000002 x24:0x0000000b
       70942000	      3445	80002844	4c05	c.li	x24,1	 x24=0x00000001
       70962000	      3446	80002846	358f0363	beq	x30,x24,80002b8c	 x30:0x00000002 x24:0x00000001
       70982000	      3447	8000284a	4c15	c.li	x24,5	 x24=0x00000005
       71002000	      3448	8000284c	638f0a63	beq	x30,x24,80002e80	 x30:0x00000002 x24:0x00000005
       71022000	      3449	80002850	4c1d	c.li	x24,7	 x24=0x00000007
       71042000	      3450	80002852	158f0ce3	beq	x30,x24,800031aa	 x30:0x00000002 x24:0x00000007
       71062000	      3451	80002856	4c31	c.li	x24,12	 x24=0x0000000c
       71082000	      3452	80002858	018f1463	bne	x30,x24,80002860	 x30:0x00000002 x24:0x0000000c
       71122000	      3454	80002860	4c35	c.li	x24,13	 x24=0x0000000d
       71142000	      3455	80002862	018f1463	bne	x30,x24,8000286a	 x30:0x00000002 x24:0x0000000d
       71182000	      3457	8000286a	4c3d	c.li	x24,15	 x24=0x0000000f
       71202000	      3458	8000286c	018f1463	bne	x30,x24,80002874	 x30:0x00000002 x24:0x0000000f
       71242000	      3460	80002874	4c09	c.li	x24,2	 x24=0x00000002
       71262000	      3461	80002876	018f1463	bne	x30,x24,8000287e	 x30:0x00000002 x24:0x00000002
       71282000	      3462	8000287a	3740906f	jal	x0,8000bbee	  x0=0x00000000
       71342000	      3465	8000bbee	90000c37	lui	x24,0x90000	 x24=0x90000000
       71362000	      3466	8000bbf2	1c71	c.addi	x24,-4	 x24:0x90000000 x24=0x8ffffffc
       71382000	      3467	8000bbf4	4f29	c.li	x30,10	 x30=0x0000000a
       71402000	      3468	8000bbf6	0f22	c.slli	x30,0x8	 x30:0x0000000a x30=0x00000a00
       71422000	      3469	8000bbf8	000f0f13	addi	x30,x30,0	 x30:0x00000a00 x30=0x00000a00
       71882000	      3492	8000bbfc	01ec2023	sw	x30,0(x24)	 x24:0x8ffffffc x30:0x00000a00 PA:0x8ffffffc store:0x00000a00 load:0xffffffff
       71902000	      3493	8000bc00	90000c37	lui	x24,0x90000	 x24=0x90000000
       71922000	      3494	8000bc04	1c71	c.addi	x24,-4	 x24:0x90000000 x24=0x8ffffffc
       71942000	      3495	8000bc06	34200f13	addi	x30,x0,834	  x0:0x00000000 x30=0x00000342
       71962000	      3496	8000bc0a	0f22	c.slli	x30,0x8	 x30:0x00000342 x30=0x00034200
       71982000	      3497	8000bc0c	0f0d	c.addi	x30,3	 x30:0x00034200 x30=0x00034203
       72442000	      3520	8000bc0e	01ec2023	sw	x30,0(x24)	 x24:0x8ffffffc x30:0x00034203 PA:0x8ffffffc store:0x00034203 load:0xffffffff
       72462000	      3521	8000bc12	34202f73	csrrs	x30,mcause,x0	  x0:0x00000000 x30=0x00000002
       72802000	      3538	8000bc16	01ec2023	sw	x30,0(x24)	 x24:0x8ffffffc x30:0x00000002 PA:0x8ffffffc store:0x00000002 load:0xffffffff
       72822000	      3539	8000bc1a	34102f73	csrrs	x30,mepc,x0	  x0:0x00000000 x30=0x800035be
       72842000	      3540	8000bc1e	0f11	c.addi	x30,4	 x30:0x800035be x30=0x800035c2
       72862000	      3541	8000bc20	341f1073	csrrw	x0,mepc,x30	 x30:0x800035c2  x0=0x00000000
       72882000	      3542	8000bc24	00028bb3	add	x23,x5,x0	  x5:0x80025c60  x0:0x00000000 x23=0x80025c60
       72942000	      3545	8000bc28	004ba083	lw	x1,4(x23)	 x23:0x80025c60  x1=0x00000000 PA:0x80025c64 load:0x00000000
       72962000	      3546	8000bc2c	008ba103	lw	x2,8(x23)	 x23:0x80025c60  x2=0x1f8a257e PA:0x80025c68 load:0x1f8a257e
       72982000	      3547	8000bc30	00cba183	lw	x3,12(x23)	 x23:0x80025c60  x3=0xfb2c2ec3 PA:0x80025c6c load:0xfb2c2ec3
       73082000	      3552	8000bc34	010ba203	lw	x4,16(x23)	 x23:0x80025c60  x4=0xfadce879 PA:0x80025c70 load:0xfadce879
       73142000	      3555	8000bc38	014ba283	lw	x5,20(x23)	 x23:0x80025c60  x5=0x80025ce0 PA:0x80025c74 load:0x80025ce0
       73542000	      3575	8000bc3c	018ba303	lw	x6,24(x23)	 x23:0x80025c60  x6=0x80000000 PA:0x80025c78 load:0x80000000
       73602000	      3578	8000bc40	01cba383	lw	x7,28(x23)	 x23:0x80025c60  x7=0x0000000f PA:0x80025c7c load:0x0000000f
       73622000	      3579	8000bc44	020ba403	lw	x8,32(x23)	 x23:0x80025c60  x8=0xfffffdc6 PA:0x80025c80 load:0xfffffdc6
       74042000	      3600	8000bc48	024ba483	lw	x9,36(x23)	 x23:0x80025c60  x9=0x000002c8 PA:0x80025c84 load:0x000002c8
       74102000	      3603	8000bc4c	028ba503	lw	x10,40(x23)	 x23:0x80025c60 x10=0xffffffff PA:0x80025c88 load:0xffffffff
       74282000	      3612	8000bc50	02cba583	lw	x11,44(x23)	 x23:0x80025c60 x11=0xfffff9f7 PA:0x80025c8c load:0xfffff9f7
       74322000	      3614	8000bc54	030ba603	lw	x12,48(x23)	 x23:0x80025c60 x12=0x1f8a289e PA:0x80025c90 load:0x1f8a289e
       74342000	      3615	8000bc58	034ba683	lw	x13,52(x23)	 x23:0x80025c60 x13=0x00000000 PA:0x80025c94 load:0x00000000
       74502000	      3623	8000bc5c	038ba703	lw	x14,56(x23)	 x23:0x80025c60 x14=0xffffffff PA:0x80025c98 load:0xffffffff
       74722000	      3634	8000bc60	03cba783	lw	x15,60(x23)	 x23:0x80025c60 x15=0x00000000 PA:0x80025c9c load:0x00000000
       74902000	      3643	8000bc64	040ba803	lw	x16,64(x23)	 x23:0x80025c60 x16=0xf5e2d1bd PA:0x80025ca0 load:0xf5e2d1bd
       75102000	      3653	8000bc68	044ba883	lw	x17,68(x23)	 x23:0x80025c60 x17=0x00000240 PA:0x80025ca4 load:0x00000240
       75302000	      3663	8000bc6c	048ba903	lw	x18,72(x23)	 x23:0x80025c60 x18=0xf84394fe PA:0x80025ca8 load:0xf84394fe
       75442000	      3670	8000bc70	04cba983	lw	x19,76(x23)	 x23:0x80025c60 x19=0x80000000 PA:0x80025cac load:0x80000000
       75962000	      3696	8000bc74	050baa03	lw	x20,80(x23)	 x23:0x80025c60 x20=0x00000001 PA:0x80025cb0 load:0x00000001
       76022000	      3699	8000bc78	054baa83	lw	x21,84(x23)	 x23:0x80025c60 x21=0xfbac2d00 PA:0x80025cb4 load:0xfbac2d00
       76302000	      3713	8000bc7c	058bab03	lw	x22,88(x23)	 x23:0x80025c60 x22=0xffffffff PA:0x80025cb8 load:0xffffffff
       76362000	      3716	8000bc80	05cbab83	lw	x23,92(x23)	 x23:0x80025c60 x23=0x80025c60 PA:0x80025cbc load:0x80025c60
       76582000	      3727	8000bc84	060bac03	lw	x24,96(x23)	 x23:0x80025c60 x24=0x00000001 PA:0x80025cc0 load:0x00000001
       76602000	      3728	8000bc88	064bac83	lw	x25,100(x23)	 x23:0x80025c60 x25=0x80000001 PA:0x80025cc4 load:0x80000001
       77022000	      3749	8000bc8c	068bad03	lw	x26,104(x23)	 x23:0x80025c60 x26=0x00004000 PA:0x80025cc8 load:0x00004000
       77082000	      3752	8000bc90	06cbad83	lw	x27,108(x23)	 x23:0x80025c60 x27=0x00000000 PA:0x80025ccc load:0x00000000
       77102000	      3753	8000bc94	070bae03	lw	x28,112(x23)	 x23:0x80025c60 x28=0x24a7fb50 PA:0x80025cd0 load:0x24a7fb50
       77122000	      3754	8000bc98	074bae83	lw	x29,116(x23)	 x23:0x80025c60 x29=0x00000000 PA:0x80025cd4 load:0x00000000
       77162000	      3756	8000bc9c	078baf03	lw	x30,120(x23)	 x23:0x80025c60 x30=0x00000000 PA:0x80025cd8 load:0x00000000
       77182000	      3757	8000bca0	07cbaf83	lw	x31,124(x23)	 x23:0x80025c60 x31=0x80021e73 PA:0x80025cdc load:0x80021e73
       77202000	      3758	8000bca4	080b8b93	addi	x23,x23,128	 x23:0x80025c60 x23=0x80025ce0
       77222000	      3759	8000bca8	000b82b3	add	x5,x23,x0	 x23:0x80025ce0  x0:0x00000000  x5=0x80025ce0
       77642000	      3780	8000bcac	0002ab83	lw	x23,0(x5)	  x5:0x80025ce0 x23=0x80021e64 PA:0x80025ce0 load:0x80021e64
       77662000	      3781	8000bcb0	0291	c.addi	x5,4	  x5:0x80025ce0  x5=0x80025ce4
       77682000	      3782	8000bcb2	30200073	mret	
       77762000	      3786	800035c2	015e55b3	srl	x11,x28,x21	 x28:0x24a7fb50 x21:0xfbac2d00 x11=0x24a7fb50
       78502000	      3823	800035c6	0327e3b3	rem	x7,x15,x18	 x15:0x00000000 x18:0xf84394fe  x7=0x00000000
       78522000	      3824	800035ca	014a	c.slli	x2,0x12	  x2:0x1f8a257e  x2=0x95f80000
       78542000	      3825	800035cc	8d6d	c.and	x10,x11	 x10:0xffffffff x11:0x24a7fb50 x10=0x24a7fb50
       78562000	      3826	800035ce	0001	c.addi	x0,0	  x0:0x00000000  x0=0x00000000
       78582000	      3827	800035d0	01c9ac33	slt	x24,x19,x28	 x19:0x80000000 x28:0x24a7fb50 x24=0x00000001
       78602000	      3828	800035d4	8585	c.srai	x11,0x1	 x11:0x24a7fb50 x11=0x1253fda8
       78622000	      3829	800035d6	8df1	c.and	x11,x12	 x11:0x1253fda8 x12:0x1f8a289e x11=0x12022888
       78642000	      3830	800035d8	015810b3	sll	x1,x16,x21	 x16:0xf5e2d1bd x21:0xfbac2d00  x1=0xf5e2d1bd
       78662000	      3831	800035dc	9b7d	c.andi	x14,-1	 x14:0xffffffff x14=0xffffffff
       78722000	      3834	800035de	00fb4c63	blt	x22,x15,800035f6	 x22:0xffffffff x15:0x00000000
       80442000	      3920	800035f6	3b602c73	csrrs	x24,pmpaddr6,x0	  x0:0x00000000 x24=0x3999a6c8
       80462000	      3921	800035fa	40ff8833	sub	x16,x31,x15	 x31:0x80021e73 x15:0x00000000 x16=0x80021e73
       80482000	      3922	800035fe	8da5	c.xor	x11,x9	 x11:0x12022888  x9:0x000002c8 x11=0x12022a40
       80502000	      3923	80003600	871a	c.mv	x14,x6	  x0:0x00000000  x6:0x80000000 x14=0x80000000
       80522000	      3924	80003602	8976	c.mv	x18,x29	  x0:0x00000000 x29:0x00000000 x18=0x00000000
       80542000	      3925	80003604	00000e17	auipc	x28,0x0	 x28=0x80003604
       80942000	      3945	80003608	1c8e0e13	addi	x28,x28,456	 x28:0x80003604 x28=0x800037cc
       81102000	      3953	8000360c	0e6d	c.addi	x28,27	 x28:0x800037cc x28=0x800037e7
       81902000	      3993	8000360e	03407c33	remu	x24,x0,x20	  x0:0x00000000 x20:0x00000001 x24=0x00000000
       81922000	      3994	80003612	1f14	c.addi4spn	x13,x2,944	 x13=0x95f803b0
       81942000	      3995	80003614	1918	c.addi4spn	x14,x2,176	 x14=0x95f800b0
       81962000	      3996	80003616	fe5e0267	jalr	x4,-27(x28)	 x28:0x800037e7  x4=0x8000361a
       82442000	      4020	800037cc	26190193	addi	x3,x18,609	 x18:0x00000000  x3=0x00000261
       82822000	      4039	800037d0	00b6d563	bge	x13,x11,800037da	 x13:0x95f803b0 x11:0x12022a40
       82842000	      4040	800037d4	34307673	csrrci	x12,mtval,0	 x12=0xf152fa73
       83242000	      4060	800037d8	8d15	c.sub	x10,x13	 x10:0x24a7fb50 x13:0x95f803b0 x10=0x8eaff7a0
       83322000	      4064	800037da	fd4b8b93	addi	x23,x23,-44	 x23:0x80021e64 x23=0x80021e38
       83342000	      4065	800037de	56fd	c.li	x13,-1	 x13=0xffffffff
       83402000	      4068	800037e0	004ba223	sw	x4,4(x23)	 x23:0x80021e38  x4:0x8000361a PA:0x80021e3c store:0x8000361a load:0xffffffff
       83602000	      4078	800037e4	e3146013	ori	x0,x8,-463	  x8:0xfffffdc6  x0=0x00000000
       83622000	      4079	800037e8	0102f433	and	x8,x5,x16	  x5:0x80025ce4 x16:0x80021e73  x8=0x80021c60
       83702000	      4083	800037ec	3259df73	csrrwi	x30,mhpmevent5,19	 x30=0x00000004
       83802000	      4088	800037f0	02af0f33	mul	x30,x30,x10	 x30:0x00000004 x10:0x8eaff7a0 x30=0x3abfde80
       83902000	      4093	800037f4	01db9d63	bne	x23,x29,8000380e	 x23:0x80021e38 x29:0x00000000
      105722000	      5184	8000380e	0b20026f	jal	x4,800038c0	  x4=0x80003812
      106202000	      5208	800038c0	0083e463	bltu	x7,x8,800038c8	  x7:0x00000000  x8:0x80021c60
      106622000	      5229	800038c8	fdcb8b93	addi	x23,x23,-36	 x23:0x80021e38 x23=0x80021e14
      106922000	      5244	800038cc	004ba223	sw	x4,4(x23)	 x23:0x80021e14  x4:0x80003812 PA:0x80021e18 store:0x80003812 load:0xffffffff
      106942000	      5245	800038d0	070a	c.slli	x14,0x2	 x14:0x95f800b0 x14=0x57e002c0
      108002000	      5298	800038d2	03f8f633	remu	x12,x17,x31	 x17:0x00000240 x31:0x80021e73 x12=0x00000240
      108022000	      5299	800038d6	fe554c13	xori	x24,x10,-27	 x10:0x8eaff7a0 x24=0x71500845
      108042000	      5300	800038da	01815863	bge	x2,x24,800038ea	  x2:0x95f80000 x24:0x71500845
      108062000	      5301	800038de	8739	c.srai	x14,0xe	 x14:0x57e002c0 x14=0x00015f80
      108082000	      5302	800038e0	0416	c.slli	x8,0x5	  x8:0x80021c60  x8=0x00438c00
      108102000	      5303	800038e2	f122d3f3	csrrwi	x0,marchid,5	  x0=0x00000000
      108162000	      5306	80002700	0800006f	jal	x0,80002780	  x0=0x00000000
      108202000	      5308	80002780	12f1	c.addi	x5,-4	  x5:0x80025ce4  x5=0x80025ce0
      108462000	      5321	80002782	0172a023	sw	x23,0(x5)	  x5:0x80025ce0 x23:0x80021e14 PA:0x80025ce0 store:0x80021e14 load:0xffffffff
      108482000	      5322	80002786	00028bb3	add	x23,x5,x0	  x5:0x80025ce0  x0:0x00000000 x23=0x80025ce0
      108502000	      5323	8000278a	f80b8b93	addi	x23,x23,-128	 x23:0x80025ce0 x23=0x80025c60
      108762000	      5336	8000278e	001ba223	sw	x1,4(x23)	 x23:0x80025c60  x1:0xf5e2d1bd PA:0x80025c64 store:0xf5e2d1bd load:0xffffffff
      108822000	      5339	80002792	002ba423	sw	x2,8(x23)	 x23:0x80025c60  x2:0x95f80000 PA:0x80025c68 store:0x95f80000 load:0xffffffff
      109182000	      5357	80002796	003ba623	sw	x3,12(x23)	 x23:0x80025c60  x3:0x00000261 PA:0x80025c6c store:0x00000261 load:0xffffffff
      109242000	      5360	8000279a	004ba823	sw	x4,16(x23)	 x23:0x80025c60  x4:0x80003812 PA:0x80025c70 store:0x80003812 load:0xffffffff
      109262000	      5361	8000279e	005baa23	sw	x5,20(x23)	 x23:0x80025c60  x5:0x80025ce0 PA:0x80025c74 store:0x80025ce0 load:0xffffffff
      109282000	      5362	800027a2	006bac23	sw	x6,24(x23)	 x23:0x80025c60  x6:0x80000000 PA:0x80025c78 store:0x80000000 load:0xffffffff
      109502000	      5373	800027a6	007bae23	sw	x7,28(x23)	 x23:0x80025c60  x7:0x00000000 PA:0x80025c7c store:0x00000000 load:0xffffffff
      109722000	      5384	800027aa	028ba023	sw	x8,32(x23)	 x23:0x80025c60  x8:0x00438c00 PA:0x80025c80 store:0x00438c00 load:0xffffffff
      109922000	      5394	800027ae	029ba223	sw	x9,36(x23)	 x23:0x80025c60  x9:0x000002c8 PA:0x80025c84 store:0x000002c8 load:0xffffffff
      109982000	      5397	800027b2	02aba423	sw	x10,40(x23)	 x23:0x80025c60 x10:0x8eaff7a0 PA:0x80025c88 store:0x8eaff7a0 load:0xffffffff
      110002000	      5398	800027b6	02bba623	sw	x11,44(x23)	 x23:0x80025c60 x11:0x12022a40 PA:0x80025c8c store:0x12022a40 load:0xffffffff
      110222000	      5409	800027ba	02cba823	sw	x12,48(x23)	 x23:0x80025c60 x12:0x00000240 PA:0x80025c90 store:0x00000240 load:0xffffffff
      110402000	      5418	800027be	02dbaa23	sw	x13,52(x23)	 x23:0x80025c60 x13:0xffffffff PA:0x80025c94 store:0xffffffff load:0xffffffff
      110462000	      5421	800027c2	02ebac23	sw	x14,56(x23)	 x23:0x80025c60 x14:0x00015f80 PA:0x80025c98 store:0x00015f80 load:0xffffffff
      110602000	      5428	800027c6	02fbae23	sw	x15,60(x23)	 x23:0x80025c60 x15:0x00000000 PA:0x80025c9c store:0x00000000 load:0xffffffff
      110682000	      5432	800027ca	050ba023	sw	x16,64(x23)	 x23:0x80025c60 x16:0x80021e73 PA:0x80025ca0 store:0x80021e73 load:0xffffffff
      110882000	      5442	800027ce	051ba223	sw	x17,68(x23)	 x23:0x80025c60 x17:0x00000240 PA:0x80025ca4 store:0x00000240 load:0xffffffff
      111242000	      5460	800027d2	052ba423	sw	x18,72(x23)	 x23:0x80025c60 x18:0x00000000 PA:0x80025ca8 store:0x00000000 load:0xffffffff
      111302000	      5463	800027d6	053ba623	sw	x19,76(x23)	 x23:0x80025c60 x19:0x80000000 PA:0x80025cac store:0x80000000 load:0xffffffff
      111722000	      5484	800027da	054ba823	sw	x20,80(x23)	 x23:0x80025c60 x20:0x00000001 PA:0x80025cb0 store:0x00000001 load:0xffffffff
      111782000	      5487	800027de	055baa23	sw	x21,84(x23)	 x23:0x80025c60 x21:0xfbac2d00 PA:0x80025cb4 store:0xfbac2d00 load:0xffffffff
      111802000	      5488	800027e2	056bac23	sw	x22,88(x23)	 x23:0x80025c60 x22:0xffffffff PA:0x80025cb8 store:0xffffffff load:0xffffffff
      112022000	      5499	800027e6	057bae23	sw	x23,92(x23)	 x23:0x80025c60 x23:0x80025c60 PA:0x80025cbc store:0x80025c60 load:0xffffffff
      112222000	      5509	800027ea	078ba023	sw	x24,96(x23)	 x23:0x80025c60 x24:0x71500845 PA:0x80025cc0 store:0x71500845 load:0xffffffff
      112642000	      5530	800027ee	079ba223	sw	x25,100(x23)	 x23:0x80025c60 x25:0x80000001 PA:0x80025cc4 store:0x80000001 load:0xffffffff
      112702000	      5533	800027f2	07aba423	sw	x26,104(x23)	 x23:0x80025c60 x26:0x00004000 PA:0x80025cc8 store:0x00004000 load:0xffffffff
      112722000	      5534	800027f6	07bba623	sw	x27,108(x23)	 x23:0x80025c60 x27:0x00000000 PA:0x80025ccc store:0x00000000 load:0xffffffff
      112882000	      5542	800027fa	07cba823	sw	x28,112(x23)	 x23:0x80025c60 x28:0x800037e7 PA:0x80025cd0 store:0x800037e7 load:0xffffffff
      113202000	      5558	800027fe	07dbaa23	sw	x29,116(x23)	 x23:0x80025c60 x29:0x00000000 PA:0x80025cd4 store:0x00000000 load:0xffffffff
      113382000	      5567	80002802	07ebac23	sw	x30,120(x23)	 x23:0x80025c60 x30:0x3abfde80 PA:0x80025cd8 store:0x3abfde80 load:0xffffffff
      113942000	      5595	80002806	07fbae23	sw	x31,124(x23)	 x23:0x80025c60 x31:0x80021e73 PA:0x80025cdc store:0x80021e73 load:0xffffffff
      113962000	      5596	8000280a	000b82b3	add	x5,x23,x0	 x23:0x80025c60  x0:0x00000000  x5=0x80025c60
      113982000	      5597	8000280e	90000c37	lui	x24,0x90000	 x24=0x90000000
      114002000	      5598	80002812	1c71	c.addi	x24,-4	 x24:0x90000000 x24=0x8ffffffc
      114022000	      5599	80002814	4f21	c.li	x30,8	 x30=0x00000008
      114042000	      5600	80002816	0f22	c.slli	x30,0x8	 x30:0x00000008 x30=0x00000800
      114062000	      5601	80002818	000f0f13	addi	x30,x30,0	 x30:0x00000800 x30=0x00000800
      114122000	      5604	8000281c	01ec2023	sw	x30,0(x24)	 x24:0x8ffffffc x30:0x00000800 PA:0x8ffffffc store:0x00000800 load:0xffffffff
      114142000	      5605	80002820	34102f73	csrrs	x30,mepc,x0	  x0:0x00000000 x30=0x800038e2
      114162000	      5606	80002824	34202f73	csrrs	x30,mcause,x0	  x0:0x00000000 x30=0x00000002
      114182000	      5607	80002828	4c0d	c.li	x24,3	 x24=0x00000003
      114202000	      5608	8000282a	018f1463	bne	x30,x24,80002832	 x30:0x00000002 x24:0x00000003
      114242000	      5610	80002832	4c21	c.li	x24,8	 x24=0x00000008
      114262000	      5611	80002834	058f0d63	beq	x30,x24,8000288e	 x30:0x00000002 x24:0x00000008
      114282000	      5612	80002838	4c25	c.li	x24,9	 x24=0x00000009
      114302000	      5613	8000283a	058f0a63	beq	x30,x24,8000288e	 x30:0x00000002 x24:0x00000009
      114322000	      5614	8000283e	4c2d	c.li	x24,11	 x24=0x0000000b
      114342000	      5615	80002840	058f0763	beq	x30,x24,8000288e	 x30:0x00000002 x24:0x0000000b
      114362000	      5616	80002844	4c05	c.li	x24,1	 x24=0x00000001
      114382000	      5617	80002846	358f0363	beq	x30,x24,80002b8c	 x30:0x00000002 x24:0x00000001
      114402000	      5618	8000284a	4c15	c.li	x24,5	 x24=0x00000005
      114422000	      5619	8000284c	638f0a63	beq	x30,x24,80002e80	 x30:0x00000002 x24:0x00000005
      114442000	      5620	80002850	4c1d	c.li	x24,7	 x24=0x00000007
      114462000	      5621	80002852	158f0ce3	beq	x30,x24,800031aa	 x30:0x00000002 x24:0x00000007
      114482000	      5622	80002856	4c31	c.li	x24,12	 x24=0x0000000c
      114502000	      5623	80002858	018f1463	bne	x30,x24,80002860	 x30:0x00000002 x24:0x0000000c
      114542000	      5625	80002860	4c35	c.li	x24,13	 x24=0x0000000d
      114562000	      5626	80002862	018f1463	bne	x30,x24,8000286a	 x30:0x00000002 x24:0x0000000d
      114602000	      5628	8000286a	4c3d	c.li	x24,15	 x24=0x0000000f
      114622000	      5629	8000286c	018f1463	bne	x30,x24,80002874	 x30:0x00000002 x24:0x0000000f
      114682000	      5632	80002874	4c09	c.li	x24,2	 x24=0x00000002
      114702000	      5633	80002876	018f1463	bne	x30,x24,8000287e	 x30:0x00000002 x24:0x00000002
      114722000	      5634	8000287a	3740906f	jal	x0,8000bbee	  x0=0x00000000
      114802000	      5638	8000bbee	90000c37	lui	x24,0x90000	 x24=0x90000000
      114822000	      5639	8000bbf2	1c71	c.addi	x24,-4	 x24:0x90000000 x24=0x8ffffffc
      114842000	      5640	8000bbf4	4f29	c.li	x30,10	 x30=0x0000000a
      114862000	      5641	8000bbf6	0f22	c.slli	x30,0x8	 x30:0x0000000a x30=0x00000a00
      114882000	      5642	8000bbf8	000f0f13	addi	x30,x30,0	 x30:0x00000a00 x30=0x00000a00
      115082000	      5652	8000bbfc	01ec2023	sw	x30,0(x24)	 x24:0x8ffffffc x30:0x00000a00 PA:0x8ffffffc store:0x00000a00 load:0xffffffff
      115102000	      5653	8000bc00	90000c37	lui	x24,0x90000	 x24=0x90000000
      115122000	      5654	8000bc04	1c71	c.addi	x24,-4	 x24:0x90000000 x24=0x8ffffffc
      115142000	      5655	8000bc06	34200f13	addi	x30,x0,834	  x0:0x00000000 x30=0x00000342
      115162000	      5656	8000bc0a	0f22	c.slli	x30,0x8	 x30:0x00000342 x30=0x00034200
      115182000	      5657	8000bc0c	0f0d	c.addi	x30,3	 x30:0x00034200 x30=0x00034203
      115322000	      5664	8000bc0e	01ec2023	sw	x30,0(x24)	 x24:0x8ffffffc x30:0x00034203 PA:0x8ffffffc store:0x00034203 load:0xffffffff
      115342000	      5665	8000bc12	34202f73	csrrs	x30,mcause,x0	  x0:0x00000000 x30=0x00000002
      115662000	      5681	8000bc16	01ec2023	sw	x30,0(x24)	 x24:0x8ffffffc x30:0x00000002 PA:0x8ffffffc store:0x00000002 load:0xffffffff
      115682000	      5682	8000bc1a	34102f73	csrrs	x30,mepc,x0	  x0:0x00000000 x30=0x800038e2
      115702000	      5683	8000bc1e	0f11	c.addi	x30,4	 x30:0x800038e2 x30=0x800038e6
      115722000	      5684	8000bc20	341f1073	csrrw	x0,mepc,x30	 x30:0x800038e6  x0=0x00000000
      115742000	      5685	8000bc24	00028bb3	add	x23,x5,x0	  x5:0x80025c60  x0:0x00000000 x23=0x80025c60
      115802000	      5688	8000bc28	004ba083	lw	x1,4(x23)	 x23:0x80025c60  x1=0xf5e2d1bd PA:0x80025c64 load:0xf5e2d1bd
      116142000	      5705	8000bc2c	008ba103	lw	x2,8(x23)	 x23:0x80025c60  x2=0x95f80000 PA:0x80025c68 load:0x95f80000
      116202000	      5708	8000bc30	00cba183	lw	x3,12(x23)	 x23:0x80025c60  x3=0x00000261 PA:0x80025c6c load:0x00000261
      116222000	      5709	8000bc34	010ba203	lw	x4,16(x23)	 x23:0x80025c60  x4=0x80003812 PA:0x80025c70 load:0x80003812
      116242000	      5710	8000bc38	014ba283	lw	x5,20(x23)	 x23:0x80025c60  x5=0x80025ce0 PA:0x80025c74 load:0x80025ce0
      116462000	      5721	8000bc3c	018ba303	lw	x6,24(x23)	 x23:0x80025c60  x6=0x80000000 PA:0x80025c78 load:0x80000000
      116662000	      5731	8000bc40	01cba383	lw	x7,28(x23)	 x23:0x80025c60  x7=0x00000000 PA:0x80025c7c load:0x00000000
      116902000	      5743	8000bc44	020ba403	lw	x8,32(x23)	 x23:0x80025c60  x8=0x00438c00 PA:0x80025c80 load:0x00438c00
      117302000	      5763	8000bc48	024ba483	lw	x9,36(x23)	 x23:0x80025c60  x9=0x000002c8 PA:0x80025c84 load:0x000002c8
      117442000	      5770	8000bc4c	028ba503	lw	x10,40(x23)	 x23:0x80025c60 x10=0x8eaff7a0 PA:0x80025c88 load:0x8eaff7a0
      117622000	      5779	8000bc50	02cba583	lw	x11,44(x23)	 x23:0x80025c60 x11=0x12022a40 PA:0x80025c8c load:0x12022a40
      117682000	      5782	8000bc54	030ba603	lw	x12,48(x23)	 x23:0x80025c60 x12=0x00000240 PA:0x80025c90 load:0x00000240
      118102000	      5803	8000bc58	034ba683	lw	x13,52(x23)	 x23:0x80025c60 x13=0xffffffff PA:0x80025c94 load:0xffffffff
      118562000	      5826	8000bc5c	038ba703	lw	x14,56(x23)	 x23:0x80025c60 x14=0x00015f80 PA:0x80025c98 load:0x00015f80
      118642000	      5830	8000bc60	03cba783	lw	x15,60(x23)	 x23:0x80025c60 x15=0x00000000 PA:0x80025c9c load:0x00000000
      118722000	      5834	8000bc64	040ba803	lw	x16,64(x23)	 x23:0x80025c60 x16=0x80021e73 PA:0x80025ca0 load:0x80021e73
      118782000	      5837	8000bc68	044ba883	lw	x17,68(x23)	 x23:0x80025c60 x17=0x00000240 PA:0x80025ca4 load:0x00000240
      118802000	      5838	8000bc6c	048ba903	lw	x18,72(x23)	 x23:0x80025c60 x18=0x00000000 PA:0x80025ca8 load:0x00000000
      118822000	      5839	8000bc70	04cba983	lw	x19,76(x23)	 x23:0x80025c60 x19=0x80000000 PA:0x80025cac load:0x80000000
      118842000	      5840	8000bc74	050baa03	lw	x20,80(x23)	 x23:0x80025c60 x20=0x00000001 PA:0x80025cb0 load:0x00000001
      119262000	      5861	8000bc78	054baa83	lw	x21,84(x23)	 x23:0x80025c60 x21=0xfbac2d00 PA:0x80025cb4 load:0xfbac2d00
      119322000	      5864	8000bc7c	058bab03	lw	x22,88(x23)	 x23:0x80025c60 x22=0xffffffff PA:0x80025cb8 load:0xffffffff
      119702000	      5883	8000bc80	05cbab83	lw	x23,92(x23)	 x23:0x80025c60 x23=0x80025c60 PA:0x80025cbc load:0x80025c60
      119882000	      5892	8000bc84	060bac03	lw	x24,96(x23)	 x23:0x80025c60 x24=0x71500845 PA:0x80025cc0 load:0x71500845
      120162000	      5906	8000bc88	064bac83	lw	x25,100(x23)	 x23:0x80025c60 x25=0x80000001 PA:0x80025cc4 load:0x80000001
      120562000	      5926	8000bc8c	068bad03	lw	x26,104(x23)	 x23:0x80025c60 x26=0x00004000 PA:0x80025cc8 load:0x00004000
      121222000	      5959	8000bc90	06cbad83	lw	x27,108(x23)	 x23:0x80025c60 x27=0x00000000 PA:0x80025ccc load:0x00000000
      121482000	      5972	8000bc94	070bae03	lw	x28,112(x23)	 x23:0x80025c60 x28=0x800037e7 PA:0x80025cd0 load:0x800037e7
      121502000	      5973	8000bc98	074bae83	lw	x29,116(x23)	 x23:0x80025c60 x29=0x00000000 PA:0x80025cd4 load:0x00000000
      121822000	      5989	8000bc9c	078baf03	lw	x30,120(x23)	 x23:0x80025c60 x30=0x3abfde80 PA:0x80025cd8 load:0x3abfde80
      121882000	      5992	8000bca0	07cbaf83	lw	x31,124(x23)	 x23:0x80025c60 x31=0x80021e73 PA:0x80025cdc load:0x80021e73
      121902000	      5993	8000bca4	080b8b93	addi	x23,x23,128	 x23:0x80025c60 x23=0x80025ce0
      121922000	      5994	8000bca8	000b82b3	add	x5,x23,x0	 x23:0x80025ce0  x0:0x00000000  x5=0x80025ce0
      122102000	      6003	8000bcac	0002ab83	lw	x23,0(x5)	  x5:0x80025ce0 x23=0x80021e14 PA:0x80025ce0 load:0x80021e14
      122122000	      6004	8000bcb0	0291	c.addi	x5,4	  x5:0x80025ce0  x5=0x80025ce4
      122142000	      6005	8000bcb2	30200073	mret	
      122222000	      6009	800038e6	01b69193	slli	x3,x13,0x1b	 x13:0xffffffff  x3=0xf8000000
      122242000	      6010	800038ea	1e00626f	jal	x4,80009aca	  x4=0x800038ee
      122782000	      6037	80009aca	7a1073f3	csrrci	x7,tdata1,0	  x7=0x28001048
      122982000	      6047	80009ace	9644ae37	lui	x28,0x9644a	 x28=0x9644a000
      123002000	      6048	80009ad2	14282193	slti	x3,x16,322	 x16:0x80021e73  x3=0x00000001
      123022000	      6049	80009ad6	1b91	c.addi	x23,-28	 x23:0x80021e14 x23=0x80021df8
      123062000	      6051	80009ad8	038b3f33	mulhu	x30,x22,x24	 x22:0xffffffff x24:0x71500845 x30=0x71500844
      123162000	      6056	80009adc	6829	c.lui	x16,0xa	 x16=0x0000a000
      123222000	      6059	80009ade	004ba223	sw	x4,4(x23)	 x23:0x80021df8  x4:0x800038ee PA:0x80021dfc store:0x800038ee load:0xffffffff
      123242000	      6060	80009ae2	0001	c.addi	x0,0	  x0:0x00000000  x0=0x00000000
      123302000	      6063	80009ae4	0166d493	srli	x9,x13,0x16	 x13:0xffffffff  x9=0x000003ff
      123322000	      6064	80009ae8	0001	c.addi	x0,0	  x0:0x00000000  x0=0x00000000
      123622000	      6079	80009aea	02a48733	mul	x14,x9,x10	  x9:0x000003ff x10:0x8eaff7a0 x14=0x312e8860
      123642000	      6080	80009aee	e619	c.bnez	x12,80009afc	 x12:0x00000240
      124002000	      6098	80009afc	0001	c.addi	x0,0	  x0:0x00000000  x0=0x00000000
      124162000	      6106	80009afe	0596d263	bge	x13,x25,80009b42	 x13:0xffffffff x25:0x80000001
      124502000	      6123	80009b42	b6d33813	sltiu	x16,x6,-1171	  x6:0x80000000 x16=0x00000001
      124522000	      6124	80009b46	413a5eb3	sra	x29,x20,x19	 x20:0x00000001 x19:0x80000000 x29=0x00000001
      124542000	      6125	80009b4a	03fd01b3	mul	x3,x26,x31	 x26:0x00004000 x31:0x80021e73  x3=0x879cc000
      124562000	      6126	80009b4e	01751093	slli	x1,x10,0x17	 x10:0x8eaff7a0  x1=0xd0000000
      124582000	      6127	80009b52	1210	c.addi4spn	x12,x2,288	 x12=0x95f80120
      124602000	      6128	80009b54	8ad80013	addi	x0,x16,-1875	 x16:0x00000001  x0=0x00000000
      124822000	      6139	80009b58	32a01f73	csrrw	x30,mhpmevent10,x0	  x0:0x00000000 x30=0x00000080
      124882000	      6142	80009b5c	409d03b3	sub	x7,x26,x9	 x26:0x00004000  x9:0x000003ff  x7=0x00003c01
      125622000	      6179	80009b60	02a578b3	remu	x17,x10,x10	 x10:0x8eaff7a0 x10:0x8eaff7a0 x17=0x00000000
      125642000	      6180	80009b64	987d	c.andi	x8,-1	  x8:0x00438c00  x8=0x00438c00
      125662000	      6181	80009b66	038a8c63	beq	x21,x24,80009b9e	 x21:0xfbac2d00 x24:0x71500845
      125682000	      6182	80009b6a	01c0b4b3	sltu	x9,x1,x28	  x1:0xd0000000 x28:0x9644a000  x9=0x00000000
      125782000	      6187	80009b6e	0169d113	srli	x2,x19,0x16	 x19:0x80000000  x2=0x00000200
      125802000	      6188	80009b72	618d	c.lui	x3,0x3	  x3=0x00003000
      126542000	      6225	80009b74	02a4d0b3	divu	x1,x9,x10	  x9:0x00000000 x10:0x8eaff7a0  x1=0x00000000
      126562000	      6226	80009b78	01bffb33	and	x22,x31,x27	 x31:0x80021e73 x27:0x00000000 x22=0x00000000
      126782000	      6237	80009b7c	8d0d	c.sub	x10,x11	 x10:0x8eaff7a0 x11:0x12022a40 x10=0x7cadcd60
      126822000	      6239	80009b7e	01dc91b3	sll	x3,x25,x29	 x25:0x80000001 x29:0x00000001  x3=0x00000002
      126842000	      6240	80009b82	8e3e	c.mv	x28,x15	  x0:0x00000000 x15:0x00000000 x28=0x00000000
      126922000	      6244	80009b84	9db6	c.add	x27,x13	 x27:0x00000000 x13:0xffffffff x27=0xffffffff
      126942000	      6245	80009b86	8039	c.srli	x8,0xe	  x8:0x00438c00  x8=0x0000010e
      126962000	      6246	80009b88	7b3063f3	csrrsi	x0,0x7b3,0	  x0=0x00000000
      127022000	      6249	80002700	0800006f	jal	x0,80002780	  x0=0x00000000
      127082000	      6252	80002780	12f1	c.addi	x5,-4	  x5:0x80025ce4  x5=0x80025ce0
      127142000	      6255	80002782	0172a023	sw	x23,0(x5)	  x5:0x80025ce0 x23:0x80021df8 PA:0x80025ce0 store:0x80021df8 load:0xffffffff
      127162000	      6256	80002786	00028bb3	add	x23,x5,x0	  x5:0x80025ce0  x0:0x00000000 x23=0x80025ce0
      127182000	      6257	8000278a	f80b8b93	addi	x23,x23,-128	 x23:0x80025ce0 x23=0x80025c60
      127322000	      6264	8000278e	001ba223	sw	x1,4(x23)	 x23:0x80025c60  x1:0x00000000 PA:0x80025c64 store:0x00000000 load:0xffffffff
      127382000	      6267	80002792	002ba423	sw	x2,8(x23)	 x23:0x80025c60  x2:0x00000200 PA:0x80025c68 store:0x00000200 load:0xffffffff
      127722000	      6284	80002796	003ba623	sw	x3,12(x23)	 x23:0x80025c60  x3:0x00000002 PA:0x80025c6c store:0x00000002 load:0xffffffff
      127782000	      6287	8000279a	004ba823	sw	x4,16(x23)	 x23:0x80025c60  x4:0x800038ee PA:0x80025c70 store:0x800038ee load:0xffffffff
      128002000	      6298	8000279e	005baa23	sw	x5,20(x23)	 x23:0x80025c60  x5:0x80025ce0 PA:0x80025c74 store:0x80025ce0 load:0xffffffff
      128382000	      6317	800027a2	006bac23	sw	x6,24(x23)	 x23:0x80025c60  x6:0x80000000 PA:0x80025c78 store:0x80000000 load:0xffffffff
      128842000	      6340	800027a6	007bae23	sw	x7,28(x23)	 x23:0x80025c60  x7:0x00003c01 PA:0x80025c7c store:0x00003c01 load:0xffffffff
      129082000	      6352	800027aa	028ba023	sw	x8,32(x23)	 x23:0x80025c60  x8:0x0000010e PA:0x80025c80 store:0x0000010e load:0xffffffff
      129142000	      6355	800027ae	029ba223	sw	x9,36(x23)	 x23:0x80025c60  x9:0x00000000 PA:0x80025c84 store:0x00000000 load:0xffffffff
      129362000	      6366	800027b2	02aba423	sw	x10,40(x23)	 x23:0x80025c60 x10:0x7cadcd60 PA:0x80025c88 store:0x7cadcd60 load:0xffffffff
      129462000	      6371	800027b6	02bba623	sw	x11,44(x23)	 x23:0x80025c60 x11:0x12022a40 PA:0x80025c8c store:0x12022a40 load:0xffffffff
      129762000	      6386	800027ba	02cba823	sw	x12,48(x23)	 x23:0x80025c60 x12:0x95f80120 PA:0x80025c90 store:0x95f80120 load:0xffffffff
      129822000	      6389	800027be	02dbaa23	sw	x13,52(x23)	 x23:0x80025c60 x13:0xffffffff PA:0x80025c94 store:0xffffffff load:0xffffffff
      129842000	      6390	800027c2	02ebac23	sw	x14,56(x23)	 x23:0x80025c60 x14:0x312e8860 PA:0x80025c98 store:0x312e8860 load:0xffffffff
      130042000	      6400	800027c6	02fbae23	sw	x15,60(x23)	 x23:0x80025c60 x15:0x00000000 PA:0x80025c9c store:0x00000000 load:0xffffffff
      130102000	      6403	800027ca	050ba023	sw	x16,64(x23)	 x23:0x80025c60 x16:0x00000001 PA:0x80025ca0 store:0x00000001 load:0xffffffff
      130522000	      6424	800027ce	051ba223	sw	x17,68(x23)	 x23:0x80025c60 x17:0x00000000 PA:0x80025ca4 store:0x00000000 load:0xffffffff
      130582000	      6427	800027d2	052ba423	sw	x18,72(x23)	 x23:0x80025c60 x18:0x00000000 PA:0x80025ca8 store:0x00000000 load:0xffffffff
      130602000	      6428	800027d6	053ba623	sw	x19,76(x23)	 x23:0x80025c60 x19:0x80000000 PA:0x80025cac store:0x80000000 load:0xffffffff
      130622000	      6429	800027da	054ba823	sw	x20,80(x23)	 x23:0x80025c60 x20:0x00000001 PA:0x80025cb0 store:0x00000001 load:0xffffffff
      130702000	      6433	800027de	055baa23	sw	x21,84(x23)	 x23:0x80025c60 x21:0xfbac2d00 PA:0x80025cb4 store:0xfbac2d00 load:0xffffffff
      131022000	      6449	800027e2	056bac23	sw	x22,88(x23)	 x23:0x80025c60 x22:0x00000000 PA:0x80025cb8 store:0x00000000 load:0xffffffff
      131082000	      6452	800027e6	057bae23	sw	x23,92(x23)	 x23:0x80025c60 x23:0x80025c60 PA:0x80025cbc store:0x80025c60 load:0xffffffff
      131102000	      6453	800027ea	078ba023	sw	x24,96(x23)	 x23:0x80025c60 x24:0x71500845 PA:0x80025cc0 store:0x71500845 load:0xffffffff
      131262000	      6461	800027ee	079ba223	sw	x25,100(x23)	 x23:0x80025c60 x25:0x80000001 PA:0x80025cc4 store:0x80000001 load:0xffffffff
      131522000	      6474	800027f2	07aba423	sw	x26,104(x23)	 x23:0x80025c60 x26:0x00004000 PA:0x80025cc8 store:0x00004000 load:0xffffffff
      131622000	      6479	800027f6	07bba623	sw	x27,108(x23)	 x23:0x80025c60 x27:0xffffffff PA:0x80025ccc store:0xffffffff load:0xffffffff
      131782000	      6487	800027fa	07cba823	sw	x28,112(x23)	 x23:0x80025c60 x28:0x00000000 PA:0x80025cd0 store:0x00000000 load:0xffffffff
      132062000	      6501	800027fe	07dbaa23	sw	x29,116(x23)	 x23:0x80025c60 x29:0x00000001 PA:0x80025cd4 store:0x00000001 load:0xffffffff
      132562000	      6526	80002802	07ebac23	sw	x30,120(x23)	 x23:0x80025c60 x30:0x00000080 PA:0x80025cd8 store:0x00000080 load:0xffffffff
      133222000	      6559	80002806	07fbae23	sw	x31,124(x23)	 x23:0x80025c60 x31:0x80021e73 PA:0x80025cdc store:0x80021e73 load:0xffffffff
      133242000	      6560	8000280a	000b82b3	add	x5,x23,x0	 x23:0x80025c60  x0:0x00000000  x5=0x80025c60
      133262000	      6561	8000280e	90000c37	lui	x24,0x90000	 x24=0x90000000
      133282000	      6562	80002812	1c71	c.addi	x24,-4	 x24:0x90000000 x24=0x8ffffffc
      133302000	      6563	80002814	4f21	c.li	x30,8	 x30=0x00000008
      133322000	      6564	80002816	0f22	c.slli	x30,0x8	 x30:0x00000008 x30=0x00000800
      133342000	      6565	80002818	000f0f13	addi	x30,x30,0	 x30:0x00000800 x30=0x00000800
      133582000	      6577	8000281c	01ec2023	sw	x30,0(x24)	 x24:0x8ffffffc x30:0x00000800 PA:0x8ffffffc store:0x00000800 load:0xffffffff
      133602000	      6578	80002820	34102f73	csrrs	x30,mepc,x0	  x0:0x00000000 x30=0x80009b88
      133622000	      6579	80002824	34202f73	csrrs	x30,mcause,x0	  x0:0x00000000 x30=0x00000002
      133642000	      6580	80002828	4c0d	c.li	x24,3	 x24=0x00000003
      133662000	      6581	8000282a	018f1463	bne	x30,x24,80002832	 x30:0x00000002 x24:0x00000003
      133702000	      6583	80002832	4c21	c.li	x24,8	 x24=0x00000008
      133722000	      6584	80002834	058f0d63	beq	x30,x24,8000288e	 x30:0x00000002 x24:0x00000008
      133742000	      6585	80002838	4c25	c.li	x24,9	 x24=0x00000009
      133762000	      6586	8000283a	058f0a63	beq	x30,x24,8000288e	 x30:0x00000002 x24:0x00000009
      133782000	      6587	8000283e	4c2d	c.li	x24,11	 x24=0x0000000b
      133802000	      6588	80002840	058f0763	beq	x30,x24,8000288e	 x30:0x00000002 x24:0x0000000b
      133822000	      6589	80002844	4c05	c.li	x24,1	 x24=0x00000001
      133842000	      6590	80002846	358f0363	beq	x30,x24,80002b8c	 x30:0x00000002 x24:0x00000001
      133862000	      6591	8000284a	4c15	c.li	x24,5	 x24=0x00000005
      133882000	      6592	8000284c	638f0a63	beq	x30,x24,80002e80	 x30:0x00000002 x24:0x00000005
      133902000	      6593	80002850	4c1d	c.li	x24,7	 x24=0x00000007
      133922000	      6594	80002852	158f0ce3	beq	x30,x24,800031aa	 x30:0x00000002 x24:0x00000007
      133942000	      6595	80002856	4c31	c.li	x24,12	 x24=0x0000000c
      133962000	      6596	80002858	018f1463	bne	x30,x24,80002860	 x30:0x00000002 x24:0x0000000c
      134002000	      6598	80002860	4c35	c.li	x24,13	 x24=0x0000000d
      134022000	      6599	80002862	018f1463	bne	x30,x24,8000286a	 x30:0x00000002 x24:0x0000000d
      134082000	      6602	8000286a	4c3d	c.li	x24,15	 x24=0x0000000f
      134102000	      6603	8000286c	018f1463	bne	x30,x24,80002874	 x30:0x00000002 x24:0x0000000f
      134162000	      6606	80002874	4c09	c.li	x24,2	 x24=0x00000002
      134182000	      6607	80002876	018f1463	bne	x30,x24,8000287e	 x30:0x00000002 x24:0x00000002
      134202000	      6608	8000287a	3740906f	jal	x0,8000bbee	  x0=0x00000000
      134282000	      6612	8000bbee	90000c37	lui	x24,0x90000	 x24=0x90000000
      134302000	      6613	8000bbf2	1c71	c.addi	x24,-4	 x24:0x90000000 x24=0x8ffffffc
      134322000	      6614	8000bbf4	4f29	c.li	x30,10	 x30=0x0000000a
      134342000	      6615	8000bbf6	0f22	c.slli	x30,0x8	 x30:0x0000000a x30=0x00000a00
      134362000	      6616	8000bbf8	000f0f13	addi	x30,x30,0	 x30:0x00000a00 x30=0x00000a00
      134442000	      6620	8000bbfc	01ec2023	sw	x30,0(x24)	 x24:0x8ffffffc x30:0x00000a00 PA:0x8ffffffc store:0x00000a00 load:0xffffffff
      134462000	      6621	8000bc00	90000c37	lui	x24,0x90000	 x24=0x90000000
      134482000	      6622	8000bc04	1c71	c.addi	x24,-4	 x24:0x90000000 x24=0x8ffffffc
      134502000	      6623	8000bc06	34200f13	addi	x30,x0,834	  x0:0x00000000 x30=0x00000342
      134522000	      6624	8000bc0a	0f22	c.slli	x30,0x8	 x30:0x00000342 x30=0x00034200
      134542000	      6625	8000bc0c	0f0d	c.addi	x30,3	 x30:0x00034200 x30=0x00034203
      134662000	      6631	8000bc0e	01ec2023	sw	x30,0(x24)	 x24:0x8ffffffc x30:0x00034203 PA:0x8ffffffc store:0x00034203 load:0xffffffff
      134682000	      6632	8000bc12	34202f73	csrrs	x30,mcause,x0	  x0:0x00000000 x30=0x00000002
      134842000	      6640	8000bc16	01ec2023	sw	x30,0(x24)	 x24:0x8ffffffc x30:0x00000002 PA:0x8ffffffc store:0x00000002 load:0xffffffff
      134862000	      6641	8000bc1a	34102f73	csrrs	x30,mepc,x0	  x0:0x00000000 x30=0x80009b88
      134882000	      6642	8000bc1e	0f11	c.addi	x30,4	 x30:0x80009b88 x30=0x80009b8c
      134902000	      6643	8000bc20	341f1073	csrrw	x0,mepc,x30	 x30:0x80009b8c  x0=0x00000000
      134922000	      6644	8000bc24	00028bb3	add	x23,x5,x0	  x5:0x80025c60  x0:0x00000000 x23=0x80025c60
      135342000	      6665	8000bc28	004ba083	lw	x1,4(x23)	 x23:0x80025c60  x1=0x00000000 PA:0x80025c64 load:0x00000000
      135462000	      6671	8000bc2c	008ba103	lw	x2,8(x23)	 x23:0x80025c60  x2=0x00000200 PA:0x80025c68 load:0x00000200
      135542000	      6675	8000bc30	00cba183	lw	x3,12(x23)	 x23:0x80025c60  x3=0x00000002 PA:0x80025c6c load:0x00000002
      135602000	      6678	8000bc34	010ba203	lw	x4,16(x23)	 x23:0x80025c60  x4=0x800038ee PA:0x80025c70 load:0x800038ee
      142982000	      7047	8000bc38	014ba283	lw	x5,20(x23)	 x23:0x80025c60  x5=0x80025ce0 PA:0x80025c74 load:0x80025ce0
      143282000	      7062	8000bc3c	018ba303	lw	x6,24(x23)	 x23:0x80025c60  x6=0x80000000 PA:0x80025c78 load:0x80000000
      143742000	      7085	8000bc40	01cba383	lw	x7,28(x23)	 x23:0x80025c60  x7=0x00003c01 PA:0x80025c7c load:0x00003c01
      143982000	      7097	8000bc44	020ba403	lw	x8,32(x23)	 x23:0x80025c60  x8=0x0000010e PA:0x80025c80 load:0x0000010e
      144442000	      7120	8000bc48	024ba483	lw	x9,36(x23)	 x23:0x80025c60  x9=0x00000000 PA:0x80025c84 load:0x00000000
      144822000	      7139	8000bc4c	028ba503	lw	x10,40(x23)	 x23:0x80025c60 x10=0x7cadcd60 PA:0x80025c88 load:0x7cadcd60
      144882000	      7142	8000bc50	02cba583	lw	x11,44(x23)	 x23:0x80025c60 x11=0x12022a40 PA:0x80025c8c load:0x12022a40
      144902000	      7143	8000bc54	030ba603	lw	x12,48(x23)	 x23:0x80025c60 x12=0x95f80120 PA:0x80025c90 load:0x95f80120
      144922000	      7144	8000bc58	034ba683	lw	x13,52(x23)	 x23:0x80025c60 x13=0xffffffff PA:0x80025c94 load:0xffffffff
      144942000	      7145	8000bc5c	038ba703	lw	x14,56(x23)	 x23:0x80025c60 x14=0x312e8860 PA:0x80025c98 load:0x312e8860
      144962000	      7146	8000bc60	03cba783	lw	x15,60(x23)	 x23:0x80025c60 x15=0x00000000 PA:0x80025c9c load:0x00000000
      145342000	      7165	8000bc64	040ba803	lw	x16,64(x23)	 x23:0x80025c60 x16=0x00000001 PA:0x80025ca0 load:0x00000001
      145402000	      7168	8000bc68	044ba883	lw	x17,68(x23)	 x23:0x80025c60 x17=0x00000000 PA:0x80025ca4 load:0x00000000
      145422000	      7169	8000bc6c	048ba903	lw	x18,72(x23)	 x23:0x80025c60 x18=0x00000000 PA:0x80025ca8 load:0x00000000
      145842000	      7190	8000bc70	04cba983	lw	x19,76(x23)	 x23:0x80025c60 x19=0x80000000 PA:0x80025cac load:0x80000000
      146002000	      7198	8000bc74	050baa03	lw	x20,80(x23)	 x23:0x80025c60 x20=0x00000001 PA:0x80025cb0 load:0x00000001
      146622000	      7229	8000bc78	054baa83	lw	x21,84(x23)	 x23:0x80025c60 x21=0xfbac2d00 PA:0x80025cb4 load:0xfbac2d00
      146682000	      7232	8000bc7c	058bab03	lw	x22,88(x23)	 x23:0x80025c60 x22=0x00000000 PA:0x80025cb8 load:0x00000000
      146902000	      7243	8000bc80	05cbab83	lw	x23,92(x23)	 x23:0x80025c60 x23=0x80025c60 PA:0x80025cbc load:0x80025c60
      147042000	      7250	8000bc84	060bac03	lw	x24,96(x23)	 x23:0x80025c60 x24=0x71500845 PA:0x80025cc0 load:0x71500845
      147302000	      7263	8000bc88	064bac83	lw	x25,100(x23)	 x23:0x80025c60 x25=0x80000001 PA:0x80025cc4 load:0x80000001
      147482000	      7272	8000bc8c	068bad03	lw	x26,104(x23)	 x23:0x80025c60 x26=0x00004000 PA:0x80025cc8 load:0x00004000
      147542000	      7275	8000bc90	06cbad83	lw	x27,108(x23)	 x23:0x80025c60 x27=0xffffffff PA:0x80025ccc load:0xffffffff
      147982000	      7297	8000bc94	070bae03	lw	x28,112(x23)	 x23:0x80025c60 x28=0x00000000 PA:0x80025cd0 load:0x00000000
      148222000	      7309	8000bc98	074bae83	lw	x29,116(x23)	 x23:0x80025c60 x29=0x00000001 PA:0x80025cd4 load:0x00000001
      148682000	      7332	8000bc9c	078baf03	lw	x30,120(x23)	 x23:0x80025c60 x30=0x00000080 PA:0x80025cd8 load:0x00000080
      148742000	      7335	8000bca0	07cbaf83	lw	x31,124(x23)	 x23:0x80025c60 x31=0x80021e73 PA:0x80025cdc load:0x80021e73
      148762000	      7336	8000bca4	080b8b93	addi	x23,x23,128	 x23:0x80025c60 x23=0x80025ce0
      148782000	      7337	8000bca8	000b82b3	add	x5,x23,x0	 x23:0x80025ce0  x0:0x00000000  x5=0x80025ce0
      149042000	      7350	8000bcac	0002ab83	lw	x23,0(x5)	  x5:0x80025ce0 x23=0x80021df8 PA:0x80025ce0 load:0x80021df8
      149062000	      7351	8000bcb0	0291	c.addi	x5,4	  x5:0x80025ce0  x5=0x80025ce4
      149082000	      7352	8000bcb2	30200073	mret	
      149142000	      7355	80009b8c	68695637	lui	x12,0x68695	 x12=0x68695000
      149162000	      7356	80009b90	c611	c.beqz	x12,80009b9c	 x12:0x68695000
      149182000	      7357	80009b92	036a4c63	blt	x20,x22,80009bca	 x20:0x00000001 x22:0x00000000
      149202000	      7358	80009b96	3248dd73	csrrwi	x26,mhpmevent4,17	 x26=0x00000002
      149262000	      7361	80009b9a	0588	c.addi4spn	x10,x2,704	 x10=0x000004c0
      149282000	      7362	80009b9c	8ea1	c.xor	x13,x8	 x13:0xffffffff  x8:0x0000010e x13=0xfffffef1
      149302000	      7363	80009b9e	ce81	c.beqz	x13,80009bb6	 x13:0xfffffef1
      149742000	      7385	80009ba0	8d61	c.and	x10,x8	 x10:0x000004c0  x8:0x0000010e x10=0x00000000
      150022000	      7399	80009ba2	4439f613	andi	x12,x19,1091	 x19:0x80000000 x12=0x00000000
      150042000	      7400	80009ba6	013a5893	srli	x17,x20,0x13	 x20:0x00000001 x17=0x00000000
      150062000	      7401	80009baa	41fa01b3	sub	x3,x20,x31	 x20:0x00000001 x31:0x80021e73  x3=0x7ffde18e
      150082000	      7402	80009bae	0001	c.addi	x0,0	  x0:0x00000000  x0=0x00000000
      150102000	      7403	80009bb0	7c09b173	csrrc	x2,0x7c0,x19	 x19:0x80000000  x2=0x00000101
      150162000	      7406	80009bb4	8e5d	c.or	x12,x15	 x12:0x00000000 x15:0x00000000 x12=0x00000000
      150182000	      7407	80009bb6	006ee833	or	x16,x29,x6	 x29:0x00000001  x6:0x80000000 x16=0x80000001
      150222000	      7409	80009bba	034a3333	mulhu	x6,x20,x20	 x20:0x00000001 x20:0x00000001  x6=0x00000000
      150242000	      7410	80009bbe	02fe8433	mul	x8,x29,x15	 x29:0x00000001 x15:0x00000000  x8=0x00000000
      150262000	      7411	80009bc2	8c51	c.or	x8,x12	  x8:0x00000000 x12:0x00000000  x8=0x00000000
      150742000	      7435	80009bc4	015f2a33	slt	x20,x30,x21	 x30:0x00000080 x21:0xfbac2d00 x20=0x00000000
      150762000	      7436	80009bc8	84d5	c.srai	x9,0x15	  x9:0x00000000  x9=0x00000000
      150782000	      7437	80009bca	01fc6133	or	x2,x24,x31	 x24:0x71500845 x31:0x80021e73  x2=0xf1521e77
      150802000	      7438	80009bce	9b1e	c.add	x22,x7	 x22:0x00000000  x7:0x00003c01 x22=0x00003c01
      151042000	      7450	80009bd0	621dc393	xori	x7,x27,1569	 x27:0xffffffff  x7=0xfffff9de
      151242000	      7460	80009bd4	019ea8b3	slt	x17,x29,x25	 x29:0x00000001 x25:0x80000001 x17=0x00000000
      151262000	      7461	80009bd8	32521473	csrrw	x8,mhpmevent5,x4	  x4:0x800038ee  x8=0x00000004
      151342000	      7465	80009bdc	7cdb7993	andi	x19,x22,1997	 x22:0x00003c01 x19=0x00000401
      151462000	      7471	80009be0	09d5	c.addi	x19,21	 x19:0x00000401 x19=0x00000416
      151482000	      7472	80009be2	003b6033	or	x0,x22,x3	 x22:0x00003c01  x3:0x7ffde18e  x0=0x00000000
      151502000	      7473	80009be6	4309	c.li	x6,2	  x6=0x00000002
      151662000	      7481	80009be8	02852233	mulhsu	x4,x10,x8	 x10:0x00000000  x8:0x00000004  x4=0x00000000
      152402000	      7518	80009bec	0390cf33	div	x30,x1,x25	  x1:0x00000000 x25:0x80000001 x30=0x00000000
      152422000	      7519	80009bf0	85bebe17	auipc	x28,0x85beb	 x28=0x05bf4bf0
      152442000	      7520	80009bf4	6afea513	slti	x10,x29,1711	 x29:0x00000001 x10=0x00000001
      152462000	      7521	80009bf8	40a95913	srai	x18,x18,0xa	 x18:0x00000000 x18=0x00000000
      152482000	      7522	80009bfc	d8acc613	xori	x12,x25,-630	 x25:0x80000001 x12=0x7ffffd8b
      152502000	      7523	80009c00	017feb33	or	x22,x31,x23	 x31:0x80021e73 x23:0x80021df8 x22=0x80021ffb
      152522000	      7524	80009c04	0001	c.addi	x0,0	  x0:0x00000000  x0=0x00000000
      152622000	      7529	80009c06	016a25b3	slt	x11,x20,x22	 x20:0x00000000 x22:0x80021ffb x11=0x00000000
      153042000	      7550	80009c0a	41ce5633	sra	x12,x28,x28	 x28:0x05bf4bf0 x28:0x05bf4bf0 x12=0x000005bf
      153062000	      7551	80009c0e	c09d	c.beqz	x9,80009c34	  x9:0x00000000
      153202000	      7558	80009c34	edbb0413	addi	x8,x22,-293	 x22:0x80021ffb  x8=0x80021ed6
      153702000	      7583	80009c38	8da9	c.xor	x11,x10	 x11:0x00000000 x10:0x00000001 x11=0x00000001
      153722000	      7584	80009c3a	019849b3	xor	x19,x16,x25	 x16:0x80000001 x25:0x80000001 x19=0x00000000
      154142000	      7605	80009c3e	b0b06673	csrrsi	x12,mhpmcounter11,0	 x12=0x00000004
      154302000	      7613	80009c42	00c6afb3	slt	x31,x13,x12	 x13:0xfffffef1 x12:0x00000004 x31=0x00000001
      154422000	      7619	80009c46	b0602573	csrrs	x10,mhpmcounter6,x0	  x0:0x00000000 x10=0x00000098
      155162000	      7656	80009c4a	02e94f33	div	x30,x18,x14	 x18:0x00000000 x14:0x312e8860 x30=0x00000000
      155182000	      7657	80009c4e	323f50f3	csrrwi	x1,mhpmevent3,30	  x1=0x00000001
      155242000	      7660	80009c52	ca81	c.beqz	x13,80009c62	 x13:0xfffffef1
      155262000	      7661	80009c54	b0a065f3	csrrsi	x11,mhpmcounter10,0	 x11=0x000000d3
      155282000	      7662	80009c58	c519	c.beqz	x10,80009c66	 x10:0x00000098
      155302000	      7663	80009c5a	41c7dd33	sra	x26,x15,x28	 x15:0x00000000 x28:0x05bf4bf0 x26=0x00000000
      155322000	      7664	80009c5e	03af0963	beq	x30,x26,80009c90	 x30:0x00000000 x26:0x00000000
      156082000	      7702	80009c90	b895f273	csrrci	x4,mhpmcounter9h,11	  x4=0x00000000
      157042000	      7750	80009c94	035eefb3	rem	x31,x29,x21	 x29:0x00000001 x21:0xfbac2d00 x31=0x00000001
      157062000	      7751	80009c98	8e05	c.sub	x12,x9	 x12:0x00000004  x9:0x00000000 x12=0x00000004
      157082000	      7752	80009c9a	01abbeb3	sltu	x29,x23,x26	 x23:0x80021df8 x26:0x00000000 x29=0x00000000
      157102000	      7753	80009c9e	0001	c.addi	x0,0	  x0:0x00000000  x0=0x00000000
      157122000	      7754	80009ca0	6de5	c.lui	x27,0x19	 x27=0x00019000
      157142000	      7755	80009ca2	b8703273	csrrc	x4,mhpmcounter7h,x0	  x0:0x00000000  x4=0x00000000
      157162000	      7756	80009ca6	9d7a	c.add	x26,x30	 x26:0x00000000 x30:0x00000000 x26=0x00000000
      157182000	      7757	80009ca8	0077ddb3	srl	x27,x15,x7	 x15:0x00000000  x7:0xfffff9de x27=0x00000000
      157202000	      7758	80009cac	41c90e33	sub	x28,x18,x28	 x18:0x00000000 x28:0x05bf4bf0 x28=0xfa40b410
      157382000	      7767	80009cb0	3b7073f3	csrrci	x7,pmpaddr7,0	  x7=0x3dddeb0c
      157542000	      7775	80009cb4	02f7e5b3	rem	x11,x15,x15	 x15:0x00000000 x15:0x00000000 x11=0x00000000
      157562000	      7776	80009cb8	0ebd	c.addi	x29,15	 x29:0x00000000 x29=0x0000000f
      157602000	      7778	80009cba	f15f9e73	csrrw	x0,0xf15,x0	  x0:0x00000000  x0=0x00000000
      157662000	      7781	80002700	0800006f	jal	x0,80002780	  x0=0x00000000
      157722000	      7784	80002780	12f1	c.addi	x5,-4	  x5:0x80025ce4  x5=0x80025ce0
      157782000	      7787	80002782	0172a023	sw	x23,0(x5)	  x5:0x80025ce0 x23:0x80021df8 PA:0x80025ce0 store:0x80021df8 load:0xffffffff
      157802000	      7788	80002786	00028bb3	add	x23,x5,x0	  x5:0x80025ce0  x0:0x00000000 x23=0x80025ce0
      157822000	      7789	8000278a	f80b8b93	addi	x23,x23,-128	 x23:0x80025ce0 x23=0x80025c60
      157962000	      7796	8000278e	001ba223	sw	x1,4(x23)	 x23:0x80025c60  x1:0x00000001 PA:0x80025c64 store:0x00000001 load:0xffffffff
      158082000	      7802	80002792	002ba423	sw	x2,8(x23)	 x23:0x80025c60  x2:0xf1521e77 PA:0x80025c68 store:0xf1521e77 load:0xffffffff
      158262000	      7811	80002796	003ba623	sw	x3,12(x23)	 x23:0x80025c60  x3:0x7ffde18e PA:0x80025c6c store:0x7ffde18e load:0xffffffff
      158302000	      7813	8000279a	004ba823	sw	x4,16(x23)	 x23:0x80025c60  x4:0x00000000 PA:0x80025c70 store:0x00000000 load:0xffffffff
      158322000	      7814	8000279e	005baa23	sw	x5,20(x23)	 x23:0x80025c60  x5:0x80025ce0 PA:0x80025c74 store:0x80025ce0 load:0xffffffff
      158522000	      7824	800027a2	006bac23	sw	x6,24(x23)	 x23:0x80025c60  x6:0x00000002 PA:0x80025c78 store:0x00000002 load:0xffffffff
      158742000	      7835	800027a6	007bae23	sw	x7,28(x23)	 x23:0x80025c60  x7:0x3dddeb0c PA:0x80025c7c store:0x3dddeb0c load:0xffffffff
      158802000	      7838	800027aa	028ba023	sw	x8,32(x23)	 x23:0x80025c60  x8:0x80021ed6 PA:0x80025c80 store:0x80021ed6 load:0xffffffff
      158842000	      7840	800027ae	029ba223	sw	x9,36(x23)	 x23:0x80025c60  x9:0x00000000 PA:0x80025c84 store:0x00000000 load:0xffffffff
      158942000	      7845	800027b2	02aba423	sw	x10,40(x23)	 x23:0x80025c60 x10:0x00000098 PA:0x80025c88 store:0x00000098 load:0xffffffff
      159002000	      7848	800027b6	02bba623	sw	x11,44(x23)	 x23:0x80025c60 x11:0x00000000 PA:0x80025c8c store:0x00000000 load:0xffffffff
      159182000	      7857	800027ba	02cba823	sw	x12,48(x23)	 x23:0x80025c60 x12:0x00000004 PA:0x80025c90 store:0x00000004 load:0xffffffff
      159262000	      7861	800027be	02dbaa23	sw	x13,52(x23)	 x23:0x80025c60 x13:0xfffffef1 PA:0x80025c94 store:0xfffffef1 load:0xffffffff
      159422000	      7869	800027c2	02ebac23	sw	x14,56(x23)	 x23:0x80025c60 x14:0x312e8860 PA:0x80025c98 store:0x312e8860 load:0xffffffff
      159482000	      7872	800027c6	02fbae23	sw	x15,60(x23)	 x23:0x80025c60 x15:0x00000000 PA:0x80025c9c store:0x00000000 load:0xffffffff
      159742000	      7885	800027ca	050ba023	sw	x16,64(x23)	 x23:0x80025c60 x16:0x80000001 PA:0x80025ca0 store:0x80000001 load:0xffffffff
      159802000	      7888	800027ce	051ba223	sw	x17,68(x23)	 x23:0x80025c60 x17:0x00000000 PA:0x80025ca4 store:0x00000000 load:0xffffffff
      159822000	      7889	800027d2	052ba423	sw	x18,72(x23)	 x23:0x80025c60 x18:0x00000000 PA:0x80025ca8 store:0x00000000 load:0xffffffff
      159982000	      7897	800027d6	053ba623	sw	x19,76(x23)	 x23:0x80025c60 x19:0x00000000 PA:0x80025cac store:0x00000000 load:0xffffffff
      160042000	      7900	800027da	054ba823	sw	x20,80(x23)	 x23:0x80025c60 x20:0x00000000 PA:0x80025cb0 store:0x00000000 load:0xffffffff
      160062000	      7901	800027de	055baa23	sw	x21,84(x23)	 x23:0x80025c60 x21:0xfbac2d00 PA:0x80025cb4 store:0xfbac2d00 load:0xffffffff
      160282000	      7912	800027e2	056bac23	sw	x22,88(x23)	 x23:0x80025c60 x22:0x80021ffb PA:0x80025cb8 store:0x80021ffb load:0xffffffff
      160582000	      7927	800027e6	057bae23	sw	x23,92(x23)	 x23:0x80025c60 x23:0x80025c60 PA:0x80025cbc store:0x80025c60 load:0xffffffff
      160642000	      7930	800027ea	078ba023	sw	x24,96(x23)	 x23:0x80025c60 x24:0x71500845 PA:0x80025cc0 store:0x71500845 load:0xffffffff
      160662000	      7931	800027ee	079ba223	sw	x25,100(x23)	 x23:0x80025c60 x25:0x80000001 PA:0x80025cc4 store:0x80000001 load:0xffffffff
      160682000	      7932	800027f2	07aba423	sw	x26,104(x23)	 x23:0x80025c60 x26:0x00000000 PA:0x80025cc8 store:0x00000000 load:0xffffffff
      160842000	      7940	800027f6	07bba623	sw	x27,108(x23)	 x23:0x80025c60 x27:0x00000000 PA:0x80025ccc store:0x00000000 load:0xffffffff
      160902000	      7943	800027fa	07cba823	sw	x28,112(x23)	 x23:0x80025c60 x28:0xfa40b410 PA:0x80025cd0 store:0xfa40b410 load:0xffffffff
      161082000	      7952	800027fe	07dbaa23	sw	x29,116(x23)	 x23:0x80025c60 x29:0x0000000f PA:0x80025cd4 store:0x0000000f load:0xffffffff
      161542000	      7975	80002802	07ebac23	sw	x30,120(x23)	 x23:0x80025c60 x30:0x00000000 PA:0x80025cd8 store:0x00000000 load:0xffffffff
      161922000	      7994	80002806	07fbae23	sw	x31,124(x23)	 x23:0x80025c60 x31:0x00000001 PA:0x80025cdc store:0x00000001 load:0xffffffff
      161942000	      7995	8000280a	000b82b3	add	x5,x23,x0	 x23:0x80025c60  x0:0x00000000  x5=0x80025c60
      161962000	      7996	8000280e	90000c37	lui	x24,0x90000	 x24=0x90000000
      161982000	      7997	80002812	1c71	c.addi	x24,-4	 x24:0x90000000 x24=0x8ffffffc
      162002000	      7998	80002814	4f21	c.li	x30,8	 x30=0x00000008
      162022000	      7999	80002816	0f22	c.slli	x30,0x8	 x30:0x00000008 x30=0x00000800
      162042000	      8000	80002818	000f0f13	addi	x30,x30,0	 x30:0x00000800 x30=0x00000800
      162102000	      8003	8000281c	01ec2023	sw	x30,0(x24)	 x24:0x8ffffffc x30:0x00000800 PA:0x8ffffffc store:0x00000800 load:0xffffffff
      162122000	      8004	80002820	34102f73	csrrs	x30,mepc,x0	  x0:0x00000000 x30=0x80009cba
      162142000	      8005	80002824	34202f73	csrrs	x30,mcause,x0	  x0:0x00000000 x30=0x00000002
      162162000	      8006	80002828	4c0d	c.li	x24,3	 x24=0x00000003
      162182000	      8007	8000282a	018f1463	bne	x30,x24,80002832	 x30:0x00000002 x24:0x00000003
      162222000	      8009	80002832	4c21	c.li	x24,8	 x24=0x00000008
      162242000	      8010	80002834	058f0d63	beq	x30,x24,8000288e	 x30:0x00000002 x24:0x00000008
      162262000	      8011	80002838	4c25	c.li	x24,9	 x24=0x00000009
      162282000	      8012	8000283a	058f0a63	beq	x30,x24,8000288e	 x30:0x00000002 x24:0x00000009
      162302000	      8013	8000283e	4c2d	c.li	x24,11	 x24=0x0000000b
      162322000	      8014	80002840	058f0763	beq	x30,x24,8000288e	 x30:0x00000002 x24:0x0000000b
      162342000	      8015	80002844	4c05	c.li	x24,1	 x24=0x00000001
      162362000	      8016	80002846	358f0363	beq	x30,x24,80002b8c	 x30:0x00000002 x24:0x00000001
      162382000	      8017	8000284a	4c15	c.li	x24,5	 x24=0x00000005
      162402000	      8018	8000284c	638f0a63	beq	x30,x24,80002e80	 x30:0x00000002 x24:0x00000005
      162422000	      8019	80002850	4c1d	c.li	x24,7	 x24=0x00000007
      162442000	      8020	80002852	158f0ce3	beq	x30,x24,800031aa	 x30:0x00000002 x24:0x00000007
      162462000	      8021	80002856	4c31	c.li	x24,12	 x24=0x0000000c
      162482000	      8022	80002858	018f1463	bne	x30,x24,80002860	 x30:0x00000002 x24:0x0000000c
      162522000	      8024	80002860	4c35	c.li	x24,13	 x24=0x0000000d
      162542000	      8025	80002862	018f1463	bne	x30,x24,8000286a	 x30:0x00000002 x24:0x0000000d
      162582000	      8027	8000286a	4c3d	c.li	x24,15	 x24=0x0000000f
      162602000	      8028	8000286c	018f1463	bne	x30,x24,80002874	 x30:0x00000002 x24:0x0000000f
      162642000	      8030	80002874	4c09	c.li	x24,2	 x24=0x00000002
      162662000	      8031	80002876	018f1463	bne	x30,x24,8000287e	 x30:0x00000002 x24:0x00000002
      162682000	      8032	8000287a	3740906f	jal	x0,8000bbee	  x0=0x00000000
      162762000	      8036	8000bbee	90000c37	lui	x24,0x90000	 x24=0x90000000
      162782000	      8037	8000bbf2	1c71	c.addi	x24,-4	 x24:0x90000000 x24=0x8ffffffc
      162802000	      8038	8000bbf4	4f29	c.li	x30,10	 x30=0x0000000a
      162822000	      8039	8000bbf6	0f22	c.slli	x30,0x8	 x30:0x0000000a x30=0x00000a00
      162842000	      8040	8000bbf8	000f0f13	addi	x30,x30,0	 x30:0x00000a00 x30=0x00000a00
      163022000	      8049	8000bbfc	01ec2023	sw	x30,0(x24)	 x24:0x8ffffffc x30:0x00000a00 PA:0x8ffffffc store:0x00000a00 load:0xffffffff
      163042000	      8050	8000bc00	90000c37	lui	x24,0x90000	 x24=0x90000000
      163062000	      8051	8000bc04	1c71	c.addi	x24,-4	 x24:0x90000000 x24=0x8ffffffc
      163082000	      8052	8000bc06	34200f13	addi	x30,x0,834	  x0:0x00000000 x30=0x00000342
      163102000	      8053	8000bc0a	0f22	c.slli	x30,0x8	 x30:0x00000342 x30=0x00034200
      163122000	      8054	8000bc0c	0f0d	c.addi	x30,3	 x30:0x00034200 x30=0x00034203
      163522000	      8074	8000bc0e	01ec2023	sw	x30,0(x24)	 x24:0x8ffffffc x30:0x00034203 PA:0x8ffffffc store:0x00034203 load:0xffffffff
      163542000	      8075	8000bc12	34202f73	csrrs	x30,mcause,x0	  x0:0x00000000 x30=0x00000002
      163742000	      8085	8000bc16	01ec2023	sw	x30,0(x24)	 x24:0x8ffffffc x30:0x00000002 PA:0x8ffffffc store:0x00000002 load:0xffffffff
      163762000	      8086	8000bc1a	34102f73	csrrs	x30,mepc,x0	  x0:0x00000000 x30=0x80009cba
      163782000	      8087	8000bc1e	0f11	c.addi	x30,4	 x30:0x80009cba x30=0x80009cbe
      163802000	      8088	8000bc20	341f1073	csrrw	x0,mepc,x30	 x30:0x80009cbe  x0=0x00000000
      163822000	      8089	8000bc24	00028bb3	add	x23,x5,x0	  x5:0x80025c60  x0:0x00000000 x23=0x80025c60
      163842000	      8090	8000bc28	004ba083	lw	x1,4(x23)	 x23:0x80025c60  x1=0x00000001 PA:0x80025c64 load:0x00000001
      163982000	      8097	8000bc2c	008ba103	lw	x2,8(x23)	 x23:0x80025c60  x2=0xf1521e77 PA:0x80025c68 load:0xf1521e77
      164222000	      8109	8000bc30	00cba183	lw	x3,12(x23)	 x23:0x80025c60  x3=0x7ffde18e PA:0x80025c6c load:0x7ffde18e
      164282000	      8112	8000bc34	010ba203	lw	x4,16(x23)	 x23:0x80025c60  x4=0x00000000 PA:0x80025c70 load:0x00000000
      164302000	      8113	8000bc38	014ba283	lw	x5,20(x23)	 x23:0x80025c60  x5=0x80025ce0 PA:0x80025c74 load:0x80025ce0
      164442000	      8120	8000bc3c	018ba303	lw	x6,24(x23)	 x23:0x80025c60  x6=0x00000002 PA:0x80025c78 load:0x00000002
      164462000	      8121	8000bc40	01cba383	lw	x7,28(x23)	 x23:0x80025c60  x7=0x3dddeb0c PA:0x80025c7c load:0x3dddeb0c
      164482000	      8122	8000bc44	020ba403	lw	x8,32(x23)	 x23:0x80025c60  x8=0x80021ed6 PA:0x80025c80 load:0x80021ed6
      164502000	      8123	8000bc48	024ba483	lw	x9,36(x23)	 x23:0x80025c60  x9=0x00000000 PA:0x80025c84 load:0x00000000
      164902000	      8143	8000bc4c	028ba503	lw	x10,40(x23)	 x23:0x80025c60 x10=0x00000098 PA:0x80025c88 load:0x00000098
      164962000	      8146	8000bc50	02cba583	lw	x11,44(x23)	 x23:0x80025c60 x11=0x00000000 PA:0x80025c8c load:0x00000000
      164982000	      8147	8000bc54	030ba603	lw	x12,48(x23)	 x23:0x80025c60 x12=0x00000004 PA:0x80025c90 load:0x00000004
      165402000	      8168	8000bc58	034ba683	lw	x13,52(x23)	 x23:0x80025c60 x13=0xfffffef1 PA:0x80025c94 load:0xfffffef1
      165482000	      8172	8000bc5c	038ba703	lw	x14,56(x23)	 x23:0x80025c60 x14=0x312e8860 PA:0x80025c98 load:0x312e8860
      165902000	      8193	8000bc60	03cba783	lw	x15,60(x23)	 x23:0x80025c60 x15=0x00000000 PA:0x80025c9c load:0x00000000
      166362000	      8216	8000bc64	040ba803	lw	x16,64(x23)	 x23:0x80025c60 x16=0x80000001 PA:0x80025ca0 load:0x80000001
      166702000	      8233	8000bc68	044ba883	lw	x17,68(x23)	 x23:0x80025c60 x17=0x00000000 PA:0x80025ca4 load:0x00000000
      166762000	      8236	8000bc6c	048ba903	lw	x18,72(x23)	 x23:0x80025c60 x18=0x00000000 PA:0x80025ca8 load:0x00000000
      166842000	      8240	8000bc70	04cba983	lw	x19,76(x23)	 x23:0x80025c60 x19=0x00000000 PA:0x80025cac load:0x00000000
      166902000	      8243	8000bc74	050baa03	lw	x20,80(x23)	 x23:0x80025c60 x20=0x00000000 PA:0x80025cb0 load:0x00000000
      166922000	      8244	8000bc78	054baa83	lw	x21,84(x23)	 x23:0x80025c60 x21=0xfbac2d00 PA:0x80025cb4 load:0xfbac2d00
      166942000	      8245	8000bc7c	058bab03	lw	x22,88(x23)	 x23:0x80025c60 x22=0x80021ffb PA:0x80025cb8 load:0x80021ffb
      167182000	      8257	8000bc80	05cbab83	lw	x23,92(x23)	 x23:0x80025c60 x23=0x80025c60 PA:0x80025cbc load:0x80025c60
      167862000	      8291	8000bc84	060bac03	lw	x24,96(x23)	 x23:0x80025c60 x24=0x71500845 PA:0x80025cc0 load:0x71500845
      168082000	      8302	8000bc88	064bac83	lw	x25,100(x23)	 x23:0x80025c60 x25=0x80000001 PA:0x80025cc4 load:0x80000001
      168302000	      8313	8000bc8c	068bad03	lw	x26,104(x23)	 x23:0x80025c60 x26=0x00000000 PA:0x80025cc8 load:0x00000000
      168362000	      8316	8000bc90	06cbad83	lw	x27,108(x23)	 x23:0x80025c60 x27=0x00000000 PA:0x80025ccc load:0x00000000
      168382000	      8317	8000bc94	070bae03	lw	x28,112(x23)	 x23:0x80025c60 x28=0xfa40b410 PA:0x80025cd0 load:0xfa40b410
      168402000	      8318	8000bc98	074bae83	lw	x29,116(x23)	 x23:0x80025c60 x29=0x0000000f PA:0x80025cd4 load:0x0000000f
      168822000	      8339	8000bc9c	078baf03	lw	x30,120(x23)	 x23:0x80025c60 x30=0x00000000 PA:0x80025cd8 load:0x00000000
      168882000	      8342	8000bca0	07cbaf83	lw	x31,124(x23)	 x23:0x80025c60 x31=0x00000001 PA:0x80025cdc load:0x00000001
      168902000	      8343	8000bca4	080b8b93	addi	x23,x23,128	 x23:0x80025c60 x23=0x80025ce0
      168922000	      8344	8000bca8	000b82b3	add	x5,x23,x0	 x23:0x80025ce0  x0:0x00000000  x5=0x80025ce0
      168982000	      8347	8000bcac	0002ab83	lw	x23,0(x5)	  x5:0x80025ce0 x23=0x80021df8 PA:0x80025ce0 load:0x80021df8
      169002000	      8348	8000bcb0	0291	c.addi	x5,4	  x5:0x80025ce0  x5=0x80025ce4
      169022000	      8349	8000bcb2	30200073	mret	
      169082000	      8352	80009cbe	9316	c.add	x6,x5	  x6:0x00000002  x5:0x80025ce4  x6=0x80025ce6
      169102000	      8353	80009cc0	40add633	sra	x12,x27,x10	 x27:0x00000000 x10:0x00000098 x12=0x00000000
      169122000	      8354	80009cc4	0ff0000f	fence	iorw,iorw	
      169142000	      8355	80009cc8	ed81	c.bnez	x11,80009ce0	 x11:0x00000000
      169162000	      8356	80009cca	01061233	sll	x4,x12,x16	 x12:0x00000000 x16:0x80000001  x4=0x00000000
      169782000	      8387	80009cce	705a6893	ori	x17,x20,1797	 x20:0x00000000 x17=0x00000705
      169802000	      8388	80009cd2	0625	c.addi	x12,9	 x12:0x00000000 x12=0x00000009
      169822000	      8389	80009cd4	01605c33	srl	x24,x0,x22	  x0:0x00000000 x22:0x80021ffb x24=0x00000000
      169842000	      8390	80009cd8	00949993	slli	x19,x9,0x9	  x9:0x00000000 x19=0x00000000
      169882000	      8392	80009cdc	029a4d33	div	x26,x20,x9	 x20:0x00000000  x9:0x00000000 x26=0xffffffff
      170002000	      8398	80009ce0	6e87b0b7	lui	x1,0x6e87b	  x1=0x6e87b000
      170202000	      8408	80009ce4	006bdf13	srli	x30,x23,0x6	 x23:0x80021df8 x30=0x02000877
      170282000	      8412	80009ce8	01c3df93	srli	x31,x7,0x1c	  x7:0x3dddeb0c x31=0x00000003
      170302000	      8413	80009cec	64d9	c.lui	x9,0x16	  x9=0x00016000
      170542000	      8425	80009cee	0120e663	bltu	x1,x18,80009cfa	  x1:0x6e87b000 x18:0x00000000
      170582000	      8427	80009cf2	029f21b3	mulhsu	x3,x30,x9	 x30:0x02000877  x9:0x00016000  x3=0x000002c0
      170602000	      8428	80009cf6	0320cb63	blt	x1,x18,80009d2c	  x1:0x6e87b000 x18:0x00000000
      170822000	      8439	80009cfa	b7f07713	andi	x14,x0,-1153	  x0:0x00000000 x14=0x00000000
      175382000	      8667	80009cfe	00109f93	slli	x31,x1,0x1	  x1:0x6e87b000 x31=0xdd0f6000
      175402000	      8668	80009d02	01b5dab3	srl	x21,x11,x27	 x11:0x00000000 x27:0x00000000 x21=0x00000000
      175422000	      8669	80009d06	00624133	xor	x2,x4,x6	  x4:0x00000000  x6:0x80025ce6  x2=0x80025ce6
      175442000	      8670	80009d0a	40675533	sra	x10,x14,x6	 x14:0x00000000  x6:0x80025ce6 x10=0x00000000
      175462000	      8671	80009d0e	02bec963	blt	x29,x11,80009d40	 x29:0x0000000f x11:0x00000000
      175482000	      8672	80009d12	00f38663	beq	x7,x15,80009d1e	  x7:0x3dddeb0c x15:0x00000000
      175502000	      8673	80009d16	0001	c.addi	x0,0	  x0:0x00000000  x0=0x00000000
      175522000	      8674	80009d18	0001	c.addi	x0,0	  x0:0x00000000  x0=0x00000000
      175942000	      8695	80009d1a	008b5db3	srl	x27,x22,x8	 x22:0x80021ffb  x8:0x80021ed6 x27=0x00000200
      175962000	      8696	80009d1e	6e79	c.lui	x28,0x1e	 x28=0x0001e000
      175982000	      8697	80009d20	00f03d33	sltu	x26,x0,x15	  x0:0x00000000 x15:0x00000000 x26=0x00000000
      176002000	      8698	80009d24	7b0071f3	csrrci	x0,dcsr,0	  x0=0x00000000
      176062000	      8701	80002700	0800006f	jal	x0,80002780	  x0=0x00000000
      176122000	      8704	80002780	12f1	c.addi	x5,-4	  x5:0x80025ce4  x5=0x80025ce0
      176182000	      8707	80002782	0172a023	sw	x23,0(x5)	  x5:0x80025ce0 x23:0x80021df8 PA:0x80025ce0 store:0x80021df8 load:0xffffffff
      176202000	      8708	80002786	00028bb3	add	x23,x5,x0	  x5:0x80025ce0  x0:0x00000000 x23=0x80025ce0
      176222000	      8709	8000278a	f80b8b93	addi	x23,x23,-128	 x23:0x80025ce0 x23=0x80025c60
      176282000	      8712	8000278e	001ba223	sw	x1,4(x23)	 x23:0x80025c60  x1:0x6e87b000 PA:0x80025c64 store:0x6e87b000 load:0xffffffff
      176302000	      8713	80002792	002ba423	sw	x2,8(x23)	 x23:0x80025c60  x2:0x80025ce6 PA:0x80025c68 store:0x80025ce6 load:0xffffffff
      176482000	      8722	80002796	003ba623	sw	x3,12(x23)	 x23:0x80025c60  x3:0x000002c0 PA:0x80025c6c store:0x000002c0 load:0xffffffff
      176682000	      8732	8000279a	004ba823	sw	x4,16(x23)	 x23:0x80025c60  x4:0x00000000 PA:0x80025c70 store:0x00000000 load:0xffffffff
      176742000	      8735	8000279e	005baa23	sw	x5,20(x23)	 x23:0x80025c60  x5:0x80025ce0 PA:0x80025c74 store:0x80025ce0 load:0xffffffff
      176782000	      8737	800027a2	006bac23	sw	x6,24(x23)	 x23:0x80025c60  x6:0x80025ce6 PA:0x80025c78 store:0x80025ce6 load:0xffffffff
      176982000	      8747	800027a6	007bae23	sw	x7,28(x23)	 x23:0x80025c60  x7:0x3dddeb0c PA:0x80025c7c store:0x3dddeb0c load:0xffffffff
      177202000	      8758	800027aa	028ba023	sw	x8,32(x23)	 x23:0x80025c60  x8:0x80021ed6 PA:0x80025c80 store:0x80021ed6 load:0xffffffff
      177282000	      8762	800027ae	029ba223	sw	x9,36(x23)	 x23:0x80025c60  x9:0x00016000 PA:0x80025c84 store:0x00016000 load:0xffffffff
      177442000	      8770	800027b2	02aba423	sw	x10,40(x23)	 x23:0x80025c60 x10:0x00000000 PA:0x80025c88 store:0x00000000 load:0xffffffff
      177802000	      8788	800027b6	02bba623	sw	x11,44(x23)	 x23:0x80025c60 x11:0x00000000 PA:0x80025c8c store:0x00000000 load:0xffffffff
      177862000	      8791	800027ba	02cba823	sw	x12,48(x23)	 x23:0x80025c60 x12:0x00000009 PA:0x80025c90 store:0x00000009 load:0xffffffff
      177882000	      8792	800027be	02dbaa23	sw	x13,52(x23)	 x23:0x80025c60 x13:0xfffffef1 PA:0x80025c94 store:0xfffffef1 load:0xffffffff
      178082000	      8802	800027c2	02ebac23	sw	x14,56(x23)	 x23:0x80025c60 x14:0x00000000 PA:0x80025c98 store:0x00000000 load:0xffffffff
      178142000	      8805	800027c6	02fbae23	sw	x15,60(x23)	 x23:0x80025c60 x15:0x00000000 PA:0x80025c9c store:0x00000000 load:0xffffffff
      178342000	      8815	800027ca	050ba023	sw	x16,64(x23)	 x23:0x80025c60 x16:0x80000001 PA:0x80025ca0 store:0x80000001 load:0xffffffff
      178402000	      8818	800027ce	051ba223	sw	x17,68(x23)	 x23:0x80025c60 x17:0x00000705 PA:0x80025ca4 store:0x00000705 load:0xffffffff
      178482000	      8822	800027d2	052ba423	sw	x18,72(x23)	 x23:0x80025c60 x18:0x00000000 PA:0x80025ca8 store:0x00000000 load:0xffffffff
      178622000	      8829	800027d6	053ba623	sw	x19,76(x23)	 x23:0x80025c60 x19:0x00000000 PA:0x80025cac store:0x00000000 load:0xffffffff
      178742000	      8835	800027da	054ba823	sw	x20,80(x23)	 x23:0x80025c60 x20:0x00000000 PA:0x80025cb0 store:0x00000000 load:0xffffffff
      178802000	      8838	800027de	055baa23	sw	x21,84(x23)	 x23:0x80025c60 x21:0x00000000 PA:0x80025cb4 store:0x00000000 load:0xffffffff
      178942000	      8845	800027e2	056bac23	sw	x22,88(x23)	 x23:0x80025c60 x22:0x80021ffb PA:0x80025cb8 store:0x80021ffb load:0xffffffff
      179042000	      8850	800027e6	057bae23	sw	x23,92(x23)	 x23:0x80025c60 x23:0x80025c60 PA:0x80025cbc store:0x80025c60 load:0xffffffff
      179102000	      8853	800027ea	078ba023	sw	x24,96(x23)	 x23:0x80025c60 x24:0x00000000 PA:0x80025cc0 store:0x00000000 load:0xffffffff
      179122000	      8854	800027ee	079ba223	sw	x25,100(x23)	 x23:0x80025c60 x25:0x80000001 PA:0x80025cc4 store:0x80000001 load:0xffffffff
      179482000	      8872	800027f2	07aba423	sw	x26,104(x23)	 x23:0x80025c60 x26:0x00000000 PA:0x80025cc8 store:0x00000000 load:0xffffffff
      179922000	      8894	800027f6	07bba623	sw	x27,108(x23)	 x23:0x80025c60 x27:0x00000200 PA:0x80025ccc store:0x00000200 load:0xffffffff
      179982000	      8897	800027fa	07cba823	sw	x28,112(x23)	 x23:0x80025c60 x28:0x0001e000 PA:0x80025cd0 store:0x0001e000 load:0xffffffff
      180202000	      8908	800027fe	07dbaa23	sw	x29,116(x23)	 x23:0x80025c60 x29:0x0000000f PA:0x80025cd4 store:0x0000000f load:0xffffffff
      180422000	      8919	80002802	07ebac23	sw	x30,120(x23)	 x23:0x80025c60 x30:0x02000877 PA:0x80025cd8 store:0x02000877 load:0xffffffff
      180482000	      8922	80002806	07fbae23	sw	x31,124(x23)	 x23:0x80025c60 x31:0xdd0f6000 PA:0x80025cdc store:0xdd0f6000 load:0xffffffff
      180502000	      8923	8000280a	000b82b3	add	x5,x23,x0	 x23:0x80025c60  x0:0x00000000  x5=0x80025c60
      180522000	      8924	8000280e	90000c37	lui	x24,0x90000	 x24=0x90000000
      180542000	      8925	80002812	1c71	c.addi	x24,-4	 x24:0x90000000 x24=0x8ffffffc
      180562000	      8926	80002814	4f21	c.li	x30,8	 x30=0x00000008
      180582000	      8927	80002816	0f22	c.slli	x30,0x8	 x30:0x00000008 x30=0x00000800
      180602000	      8928	80002818	000f0f13	addi	x30,x30,0	 x30:0x00000800 x30=0x00000800
      180662000	      8931	8000281c	01ec2023	sw	x30,0(x24)	 x24:0x8ffffffc x30:0x00000800 PA:0x8ffffffc store:0x00000800 load:0xffffffff
      180682000	      8932	80002820	34102f73	csrrs	x30,mepc,x0	  x0:0x00000000 x30=0x80009d24
      180702000	      8933	80002824	34202f73	csrrs	x30,mcause,x0	  x0:0x00000000 x30=0x00000002
      180722000	      8934	80002828	4c0d	c.li	x24,3	 x24=0x00000003
      180742000	      8935	8000282a	018f1463	bne	x30,x24,80002832	 x30:0x00000002 x24:0x00000003
      180782000	      8937	80002832	4c21	c.li	x24,8	 x24=0x00000008
      180802000	      8938	80002834	058f0d63	beq	x30,x24,8000288e	 x30:0x00000002 x24:0x00000008
      180822000	      8939	80002838	4c25	c.li	x24,9	 x24=0x00000009
      180842000	      8940	8000283a	058f0a63	beq	x30,x24,8000288e	 x30:0x00000002 x24:0x00000009
      180862000	      8941	8000283e	4c2d	c.li	x24,11	 x24=0x0000000b
      180882000	      8942	80002840	058f0763	beq	x30,x24,8000288e	 x30:0x00000002 x24:0x0000000b
      180902000	      8943	80002844	4c05	c.li	x24,1	 x24=0x00000001
      180922000	      8944	80002846	358f0363	beq	x30,x24,80002b8c	 x30:0x00000002 x24:0x00000001
      180942000	      8945	8000284a	4c15	c.li	x24,5	 x24=0x00000005
      180962000	      8946	8000284c	638f0a63	beq	x30,x24,80002e80	 x30:0x00000002 x24:0x00000005
      180982000	      8947	80002850	4c1d	c.li	x24,7	 x24=0x00000007
      181002000	      8948	80002852	158f0ce3	beq	x30,x24,800031aa	 x30:0x00000002 x24:0x00000007
      181022000	      8949	80002856	4c31	c.li	x24,12	 x24=0x0000000c
      181042000	      8950	80002858	018f1463	bne	x30,x24,80002860	 x30:0x00000002 x24:0x0000000c
      181082000	      8952	80002860	4c35	c.li	x24,13	 x24=0x0000000d
      181102000	      8953	80002862	018f1463	bne	x30,x24,8000286a	 x30:0x00000002 x24:0x0000000d
      181142000	      8955	8000286a	4c3d	c.li	x24,15	 x24=0x0000000f
      181162000	      8956	8000286c	018f1463	bne	x30,x24,80002874	 x30:0x00000002 x24:0x0000000f
      181222000	      8959	80002874	4c09	c.li	x24,2	 x24=0x00000002
      181242000	      8960	80002876	018f1463	bne	x30,x24,8000287e	 x30:0x00000002 x24:0x00000002
      181262000	      8961	8000287a	3740906f	jal	x0,8000bbee	  x0=0x00000000
      181342000	      8965	8000bbee	90000c37	lui	x24,0x90000	 x24=0x90000000
      181362000	      8966	8000bbf2	1c71	c.addi	x24,-4	 x24:0x90000000 x24=0x8ffffffc
      181382000	      8967	8000bbf4	4f29	c.li	x30,10	 x30=0x0000000a
      181402000	      8968	8000bbf6	0f22	c.slli	x30,0x8	 x30:0x0000000a x30=0x00000a00
      181422000	      8969	8000bbf8	000f0f13	addi	x30,x30,0	 x30:0x00000a00 x30=0x00000a00
      181482000	      8972	8000bbfc	01ec2023	sw	x30,0(x24)	 x24:0x8ffffffc x30:0x00000a00 PA:0x8ffffffc store:0x00000a00 load:0xffffffff
      181502000	      8973	8000bc00	90000c37	lui	x24,0x90000	 x24=0x90000000
      181522000	      8974	8000bc04	1c71	c.addi	x24,-4	 x24:0x90000000 x24=0x8ffffffc
      181542000	      8975	8000bc06	34200f13	addi	x30,x0,834	  x0:0x00000000 x30=0x00000342
      181562000	      8976	8000bc0a	0f22	c.slli	x30,0x8	 x30:0x00000342 x30=0x00034200
      181582000	      8977	8000bc0c	0f0d	c.addi	x30,3	 x30:0x00034200 x30=0x00034203
      181642000	      8980	8000bc0e	01ec2023	sw	x30,0(x24)	 x24:0x8ffffffc x30:0x00034203 PA:0x8ffffffc store:0x00034203 load:0xffffffff
      181662000	      8981	8000bc12	34202f73	csrrs	x30,mcause,x0	  x0:0x00000000 x30=0x00000002
      182082000	      9002	8000bc16	01ec2023	sw	x30,0(x24)	 x24:0x8ffffffc x30:0x00000002 PA:0x8ffffffc store:0x00000002 load:0xffffffff
      182102000	      9003	8000bc1a	34102f73	csrrs	x30,mepc,x0	  x0:0x00000000 x30=0x80009d24
      182122000	      9004	8000bc1e	0f11	c.addi	x30,4	 x30:0x80009d24 x30=0x80009d28
      182142000	      9005	8000bc20	341f1073	csrrw	x0,mepc,x30	 x30:0x80009d28  x0=0x00000000
      182162000	      9006	8000bc24	00028bb3	add	x23,x5,x0	  x5:0x80025c60  x0:0x00000000 x23=0x80025c60
      182402000	      9018	8000bc28	004ba083	lw	x1,4(x23)	 x23:0x80025c60  x1=0x6e87b000 PA:0x80025c64 load:0x6e87b000
      182822000	      9039	8000bc2c	008ba103	lw	x2,8(x23)	 x23:0x80025c60  x2=0x80025ce6 PA:0x80025c68 load:0x80025ce6
      183282000	      9062	8000bc30	00cba183	lw	x3,12(x23)	 x23:0x80025c60  x3=0x000002c0 PA:0x80025c6c load:0x000002c0
      183342000	      9065	8000bc34	010ba203	lw	x4,16(x23)	 x23:0x80025c60  x4=0x00000000 PA:0x80025c70 load:0x00000000
      183562000	      9076	8000bc38	014ba283	lw	x5,20(x23)	 x23:0x80025c60  x5=0x80025ce0 PA:0x80025c74 load:0x80025ce0
      183602000	      9078	8000bc3c	018ba303	lw	x6,24(x23)	 x23:0x80025c60  x6=0x80025ce6 PA:0x80025c78 load:0x80025ce6
      183742000	      9085	8000bc40	01cba383	lw	x7,28(x23)	 x23:0x80025c60  x7=0x3dddeb0c PA:0x80025c7c load:0x3dddeb0c
      183802000	      9088	8000bc44	020ba403	lw	x8,32(x23)	 x23:0x80025c60  x8=0x80021ed6 PA:0x80025c80 load:0x80021ed6
      184162000	      9106	8000bc48	024ba483	lw	x9,36(x23)	 x23:0x80025c60  x9=0x00016000 PA:0x80025c84 load:0x00016000
      184222000	      9109	8000bc4c	028ba503	lw	x10,40(x23)	 x23:0x80025c60 x10=0x00000000 PA:0x80025c88 load:0x00000000
      184242000	      9110	8000bc50	02cba583	lw	x11,44(x23)	 x23:0x80025c60 x11=0x00000000 PA:0x80025c8c load:0x00000000
      184262000	      9111	8000bc54	030ba603	lw	x12,48(x23)	 x23:0x80025c60 x12=0x00000009 PA:0x80025c90 load:0x00000009
      184562000	      9126	8000bc58	034ba683	lw	x13,52(x23)	 x23:0x80025c60 x13=0xfffffef1 PA:0x80025c94 load:0xfffffef1
      184622000	      9129	8000bc5c	038ba703	lw	x14,56(x23)	 x23:0x80025c60 x14=0x00000000 PA:0x80025c98 load:0x00000000
      184642000	      9130	8000bc60	03cba783	lw	x15,60(x23)	 x23:0x80025c60 x15=0x00000000 PA:0x80025c9c load:0x00000000
      185062000	      9151	8000bc64	040ba803	lw	x16,64(x23)	 x23:0x80025c60 x16=0x80000001 PA:0x80025ca0 load:0x80000001
      185522000	      9174	8000bc68	044ba883	lw	x17,68(x23)	 x23:0x80025c60 x17=0x00000705 PA:0x80025ca4 load:0x00000705
      185982000	      9197	8000bc6c	048ba903	lw	x18,72(x23)	 x23:0x80025c60 x18=0x00000000 PA:0x80025ca8 load:0x00000000
      186042000	      9200	8000bc70	04cba983	lw	x19,76(x23)	 x23:0x80025c60 x19=0x00000000 PA:0x80025cac load:0x00000000
      186062000	      9201	8000bc74	050baa03	lw	x20,80(x23)	 x23:0x80025c60 x20=0x00000000 PA:0x80025cb0 load:0x00000000
      186142000	      9205	8000bc78	054baa83	lw	x21,84(x23)	 x23:0x80025c60 x21=0x00000000 PA:0x80025cb4 load:0x00000000
      186202000	      9208	8000bc7c	058bab03	lw	x22,88(x23)	 x23:0x80025c60 x22=0x80021ffb PA:0x80025cb8 load:0x80021ffb
      186342000	      9215	8000bc80	05cbab83	lw	x23,92(x23)	 x23:0x80025c60 x23=0x80025c60 PA:0x80025cbc load:0x80025c60
      186722000	      9234	8000bc84	060bac03	lw	x24,96(x23)	 x23:0x80025c60 x24=0x00000000 PA:0x80025cc0 load:0x00000000
      186882000	      9242	8000bc88	064bac83	lw	x25,100(x23)	 x23:0x80025c60 x25=0x80000001 PA:0x80025cc4 load:0x80000001
      186942000	      9245	8000bc8c	068bad03	lw	x26,104(x23)	 x23:0x80025c60 x26=0x00000000 PA:0x80025cc8 load:0x00000000
      187162000	      9256	8000bc90	06cbad83	lw	x27,108(x23)	 x23:0x80025c60 x27=0x00000200 PA:0x80025ccc load:0x00000200
      187222000	      9259	8000bc94	070bae03	lw	x28,112(x23)	 x23:0x80025c60 x28=0x0001e000 PA:0x80025cd0 load:0x0001e000
      187282000	      9262	8000bc98	074bae83	lw	x29,116(x23)	 x23:0x80025c60 x29=0x0000000f PA:0x80025cd4 load:0x0000000f
      187302000	      9263	8000bc9c	078baf03	lw	x30,120(x23)	 x23:0x80025c60 x30=0x02000877 PA:0x80025cd8 load:0x02000877
      187382000	      9267	8000bca0	07cbaf83	lw	x31,124(x23)	 x23:0x80025c60 x31=0xdd0f6000 PA:0x80025cdc load:0xdd0f6000
      187402000	      9268	8000bca4	080b8b93	addi	x23,x23,128	 x23:0x80025c60 x23=0x80025ce0
      187422000	      9269	8000bca8	000b82b3	add	x5,x23,x0	 x23:0x80025ce0  x0:0x00000000  x5=0x80025ce0
      187722000	      9284	8000bcac	0002ab83	lw	x23,0(x5)	  x5:0x80025ce0 x23=0x80021df8 PA:0x80025ce0 load:0x80021df8
      187742000	      9285	8000bcb0	0291	c.addi	x5,4	  x5:0x80025ce0  x5=0x80025ce4
      187762000	      9286	8000bcb2	30200073	mret	
      187822000	      9289	80009d28	00087433	and	x8,x16,x0	 x16:0x80000001  x0:0x00000000  x8=0x00000000
      187842000	      9290	80009d2c	8885	c.andi	x9,1	  x9:0x00016000  x9=0x00000000
      187862000	      9291	80009d2e	02fb0c63	beq	x22,x15,80009d66	 x22:0x80021ffb x15:0x00000000
      187882000	      9292	80009d32	6f91	c.lui	x31,0x4	 x31=0x00004000
      187902000	      9293	80009d34	8739	c.srai	x14,0xe	 x14:0x00000000 x14=0x00000000
      188282000	      9312	80009d36	01b69ab3	sll	x21,x13,x27	 x13:0xfffffef1 x27:0x00000200 x21=0xfffffef1
      188342000	      9315	80009d3a	007be263	bltu	x23,x7,80009d3e	 x23:0x80021df8  x7:0x3dddeb0c
      188362000	      9316	80009d3e	8de5	c.and	x11,x9	 x11:0x00000000  x9:0x00000000 x11=0x00000000
      188542000	      9325	80009d40	0d36	c.slli	x26,0xd	 x26:0x00000000 x26=0x00000000
      188562000	      9326	80009d42	00fe5433	srl	x8,x28,x15	 x28:0x0001e000 x15:0x00000000  x8=0x0001e000
      188582000	      9327	80009d46	4219	c.li	x4,6	  x4=0x00000006
      188902000	      9343	80009d48	b062def3	csrrwi	x29,mhpmcounter6,5	 x29=0x000000e0
      188962000	      9346	80009d4c	0a3d	c.addi	x20,15	 x20:0x00000000 x20=0x0000000f
      189342000	      9365	80009d4e	005835b3	sltu	x11,x16,x5	 x16:0x80000001  x5:0x80025ce4 x11=0x00000001
      189362000	      9366	80009d52	0001	c.addi	x0,0	  x0:0x00000000  x0=0x00000000
      189382000	      9367	80009d54	2a033593	sltiu	x11,x6,672	  x6:0x80025ce6 x11=0x00000000
      189442000	      9370	80009d58	01ec5b13	srli	x22,x24,0x1e	 x24:0x00000000 x22=0x00000000
      189622000	      9379	80009d5c	99fbe8b7	lui	x17,0x99fbe	 x17=0x99fbe000
      189642000	      9380	80009d60	5addfe97	auipc	x29,0x5addf	 x29=0xdade8d60
      189662000	      9381	80009d64	8909	c.andi	x10,2	 x10:0x00000000 x10=0x00000000
      189742000	      9385	80009d66	01c78563	beq	x15,x28,80009d70	 x15:0x00000000 x28:0x0001e000
      189762000	      9386	80009d6a	01e31d93	slli	x27,x6,0x1e	  x6:0x80025ce6 x27=0x80000000
      189782000	      9387	80009d6e	8b19	c.andi	x14,6	 x14:0x00000000 x14=0x00000000
      189962000	      9396	80009d70	8cb1	c.xor	x9,x12	  x9:0x00000000 x12:0x00000009  x9=0x00000009
      189982000	      9397	80009d72	01cb7963	bgeu	x22,x28,80009d84	 x22:0x00000000 x28:0x0001e000
      190002000	      9398	80009d76	9dda	c.add	x27,x22	 x27:0x80000000 x22:0x00000000 x27=0x80000000
      190022000	      9399	80009d78	f14f2c73	csrrs	x0,mhartid,x0	  x0:0x00000000  x0=0x00000000
      190082000	      9402	80002700	0800006f	jal	x0,80002780	  x0=0x00000000
      190142000	      9405	80002780	12f1	c.addi	x5,-4	  x5:0x80025ce4  x5=0x80025ce0
      190202000	      9408	80002782	0172a023	sw	x23,0(x5)	  x5:0x80025ce0 x23:0x80021df8 PA:0x80025ce0 store:0x80021df8 load:0xffffffff
      190222000	      9409	80002786	00028bb3	add	x23,x5,x0	  x5:0x80025ce0  x0:0x00000000 x23=0x80025ce0
      190242000	      9410	8000278a	f80b8b93	addi	x23,x23,-128	 x23:0x80025ce0 x23=0x80025c60
      190402000	      9418	8000278e	001ba223	sw	x1,4(x23)	 x23:0x80025c60  x1:0x6e87b000 PA:0x80025c64 store:0x6e87b000 load:0xffffffff
      190522000	      9424	80002792	002ba423	sw	x2,8(x23)	 x23:0x80025c60  x2:0x80025ce6 PA:0x80025c68 store:0x80025ce6 load:0xffffffff
      190702000	      9433	80002796	003ba623	sw	x3,12(x23)	 x23:0x80025c60  x3:0x000002c0 PA:0x80025c6c store:0x000002c0 load:0xffffffff
      190762000	      9436	8000279a	004ba823	sw	x4,16(x23)	 x23:0x80025c60  x4:0x00000006 PA:0x80025c70 store:0x00000006 load:0xffffffff
      190922000	      9444	8000279e	005baa23	sw	x5,20(x23)	 x23:0x80025c60  x5:0x80025ce0 PA:0x80025c74 store:0x80025ce0 load:0xffffffff
      191362000	      9466	800027a2	006bac23	sw	x6,24(x23)	 x23:0x80025c60  x6:0x80025ce6 PA:0x80025c78 store:0x80025ce6 load:0xffffffff
      191422000	      9469	800027a6	007bae23	sw	x7,28(x23)	 x23:0x80025c60  x7:0x3dddeb0c PA:0x80025c7c store:0x3dddeb0c load:0xffffffff
      191442000	      9470	800027aa	028ba023	sw	x8,32(x23)	 x23:0x80025c60  x8:0x0001e000 PA:0x80025c80 store:0x0001e000 load:0xffffffff
      191462000	      9471	800027ae	029ba223	sw	x9,36(x23)	 x23:0x80025c60  x9:0x00000009 PA:0x80025c84 store:0x00000009 load:0xffffffff
      191682000	      9482	800027b2	02aba423	sw	x10,40(x23)	 x23:0x80025c60 x10:0x00000000 PA:0x80025c88 store:0x00000000 load:0xffffffff
      191742000	      9485	800027b6	02bba623	sw	x11,44(x23)	 x23:0x80025c60 x11:0x00000000 PA:0x80025c8c store:0x00000000 load:0xffffffff
      191762000	      9486	800027ba	02cba823	sw	x12,48(x23)	 x23:0x80025c60 x12:0x00000009 PA:0x80025c90 store:0x00000009 load:0xffffffff
      191782000	      9487	800027be	02dbaa23	sw	x13,52(x23)	 x23:0x80025c60 x13:0xfffffef1 PA:0x80025c94 store:0xfffffef1 load:0xffffffff
      191802000	      9488	800027c2	02ebac23	sw	x14,56(x23)	 x23:0x80025c60 x14:0x00000000 PA:0x80025c98 store:0x00000000 load:0xffffffff
      191822000	      9489	800027c6	02fbae23	sw	x15,60(x23)	 x23:0x80025c60 x15:0x00000000 PA:0x80025c9c store:0x00000000 load:0xffffffff
      192022000	      9499	800027ca	050ba023	sw	x16,64(x23)	 x23:0x80025c60 x16:0x80000001 PA:0x80025ca0 store:0x80000001 load:0xffffffff
      192062000	      9501	800027ce	051ba223	sw	x17,68(x23)	 x23:0x80025c60 x17:0x99fbe000 PA:0x80025ca4 store:0x99fbe000 load:0xffffffff
      192082000	      9502	800027d2	052ba423	sw	x18,72(x23)	 x23:0x80025c60 x18:0x00000000 PA:0x80025ca8 store:0x00000000 load:0xffffffff
      192102000	      9503	800027d6	053ba623	sw	x19,76(x23)	 x23:0x80025c60 x19:0x00000000 PA:0x80025cac store:0x00000000 load:0xffffffff
      192182000	      9507	800027da	054ba823	sw	x20,80(x23)	 x23:0x80025c60 x20:0x0000000f PA:0x80025cb0 store:0x0000000f load:0xffffffff
      192422000	      9519	800027de	055baa23	sw	x21,84(x23)	 x23:0x80025c60 x21:0xfffffef1 PA:0x80025cb4 store:0xfffffef1 load:0xffffffff
      192602000	      9528	800027e2	056bac23	sw	x22,88(x23)	 x23:0x80025c60 x22:0x00000000 PA:0x80025cb8 store:0x00000000 load:0xffffffff
      192662000	      9531	800027e6	057bae23	sw	x23,92(x23)	 x23:0x80025c60 x23:0x80025c60 PA:0x80025cbc store:0x80025c60 load:0xffffffff
      192882000	      9542	800027ea	078ba023	sw	x24,96(x23)	 x23:0x80025c60 x24:0x00000000 PA:0x80025cc0 store:0x00000000 load:0xffffffff
      193102000	      9553	800027ee	079ba223	sw	x25,100(x23)	 x23:0x80025c60 x25:0x80000001 PA:0x80025cc4 store:0x80000001 load:0xffffffff
      193302000	      9563	800027f2	07aba423	sw	x26,104(x23)	 x23:0x80025c60 x26:0x00000000 PA:0x80025cc8 store:0x00000000 load:0xffffffff
      193362000	      9566	800027f6	07bba623	sw	x27,108(x23)	 x23:0x80025c60 x27:0x80000000 PA:0x80025ccc store:0x80000000 load:0xffffffff
      193442000	      9570	800027fa	07cba823	sw	x28,112(x23)	 x23:0x80025c60 x28:0x0001e000 PA:0x80025cd0 store:0x0001e000 load:0xffffffff
      193622000	      9579	800027fe	07dbaa23	sw	x29,116(x23)	 x23:0x80025c60 x29:0xdade8d60 PA:0x80025cd4 store:0xdade8d60 load:0xffffffff
      193642000	      9580	80002802	07ebac23	sw	x30,120(x23)	 x23:0x80025c60 x30:0x02000877 PA:0x80025cd8 store:0x02000877 load:0xffffffff
      193662000	      9581	80002806	07fbae23	sw	x31,124(x23)	 x23:0x80025c60 x31:0x00004000 PA:0x80025cdc store:0x00004000 load:0xffffffff
      193682000	      9582	8000280a	000b82b3	add	x5,x23,x0	 x23:0x80025c60  x0:0x00000000  x5=0x80025c60
      193702000	      9583	8000280e	90000c37	lui	x24,0x90000	 x24=0x90000000
      193722000	      9584	80002812	1c71	c.addi	x24,-4	 x24:0x90000000 x24=0x8ffffffc
      193742000	      9585	80002814	4f21	c.li	x30,8	 x30=0x00000008
      193762000	      9586	80002816	0f22	c.slli	x30,0x8	 x30:0x00000008 x30=0x00000800
      193782000	      9587	80002818	000f0f13	addi	x30,x30,0	 x30:0x00000800 x30=0x00000800
      193842000	      9590	8000281c	01ec2023	sw	x30,0(x24)	 x24:0x8ffffffc x30:0x00000800 PA:0x8ffffffc store:0x00000800 load:0xffffffff
      193862000	      9591	80002820	34102f73	csrrs	x30,mepc,x0	  x0:0x00000000 x30=0x80009d78
      193882000	      9592	80002824	34202f73	csrrs	x30,mcause,x0	  x0:0x00000000 x30=0x00000002
      193902000	      9593	80002828	4c0d	c.li	x24,3	 x24=0x00000003
      193922000	      9594	8000282a	018f1463	bne	x30,x24,80002832	 x30:0x00000002 x24:0x00000003
      193962000	      9596	80002832	4c21	c.li	x24,8	 x24=0x00000008
      193982000	      9597	80002834	058f0d63	beq	x30,x24,8000288e	 x30:0x00000002 x24:0x00000008
      194002000	      9598	80002838	4c25	c.li	x24,9	 x24=0x00000009
      194022000	      9599	8000283a	058f0a63	beq	x30,x24,8000288e	 x30:0x00000002 x24:0x00000009
      194042000	      9600	8000283e	4c2d	c.li	x24,11	 x24=0x0000000b
      194062000	      9601	80002840	058f0763	beq	x30,x24,8000288e	 x30:0x00000002 x24:0x0000000b
      194082000	      9602	80002844	4c05	c.li	x24,1	 x24=0x00000001
      194102000	      9603	80002846	358f0363	beq	x30,x24,80002b8c	 x30:0x00000002 x24:0x00000001
      194122000	      9604	8000284a	4c15	c.li	x24,5	 x24=0x00000005
      194142000	      9605	8000284c	638f0a63	beq	x30,x24,80002e80	 x30:0x00000002 x24:0x00000005
      194162000	      9606	80002850	4c1d	c.li	x24,7	 x24=0x00000007
      194182000	      9607	80002852	158f0ce3	beq	x30,x24,800031aa	 x30:0x00000002 x24:0x00000007
      194202000	      9608	80002856	4c31	c.li	x24,12	 x24=0x0000000c
      194222000	      9609	80002858	018f1463	bne	x30,x24,80002860	 x30:0x00000002 x24:0x0000000c
      194262000	      9611	80002860	4c35	c.li	x24,13	 x24=0x0000000d
      194282000	      9612	80002862	018f1463	bne	x30,x24,8000286a	 x30:0x00000002 x24:0x0000000d
      194342000	      9615	8000286a	4c3d	c.li	x24,15	 x24=0x0000000f
      194362000	      9616	8000286c	018f1463	bne	x30,x24,80002874	 x30:0x00000002 x24:0x0000000f
      194422000	      9619	80002874	4c09	c.li	x24,2	 x24=0x00000002
      194442000	      9620	80002876	018f1463	bne	x30,x24,8000287e	 x30:0x00000002 x24:0x00000002
      194462000	      9621	8000287a	3740906f	jal	x0,8000bbee	  x0=0x00000000
      194542000	      9625	8000bbee	90000c37	lui	x24,0x90000	 x24=0x90000000
      194562000	      9626	8000bbf2	1c71	c.addi	x24,-4	 x24:0x90000000 x24=0x8ffffffc
      194582000	      9627	8000bbf4	4f29	c.li	x30,10	 x30=0x0000000a
      194602000	      9628	8000bbf6	0f22	c.slli	x30,0x8	 x30:0x0000000a x30=0x00000a00
      194622000	      9629	8000bbf8	000f0f13	addi	x30,x30,0	 x30:0x00000a00 x30=0x00000a00
      194822000	      9639	8000bbfc	01ec2023	sw	x30,0(x24)	 x24:0x8ffffffc x30:0x00000a00 PA:0x8ffffffc store:0x00000a00 load:0xffffffff
      194842000	      9640	8000bc00	90000c37	lui	x24,0x90000	 x24=0x90000000
      194862000	      9641	8000bc04	1c71	c.addi	x24,-4	 x24:0x90000000 x24=0x8ffffffc
      194882000	      9642	8000bc06	34200f13	addi	x30,x0,834	  x0:0x00000000 x30=0x00000342
      194902000	      9643	8000bc0a	0f22	c.slli	x30,0x8	 x30:0x00000342 x30=0x00034200
      194922000	      9644	8000bc0c	0f0d	c.addi	x30,3	 x30:0x00034200 x30=0x00034203
      195102000	      9653	8000bc0e	01ec2023	sw	x30,0(x24)	 x24:0x8ffffffc x30:0x00034203 PA:0x8ffffffc store:0x00034203 load:0xffffffff
      195122000	      9654	8000bc12	34202f73	csrrs	x30,mcause,x0	  x0:0x00000000 x30=0x00000002
      195522000	      9674	8000bc16	01ec2023	sw	x30,0(x24)	 x24:0x8ffffffc x30:0x00000002 PA:0x8ffffffc store:0x00000002 load:0xffffffff
      195542000	      9675	8000bc1a	34102f73	csrrs	x30,mepc,x0	  x0:0x00000000 x30=0x80009d78
      195562000	      9676	8000bc1e	0f11	c.addi	x30,4	 x30:0x80009d78 x30=0x80009d7c
      195582000	      9677	8000bc20	341f1073	csrrw	x0,mepc,x30	 x30:0x80009d7c  x0=0x00000000
      195602000	      9678	8000bc24	00028bb3	add	x23,x5,x0	  x5:0x80025c60  x0:0x00000000 x23=0x80025c60
      195782000	      9687	8000bc28	004ba083	lw	x1,4(x23)	 x23:0x80025c60  x1=0x6e87b000 PA:0x80025c64 load:0x6e87b000
      196082000	      9702	8000bc2c	008ba103	lw	x2,8(x23)	 x23:0x80025c60  x2=0x80025ce6 PA:0x80025c68 load:0x80025ce6
      196382000	      9717	8000bc30	00cba183	lw	x3,12(x23)	 x23:0x80025c60  x3=0x000002c0 PA:0x80025c6c load:0x000002c0
      196442000	      9720	8000bc34	010ba203	lw	x4,16(x23)	 x23:0x80025c60  x4=0x00000006 PA:0x80025c70 load:0x00000006
      196462000	      9721	8000bc38	014ba283	lw	x5,20(x23)	 x23:0x80025c60  x5=0x80025ce0 PA:0x80025c74 load:0x80025ce0
      196562000	      9726	8000bc3c	018ba303	lw	x6,24(x23)	 x23:0x80025c60  x6=0x80025ce6 PA:0x80025c78 load:0x80025ce6
      196682000	      9732	8000bc40	01cba383	lw	x7,28(x23)	 x23:0x80025c60  x7=0x3dddeb0c PA:0x80025c7c load:0x3dddeb0c
      196742000	      9735	8000bc44	020ba403	lw	x8,32(x23)	 x23:0x80025c60  x8=0x0001e000 PA:0x80025c80 load:0x0001e000
      196962000	      9746	8000bc48	024ba483	lw	x9,36(x23)	 x23:0x80025c60  x9=0x00000009 PA:0x80025c84 load:0x00000009
      196982000	      9747	8000bc4c	028ba503	lw	x10,40(x23)	 x23:0x80025c60 x10=0x00000000 PA:0x80025c88 load:0x00000000
      197002000	      9748	8000bc50	02cba583	lw	x11,44(x23)	 x23:0x80025c60 x11=0x00000000 PA:0x80025c8c load:0x00000000
      197022000	      9749	8000bc54	030ba603	lw	x12,48(x23)	 x23:0x80025c60 x12=0x00000009 PA:0x80025c90 load:0x00000009
      197042000	      9750	8000bc58	034ba683	lw	x13,52(x23)	 x23:0x80025c60 x13=0xfffffef1 PA:0x80025c94 load:0xfffffef1
      197642000	      9780	8000bc5c	038ba703	lw	x14,56(x23)	 x23:0x80025c60 x14=0x00000000 PA:0x80025c98 load:0x00000000
      197702000	      9783	8000bc60	03cba783	lw	x15,60(x23)	 x23:0x80025c60 x15=0x00000000 PA:0x80025c9c load:0x00000000
      197722000	      9784	8000bc64	040ba803	lw	x16,64(x23)	 x23:0x80025c60 x16=0x80000001 PA:0x80025ca0 load:0x80000001
      198062000	      9801	8000bc68	044ba883	lw	x17,68(x23)	 x23:0x80025c60 x17=0x99fbe000 PA:0x80025ca4 load:0x99fbe000
      198522000	      9824	8000bc6c	048ba903	lw	x18,72(x23)	 x23:0x80025c60 x18=0x00000000 PA:0x80025ca8 load:0x00000000
      198602000	      9828	8000bc70	04cba983	lw	x19,76(x23)	 x23:0x80025c60 x19=0x00000000 PA:0x80025cac load:0x00000000
      198622000	      9829	8000bc74	050baa03	lw	x20,80(x23)	 x23:0x80025c60 x20=0x0000000f PA:0x80025cb0 load:0x0000000f
      198662000	      9831	8000bc78	054baa83	lw	x21,84(x23)	 x23:0x80025c60 x21=0xfffffef1 PA:0x80025cb4 load:0xfffffef1
      198682000	      9832	8000bc7c	058bab03	lw	x22,88(x23)	 x23:0x80025c60 x22=0x00000000 PA:0x80025cb8 load:0x00000000
      199142000	      9855	8000bc80	05cbab83	lw	x23,92(x23)	 x23:0x80025c60 x23=0x80025c60 PA:0x80025cbc load:0x80025c60
      199382000	      9867	8000bc84	060bac03	lw	x24,96(x23)	 x23:0x80025c60 x24=0x00000000 PA:0x80025cc0 load:0x00000000
      199442000	      9870	8000bc88	064bac83	lw	x25,100(x23)	 x23:0x80025c60 x25=0x80000001 PA:0x80025cc4 load:0x80000001
      199602000	      9878	8000bc8c	068bad03	lw	x26,104(x23)	 x23:0x80025c60 x26=0x00000000 PA:0x80025cc8 load:0x00000000
      199662000	      9881	8000bc90	06cbad83	lw	x27,108(x23)	 x23:0x80025c60 x27=0x80000000 PA:0x80025ccc load:0x80000000
      199742000	      9885	8000bc94	070bae03	lw	x28,112(x23)	 x23:0x80025c60 x28=0x0001e000 PA:0x80025cd0 load:0x0001e000
      199902000	      9893	8000bc98	074bae83	lw	x29,116(x23)	 x23:0x80025c60 x29=0xdade8d60 PA:0x80025cd4 load:0xdade8d60
      200362000	      9916	8000bc9c	078baf03	lw	x30,120(x23)	 x23:0x80025c60 x30=0x02000877 PA:0x80025cd8 load:0x02000877
      200822000	      9939	8000bca0	07cbaf83	lw	x31,124(x23)	 x23:0x80025c60 x31=0x00004000 PA:0x80025cdc load:0x00004000
      200842000	      9940	8000bca4	080b8b93	addi	x23,x23,128	 x23:0x80025c60 x23=0x80025ce0
      200862000	      9941	8000bca8	000b82b3	add	x5,x23,x0	 x23:0x80025ce0  x0:0x00000000  x5=0x80025ce0
      200922000	      9944	8000bcac	0002ab83	lw	x23,0(x5)	  x5:0x80025ce0 x23=0x80021df8 PA:0x80025ce0 load:0x80021df8
      200942000	      9945	8000bcb0	0291	c.addi	x5,4	  x5:0x80025ce0  x5=0x80025ce4
      200962000	      9946	8000bcb2	30200073	mret	
      201022000	      9949	80009d7c	8dbd	c.xor	x11,x15	 x11:0x00000000 x15:0x00000000 x11=0x00000000
      201042000	      9950	80009d7e	030a	c.slli	x6,0x2	  x6:0x80025ce6  x6=0x00097398
      201062000	      9951	80009d80	8c46	c.mv	x24,x17	  x0:0x00000000 x17:0x99fbe000 x24=0x99fbe000
      201082000	      9952	80009d82	0001	c.addi	x0,0	  x0:0x00000000  x0=0x00000000
      201102000	      9953	80009d84	40e80eb3	sub	x29,x16,x14	 x16:0x80000001 x14:0x00000000 x29=0x80000001
      201842000	      9990	80009d88	03f8e333	rem	x6,x17,x31	 x17:0x99fbe000 x31:0x00004000  x6=0xffffe000
      201862000	      9991	80009d8c	a2cb8313	addi	x6,x23,-1492	 x23:0x80021df8  x6=0x80021824
      201882000	      9992	80009d90	0dc2	c.slli	x27,0x10	 x27:0x80000000 x27=0x00000000
      201902000	      9993	80009d92	8c1d	c.sub	x8,x15	  x8:0x0001e000 x15:0x00000000  x8=0x0001e000
      201922000	      9994	80009d94	8d6d	c.and	x10,x11	 x10:0x00000000 x11:0x00000000 x10=0x00000000
      201942000	      9995	80009d96	84d5	c.srai	x9,0x15	  x9:0x00000009  x9=0x00000000
      201962000	      9996	80009d98	00211693	slli	x13,x2,0x2	  x2:0x80025ce6 x13=0x00097398
      201982000	      9997	80009d9c	000c5593	srli	x11,x24,0x0	 x24:0x99fbe000 x11=0x99fbe000
      202042000	     10000	80009da0	01734b33	xor	x22,x6,x23	  x6:0x80021824 x23:0x80021df8 x22=0x000005dc
      202062000	     10001	80009da4	03356263	bltu	x10,x19,80009dc8	 x10:0x00000000 x19:0x00000000
      202382000	     10017	80009da8	000fea33	or	x20,x31,x0	 x31:0x00004000  x0:0x00000000 x20=0x00004000
      202442000	     10020	80009dac	01189cb3	sll	x25,x17,x17	 x17:0x99fbe000 x17:0x99fbe000 x25=0x99fbe000
      202782000	     10037	80009db0	3b1033f3	csrrc	x7,pmpaddr1,x0	  x0:0x00000000  x7=0x24445173
      202802000	     10038	80009db4	01eb5a63	bge	x22,x30,80009dc8	 x22:0x000005dc x30:0x02000877
      202962000	     10046	80009db8	01e786b3	add	x13,x15,x30	 x15:0x00000000 x30:0x02000877 x13=0x02000877
      202982000	     10047	80009dbc	8dd9	c.or	x11,x14	 x11:0x99fbe000 x14:0x00000000 x11=0x99fbe000
      203002000	     10048	80009dbe	0001	c.addi	x0,0	  x0:0x00000000  x0=0x00000000
      203322000	     10064	80009dc0	ed81	c.bnez	x11,80009dd8	 x11:0x99fbe000
      203602000	     10078	80009dd8	0001	c.addi	x0,0	  x0:0x00000000  x0=0x00000000
      204022000	     10099	80009dda	036065b7	lui	x11,0x3606	 x11=0x03606000
      204162000	     10106	80009dde	018fc3b3	xor	x7,x31,x24	 x31:0x00004000 x24:0x99fbe000  x7=0x99fba000
      204562000	     10126	80009de2	10fc03b7	lui	x7,0x10fc0	  x7=0x10fc0000
      204642000	     10130	80009de6	051f3f93	sltiu	x31,x30,81	 x30:0x02000877 x31=0x00000000
      204662000	     10131	80009dea	6145	c.addi16sp	x2,48	  x2:0x80025ce6  x2=0x80025d16
      204682000	     10132	80009dec	002768b3	or	x17,x14,x2	 x14:0x00000000  x2:0x80025d16 x17=0x80025d16
      204862000	     10141	80009df0	0001	c.addi	x0,0	  x0:0x00000000  x0=0x00000000
      205002000	     10148	80009df2	02118eb3	mul	x29,x3,x1	  x3:0x000002c0  x1:0x6e87b000 x29=0xf5240000
      205162000	     10156	80009df6	0335cc63	blt	x11,x19,80009e2e	 x11:0x03606000 x19:0x00000000
      205902000	     10193	80009dfa	0309f133	remu	x2,x19,x16	 x19:0x00000000 x16:0x80000001  x2=0x00000000
      205922000	     10194	80009dfe	08d73e93	sltiu	x29,x14,141	 x14:0x00000000 x29=0x00000001
      205942000	     10195	80009e02	406bd4b3	sra	x9,x23,x6	 x23:0x80021df8  x6:0x80021824  x9=0xf80021df
      205962000	     10196	80009e06	8609	c.srai	x12,0x2	 x12:0x00000009 x12=0x00000002
      205982000	     10197	80009e08	f1407573	csrrci	x10,mhartid,0	 x10=0x00000000
      206002000	     10198	80009e0c	00341093	slli	x1,x8,0x3	  x8:0x0001e000  x1=0x000f0000
      206042000	     10200	80009e10	03612333	mulhsu	x6,x2,x22	  x2:0x00000000 x22:0x000005dc  x6=0x00000000
      206062000	     10201	80009e14	03c28a33	mul	x20,x5,x28	  x5:0x80025ce4 x28:0x0001e000 x20=0x6e2b8000
      206402000	     10218	80009e18	23beae93	slti	x29,x29,571	 x29:0x00000001 x29=0x00000001
      206422000	     10219	80009e1c	7a102e73	csrrs	x28,tdata1,x0	  x0:0x00000000 x28=0x28001048
      206442000	     10220	80009e20	0652	c.slli	x12,0x14	 x12:0x00000002 x12=0x00200000
      206462000	     10221	80009e22	41250f33	sub	x30,x10,x18	 x10:0x00000000 x18:0x00000000 x30=0x00000000
      206502000	     10223	80009e26	02ed7f33	remu	x30,x26,x14	 x26:0x00000000 x14:0x00000000 x30=0x00000000
      206522000	     10224	80009e2a	0001	c.addi	x0,0	  x0:0x00000000  x0=0x00000000
      206542000	     10225	80009e2c	0001	c.addi	x0,0	  x0:0x00000000  x0=0x00000000
      206782000	     10237	80009e2e	030d91b3	mulh	x3,x27,x16	 x27:0x00000000 x16:0x80000001  x3=0x00000000
      207522000	     10274	80009e32	03985f33	divu	x30,x16,x25	 x16:0x80000001 x25:0x99fbe000 x30=0x00000000
      207542000	     10275	80009e36	01921913	slli	x18,x4,0x19	  x4:0x00000006 x18=0x0c000000
      207562000	     10276	80009e3a	8d2d	c.xor	x10,x11	 x10:0x00000000 x11:0x03606000 x10=0x03606000
      207582000	     10277	80009e3c	8f385037	lui	x0,0x8f385	  x0=0x00000000
      207602000	     10278	80009e40	0555c063	blt	x11,x21,80009e80	 x11:0x03606000 x21:0xfffffef1
      207622000	     10279	80009e44	0182e5b3	or	x11,x5,x24	  x5:0x80025ce4 x24:0x99fbe000 x11=0x99fbfce4
      207642000	     10280	80009e48	00d9df33	srl	x30,x19,x13	 x19:0x00000000 x13:0x02000877 x30=0x00000000
      207662000	     10281	80009e4c	01db8333	add	x6,x23,x29	 x23:0x80021df8 x29:0x00000001  x6=0x80021df9
      207902000	     10293	80009e50	0d002113	slti	x2,x0,208	  x0:0x00000000  x2=0x00000001
      207922000	     10294	80009e54	09c50d93	addi	x27,x10,156	 x10:0x03606000 x27=0x0360609c
      207962000	     10296	80009e58	00fa6c33	or	x24,x20,x15	 x20:0x6e2b8000 x15:0x00000000 x24=0x6e2b8000
      208102000	     10303	80009e5c	8eb1	c.xor	x13,x12	 x13:0x02000877 x12:0x00200000 x13=0x02200877
      208122000	     10304	80009e5e	14fd	c.addi	x9,-1	  x9:0xf80021df  x9=0xf80021de
      208142000	     10305	80009e60	007114b3	sll	x9,x2,x7	  x2:0x00000001  x7:0x10fc0000  x9=0x00000001
      208542000	     10325	80009e64	80c1	c.srli	x9,0x10	  x9:0x00000001  x9=0x00000000
      208882000	     10342	80009e66	00082fb3	slt	x31,x16,x0	 x16:0x80000001  x0:0x00000000 x31=0x00000001
      208902000	     10343	80009e6a	41e25a13	srai	x20,x4,0x1e	  x4:0x00000006 x20=0x00000000
      208962000	     10346	80009e6e	41108d33	sub	x26,x1,x17	  x1:0x000f0000 x17:0x80025d16 x26=0x800ca2ea
      208982000	     10347	80009e72	846d	c.srai	x8,0x1b	  x8:0x0001e000  x8=0x00000000
      209002000	     10348	80009e74	a7be3d93	sltiu	x27,x28,-1413	 x28:0x28001048 x27=0x00000001
      209022000	     10349	80009e78	406c5693	srai	x13,x24,0x6	 x24:0x6e2b8000 x13=0x01b8ae00
      209042000	     10350	80009e7c	0000100f	fence.i	
      209422000	     10369	80009e80	b8a9bef3	csrrc	x29,mhpmcounter10h,x19	 x19:0x00000000 x29=0x00000000
      209482000	     10372	80009e84	8c59	c.or	x8,x14	  x8:0x00000000 x14:0x00000000  x8=0x00000000
      209502000	     10373	80009e86	06bd4463	blt	x26,x11,80009eee	 x26:0x800ca2ea x11:0x99fbfce4
      209722000	     10384	80009eee	40ff8833	sub	x16,x31,x15	 x31:0x00000001 x15:0x00000000 x16=0x00000001
      209742000	     10385	80009ef2	0a10	c.addi4spn	x12,x2,272	 x12=0x00000111
      209762000	     10386	80009ef4	b8671473	csrrw	x8,mhpmcounter6h,x14	 x14:0x00000000  x8=0x00000000
      209822000	     10389	80009ef8	def0b193	sltiu	x3,x1,-529	  x1:0x000f0000  x3=0x00000001
      210062000	     10401	80009efc	0c08	c.addi4spn	x10,x2,528	 x10=0x00000211
      210122000	     10404	80009efe	402b0633	sub	x12,x22,x2	 x22:0x000005dc  x2:0x00000001 x12=0x000005db
      210142000	     10405	80009f02	4b2d	c.li	x22,11	 x22=0x0000000b
      210902000	     10443	80009f04	023bf9b3	remu	x19,x23,x3	 x23:0x80021df8  x3:0x00000001 x19=0x00000000
      210922000	     10444	80009f08	9db6	c.add	x27,x13	 x27:0x00000001 x13:0x01b8ae00 x27=0x01b8ae01
      210942000	     10445	80009f0a	01d4dcb3	srl	x25,x9,x29	  x9:0x00000000 x29:0x00000000 x25=0x00000000
      210962000	     10446	80009f0e	0347e763	bltu	x15,x20,80009f3c	 x15:0x00000000 x20:0x00000000
      210982000	     10447	80009f12	0001	c.addi	x0,0	  x0:0x00000000  x0=0x00000000
      211002000	     10448	80009f14	0001	c.addi	x0,0	  x0:0x00000000  x0=0x00000000
      211022000	     10449	80009f16	40e25d13	srai	x26,x4,0xe	  x4:0x00000006 x26=0x00000000
      211042000	     10450	80009f1a	3bf02573	csrrs	x10,pmpaddr15,x0	  x0:0x00000000 x10=0x20000d2e
      211222000	     10459	80009f1e	00a25fb3	srl	x31,x4,x10	  x4:0x00000006 x10:0x20000d2e x31=0x00000000
      211302000	     10463	80009f22	4130d613	srai	x12,x1,0x13	  x1:0x000f0000 x12=0x00000001
      212042000	     10500	80009f26	0383cc33	div	x24,x7,x24	  x7:0x10fc0000 x24:0x6e2b8000 x24=0x00000000
      212062000	     10501	80009f2a	01dccc33	xor	x24,x25,x29	 x25:0x00000000 x29:0x00000000 x24=0x00000000
      212102000	     10503	80009f2e	02fb5433	divu	x8,x22,x15	 x22:0x0000000b x15:0x00000000  x8=0xffffffff
      212122000	     10504	80009f32	b0603a73	csrrc	x20,mhpmcounter6,x0	  x0:0x00000000 x20=0x00000029
      212142000	     10505	80009f36	0001	c.addi	x0,0	  x0:0x00000000  x0=0x00000000
      212162000	     10506	80009f38	c59d	c.beqz	x11,80009f66	 x11:0x99fbfce4
      212182000	     10507	80009f3a	8f71	c.and	x14,x12	 x14:0x00000000 x12:0x00000001 x14=0x00000000
      212322000	     10514	80009f3c	01d40d63	beq	x8,x29,80009f56	  x8:0xffffffff x29:0x00000000
      212342000	     10515	80009f40	55830113	addi	x2,x6,1368	  x6:0x80021df9  x2=0x80022351
      212522000	     10524	80009f44	0159c0b3	xor	x1,x19,x21	 x19:0x00000000 x21:0xfffffef1  x1=0xfffffef1
      216822000	     10739	80009f48	1490	c.addi4spn	x12,x2,608	 x12=0x800225b1
      216842000	     10740	80009f4a	0d36	c.slli	x26,0xd	 x26:0x00000000 x26=0x00000000
      216862000	     10741	80009f4c	41ba8ab3	sub	x21,x21,x27	 x21:0xfffffef1 x27:0x01b8ae01 x21=0xfe4750f0
      216882000	     10742	80009f50	407fd013	srai	x0,x31,0x7	 x31:0x00000000  x0=0x00000000
      216902000	     10743	80009f54	c2a1	c.beqz	x13,80009f94	 x13:0x01b8ae00
      217642000	     10780	80009f56	02b158b3	divu	x17,x2,x11	  x2:0x80022351 x11:0x99fbfce4 x17=0x00000000
      217662000	     10781	80009f5a	003f49b3	xor	x19,x30,x3	 x30:0x00000000  x3:0x00000001 x19=0x00000001
      217682000	     10782	80009f5e	8d0d	c.sub	x10,x11	 x10:0x20000d2e x11:0x99fbfce4 x10=0x8604104a
      217702000	     10783	80009f60	81d6	c.mv	x3,x21	  x0:0x00000000 x21:0xfe4750f0  x3=0xfe4750f0
      217722000	     10784	80009f62	8f46	c.mv	x30,x17	  x0:0x00000000 x17:0x00000000 x30=0x00000000
      217742000	     10785	80009f64	834d	c.srli	x14,0x13	 x14:0x00000000 x14=0x00000000
      217762000	     10786	80009f66	014f1d63	bne	x30,x20,80009f80	 x30:0x00000000 x20:0x00000029
      218302000	     10813	80009f80	00d29263	bne	x5,x13,80009f84	  x5:0x80025ce4 x13:0x01b8ae00
      219022000	     10849	80009f84	00c6d613	srli	x12,x13,0xc	 x13:0x01b8ae00 x12=0x00001b8a
      219242000	     10860	80009f88	717d	c.addi16sp	x2,-16	  x2:0x80022351  x2=0x80022341
      219262000	     10861	80009f8a	f1402773	csrrs	x14,mhartid,x0	  x0:0x00000000 x14=0x00000000
      219282000	     10862	80009f8e	8e5d	c.or	x12,x15	 x12:0x00001b8a x15:0x00000000 x12=0x00001b8a
      219462000	     10871	80009f90	0287c463	blt	x15,x8,80009fb8	 x15:0x00000000  x8:0xffffffff
      219502000	     10873	80009f94	025b91b3	mulh	x3,x23,x5	 x23:0x80021df8  x5:0x80025ce4  x3=0x3ffdc297
      220242000	     10910	80009f98	033b7133	remu	x2,x22,x19	 x22:0x0000000b x19:0x00000001  x2=0x00000000
      220262000	     10911	80009f9c	117d	c.addi	x2,-1	  x2:0x00000000  x2=0xffffffff
      220282000	     10912	80009f9e	01b01093	slli	x1,x0,0x1b	  x0:0x00000000  x1=0x00000000
      220302000	     10913	80009fa2	00175863	bge	x14,x1,80009fb2	 x14:0x00000000  x1:0x00000000
      221702000	     10983	80009fb2	2c85ae13	slti	x28,x11,712	 x11:0x99fbfce4 x28=0x00000001
      221722000	     10984	80009fb6	1c00	c.addi4spn	x8,x2,560	  x8=0x0000022f
      221742000	     10985	80009fb8	8d59	c.or	x10,x14	 x10:0x8604104a x14:0x00000000 x10=0x8604104a
      221762000	     10986	80009fba	0079c963	blt	x19,x7,80009fcc	 x19:0x00000001  x7:0x10fc0000
      222482000	     11022	80009fcc	02624d63	blt	x4,x6,8000a006	  x4:0x00000006  x6:0x80021df9
      223062000	     11051	80009fd0	99fd	c.andi	x11,-1	 x11:0x99fbfce4 x11=0x99fbfce4
      223082000	     11052	80009fd2	8ee1	c.and	x13,x8	 x13:0x01b8ae00  x8:0x0000022f x13=0x00000200
      223262000	     11061	80009fd4	02f89863	bne	x17,x15,8000a004	 x17:0x00000000 x15:0x00000000
      223282000	     11062	80009fd8	01fbe533	or	x10,x23,x31	 x23:0x80021df8 x31:0x00000000 x10=0x80021df8
      223302000	     11063	80009fdc	326021f3	csrrs	x3,mhpmevent6,x0	  x0:0x00000000  x3=0x00000008
      223342000	     11065	80009fe0	63b1	c.lui	x7,0xc	  x7=0x0000c000
      223362000	     11066	80009fe2	717d	c.addi16sp	x2,-16	  x2:0xffffffff  x2=0xffffffef
      223382000	     11067	80009fe4	3a0061f3	csrrsi	x3,pmpcfg0,0	  x3=0x0f0f0f0f
      223762000	     11086	80009fe8	f15e56f3	csrrwi	x0,0xf15,28	  x0=0x00000000
      224642000	     11130	80002700	0800006f	jal	x0,80002780	  x0=0x00000000
      225562000	     11176	80002780	12f1	c.addi	x5,-4	  x5:0x80025ce4  x5=0x80025ce0
      225862000	     11191	80002782	0172a023	sw	x23,0(x5)	  x5:0x80025ce0 x23:0x80021df8 PA:0x80025ce0 store:0x80021df8 load:0xffffffff
      226002000	     11198	80002786	00028bb3	add	x23,x5,x0	  x5:0x80025ce0  x0:0x00000000 x23=0x80025ce0
      226042000	     11200	8000278a	f80b8b93	addi	x23,x23,-128	 x23:0x80025ce0 x23=0x80025c60
      226522000	     11224	8000278e	001ba223	sw	x1,4(x23)	 x23:0x80025c60  x1:0x00000000 PA:0x80025c64 store:0x00000000 load:0xffffffff
      226582000	     11227	80002792	002ba423	sw	x2,8(x23)	 x23:0x80025c60  x2:0xffffffef PA:0x80025c68 store:0xffffffef load:0xffffffff
      226602000	     11228	80002796	003ba623	sw	x3,12(x23)	 x23:0x80025c60  x3:0x0f0f0f0f PA:0x80025c6c store:0x0f0f0f0f load:0xffffffff
      226762000	     11236	8000279a	004ba823	sw	x4,16(x23)	 x23:0x80025c60  x4:0x00000006 PA:0x80025c70 store:0x00000006 load:0xffffffff
      226782000	     11237	8000279e	005baa23	sw	x5,20(x23)	 x23:0x80025c60  x5:0x80025ce0 PA:0x80025c74 store:0x80025ce0 load:0xffffffff
      227002000	     11248	800027a2	006bac23	sw	x6,24(x23)	 x23:0x80025c60  x6:0x80021df9 PA:0x80025c78 store:0x80021df9 load:0xffffffff
      227062000	     11251	800027a6	007bae23	sw	x7,28(x23)	 x23:0x80025c60  x7:0x0000c000 PA:0x80025c7c store:0x0000c000 load:0xffffffff
      227162000	     11256	800027aa	028ba023	sw	x8,32(x23)	 x23:0x80025c60  x8:0x0000022f PA:0x80025c80 store:0x0000022f load:0xffffffff
      227462000	     11271	800027ae	029ba223	sw	x9,36(x23)	 x23:0x80025c60  x9:0x00000000 PA:0x80025c84 store:0x00000000 load:0xffffffff
      227522000	     11274	800027b2	02aba423	sw	x10,40(x23)	 x23:0x80025c60 x10:0x80021df8 PA:0x80025c88 store:0x80021df8 load:0xffffffff
      227942000	     11295	800027b6	02bba623	sw	x11,44(x23)	 x23:0x80025c60 x11:0x99fbfce4 PA:0x80025c8c store:0x99fbfce4 load:0xffffffff
      228502000	     11323	800027ba	02cba823	sw	x12,48(x23)	 x23:0x80025c60 x12:0x00001b8a PA:0x80025c90 store:0x00001b8a load:0xffffffff
      228562000	     11326	800027be	02dbaa23	sw	x13,52(x23)	 x23:0x80025c60 x13:0x00000200 PA:0x80025c94 store:0x00000200 load:0xffffffff
      228582000	     11327	800027c2	02ebac23	sw	x14,56(x23)	 x23:0x80025c60 x14:0x00000000 PA:0x80025c98 store:0x00000000 load:0xffffffff
      228602000	     11328	800027c6	02fbae23	sw	x15,60(x23)	 x23:0x80025c60 x15:0x00000000 PA:0x80025c9c store:0x00000000 load:0xffffffff
      228622000	     11329	800027ca	050ba023	sw	x16,64(x23)	 x23:0x80025c60 x16:0x00000001 PA:0x80025ca0 store:0x00000001 load:0xffffffff
      228642000	     11330	800027ce	051ba223	sw	x17,68(x23)	 x23:0x80025c60 x17:0x00000000 PA:0x80025ca4 store:0x00000000 load:0xffffffff
      228662000	     11331	800027d2	052ba423	sw	x18,72(x23)	 x23:0x80025c60 x18:0x0c000000 PA:0x80025ca8 store:0x0c000000 load:0xffffffff
      228702000	     11333	800027d6	053ba623	sw	x19,76(x23)	 x23:0x80025c60 x19:0x00000001 PA:0x80025cac store:0x00000001 load:0xffffffff
      228802000	     11338	800027da	054ba823	sw	x20,80(x23)	 x23:0x80025c60 x20:0x00000029 PA:0x80025cb0 store:0x00000029 load:0xffffffff
      229262000	     11361	800027de	055baa23	sw	x21,84(x23)	 x23:0x80025c60 x21:0xfe4750f0 PA:0x80025cb4 store:0xfe4750f0 load:0xffffffff
      229422000	     11369	800027e2	056bac23	sw	x22,88(x23)	 x23:0x80025c60 x22:0x0000000b PA:0x80025cb8 store:0x0000000b load:0xffffffff
      229442000	     11370	800027e6	057bae23	sw	x23,92(x23)	 x23:0x80025c60 x23:0x80025c60 PA:0x80025cbc store:0x80025c60 load:0xffffffff
      229562000	     11376	800027ea	078ba023	sw	x24,96(x23)	 x23:0x80025c60 x24:0x00000000 PA:0x80025cc0 store:0x00000000 load:0xffffffff
      229622000	     11379	800027ee	079ba223	sw	x25,100(x23)	 x23:0x80025c60 x25:0x00000000 PA:0x80025cc4 store:0x00000000 load:0xffffffff
      230042000	     11400	800027f2	07aba423	sw	x26,104(x23)	 x23:0x80025c60 x26:0x00000000 PA:0x80025cc8 store:0x00000000 load:0xffffffff
      230182000	     11407	800027f6	07bba623	sw	x27,108(x23)	 x23:0x80025c60 x27:0x01b8ae01 PA:0x80025ccc store:0x01b8ae01 load:0xffffffff
      230202000	     11408	800027fa	07cba823	sw	x28,112(x23)	 x23:0x80025c60 x28:0x00000001 PA:0x80025cd0 store:0x00000001 load:0xffffffff
      230222000	     11409	800027fe	07dbaa23	sw	x29,116(x23)	 x23:0x80025c60 x29:0x00000000 PA:0x80025cd4 store:0x00000000 load:0xffffffff
      230482000	     11422	80002802	07ebac23	sw	x30,120(x23)	 x23:0x80025c60 x30:0x00000000 PA:0x80025cd8 store:0x00000000 load:0xffffffff
      230902000	     11443	80002806	07fbae23	sw	x31,124(x23)	 x23:0x80025c60 x31:0x00000000 PA:0x80025cdc store:0x00000000 load:0xffffffff
      230922000	     11444	8000280a	000b82b3	add	x5,x23,x0	 x23:0x80025c60  x0:0x00000000  x5=0x80025c60
      230942000	     11445	8000280e	90000c37	lui	x24,0x90000	 x24=0x90000000
      230962000	     11446	80002812	1c71	c.addi	x24,-4	 x24:0x90000000 x24=0x8ffffffc
      230982000	     11447	80002814	4f21	c.li	x30,8	 x30=0x00000008
      231002000	     11448	80002816	0f22	c.slli	x30,0x8	 x30:0x00000008 x30=0x00000800
      231022000	     11449	80002818	000f0f13	addi	x30,x30,0	 x30:0x00000800 x30=0x00000800
      231082000	     11452	8000281c	01ec2023	sw	x30,0(x24)	 x24:0x8ffffffc x30:0x00000800 PA:0x8ffffffc store:0x00000800 load:0xffffffff
      231102000	     11453	80002820	34102f73	csrrs	x30,mepc,x0	  x0:0x00000000 x30=0x80009fe8
      231122000	     11454	80002824	34202f73	csrrs	x30,mcause,x0	  x0:0x00000000 x30=0x00000002
      231422000	     11469	80002828	4c0d	c.li	x24,3	 x24=0x00000003
      231542000	     11475	8000282a	018f1463	bne	x30,x24,80002832	 x30:0x00000002 x24:0x00000003
      232842000	     11540	80002832	4c21	c.li	x24,8	 x24=0x00000008
      232862000	     11541	80002834	058f0d63	beq	x30,x24,8000288e	 x30:0x00000002 x24:0x00000008
      232882000	     11542	80002838	4c25	c.li	x24,9	 x24=0x00000009
      232922000	     11544	8000283a	058f0a63	beq	x30,x24,8000288e	 x30:0x00000002 x24:0x00000009
      232942000	     11545	8000283e	4c2d	c.li	x24,11	 x24=0x0000000b
      233222000	     11559	80002840	058f0763	beq	x30,x24,8000288e	 x30:0x00000002 x24:0x0000000b
      233242000	     11560	80002844	4c05	c.li	x24,1	 x24=0x00000001
      233482000	     11572	80002846	358f0363	beq	x30,x24,80002b8c	 x30:0x00000002 x24:0x00000001
      233502000	     11573	8000284a	4c15	c.li	x24,5	 x24=0x00000005
      233522000	     11574	8000284c	638f0a63	beq	x30,x24,80002e80	 x30:0x00000002 x24:0x00000005
      233542000	     11575	80002850	4c1d	c.li	x24,7	 x24=0x00000007
      233742000	     11585	80002852	158f0ce3	beq	x30,x24,800031aa	 x30:0x00000002 x24:0x00000007
      233762000	     11586	80002856	4c31	c.li	x24,12	 x24=0x0000000c
      233782000	     11587	80002858	018f1463	bne	x30,x24,80002860	 x30:0x00000002 x24:0x0000000c
      234082000	     11602	80002860	4c35	c.li	x24,13	 x24=0x0000000d
      234442000	     11620	80002862	018f1463	bne	x30,x24,8000286a	 x30:0x00000002 x24:0x0000000d
      235322000	     11664	8000286a	4c3d	c.li	x24,15	 x24=0x0000000f
      235342000	     11665	8000286c	018f1463	bne	x30,x24,80002874	 x30:0x00000002 x24:0x0000000f
      235382000	     11667	80002874	4c09	c.li	x24,2	 x24=0x00000002
      235902000	     11693	80002876	018f1463	bne	x30,x24,8000287e	 x30:0x00000002 x24:0x00000002
      236022000	     11699	8000287a	3740906f	jal	x0,8000bbee	  x0=0x00000000
      237442000	     11770	8000bbee	90000c37	lui	x24,0x90000	 x24=0x90000000
      237462000	     11771	8000bbf2	1c71	c.addi	x24,-4	 x24:0x90000000 x24=0x8ffffffc
      237622000	     11779	8000bbf4	4f29	c.li	x30,10	 x30=0x0000000a
      237642000	     11780	8000bbf6	0f22	c.slli	x30,0x8	 x30:0x0000000a x30=0x00000a00
      237742000	     11785	8000bbf8	000f0f13	addi	x30,x30,0	 x30:0x00000a00 x30=0x00000a00
      237902000	     11793	8000bbfc	01ec2023	sw	x30,0(x24)	 x24:0x8ffffffc x30:0x00000a00 PA:0x8ffffffc store:0x00000a00 load:0xffffffff
      237922000	     11794	8000bc00	90000c37	lui	x24,0x90000	 x24=0x90000000
      238202000	     11808	8000bc04	1c71	c.addi	x24,-4	 x24:0x90000000 x24=0x8ffffffc
      238222000	     11809	8000bc06	34200f13	addi	x30,x0,834	  x0:0x00000000 x30=0x00000342
      238242000	     11810	8000bc0a	0f22	c.slli	x30,0x8	 x30:0x00000342 x30=0x00034200
      238262000	     11811	8000bc0c	0f0d	c.addi	x30,3	 x30:0x00034200 x30=0x00034203
      238762000	     11836	8000bc0e	01ec2023	sw	x30,0(x24)	 x24:0x8ffffffc x30:0x00034203 PA:0x8ffffffc store:0x00034203 load:0xffffffff
      238982000	     11847	8000bc12	34202f73	csrrs	x30,mcause,x0	  x0:0x00000000 x30=0x00000002
      239622000	     11879	8000bc16	01ec2023	sw	x30,0(x24)	 x24:0x8ffffffc x30:0x00000002 PA:0x8ffffffc store:0x00000002 load:0xffffffff
      239642000	     11880	8000bc1a	34102f73	csrrs	x30,mepc,x0	  x0:0x00000000 x30=0x80009fe8
      239662000	     11881	8000bc1e	0f11	c.addi	x30,4	 x30:0x80009fe8 x30=0x80009fec
      239682000	     11882	8000bc20	341f1073	csrrw	x0,mepc,x30	 x30:0x80009fec  x0=0x00000000
      239702000	     11883	8000bc24	00028bb3	add	x23,x5,x0	  x5:0x80025c60  x0:0x00000000 x23=0x80025c60
      239762000	     11886	8000bc28	004ba083	lw	x1,4(x23)	 x23:0x80025c60  x1=0x00000000 PA:0x80025c64 load:0x00000000
      239782000	     11887	8000bc2c	008ba103	lw	x2,8(x23)	 x23:0x80025c60  x2=0xffffffef PA:0x80025c68 load:0xffffffef
      239882000	     11892	8000bc30	00cba183	lw	x3,12(x23)	 x23:0x80025c60  x3=0x0f0f0f0f PA:0x80025c6c load:0x0f0f0f0f
      239942000	     11895	8000bc34	010ba203	lw	x4,16(x23)	 x23:0x80025c60  x4=0x00000006 PA:0x80025c70 load:0x00000006
      239962000	     11896	8000bc38	014ba283	lw	x5,20(x23)	 x23:0x80025c60  x5=0x80025ce0 PA:0x80025c74 load:0x80025ce0
      239982000	     11897	8000bc3c	018ba303	lw	x6,24(x23)	 x23:0x80025c60  x6=0x80021df9 PA:0x80025c78 load:0x80021df9
      240002000	     11898	8000bc40	01cba383	lw	x7,28(x23)	 x23:0x80025c60  x7=0x0000c000 PA:0x80025c7c load:0x0000c000
      240422000	     11919	8000bc44	020ba403	lw	x8,32(x23)	 x23:0x80025c60  x8=0x0000022f PA:0x80025c80 load:0x0000022f
      240482000	     11922	8000bc48	024ba483	lw	x9,36(x23)	 x23:0x80025c60  x9=0x00000000 PA:0x80025c84 load:0x00000000
      240542000	     11925	8000bc4c	028ba503	lw	x10,40(x23)	 x23:0x80025c60 x10=0x80021df8 PA:0x80025c88 load:0x80021df8
      240802000	     11938	8000bc50	02cba583	lw	x11,44(x23)	 x23:0x80025c60 x11=0x99fbfce4 PA:0x80025c8c load:0x99fbfce4
      257302000	     12763	8000bc54	030ba603	lw	x12,48(x23)	 x23:0x80025c60 x12=0x00001b8a PA:0x80025c90 load:0x00001b8a
      257662000	     12781	8000bc58	034ba683	lw	x13,52(x23)	 x23:0x80025c60 x13=0x00000200 PA:0x80025c94 load:0x00000200
      257842000	     12790	8000bc5c	038ba703	lw	x14,56(x23)	 x23:0x80025c60 x14=0x00000000 PA:0x80025c98 load:0x00000000
      258202000	     12808	8000bc60	03cba783	lw	x15,60(x23)	 x23:0x80025c60 x15=0x00000000 PA:0x80025c9c load:0x00000000
      258442000	     12820	8000bc64	040ba803	lw	x16,64(x23)	 x23:0x80025c60 x16=0x00000001 PA:0x80025ca0 load:0x00000001
      258602000	     12828	8000bc68	044ba883	lw	x17,68(x23)	 x23:0x80025c60 x17=0x00000000 PA:0x80025ca4 load:0x00000000
      258662000	     12831	8000bc6c	048ba903	lw	x18,72(x23)	 x23:0x80025c60 x18=0x0c000000 PA:0x80025ca8 load:0x0c000000
      258822000	     12839	8000bc70	04cba983	lw	x19,76(x23)	 x23:0x80025c60 x19=0x00000001 PA:0x80025cac load:0x00000001
      259002000	     12848	8000bc74	050baa03	lw	x20,80(x23)	 x23:0x80025c60 x20=0x00000029 PA:0x80025cb0 load:0x00000029
      259102000	     12853	8000bc78	054baa83	lw	x21,84(x23)	 x23:0x80025c60 x21=0xfe4750f0 PA:0x80025cb4 load:0xfe4750f0
      259162000	     12856	8000bc7c	058bab03	lw	x22,88(x23)	 x23:0x80025c60 x22=0x0000000b PA:0x80025cb8 load:0x0000000b
      259182000	     12857	8000bc80	05cbab83	lw	x23,92(x23)	 x23:0x80025c60 x23=0x80025c60 PA:0x80025cbc load:0x80025c60
      259422000	     12869	8000bc84	060bac03	lw	x24,96(x23)	 x23:0x80025c60 x24=0x00000000 PA:0x80025cc0 load:0x00000000
      259442000	     12870	8000bc88	064bac83	lw	x25,100(x23)	 x23:0x80025c60 x25=0x00000000 PA:0x80025cc4 load:0x00000000
      260062000	     12901	8000bc8c	068bad03	lw	x26,104(x23)	 x23:0x80025c60 x26=0x00000000 PA:0x80025cc8 load:0x00000000
      260362000	     12916	8000bc90	06cbad83	lw	x27,108(x23)	 x23:0x80025c60 x27=0x01b8ae01 PA:0x80025ccc load:0x01b8ae01
      260422000	     12919	8000bc94	070bae03	lw	x28,112(x23)	 x23:0x80025c60 x28=0x00000001 PA:0x80025cd0 load:0x00000001
      260542000	     12925	8000bc98	074bae83	lw	x29,116(x23)	 x23:0x80025c60 x29=0x00000000 PA:0x80025cd4 load:0x00000000
      261002000	     12948	8000bc9c	078baf03	lw	x30,120(x23)	 x23:0x80025c60 x30=0x00000000 PA:0x80025cd8 load:0x00000000
      261062000	     12951	8000bca0	07cbaf83	lw	x31,124(x23)	 x23:0x80025c60 x31=0x00000000 PA:0x80025cdc load:0x00000000
      261082000	     12952	8000bca4	080b8b93	addi	x23,x23,128	 x23:0x80025c60 x23=0x80025ce0
      261102000	     12953	8000bca8	000b82b3	add	x5,x23,x0	 x23:0x80025ce0  x0:0x00000000  x5=0x80025ce0
      261602000	     12978	8000bcac	0002ab83	lw	x23,0(x5)	  x5:0x80025ce0 x23=0x80021df8 PA:0x80025ce0 load:0x80021df8
      261622000	     12979	8000bcb0	0291	c.addi	x5,4	  x5:0x80025ce0  x5=0x80025ce4
      261642000	     12980	8000bcb2	30200073	mret	
      261702000	     12983	80009fec	02f58c63	beq	x11,x15,8000a024	 x11:0x99fbfce4 x15:0x00000000
      261722000	     12984	80009ff0	0153d663	bge	x7,x21,80009ffc	  x7:0x0000c000 x21:0xfe4750f0
      261762000	     12986	80009ffc	5037cf13	xori	x30,x15,1283	 x15:0x00000000 x30=0x00000503
      261982000	     12997	8000a000	527d	c.li	x4,-1	  x4=0xffffffff
      262002000	     12998	8000a002	8e3d	c.xor	x12,x15	 x12:0x00001b8a x15:0x00000000 x12=0x00001b8a
      262022000	     12999	8000a004	0b88	c.addi4spn	x10,x2,464	 x10=0x000001bf
      262042000	     13000	8000a006	0001	c.addi	x0,0	  x0:0x00000000  x0=0x00000000
      262062000	     13001	8000a008	00c101b3	add	x3,x2,x12	  x2:0xffffffef x12:0x00001b8a  x3=0x00001b79
      262102000	     13003	8000a00c	15569a37	lui	x20,0x15569	 x20=0x15569000
      262222000	     13009	8000a010	8f0d	c.sub	x14,x11	 x14:0x00000000 x11:0x99fbfce4 x14=0x6604031c
      262962000	     13046	8000a012	0324e433	rem	x8,x9,x18	  x9:0x00000000 x18:0x0c000000  x8=0x00000000
      262982000	     13047	8000a016	03d5dd63	bge	x11,x29,8000a050	 x11:0x99fbfce4 x29:0x00000000
      263002000	     13048	8000a01a	419e5e93	srai	x29,x28,0x19	 x28:0x00000001 x29=0x00000000
      263022000	     13049	8000a01e	c59d	c.beqz	x11,8000a04c	 x11:0x99fbfce4
      263042000	     13050	8000a020	c10d	c.beqz	x10,8000a042	 x10:0x000001bf
      263062000	     13051	8000a022	80b9	c.srli	x9,0xe	  x9:0x00000000  x9=0x00000000
      263082000	     13052	8000a024	00789d63	bne	x17,x7,8000a03e	 x17:0x00000000  x7:0x0000c000
      263502000	     13073	8000a03e	0378b533	mulhu	x10,x17,x23	 x17:0x00000000 x23:0x80021df8 x10=0x00000000
      263522000	     13074	8000a042	c129	c.beqz	x10,8000a084	 x10:0x00000000
      263722000	     13084	8000a084	01eaf1b3	and	x3,x21,x30	 x21:0xfe4750f0 x30:0x00000503  x3=0x00000000
      263762000	     13086	8000a088	f14c5473	csrrwi	x0,mhartid,24	  x0=0x00000000
      263822000	     13089	80002700	0800006f	jal	x0,80002780	  x0=0x00000000
      263902000	     13093	80002780	12f1	c.addi	x5,-4	  x5:0x80025ce4  x5=0x80025ce0
      263962000	     13096	80002782	0172a023	sw	x23,0(x5)	  x5:0x80025ce0 x23:0x80021df8 PA:0x80025ce0 store:0x80021df8 load:0xffffffff
      263982000	     13097	80002786	00028bb3	add	x23,x5,x0	  x5:0x80025ce0  x0:0x00000000 x23=0x80025ce0
      264002000	     13098	8000278a	f80b8b93	addi	x23,x23,-128	 x23:0x80025ce0 x23=0x80025c60
      264162000	     13106	8000278e	001ba223	sw	x1,4(x23)	 x23:0x80025c60  x1:0x00000000 PA:0x80025c64 store:0x00000000 load:0xffffffff
      264782000	     13137	80002792	002ba423	sw	x2,8(x23)	 x23:0x80025c60  x2:0xffffffef PA:0x80025c68 store:0xffffffef load:0xffffffff
      265022000	     13149	80002796	003ba623	sw	x3,12(x23)	 x23:0x80025c60  x3:0x00000000 PA:0x80025c6c store:0x00000000 load:0xffffffff
      265362000	     13166	8000279a	004ba823	sw	x4,16(x23)	 x23:0x80025c60  x4:0xffffffff PA:0x80025c70 store:0xffffffff load:0xffffffff
      265802000	     13188	8000279e	005baa23	sw	x5,20(x23)	 x23:0x80025c60  x5:0x80025ce0 PA:0x80025c74 store:0x80025ce0 load:0xffffffff
      265862000	     13191	800027a2	006bac23	sw	x6,24(x23)	 x23:0x80025c60  x6:0x80021df9 PA:0x80025c78 store:0x80021df9 load:0xffffffff
      265882000	     13192	800027a6	007bae23	sw	x7,28(x23)	 x23:0x80025c60  x7:0x0000c000 PA:0x80025c7c store:0x0000c000 load:0xffffffff
      265982000	     13197	800027aa	028ba023	sw	x8,32(x23)	 x23:0x80025c60  x8:0x00000000 PA:0x80025c80 store:0x00000000 load:0xffffffff
      266082000	     13202	800027ae	029ba223	sw	x9,36(x23)	 x23:0x80025c60  x9:0x00000000 PA:0x80025c84 store:0x00000000 load:0xffffffff
      266642000	     13230	800027b2	02aba423	sw	x10,40(x23)	 x23:0x80025c60 x10:0x00000000 PA:0x80025c88 store:0x00000000 load:0xffffffff
      266702000	     13233	800027b6	02bba623	sw	x11,44(x23)	 x23:0x80025c60 x11:0x99fbfce4 PA:0x80025c8c store:0x99fbfce4 load:0xffffffff
      267122000	     13254	800027ba	02cba823	sw	x12,48(x23)	 x23:0x80025c60 x12:0x00001b8a PA:0x80025c90 store:0x00001b8a load:0xffffffff
      267342000	     13265	800027be	02dbaa23	sw	x13,52(x23)	 x23:0x80025c60 x13:0x00000200 PA:0x80025c94 store:0x00000200 load:0xffffffff
      267542000	     13275	800027c2	02ebac23	sw	x14,56(x23)	 x23:0x80025c60 x14:0x6604031c PA:0x80025c98 store:0x6604031c load:0xffffffff
      267602000	     13278	800027c6	02fbae23	sw	x15,60(x23)	 x23:0x80025c60 x15:0x00000000 PA:0x80025c9c store:0x00000000 load:0xffffffff
      267622000	     13279	800027ca	050ba023	sw	x16,64(x23)	 x23:0x80025c60 x16:0x00000001 PA:0x80025ca0 store:0x00000001 load:0xffffffff
      267662000	     13281	800027ce	051ba223	sw	x17,68(x23)	 x23:0x80025c60 x17:0x00000000 PA:0x80025ca4 store:0x00000000 load:0xffffffff
      267682000	     13282	800027d2	052ba423	sw	x18,72(x23)	 x23:0x80025c60 x18:0x0c000000 PA:0x80025ca8 store:0x0c000000 load:0xffffffff
      267702000	     13283	800027d6	053ba623	sw	x19,76(x23)	 x23:0x80025c60 x19:0x00000001 PA:0x80025cac store:0x00000001 load:0xffffffff
      267722000	     13284	800027da	054ba823	sw	x20,80(x23)	 x23:0x80025c60 x20:0x15569000 PA:0x80025cb0 store:0x15569000 load:0xffffffff
      267742000	     13285	800027de	055baa23	sw	x21,84(x23)	 x23:0x80025c60 x21:0xfe4750f0 PA:0x80025cb4 store:0xfe4750f0 load:0xffffffff
      268162000	     13306	800027e2	056bac23	sw	x22,88(x23)	 x23:0x80025c60 x22:0x0000000b PA:0x80025cb8 store:0x0000000b load:0xffffffff
      268582000	     13327	800027e6	057bae23	sw	x23,92(x23)	 x23:0x80025c60 x23:0x80025c60 PA:0x80025cbc store:0x80025c60 load:0xffffffff
      268642000	     13330	800027ea	078ba023	sw	x24,96(x23)	 x23:0x80025c60 x24:0x00000000 PA:0x80025cc0 store:0x00000000 load:0xffffffff
      268662000	     13331	800027ee	079ba223	sw	x25,100(x23)	 x23:0x80025c60 x25:0x00000000 PA:0x80025cc4 store:0x00000000 load:0xffffffff
      268722000	     13334	800027f2	07aba423	sw	x26,104(x23)	 x23:0x80025c60 x26:0x00000000 PA:0x80025cc8 store:0x00000000 load:0xffffffff
      269022000	     13349	800027f6	07bba623	sw	x27,108(x23)	 x23:0x80025c60 x27:0x01b8ae01 PA:0x80025ccc store:0x01b8ae01 load:0xffffffff
      269122000	     13354	800027fa	07cba823	sw	x28,112(x23)	 x23:0x80025c60 x28:0x00000001 PA:0x80025cd0 store:0x00000001 load:0xffffffff
      269482000	     13372	800027fe	07dbaa23	sw	x29,116(x23)	 x23:0x80025c60 x29:0x00000000 PA:0x80025cd4 store:0x00000000 load:0xffffffff
      269782000	     13387	80002802	07ebac23	sw	x30,120(x23)	 x23:0x80025c60 x30:0x00000503 PA:0x80025cd8 store:0x00000503 load:0xffffffff
      269842000	     13390	80002806	07fbae23	sw	x31,124(x23)	 x23:0x80025c60 x31:0x00000000 PA:0x80025cdc store:0x00000000 load:0xffffffff
      269862000	     13391	8000280a	000b82b3	add	x5,x23,x0	 x23:0x80025c60  x0:0x00000000  x5=0x80025c60
      269882000	     13392	8000280e	90000c37	lui	x24,0x90000	 x24=0x90000000
      269902000	     13393	80002812	1c71	c.addi	x24,-4	 x24:0x90000000 x24=0x8ffffffc
      269922000	     13394	80002814	4f21	c.li	x30,8	 x30=0x00000008
      269942000	     13395	80002816	0f22	c.slli	x30,0x8	 x30:0x00000008 x30=0x00000800
      269962000	     13396	80002818	000f0f13	addi	x30,x30,0	 x30:0x00000800 x30=0x00000800
      270122000	     13404	8000281c	01ec2023	sw	x30,0(x24)	 x24:0x8ffffffc x30:0x00000800 PA:0x8ffffffc store:0x00000800 load:0xffffffff
      270142000	     13405	80002820	34102f73	csrrs	x30,mepc,x0	  x0:0x00000000 x30=0x8000a088
      270162000	     13406	80002824	34202f73	csrrs	x30,mcause,x0	  x0:0x00000000 x30=0x00000002
      270182000	     13407	80002828	4c0d	c.li	x24,3	 x24=0x00000003
      270202000	     13408	8000282a	018f1463	bne	x30,x24,80002832	 x30:0x00000002 x24:0x00000003
      270242000	     13410	80002832	4c21	c.li	x24,8	 x24=0x00000008
      270262000	     13411	80002834	058f0d63	beq	x30,x24,8000288e	 x30:0x00000002 x24:0x00000008
      270282000	     13412	80002838	4c25	c.li	x24,9	 x24=0x00000009
      270302000	     13413	8000283a	058f0a63	beq	x30,x24,8000288e	 x30:0x00000002 x24:0x00000009
      270322000	     13414	8000283e	4c2d	c.li	x24,11	 x24=0x0000000b
      270342000	     13415	80002840	058f0763	beq	x30,x24,8000288e	 x30:0x00000002 x24:0x0000000b
      270362000	     13416	80002844	4c05	c.li	x24,1	 x24=0x00000001
      270382000	     13417	80002846	358f0363	beq	x30,x24,80002b8c	 x30:0x00000002 x24:0x00000001
      270402000	     13418	8000284a	4c15	c.li	x24,5	 x24=0x00000005
      270422000	     13419	8000284c	638f0a63	beq	x30,x24,80002e80	 x30:0x00000002 x24:0x00000005
      270442000	     13420	80002850	4c1d	c.li	x24,7	 x24=0x00000007
      270462000	     13421	80002852	158f0ce3	beq	x30,x24,800031aa	 x30:0x00000002 x24:0x00000007
      270482000	     13422	80002856	4c31	c.li	x24,12	 x24=0x0000000c
      270502000	     13423	80002858	018f1463	bne	x30,x24,80002860	 x30:0x00000002 x24:0x0000000c
      270542000	     13425	80002860	4c35	c.li	x24,13	 x24=0x0000000d
      270562000	     13426	80002862	018f1463	bne	x30,x24,8000286a	 x30:0x00000002 x24:0x0000000d
      270622000	     13429	8000286a	4c3d	c.li	x24,15	 x24=0x0000000f
      270642000	     13430	8000286c	018f1463	bne	x30,x24,80002874	 x30:0x00000002 x24:0x0000000f
      270702000	     13433	80002874	4c09	c.li	x24,2	 x24=0x00000002
      270722000	     13434	80002876	018f1463	bne	x30,x24,8000287e	 x30:0x00000002 x24:0x00000002
      270742000	     13435	8000287a	3740906f	jal	x0,8000bbee	  x0=0x00000000
      270822000	     13439	8000bbee	90000c37	lui	x24,0x90000	 x24=0x90000000
      270842000	     13440	8000bbf2	1c71	c.addi	x24,-4	 x24:0x90000000 x24=0x8ffffffc
      270862000	     13441	8000bbf4	4f29	c.li	x30,10	 x30=0x0000000a
      270882000	     13442	8000bbf6	0f22	c.slli	x30,0x8	 x30:0x0000000a x30=0x00000a00
      270902000	     13443	8000bbf8	000f0f13	addi	x30,x30,0	 x30:0x00000a00 x30=0x00000a00
      271342000	     13465	8000bbfc	01ec2023	sw	x30,0(x24)	 x24:0x8ffffffc x30:0x00000a00 PA:0x8ffffffc store:0x00000a00 load:0xffffffff
      271362000	     13466	8000bc00	90000c37	lui	x24,0x90000	 x24=0x90000000
      271382000	     13467	8000bc04	1c71	c.addi	x24,-4	 x24:0x90000000 x24=0x8ffffffc
      271402000	     13468	8000bc06	34200f13	addi	x30,x0,834	  x0:0x00000000 x30=0x00000342
      271422000	     13469	8000bc0a	0f22	c.slli	x30,0x8	 x30:0x00000342 x30=0x00034200
      271442000	     13470	8000bc0c	0f0d	c.addi	x30,3	 x30:0x00034200 x30=0x00034203
      271502000	     13473	8000bc0e	01ec2023	sw	x30,0(x24)	 x24:0x8ffffffc x30:0x00034203 PA:0x8ffffffc store:0x00034203 load:0xffffffff
      271522000	     13474	8000bc12	34202f73	csrrs	x30,mcause,x0	  x0:0x00000000 x30=0x00000002
      271742000	     13485	8000bc16	01ec2023	sw	x30,0(x24)	 x24:0x8ffffffc x30:0x00000002 PA:0x8ffffffc store:0x00000002 load:0xffffffff
      271762000	     13486	8000bc1a	34102f73	csrrs	x30,mepc,x0	  x0:0x00000000 x30=0x8000a088
      271782000	     13487	8000bc1e	0f11	c.addi	x30,4	 x30:0x8000a088 x30=0x8000a08c
      271802000	     13488	8000bc20	341f1073	csrrw	x0,mepc,x30	 x30:0x8000a08c  x0=0x00000000
      271822000	     13489	8000bc24	00028bb3	add	x23,x5,x0	  x5:0x80025c60  x0:0x00000000 x23=0x80025c60
      271902000	     13493	8000bc28	004ba083	lw	x1,4(x23)	 x23:0x80025c60  x1=0x00000000 PA:0x80025c64 load:0x00000000
      272002000	     13498	8000bc2c	008ba103	lw	x2,8(x23)	 x23:0x80025c60  x2=0xffffffef PA:0x80025c68 load:0xffffffef
      272122000	     13504	8000bc30	00cba183	lw	x3,12(x23)	 x23:0x80025c60  x3=0x00000000 PA:0x80025c6c load:0x00000000
      272322000	     13514	8000bc34	010ba203	lw	x4,16(x23)	 x23:0x80025c60  x4=0xffffffff PA:0x80025c70 load:0xffffffff
      272382000	     13517	8000bc38	014ba283	lw	x5,20(x23)	 x23:0x80025c60  x5=0x80025ce0 PA:0x80025c74 load:0x80025ce0
      272402000	     13518	8000bc3c	018ba303	lw	x6,24(x23)	 x23:0x80025c60  x6=0x80021df9 PA:0x80025c78 load:0x80021df9
      272422000	     13519	8000bc40	01cba383	lw	x7,28(x23)	 x23:0x80025c60  x7=0x0000c000 PA:0x80025c7c load:0x0000c000
      272482000	     13522	8000bc44	020ba403	lw	x8,32(x23)	 x23:0x80025c60  x8=0x00000000 PA:0x80025c80 load:0x00000000
      272982000	     13547	8000bc48	024ba483	lw	x9,36(x23)	 x23:0x80025c60  x9=0x00000000 PA:0x80025c84 load:0x00000000
      273042000	     13550	8000bc4c	028ba503	lw	x10,40(x23)	 x23:0x80025c60 x10=0x00000000 PA:0x80025c88 load:0x00000000
      273082000	     13552	8000bc50	02cba583	lw	x11,44(x23)	 x23:0x80025c60 x11=0x99fbfce4 PA:0x80025c8c load:0x99fbfce4
      273142000	     13555	8000bc54	030ba603	lw	x12,48(x23)	 x23:0x80025c60 x12=0x00001b8a PA:0x80025c90 load:0x00001b8a
      273182000	     13557	8000bc58	034ba683	lw	x13,52(x23)	 x23:0x80025c60 x13=0x00000200 PA:0x80025c94 load:0x00000200
      273602000	     13578	8000bc5c	038ba703	lw	x14,56(x23)	 x23:0x80025c60 x14=0x6604031c PA:0x80025c98 load:0x6604031c
      273682000	     13582	8000bc60	03cba783	lw	x15,60(x23)	 x23:0x80025c60 x15=0x00000000 PA:0x80025c9c load:0x00000000
      273702000	     13583	8000bc64	040ba803	lw	x16,64(x23)	 x23:0x80025c60 x16=0x00000001 PA:0x80025ca0 load:0x00000001
      273742000	     13585	8000bc68	044ba883	lw	x17,68(x23)	 x23:0x80025c60 x17=0x00000000 PA:0x80025ca4 load:0x00000000
      273762000	     13586	8000bc6c	048ba903	lw	x18,72(x23)	 x23:0x80025c60 x18=0x0c000000 PA:0x80025ca8 load:0x0c000000
      274102000	     13603	8000bc70	04cba983	lw	x19,76(x23)	 x23:0x80025c60 x19=0x00000001 PA:0x80025cac load:0x00000001
      274322000	     13614	8000bc74	050baa03	lw	x20,80(x23)	 x23:0x80025c60 x20=0x15569000 PA:0x80025cb0 load:0x15569000
      274382000	     13617	8000bc78	054baa83	lw	x21,84(x23)	 x23:0x80025c60 x21=0xfe4750f0 PA:0x80025cb4 load:0xfe4750f0
      274402000	     13618	8000bc7c	058bab03	lw	x22,88(x23)	 x23:0x80025c60 x22=0x0000000b PA:0x80025cb8 load:0x0000000b
      274422000	     13619	8000bc80	05cbab83	lw	x23,92(x23)	 x23:0x80025c60 x23=0x80025c60 PA:0x80025cbc load:0x80025c60
      274642000	     13630	8000bc84	060bac03	lw	x24,96(x23)	 x23:0x80025c60 x24=0x00000000 PA:0x80025cc0 load:0x00000000
      274662000	     13631	8000bc88	064bac83	lw	x25,100(x23)	 x23:0x80025c60 x25=0x00000000 PA:0x80025cc4 load:0x00000000
      274682000	     13632	8000bc8c	068bad03	lw	x26,104(x23)	 x23:0x80025c60 x26=0x00000000 PA:0x80025cc8 load:0x00000000
      274902000	     13643	8000bc90	06cbad83	lw	x27,108(x23)	 x23:0x80025c60 x27=0x01b8ae01 PA:0x80025ccc load:0x01b8ae01
      275002000	     13648	8000bc94	070bae03	lw	x28,112(x23)	 x23:0x80025c60 x28=0x00000001 PA:0x80025cd0 load:0x00000001
      275222000	     13659	8000bc98	074bae83	lw	x29,116(x23)	 x23:0x80025c60 x29=0x00000000 PA:0x80025cd4 load:0x00000000
      275682000	     13682	8000bc9c	078baf03	lw	x30,120(x23)	 x23:0x80025c60 x30=0x00000503 PA:0x80025cd8 load:0x00000503
      275942000	     13695	8000bca0	07cbaf83	lw	x31,124(x23)	 x23:0x80025c60 x31=0x00000000 PA:0x80025cdc load:0x00000000
      275962000	     13696	8000bca4	080b8b93	addi	x23,x23,128	 x23:0x80025c60 x23=0x80025ce0
      275982000	     13697	8000bca8	000b82b3	add	x5,x23,x0	 x23:0x80025ce0  x0:0x00000000  x5=0x80025ce0
      276462000	     13721	8000bcac	0002ab83	lw	x23,0(x5)	  x5:0x80025ce0 x23=0x80021df8 PA:0x80025ce0 load:0x80021df8
      276482000	     13722	8000bcb0	0291	c.addi	x5,4	  x5:0x80025ce0  x5=0x80025ce4
      276502000	     13723	8000bcb2	30200073	mret	
      276562000	     13726	8000a08c	001ec6b3	xor	x13,x29,x1	 x29:0x00000000  x1:0x00000000 x13=0x00000000
      276582000	     13727	8000a090	00298333	add	x6,x19,x2	 x19:0x00000001  x2:0xffffffef  x6=0xfffffff0
      276602000	     13728	8000a094	8e4d	c.or	x12,x11	 x12:0x00001b8a x11:0x99fbfce4 x12=0x99fbffee
      276702000	     13733	8000a096	039743b3	div	x7,x14,x25	 x14:0x6604031c x25:0x00000000  x7=0xffffffff
      276722000	     13734	8000a09a	50fd	c.li	x1,-1	  x1=0xffffffff
      276742000	     13735	8000a09c	0044c533	xor	x10,x9,x4	  x9:0x00000000  x4:0xffffffff x10=0xffffffff
      277582000	     13777	8000a0a0	0329e833	rem	x16,x19,x18	 x19:0x00000001 x18:0x0c000000 x16=0x00000001
      277602000	     13778	8000a0a4	1ca9c437	lui	x8,0x1ca9c	  x8=0x1ca9c000
      277642000	     13780	8000a0a8	02a02733	mulhsu	x14,x0,x10	  x0:0x00000000 x10:0xffffffff x14=0x00000000
      277662000	     13781	8000a0ac	40a65a33	sra	x20,x12,x10	 x12:0x99fbffee x10:0xffffffff x20=0xffffffff
      277682000	     13782	8000a0b0	d941f593	andi	x11,x3,-620	  x3:0x00000000 x11=0x00000000
      277702000	     13783	8000a0b4	008a5d93	srli	x27,x20,0x8	 x20:0xffffffff x27=0x00ffffff
      277962000	     13796	8000a0b8	0001	c.addi	x0,0	  x0:0x00000000  x0=0x00000000
      277982000	     13797	8000a0ba	00d37933	and	x18,x6,x13	  x6:0xfffffff0 x13:0x00000000 x18=0x00000000
      278002000	     13798	8000a0be	de293413	sltiu	x8,x18,-542	 x18:0x00000000  x8=0x00000001
      278022000	     13799	8000a0c2	0001	c.addi	x0,0	  x0:0x00000000  x0=0x00000000
      278102000	     13803	8000a0c4	07eb8013	addi	x0,x23,126	 x23:0x80021df8  x0=0x00000000
      278122000	     13804	8000a0c8	82bd	c.srli	x13,0xf	 x13:0x00000000 x13=0x00000000
      278142000	     13805	8000a0ca	c689	c.beqz	x13,8000a0d4	 x13:0x00000000
      278682000	     13832	8000a0d4	02af5963	bge	x30,x10,8000a106	 x30:0x00000503 x10:0xffffffff
      279862000	     13891	8000a106	044fb493	sltiu	x9,x31,68	 x31:0x00000000  x9=0x00000001
      279882000	     13892	8000a10a	41db8133	sub	x2,x23,x29	 x23:0x80021df8 x29:0x00000000  x2=0x80021df8
      279902000	     13893	8000a10e	3f11b4b7	lui	x9,0x3f11b	  x9=0x3f11b000
      280042000	     13900	8000a112	34175cf3	csrrwi	x25,mepc,14	 x25=0x8000a08c
      280062000	     13901	8000a116	01de	c.slli	x3,0x17	  x3:0x00000000  x3=0x00000000
      280462000	     13921	8000a118	b8ab9df3	csrrw	x27,mhpmcounter10h,x23	 x23:0x80021df8 x27=0x00000000
      280882000	     13942	8000a11c	00044963	blt	x8,x0,8000a12e	  x8:0x00000001  x0:0x00000000
      280902000	     13943	8000a120	808d	c.srli	x9,0x3	  x9:0x3f11b000  x9=0x07e23600
      281802000	     13988	8000a122	0335e5b3	rem	x11,x11,x19	 x11:0x00000000 x19:0x00000001 x11=0x00000000
      281822000	     13989	8000a126	00b09863	bne	x1,x11,8000a136	  x1:0xffffffff x11:0x00000000
      281882000	     13992	8000a136	51e86b13	ori	x22,x16,1310	 x16:0x00000001 x22=0x0000051f
      281922000	     13994	8000a13a	02bfa533	mulhsu	x10,x31,x11	 x31:0x00000000 x11:0x00000000 x10=0x00000000
      281942000	     13995	8000a13e	c815	c.beqz	x8,8000a172	  x8:0x00000001
      282382000	     14017	8000a140	41a35d13	srai	x26,x6,0x1a	  x6:0xfffffff0 x26=0xffffffff
      282402000	     14018	8000a144	044dd163	bge	x27,x4,8000a186	 x27:0x00000000  x4:0xffffffff
      283302000	     14063	8000a186	0067bd33	sltu	x26,x15,x6	 x15:0x00000000  x6:0xfffffff0 x26=0x00000001
      283322000	     14064	8000a18a	7a106f73	csrrsi	x30,tdata1,0	 x30=0x28001048
      283342000	     14065	8000a18e	0151cc33	xor	x24,x3,x21	  x3:0x00000000 x21:0xfe4750f0 x24=0xfe4750f0
      283382000	     14067	8000a192	02b77333	remu	x6,x14,x11	 x14:0x00000000 x11:0x00000000  x6=0x00000000
      283402000	     14068	8000a196	d2304d93	xori	x27,x0,-733	  x0:0x00000000 x27=0xfffffd23
      283422000	     14069	8000a19a	84757993	andi	x19,x10,-1977	 x10:0x00000000 x19=0x00000000
      283442000	     14070	8000a19e	00c3d733	srl	x14,x7,x12	  x7:0xffffffff x12:0x99fbffee x14=0x0003ffff
      283462000	     14071	8000a1a2	717d	c.addi16sp	x2,-16	  x2:0x80021df8  x2=0x80021de8
      283482000	     14072	8000a1a4	0000100f	fence.i	
      284262000	     14111	8000a1a8	e481	c.bnez	x9,8000a1b0	  x9:0x07e23600
      285162000	     14156	8000a1b0	8979	c.andi	x10,30	 x10:0x00000000 x10=0x00000000
      285182000	     14157	8000a1b2	1c94	c.addi4spn	x13,x2,624	 x13=0x80022058
      285342000	     14165	8000a1b4	7c0f9d73	csrrw	x26,0x7c0,x31	 x31:0x00000000 x26=0x00000101
      285402000	     14168	8000a1b8	0001	c.addi	x0,0	  x0:0x00000000  x0=0x00000000
      285422000	     14169	8000a1ba	b87d38f3	csrrc	x17,mhpmcounter7h,x26	 x26:0x00000101 x17=0x00000000
      285482000	     14172	8000a1be	024e7263	bgeu	x28,x4,8000a1e2	 x28:0x00000001  x4:0xffffffff
      285562000	     14176	8000a1c2	00ea29b3	slt	x19,x20,x14	 x20:0xffffffff x14:0x0003ffff x19=0x00000001
      285602000	     14178	8000a1c6	f1406e73	csrrsi	x28,mhartid,0	 x28=0x00000000
      285622000	     14179	8000a1ca	8669	c.srai	x12,0x1a	 x12:0x99fbffee x12=0xffffffe6
      285642000	     14180	8000a1cc	0296cc63	blt	x13,x9,8000a204	 x13:0x80022058  x9:0x07e23600
      286082000	     14202	8000a204	032d0913	addi	x18,x26,50	 x26:0x00000101 x18=0x00000133
      286902000	     14243	8000a208	035678b3	remu	x17,x12,x21	 x12:0xffffffe6 x21:0xfe4750f0 x17=0x01b8aef6
      286922000	     14244	8000a20c	06e6	c.slli	x13,0x19	 x13:0x80022058 x13=0xb0000000
      286942000	     14245	8000a20e	30a07c73	csrrci	x24,0x30a,0	 x24=0x00000000
      286962000	     14246	8000a212	015f0733	add	x14,x30,x21	 x30:0x28001048 x21:0xfe4750f0 x14=0x26476138
      286982000	     14247	8000a216	688d	c.lui	x17,0x3	 x17=0x00003000
      287002000	     14248	8000a218	74706b73	csrrsi	x22,0x747,0	 x22=0x00000004
      287042000	     14250	8000a21c	026e1233	mulh	x4,x28,x6	 x28:0x00000000  x6:0x00000000  x4=0x00000000
      287202000	     14258	8000a220	8cd5	c.or	x9,x13	  x9:0x07e23600 x13:0xb0000000  x9=0xb7e23600
      287222000	     14259	8000a222	8e29	c.xor	x12,x10	 x12:0xffffffe6 x10:0x00000000 x12=0xffffffe6
      287422000	     14269	8000a224	057a9063	bne	x21,x23,8000a264	 x21:0xfe4750f0 x23:0x80021df8
      287702000	     14283	8000a264	8cd5	c.or	x9,x13	  x9:0xb7e23600 x13:0xb0000000  x9=0xb7e23600
      287722000	     14284	8000a266	287805b7	lui	x11,0x28780	 x11=0x28780000
      288162000	     14306	8000a26a	02d8adb3	mulhsu	x27,x17,x13	 x17:0x00003000 x13:0xb0000000 x27=0x00002100
      288302000	     14313	8000a26e	40255493	srai	x9,x10,0x2	 x10:0x00000000  x9=0x00000000
      298122000	     14804	8000a272	02ec5d33	divu	x26,x24,x14	 x24:0x00000000 x14:0x26476138 x26=0x00000000
      298142000	     14805	8000a276	00d869b3	or	x19,x16,x13	 x16:0x00000001 x13:0xb0000000 x19=0xb0000001
      298162000	     14806	8000a27a	00000a33	add	x20,x0,x0	  x0:0x00000000  x0:0x00000000 x20=0x00000000
      298182000	     14807	8000a27e	8079	c.srli	x8,0x1e	  x8:0x00000001  x8=0x00000000
      298202000	     14808	8000a280	b0abd0f3	csrrwi	x1,mhpmcounter10,23	  x1=0x000001ae
      298262000	     14811	8000a284	e229	c.bnez	x12,8000a2c6	 x12:0xffffffe6
      299002000	     14848	8000a2c6	997e	c.add	x18,x31	 x18:0x00000133 x31:0x00000000 x18=0x00000133
      299022000	     14849	8000a2c8	3c7b7213	andi	x4,x22,967	 x22:0x00000004  x4=0x00000004
      299042000	     14850	8000a2cc	ce05	c.beqz	x12,8000a304	 x12:0xffffffe6
      299062000	     14851	8000a2ce	8ec9	c.or	x13,x10	 x13:0xb0000000 x10:0x00000000 x13=0xb0000000
      299422000	     14869	8000a2d0	000c29b3	slt	x19,x24,x0	 x24:0x00000000  x0:0x00000000 x19=0x00000000
      299442000	     14870	8000a2d4	89c6	c.mv	x19,x17	  x0:0x00000000 x17:0x00003000 x19=0x00003000
      299742000	     14885	8000a2d6	b8b07973	csrrci	x18,mhpmcounter11h,0	 x18=0x00000000
      299762000	     14886	8000a2da	8685	c.srai	x13,0x1	 x13:0xb0000000 x13=0xd8000000
      299782000	     14887	8000a2dc	01a863b3	or	x7,x16,x26	 x16:0x00000001 x26:0x00000000  x7=0x00000001
      299802000	     14888	8000a2e0	02c39463	bne	x7,x12,8000a308	  x7:0x00000001 x12:0xffffffe6
      300262000	     14911	8000a308	7c17def3	csrrwi	x29,0x7c1,15	 x29=0x00000000
      300322000	     14914	8000a30c	8d05	c.sub	x10,x9	 x10:0x00000000  x9:0x00000000 x10=0x00000000
      300462000	     14921	8000a30e	005c8ab3	add	x21,x25,x5	 x25:0x8000a08c  x5:0x80025ce4 x21=0x0002fd70
      300482000	     14922	8000a312	0000100f	fence.i	
      300802000	     14938	8000a316	41dddc33	sra	x24,x27,x29	 x27:0x00002100 x29:0x00000000 x24=0x00002100
      300822000	     14939	8000a31a	003ed933	srl	x18,x29,x3	 x29:0x00000000  x3:0x00000000 x18=0x00000000
      300862000	     14941	8000a31e	02355cb3	divu	x25,x10,x3	 x10:0x00000000  x3:0x00000000 x25=0xffffffff
      300882000	     14942	8000a322	83c6	c.mv	x7,x17	  x0:0x00000000 x17:0x00003000  x7=0x00003000
      300902000	     14943	8000a324	0ff0000f	fence	iorw,iorw	
      301242000	     14960	8000a328	b87d5af3	csrrwi	x21,mhpmcounter7h,26	 x21=0x00000000
      301542000	     14975	8000a32c	0100e933	or	x18,x1,x16	  x1:0x000001ae x16:0x00000001 x18=0x000001af
      301622000	     14979	8000a330	4106dcb3	sra	x25,x13,x16	 x13:0xd8000000 x16:0x00000001 x25=0xec000000
      301762000	     14986	8000a334	ca99	c.beqz	x13,8000a34a	 x13:0xd8000000
      301882000	     14992	8000a336	0007c263	blt	x15,x0,8000a33a	 x15:0x00000000  x0:0x00000000
      301922000	     14994	8000a33a	03311c33	mulh	x24,x2,x19	  x2:0x80021de8 x19:0x00003000 x24=0xffffe800
      301942000	     14995	8000a33e	02b9e863	bltu	x19,x11,8000a36e	 x19:0x00003000 x11:0x28780000
      303142000	     15055	8000a36e	328bee13	ori	x28,x23,808	 x23:0x80021df8 x28=0x80021ff8
      303182000	     15057	8000a372	00eaaeb3	slt	x29,x21,x14	 x21:0x00000000 x14:0x26476138 x29=0x00000001
      303202000	     15058	8000a376	8f39	c.xor	x14,x14	 x14:0x26476138 x14:0x26476138 x14=0x00000000
      303222000	     15059	8000a378	9f7a	c.add	x30,x30	 x30:0x28001048 x30:0x28001048 x30=0x50002090
      303242000	     15060	8000a37a	98fd	c.andi	x9,-1	  x9:0x00000000  x9=0x00000000
      303262000	     15061	8000a37c	00c5	c.addi	x1,17	  x1:0x000001ae  x1=0x000001bf
      303282000	     15062	8000a37e	6eed	c.lui	x29,0x1b	 x29=0x0001b000
      303302000	     15063	8000a380	7b106f73	csrrsi	x0,dpc,0	  x0=0x00000000
      304142000	     15105	80002700	0800006f	jal	x0,80002780	  x0=0x00000000
      304962000	     15146	80002780	12f1	c.addi	x5,-4	  x5:0x80025ce4  x5=0x80025ce0
      305362000	     15166	80002782	0172a023	sw	x23,0(x5)	  x5:0x80025ce0 x23:0x80021df8 PA:0x80025ce0 store:0x80021df8 load:0xffffffff
      305382000	     15167	80002786	00028bb3	add	x23,x5,x0	  x5:0x80025ce0  x0:0x00000000 x23=0x80025ce0
      305402000	     15168	8000278a	f80b8b93	addi	x23,x23,-128	 x23:0x80025ce0 x23=0x80025c60
      305642000	     15180	8000278e	001ba223	sw	x1,4(x23)	 x23:0x80025c60  x1:0x000001bf PA:0x80025c64 store:0x000001bf load:0xffffffff
      305702000	     15183	80002792	002ba423	sw	x2,8(x23)	 x23:0x80025c60  x2:0x80021de8 PA:0x80025c68 store:0x80021de8 load:0xffffffff
      305882000	     15192	80002796	003ba623	sw	x3,12(x23)	 x23:0x80025c60  x3:0x00000000 PA:0x80025c6c store:0x00000000 load:0xffffffff
      306002000	     15198	8000279a	004ba823	sw	x4,16(x23)	 x23:0x80025c60  x4:0x00000004 PA:0x80025c70 store:0x00000004 load:0xffffffff
      306062000	     15201	8000279e	005baa23	sw	x5,20(x23)	 x23:0x80025c60  x5:0x80025ce0 PA:0x80025c74 store:0x80025ce0 load:0xffffffff
      306082000	     15202	800027a2	006bac23	sw	x6,24(x23)	 x23:0x80025c60  x6:0x00000000 PA:0x80025c78 store:0x00000000 load:0xffffffff
      306102000	     15203	800027a6	007bae23	sw	x7,28(x23)	 x23:0x80025c60  x7:0x00003000 PA:0x80025c7c store:0x00003000 load:0xffffffff
      306142000	     15205	800027aa	028ba023	sw	x8,32(x23)	 x23:0x80025c60  x8:0x00000000 PA:0x80025c80 store:0x00000000 load:0xffffffff
      306162000	     15206	800027ae	029ba223	sw	x9,36(x23)	 x23:0x80025c60  x9:0x00000000 PA:0x80025c84 store:0x00000000 load:0xffffffff
      306202000	     15208	800027b2	02aba423	sw	x10,40(x23)	 x23:0x80025c60 x10:0x00000000 PA:0x80025c88 store:0x00000000 load:0xffffffff
      306222000	     15209	800027b6	02bba623	sw	x11,44(x23)	 x23:0x80025c60 x11:0x28780000 PA:0x80025c8c store:0x28780000 load:0xffffffff
      306822000	     15239	800027ba	02cba823	sw	x12,48(x23)	 x23:0x80025c60 x12:0xffffffe6 PA:0x80025c90 store:0xffffffe6 load:0xffffffff
      306842000	     15240	800027be	02dbaa23	sw	x13,52(x23)	 x23:0x80025c60 x13:0xd8000000 PA:0x80025c94 store:0xd8000000 load:0xffffffff
      307462000	     15271	800027c2	02ebac23	sw	x14,56(x23)	 x23:0x80025c60 x14:0x00000000 PA:0x80025c98 store:0x00000000 load:0xffffffff
      307882000	     15292	800027c6	02fbae23	sw	x15,60(x23)	 x23:0x80025c60 x15:0x00000000 PA:0x80025c9c store:0x00000000 load:0xffffffff
      308022000	     15299	800027ca	050ba023	sw	x16,64(x23)	 x23:0x80025c60 x16:0x00000001 PA:0x80025ca0 store:0x00000001 load:0xffffffff
      308082000	     15302	800027ce	051ba223	sw	x17,68(x23)	 x23:0x80025c60 x17:0x00003000 PA:0x80025ca4 store:0x00003000 load:0xffffffff
      308102000	     15303	800027d2	052ba423	sw	x18,72(x23)	 x23:0x80025c60 x18:0x000001af PA:0x80025ca8 store:0x000001af load:0xffffffff
      308122000	     15304	800027d6	053ba623	sw	x19,76(x23)	 x23:0x80025c60 x19:0x00003000 PA:0x80025cac store:0x00003000 load:0xffffffff
      308282000	     15312	800027da	054ba823	sw	x20,80(x23)	 x23:0x80025c60 x20:0x00000000 PA:0x80025cb0 store:0x00000000 load:0xffffffff
      308342000	     15315	800027de	055baa23	sw	x21,84(x23)	 x23:0x80025c60 x21:0x00000000 PA:0x80025cb4 store:0x00000000 load:0xffffffff
      308562000	     15326	800027e2	056bac23	sw	x22,88(x23)	 x23:0x80025c60 x22:0x00000004 PA:0x80025cb8 store:0x00000004 load:0xffffffff
      308982000	     15347	800027e6	057bae23	sw	x23,92(x23)	 x23:0x80025c60 x23:0x80025c60 PA:0x80025cbc store:0x80025c60 load:0xffffffff
      309182000	     15357	800027ea	078ba023	sw	x24,96(x23)	 x23:0x80025c60 x24:0xffffe800 PA:0x80025cc0 store:0xffffe800 load:0xffffffff
      309202000	     15358	800027ee	079ba223	sw	x25,100(x23)	 x23:0x80025c60 x25:0xec000000 PA:0x80025cc4 store:0xec000000 load:0xffffffff
      309242000	     15360	800027f2	07aba423	sw	x26,104(x23)	 x23:0x80025c60 x26:0x00000000 PA:0x80025cc8 store:0x00000000 load:0xffffffff
      309262000	     15361	800027f6	07bba623	sw	x27,108(x23)	 x23:0x80025c60 x27:0x00002100 PA:0x80025ccc store:0x00002100 load:0xffffffff
      309682000	     15382	800027fa	07cba823	sw	x28,112(x23)	 x23:0x80025c60 x28:0x80021ff8 PA:0x80025cd0 store:0x80021ff8 load:0xffffffff
      309882000	     15392	800027fe	07dbaa23	sw	x29,116(x23)	 x23:0x80025c60 x29:0x0001b000 PA:0x80025cd4 store:0x0001b000 load:0xffffffff
      309942000	     15395	80002802	07ebac23	sw	x30,120(x23)	 x23:0x80025c60 x30:0x50002090 PA:0x80025cd8 store:0x50002090 load:0xffffffff
      309962000	     15396	80002806	07fbae23	sw	x31,124(x23)	 x23:0x80025c60 x31:0x00000000 PA:0x80025cdc store:0x00000000 load:0xffffffff
      309982000	     15397	8000280a	000b82b3	add	x5,x23,x0	 x23:0x80025c60  x0:0x00000000  x5=0x80025c60
      310002000	     15398	8000280e	90000c37	lui	x24,0x90000	 x24=0x90000000
      310022000	     15399	80002812	1c71	c.addi	x24,-4	 x24:0x90000000 x24=0x8ffffffc
      310282000	     15412	80002814	4f21	c.li	x30,8	 x30=0x00000008
      310302000	     15413	80002816	0f22	c.slli	x30,0x8	 x30:0x00000008 x30=0x00000800
      310322000	     15414	80002818	000f0f13	addi	x30,x30,0	 x30:0x00000800 x30=0x00000800
      310422000	     15419	8000281c	01ec2023	sw	x30,0(x24)	 x24:0x8ffffffc x30:0x00000800 PA:0x8ffffffc store:0x00000800 load:0xffffffff
      310442000	     15420	80002820	34102f73	csrrs	x30,mepc,x0	  x0:0x00000000 x30=0x8000a380
      310822000	     15439	80002824	34202f73	csrrs	x30,mcause,x0	  x0:0x00000000 x30=0x00000002
      310862000	     15441	80002828	4c0d	c.li	x24,3	 x24=0x00000003
      311022000	     15449	8000282a	018f1463	bne	x30,x24,80002832	 x30:0x00000002 x24:0x00000003
      311362000	     15466	80002832	4c21	c.li	x24,8	 x24=0x00000008
      311382000	     15467	80002834	058f0d63	beq	x30,x24,8000288e	 x30:0x00000002 x24:0x00000008
      311662000	     15481	80002838	4c25	c.li	x24,9	 x24=0x00000009
      312082000	     15502	8000283a	058f0a63	beq	x30,x24,8000288e	 x30:0x00000002 x24:0x00000009
      312102000	     15503	8000283e	4c2d	c.li	x24,11	 x24=0x0000000b
      312182000	     15507	80002840	058f0763	beq	x30,x24,8000288e	 x30:0x00000002 x24:0x0000000b
      312602000	     15528	80002844	4c05	c.li	x24,1	 x24=0x00000001
      313022000	     15549	80002846	358f0363	beq	x30,x24,80002b8c	 x30:0x00000002 x24:0x00000001
      313042000	     15550	8000284a	4c15	c.li	x24,5	 x24=0x00000005
      313062000	     15551	8000284c	638f0a63	beq	x30,x24,80002e80	 x30:0x00000002 x24:0x00000005
      313202000	     15558	80002850	4c1d	c.li	x24,7	 x24=0x00000007
      313422000	     15569	80002852	158f0ce3	beq	x30,x24,800031aa	 x30:0x00000002 x24:0x00000007
      313442000	     15570	80002856	4c31	c.li	x24,12	 x24=0x0000000c
      313462000	     15571	80002858	018f1463	bne	x30,x24,80002860	 x30:0x00000002 x24:0x0000000c
      314042000	     15600	80002860	4c35	c.li	x24,13	 x24=0x0000000d
      314462000	     15621	80002862	018f1463	bne	x30,x24,8000286a	 x30:0x00000002 x24:0x0000000d
      315542000	     15675	8000286a	4c3d	c.li	x24,15	 x24=0x0000000f
      315642000	     15680	8000286c	018f1463	bne	x30,x24,80002874	 x30:0x00000002 x24:0x0000000f
      316362000	     15716	80002874	4c09	c.li	x24,2	 x24=0x00000002
      316382000	     15717	80002876	018f1463	bne	x30,x24,8000287e	 x30:0x00000002 x24:0x00000002
      316542000	     15725	8000287a	3740906f	jal	x0,8000bbee	  x0=0x00000000
      316922000	     15744	8000bbee	90000c37	lui	x24,0x90000	 x24=0x90000000
      316942000	     15745	8000bbf2	1c71	c.addi	x24,-4	 x24:0x90000000 x24=0x8ffffffc
      317402000	     15768	8000bbf4	4f29	c.li	x30,10	 x30=0x0000000a
      317422000	     15769	8000bbf6	0f22	c.slli	x30,0x8	 x30:0x0000000a x30=0x00000a00
      317762000	     15786	8000bbf8	000f0f13	addi	x30,x30,0	 x30:0x00000a00 x30=0x00000a00
      318422000	     15819	8000bbfc	01ec2023	sw	x30,0(x24)	 x24:0x8ffffffc x30:0x00000a00 PA:0x8ffffffc store:0x00000a00 load:0xffffffff
      318442000	     15820	8000bc00	90000c37	lui	x24,0x90000	 x24=0x90000000
      318462000	     15821	8000bc04	1c71	c.addi	x24,-4	 x24:0x90000000 x24=0x8ffffffc
      318482000	     15822	8000bc06	34200f13	addi	x30,x0,834	  x0:0x00000000 x30=0x00000342
      318502000	     15823	8000bc0a	0f22	c.slli	x30,0x8	 x30:0x00000342 x30=0x00034200
      318522000	     15824	8000bc0c	0f0d	c.addi	x30,3	 x30:0x00034200 x30=0x00034203
      318742000	     15835	8000bc0e	01ec2023	sw	x30,0(x24)	 x24:0x8ffffffc x30:0x00034203 PA:0x8ffffffc store:0x00034203 load:0xffffffff
      318762000	     15836	8000bc12	34202f73	csrrs	x30,mcause,x0	  x0:0x00000000 x30=0x00000002
      319222000	     15859	8000bc16	01ec2023	sw	x30,0(x24)	 x24:0x8ffffffc x30:0x00000002 PA:0x8ffffffc store:0x00000002 load:0xffffffff
      319322000	     15864	8000bc1a	34102f73	csrrs	x30,mepc,x0	  x0:0x00000000 x30=0x8000a380
      319342000	     15865	8000bc1e	0f11	c.addi	x30,4	 x30:0x8000a380 x30=0x8000a384
      319742000	     15885	8000bc20	341f1073	csrrw	x0,mepc,x30	 x30:0x8000a384  x0=0x00000000
      319922000	     15894	8000bc24	00028bb3	add	x23,x5,x0	  x5:0x80025c60  x0:0x00000000 x23=0x80025c60
      320182000	     15907	8000bc28	004ba083	lw	x1,4(x23)	 x23:0x80025c60  x1=0x000001bf PA:0x80025c64 load:0x000001bf
      320282000	     15912	8000bc2c	008ba103	lw	x2,8(x23)	 x23:0x80025c60  x2=0x80021de8 PA:0x80025c68 load:0x80021de8
      320462000	     15921	8000bc30	00cba183	lw	x3,12(x23)	 x23:0x80025c60  x3=0x00000000 PA:0x80025c6c load:0x00000000
      320522000	     15924	8000bc34	010ba203	lw	x4,16(x23)	 x23:0x80025c60  x4=0x00000004 PA:0x80025c70 load:0x00000004
      320542000	     15925	8000bc38	014ba283	lw	x5,20(x23)	 x23:0x80025c60  x5=0x80025ce0 PA:0x80025c74 load:0x80025ce0
      320742000	     15935	8000bc3c	018ba303	lw	x6,24(x23)	 x23:0x80025c60  x6=0x00000000 PA:0x80025c78 load:0x00000000
      320962000	     15946	8000bc40	01cba383	lw	x7,28(x23)	 x23:0x80025c60  x7=0x00003000 PA:0x80025c7c load:0x00003000
      321422000	     15969	8000bc44	020ba403	lw	x8,32(x23)	 x23:0x80025c60  x8=0x00000000 PA:0x80025c80 load:0x00000000
      321882000	     15992	8000bc48	024ba483	lw	x9,36(x23)	 x23:0x80025c60  x9=0x00000000 PA:0x80025c84 load:0x00000000
      321942000	     15995	8000bc4c	028ba503	lw	x10,40(x23)	 x23:0x80025c60 x10=0x00000000 PA:0x80025c88 load:0x00000000
      322082000	     16002	8000bc50	02cba583	lw	x11,44(x23)	 x23:0x80025c60 x11=0x28780000 PA:0x80025c8c load:0x28780000
      322102000	     16003	8000bc54	030ba603	lw	x12,48(x23)	 x23:0x80025c60 x12=0xffffffe6 PA:0x80025c90 load:0xffffffe6
      322202000	     16008	8000bc58	034ba683	lw	x13,52(x23)	 x23:0x80025c60 x13=0xd8000000 PA:0x80025c94 load:0xd8000000
      322442000	     16020	8000bc5c	038ba703	lw	x14,56(x23)	 x23:0x80025c60 x14=0x00000000 PA:0x80025c98 load:0x00000000
      322622000	     16029	8000bc60	03cba783	lw	x15,60(x23)	 x23:0x80025c60 x15=0x00000000 PA:0x80025c9c load:0x00000000
      323082000	     16052	8000bc64	040ba803	lw	x16,64(x23)	 x23:0x80025c60 x16=0x00000001 PA:0x80025ca0 load:0x00000001
      323142000	     16055	8000bc68	044ba883	lw	x17,68(x23)	 x23:0x80025c60 x17=0x00003000 PA:0x80025ca4 load:0x00003000
      323562000	     16076	8000bc6c	048ba903	lw	x18,72(x23)	 x23:0x80025c60 x18=0x000001af PA:0x80025ca8 load:0x000001af
      323702000	     16083	8000bc70	04cba983	lw	x19,76(x23)	 x23:0x80025c60 x19=0x00003000 PA:0x80025cac load:0x00003000
      323842000	     16090	8000bc74	050baa03	lw	x20,80(x23)	 x23:0x80025c60 x20=0x00000000 PA:0x80025cb0 load:0x00000000
      323862000	     16091	8000bc78	054baa83	lw	x21,84(x23)	 x23:0x80025c60 x21=0x00000000 PA:0x80025cb4 load:0x00000000
      324482000	     16122	8000bc7c	058bab03	lw	x22,88(x23)	 x23:0x80025c60 x22=0x00000004 PA:0x80025cb8 load:0x00000004
      324542000	     16125	8000bc80	05cbab83	lw	x23,92(x23)	 x23:0x80025c60 x23=0x80025c60 PA:0x80025cbc load:0x80025c60
      324982000	     16147	8000bc84	060bac03	lw	x24,96(x23)	 x23:0x80025c60 x24=0xffffe800 PA:0x80025cc0 load:0xffffe800
      325042000	     16150	8000bc88	064bac83	lw	x25,100(x23)	 x23:0x80025c60 x25=0xec000000 PA:0x80025cc4 load:0xec000000
      325062000	     16151	8000bc8c	068bad03	lw	x26,104(x23)	 x23:0x80025c60 x26=0x00000000 PA:0x80025cc8 load:0x00000000
      325142000	     16155	8000bc90	06cbad83	lw	x27,108(x23)	 x23:0x80025c60 x27=0x00002100 PA:0x80025ccc load:0x00002100
      325562000	     16176	8000bc94	070bae03	lw	x28,112(x23)	 x23:0x80025c60 x28=0x80021ff8 PA:0x80025cd0 load:0x80021ff8
      326022000	     16199	8000bc98	074bae83	lw	x29,116(x23)	 x23:0x80025c60 x29=0x0001b000 PA:0x80025cd4 load:0x0001b000
      326182000	     16207	8000bc9c	078baf03	lw	x30,120(x23)	 x23:0x80025c60 x30=0x50002090 PA:0x80025cd8 load:0x50002090
      326242000	     16210	8000bca0	07cbaf83	lw	x31,124(x23)	 x23:0x80025c60 x31=0x00000000 PA:0x80025cdc load:0x00000000
      326262000	     16211	8000bca4	080b8b93	addi	x23,x23,128	 x23:0x80025c60 x23=0x80025ce0
      326282000	     16212	8000bca8	000b82b3	add	x5,x23,x0	 x23:0x80025ce0  x0:0x00000000  x5=0x80025ce0
      326542000	     16225	8000bcac	0002ab83	lw	x23,0(x5)	  x5:0x80025ce0 x23=0x80021df8 PA:0x80025ce0 load:0x80021df8
      326562000	     16226	8000bcb0	0291	c.addi	x5,4	  x5:0x80025ce0  x5=0x80025ce4
      326582000	     16227	8000bcb2	30200073	mret	
      327182000	     16257	8000a384	8fce	c.mv	x31,x19	  x0:0x00000000 x19:0x00003000 x31=0x00003000
      327602000	     16278	8000a386	01b5aeb3	slt	x29,x11,x27	 x11:0x28780000 x27:0x00002100 x29=0x00000000
      327702000	     16283	8000a38a	3eb04c93	xori	x25,x0,1003	  x0:0x00000000 x25=0x000003eb
      327762000	     16286	8000a38e	57bc7893	andi	x17,x24,1403	 x24:0xffffe800 x17=0x00000000
      327782000	     16287	8000a392	8969	c.andi	x10,26	 x10:0x00000000 x10=0x00000000
      327822000	     16289	8000a394	77877c93	andi	x25,x14,1912	 x14:0x00000000 x25=0x00000000
      327842000	     16290	8000a398	0001	c.addi	x0,0	  x0:0x00000000  x0=0x00000000
      328662000	     16331	8000a39a	0328cb33	div	x22,x17,x18	 x17:0x00000000 x18:0x000001af x22=0x00000000
      328682000	     16332	8000a39e	3b302c73	csrrs	x24,pmpaddr3,x0	  x0:0x00000000 x24=0x2cccd9fb
      328702000	     16333	8000a3a2	3b103473	csrrc	x8,pmpaddr1,x0	  x0:0x00000000  x8=0x24445173
      328722000	     16334	8000a3a6	ee0d	c.bnez	x12,8000a3e0	 x12:0xffffffe6
      329042000	     16350	8000a3e0	016c9f63	bne	x25,x22,8000a3fe	 x25:0x00000000 x22:0x00000000
      329062000	     16351	8000a3e4	01978133	add	x2,x15,x25	 x15:0x00000000 x25:0x00000000  x2=0x00000000
      329082000	     16352	8000a3e8	03dd4663	blt	x26,x29,8000a414	 x26:0x00000000 x29:0x00000000
      329102000	     16353	8000a3ec	01dac4b3	xor	x9,x21,x29	 x21:0x00000000 x29:0x00000000  x9=0x00000000
      329142000	     16355	8000a3f0	02ea7f33	remu	x30,x20,x14	 x20:0x00000000 x14:0x00000000 x30=0x00000000
      329462000	     16371	8000a3f4	b89a6373	csrrsi	x6,mhpmcounter9h,20	  x6=0x00000000
      329522000	     16374	8000a3f8	01c47333	and	x6,x8,x28	  x8:0x24445173 x28:0x80021ff8  x6=0x00001170
      329542000	     16375	8000a3fc	8ca1	c.xor	x9,x8	  x9:0x00000000  x8:0x24445173  x9=0x24445173
      329562000	     16376	8000a3fe	e8993e93	sltiu	x29,x18,-375	 x18:0x000001af x29=0x00000001
      329582000	     16377	8000a402	0021e133	or	x2,x3,x2	  x3:0x00000000  x2:0x00000000  x2=0x00000000
      329602000	     16378	8000a406	8efe	c.mv	x29,x31	  x0:0x00000000 x31:0x00003000 x29=0x00003000
      329622000	     16379	8000a408	02e1f863	bgeu	x3,x14,8000a438	  x3:0x00000000 x14:0x00000000
      329802000	     16388	8000a438	fad48f93	addi	x31,x9,-83	  x9:0x24445173 x31=0x24445120
      330002000	     16398	8000a43c	230fe697	auipc	x13,0x230fe	 x13=0xa310843c
      330022000	     16399	8000a440	a2262a13	slti	x20,x12,-1502	 x12:0xffffffe6 x20=0x00000000
      330142000	     16405	8000a444	021e5463	bge	x28,x1,8000a46c	 x28:0x80021ff8  x1:0x000001bf
      330162000	     16406	8000a448	ca89	c.beqz	x13,8000a45a	 x13:0xa310843c
      330902000	     16443	8000a44a	038cc633	div	x12,x25,x24	 x25:0x00000000 x24:0x2cccd9fb x12=0x00000000
      330922000	     16444	8000a44e	9a7d	c.andi	x12,-1	 x12:0x00000000 x12=0x00000000
      330942000	     16445	8000a450	0001	c.addi	x0,0	  x0:0x00000000  x0=0x00000000
      330962000	     16446	8000a452	717d	c.addi16sp	x2,-16	  x2:0x00000000  x2=0xfffffff0
      330982000	     16447	8000a454	0179a133	slt	x2,x19,x23	 x19:0x00003000 x23:0x80021df8  x2=0x00000000
      331002000	     16448	8000a458	e581	c.bnez	x11,8000a460	 x11:0x28780000
      332322000	     16514	8000a460	032443b3	div	x7,x8,x18	  x8:0x24445173 x18:0x000001af  x7=0x00158a95
      332342000	     16515	8000a464	4006bc93	sltiu	x25,x13,1024	 x13:0xa310843c x25=0x00000000
      332362000	     16516	8000a468	00fa	c.slli	x1,0x1e	  x1:0x000001bf  x1=0xc0000000
      332382000	     16517	8000a46a	1cfd	c.addi	x25,-1	 x25:0x00000000 x25=0xffffffff
      332402000	     16518	8000a46c	e419	c.bnez	x8,8000a47a	  x8:0x24445173
      332742000	     16535	8000a47a	9af2	c.add	x21,x28	 x21:0x00000000 x28:0x80021ff8 x21=0x80021ff8
      332942000	     16545	8000a47c	b8859df3	csrrw	x27,mhpmcounter8h,x11	 x11:0x28780000 x27=0x00000000
      333002000	     16548	8000a480	892d	c.andi	x10,11	 x10:0x00000000 x10=0x00000000
      333022000	     16549	8000a482	8eed	c.and	x13,x11	 x13:0xa310843c x11:0x28780000 x13=0x20100000
      333382000	     16567	8000a484	32c03973	csrrc	x18,mhpmevent12,x0	  x0:0x00000000 x18=0x00000200
      333402000	     16568	8000a488	0095bd33	sltu	x26,x11,x9	 x11:0x28780000  x9:0x24445173 x26=0x00000000
      333442000	     16570	8000a48c	03f781b3	mul	x3,x15,x31	 x15:0x00000000 x31:0x24445120  x3=0x00000000
      333482000	     16572	8000a490	b09df673	csrrci	x12,mhpmcounter9,27	 x12=0x00000047
      333682000	     16582	8000a494	02aa9233	mulh	x4,x21,x10	 x21:0x80021ff8 x10:0x00000000  x4=0x00000000
      333702000	     16583	8000a498	d56b8013	addi	x0,x23,-682	 x23:0x80021df8  x0=0x00000000
      333722000	     16584	8000a49c	c6a9	c.beqz	x13,8000a4e6	 x13:0x20100000
      334462000	     16621	8000a49e	02d8ffb3	remu	x31,x17,x13	 x17:0x00000000 x13:0x20100000 x31=0x00000000
      335202000	     16658	8000a4a2	027261b3	rem	x3,x4,x7	  x4:0x00000000  x7:0x00158a95  x3=0x00000000
      335222000	     16659	8000a4a6	01de1b33	sll	x22,x28,x29	 x28:0x80021ff8 x29:0x00003000 x22=0x80021ff8
      335242000	     16660	8000a4aa	048a	c.slli	x9,0x2	  x9:0x24445173  x9=0x911145cc
      335262000	     16661	8000a4ac	00757d33	and	x26,x10,x7	 x10:0x00000000  x7:0x00158a95 x26=0x00000000
      335302000	     16663	8000a4b0	02f244b3	div	x9,x4,x15	  x4:0x00000000 x15:0x00000000  x9=0xffffffff
      335322000	     16664	8000a4b4	0000100f	fence.i	
      335382000	     16667	8000a4b8	00acceb3	xor	x29,x25,x10	 x25:0xffffffff x10:0x00000000 x29=0xffffffff
      335402000	     16668	8000a4bc	393d7d93	andi	x27,x26,915	 x26:0x00000000 x27=0x00000000
      335422000	     16669	8000a4c0	00864033	xor	x0,x12,x8	 x12:0x00000047  x8:0x24445173  x0=0x00000000
      335442000	     16670	8000a4c4	832d	c.srli	x14,0xb	 x14:0x00000000 x14=0x00000000
      335462000	     16671	8000a4c6	0ff0000f	fence	iorw,iorw	
      335502000	     16673	8000a4ca	023bbcb3	mulhu	x25,x23,x3	 x23:0x80021df8  x3:0x00000000 x25=0x00000000
      335742000	     16685	8000a4ce	0230d363	bge	x1,x3,8000a4f4	  x1:0xc0000000  x3:0x00000000
      335762000	     16686	8000a4d2	d03b5db7	lui	x27,0xd03b5	 x27=0xd03b5000
      336182000	     16707	8000a4d6	00cb5863	bge	x22,x12,8000a4e6	 x22:0x80021ff8 x12:0x00000047
      336282000	     16712	8000a4da	b8915173	csrrwi	x2,mhpmcounter9h,2	  x2=0x00000000
      336462000	     16721	8000a4de	02112433	mulhsu	x8,x2,x1	  x2:0x00000000  x1:0xc0000000  x8=0x00000000
      336482000	     16722	8000a4e2	0170c4b3	xor	x9,x1,x23	  x1:0xc0000000 x23:0x80021df8  x9=0x40021df8
      336502000	     16723	8000a4e6	01fe1563	bne	x28,x31,8000a4f0	 x28:0x80021ff8 x31:0x00000000
      336762000	     16736	8000a4f0	03824863	blt	x4,x24,8000a520	  x4:0x00000000 x24:0x2cccd9fb
      337082000	     16752	8000a520	e6995937	lui	x18,0xe6995	 x18=0xe6995000
      337822000	     16789	8000a524	021563b3	rem	x7,x10,x1	 x10:0x00000000  x1:0xc0000000  x7=0x00000000
      337862000	     16791	8000a528	03196eb3	rem	x29,x18,x17	 x18:0xe6995000 x17:0x00000000 x29=0xe6995000
      337882000	     16792	8000a52c	620d	c.lui	x4,0x3	  x4=0x00003000
      337902000	     16793	8000a52e	0001	c.addi	x0,0	  x0:0x00000000  x0=0x00000000
      338642000	     16830	8000a530	038cfeb3	remu	x29,x25,x24	 x25:0x00000000 x24:0x2cccd9fb x29=0x00000000
      338662000	     16831	8000a534	ccc13193	sltiu	x3,x2,-820	  x2:0x00000000  x3=0x00000001
      338682000	     16832	8000a538	02808233	mul	x4,x1,x8	  x1:0xc0000000  x8:0x00000000  x4=0x00000000
      338702000	     16833	8000a53c	56267613	andi	x12,x12,1378	 x12:0x00000047 x12=0x00000042
      338722000	     16834	8000a540	01261493	slli	x9,x12,0x12	 x12:0x00000042  x9=0x01080000
      338802000	     16838	8000a544	6329	c.lui	x6,0xa	  x6=0x0000a000
      338822000	     16839	8000a546	0001	c.addi	x0,0	  x0:0x00000000  x0=0x00000000
      338842000	     16840	8000a548	3b006373	csrrsi	x6,pmpaddr0,0	  x6=0x20000d2f
      339962000	     16896	8000a54c	03017fb3	remu	x31,x2,x16	  x2:0x00000000 x16:0x00000001 x31=0x00000000
      340002000	     16898	8000a550	020e2ab3	mulhsu	x21,x28,x0	 x28:0x80021ff8  x0:0x00000000 x21=0x00000000
      340022000	     16899	8000a554	6c35	c.lui	x24,0xd	 x24=0x0000d000
      340042000	     16900	8000a556	1400	c.addi4spn	x8,x2,544	  x8=0x00000220
      340062000	     16901	8000a558	8009	c.srli	x8,0x2	  x8:0x00000220  x8=0x00000088
      340082000	     16902	8000a55a	e981	c.bnez	x11,8000a56a	 x11:0x28780000
      340522000	     16924	8000a56a	02560cb3	mul	x25,x12,x5	 x12:0x00000042  x5:0x80025ce4 x25=0x009bf2c8
      340722000	     16934	8000a56e	00dfc1b3	xor	x3,x31,x13	 x31:0x00000000 x13:0x20100000  x3=0x20100000
      341822000	     16989	8000a572	021afcb3	remu	x25,x21,x1	 x21:0x00000000  x1:0xc0000000 x25=0x00000000
      341842000	     16990	8000a576	fe646493	ori	x9,x8,-26	  x8:0x00000088  x9=0xffffffee
      341862000	     16991	8000a57a	8f4bf693	andi	x13,x23,-1804	 x23:0x80021df8 x13=0x800218f0
      341902000	     16993	8000a57e	02669f33	mulh	x30,x13,x6	 x13:0x800218f0  x6:0x20000d2f x30=0xf0003c86
      341922000	     16994	8000a582	34402773	csrrs	x14,mip,x0	  x0:0x00000000 x14=0x00000000
      341942000	     16995	8000a586	0d0c	c.addi4spn	x11,x2,656	 x11=0x00000290
      341982000	     16997	8000a588	03ce9033	mulh	x0,x29,x28	 x29:0x00000000 x28:0x80021ff8  x0=0x00000000
      342002000	     16998	8000a58c	99e55997	auipc	x19,0x99e55	 x19=0x19e5f58c
      342162000	     17006	8000a590	01c50563	beq	x10,x28,8000a59a	 x10:0x00000000 x28:0x80021ff8
      342182000	     17007	8000a594	038a	c.slli	x7,0x2	  x7:0x00000000  x7=0x00000000
      342202000	     17008	8000a596	32707af3	csrrci	x21,mhpmevent7,0	 x21=0x00000010
      342222000	     17009	8000a59a	8a5d	c.andi	x12,23	 x12:0x00000042 x12=0x00000002
      342622000	     17029	8000a59c	e999	c.bnez	x11,8000a5b2	 x11:0x00000290
      342922000	     17044	8000a5b2	c7e7c897	auipc	x17,0xc7e7c	 x17=0x47e865b2
      343302000	     17063	8000a5b6	01a5e533	or	x10,x11,x26	 x11:0x00000290 x26:0x00000000 x10=0x00000290
      343322000	     17064	8000a5ba	1ffd	c.addi	x31,-1	 x31:0x00000000 x31=0xffffffff
      343342000	     17065	8000a5bc	008c0533	add	x10,x24,x8	 x24:0x0000d000  x8:0x00000088 x10=0x0000d088
      343362000	     17066	8000a5c0	00e94433	xor	x8,x18,x14	 x18:0xe6995000 x14:0x00000000  x8=0xe6995000
      343382000	     17067	8000a5c4	41068833	sub	x16,x13,x16	 x13:0x800218f0 x16:0x00000001 x16=0x800218ef
      343502000	     17073	8000a5c8	136aaa93	slti	x21,x21,310	 x21:0x00000010 x21=0x00000001
      343862000	     17091	8000a5cc	91ba	c.add	x3,x14	  x3:0x20100000 x14:0x00000000  x3=0x20100000
      343882000	     17092	8000a5ce	018b80b3	add	x1,x23,x24	 x23:0x80021df8 x24:0x0000d000  x1=0x8002edf8
      343922000	     17094	8000a5d2	0d296417	auipc	x8,0xd296	  x8=0x8d2a05d2
      343942000	     17095	8000a5d6	8e6d	c.and	x12,x11	 x12:0x00000002 x11:0x00000290 x12=0x00000000
      343982000	     17097	8000a5d8	020e2833	mulhsu	x16,x28,x0	 x28:0x80021ff8  x0:0x00000000 x16=0x00000000
      344002000	     17098	8000a5dc	0d14	c.addi4spn	x13,x2,656	 x13=0x00000290
      344022000	     17099	8000a5de	e499	c.bnez	x9,8000a5ec	  x9:0xffffffee
      344722000	     17134	8000a5ec	717d	c.addi16sp	x2,-16	  x2:0x00000000  x2=0xfffffff0
      344742000	     17135	8000a5ee	8d29	c.xor	x10,x10	 x10:0x0000d088 x10:0x0000d088 x10=0x00000000
      344762000	     17136	8000a5f0	400f5c93	srai	x25,x30,0x0	 x30:0xf0003c86 x25=0xf0003c86
      344782000	     17137	8000a5f4	c8a41437	lui	x8,0xc8a41	  x8=0xc8a41000
      344802000	     17138	8000a5f8	01bd40b3	xor	x1,x26,x27	 x26:0x00000000 x27:0xd03b5000  x1=0xd03b5000
      345542000	     17175	8000a5fc	026a5fb3	divu	x31,x20,x6	 x20:0x00000000  x6:0x20000d2f x31=0x00000000
      345562000	     17176	8000a600	02108033	mul	x0,x1,x1	  x1:0xd03b5000  x1:0xd03b5000  x0=0x00000000
      345642000	     17180	8000a604	6b8a03b7	lui	x7,0x6b8a0	  x7=0x6b8a0000
      345982000	     17197	8000a608	03d3f133	remu	x2,x7,x29	  x7:0x6b8a0000 x29:0x00000000  x2=0x6b8a0000
      346322000	     17214	8000a60c	00fed813	srli	x16,x29,0xf	 x29:0x00000000 x16=0x00000000
      346342000	     17215	8000a610	f13b1673	csrrw	x0,mimpid,x0	  x0:0x00000000  x0=0x00000000
      346922000	     17244	80002700	0800006f	jal	x0,80002780	  x0=0x00000000
      347822000	     17289	80002780	12f1	c.addi	x5,-4	  x5:0x80025ce4  x5=0x80025ce0
      347982000	     17297	80002782	0172a023	sw	x23,0(x5)	  x5:0x80025ce0 x23:0x80021df8 PA:0x80025ce0 store:0x80021df8 load:0xffffffff
      348002000	     17298	80002786	00028bb3	add	x23,x5,x0	  x5:0x80025ce0  x0:0x00000000 x23=0x80025ce0
      348022000	     17299	8000278a	f80b8b93	addi	x23,x23,-128	 x23:0x80025ce0 x23=0x80025c60
      348422000	     17319	8000278e	001ba223	sw	x1,4(x23)	 x23:0x80025c60  x1:0xd03b5000 PA:0x80025c64 store:0xd03b5000 load:0xffffffff
      348542000	     17325	80002792	002ba423	sw	x2,8(x23)	 x23:0x80025c60  x2:0x6b8a0000 PA:0x80025c68 store:0x6b8a0000 load:0xffffffff
      349082000	     17352	80002796	003ba623	sw	x3,12(x23)	 x23:0x80025c60  x3:0x20100000 PA:0x80025c6c store:0x20100000 load:0xffffffff
      349442000	     17370	8000279a	004ba823	sw	x4,16(x23)	 x23:0x80025c60  x4:0x00000000 PA:0x80025c70 store:0x00000000 load:0xffffffff
      349502000	     17373	8000279e	005baa23	sw	x5,20(x23)	 x23:0x80025c60  x5:0x80025ce0 PA:0x80025c74 store:0x80025ce0 load:0xffffffff
      349922000	     17394	800027a2	006bac23	sw	x6,24(x23)	 x23:0x80025c60  x6:0x20000d2f PA:0x80025c78 store:0x20000d2f load:0xffffffff
      349982000	     17397	800027a6	007bae23	sw	x7,28(x23)	 x23:0x80025c60  x7:0x6b8a0000 PA:0x80025c7c store:0x6b8a0000 load:0xffffffff
      350002000	     17398	800027aa	028ba023	sw	x8,32(x23)	 x23:0x80025c60  x8:0xc8a41000 PA:0x80025c80 store:0xc8a41000 load:0xffffffff
      350022000	     17399	800027ae	029ba223	sw	x9,36(x23)	 x23:0x80025c60  x9:0xffffffee PA:0x80025c84 store:0xffffffee load:0xffffffff
      350042000	     17400	800027b2	02aba423	sw	x10,40(x23)	 x23:0x80025c60 x10:0x00000000 PA:0x80025c88 store:0x00000000 load:0xffffffff
      350222000	     17409	800027b6	02bba623	sw	x11,44(x23)	 x23:0x80025c60 x11:0x00000290 PA:0x80025c8c store:0x00000290 load:0xffffffff
      350402000	     17418	800027ba	02cba823	sw	x12,48(x23)	 x23:0x80025c60 x12:0x00000000 PA:0x80025c90 store:0x00000000 load:0xffffffff
      350422000	     17419	800027be	02dbaa23	sw	x13,52(x23)	 x23:0x80025c60 x13:0x00000290 PA:0x80025c94 store:0x00000290 load:0xffffffff
      350442000	     17420	800027c2	02ebac23	sw	x14,56(x23)	 x23:0x80025c60 x14:0x00000000 PA:0x80025c98 store:0x00000000 load:0xffffffff
      350942000	     17445	800027c6	02fbae23	sw	x15,60(x23)	 x23:0x80025c60 x15:0x00000000 PA:0x80025c9c store:0x00000000 load:0xffffffff
      351162000	     17456	800027ca	050ba023	sw	x16,64(x23)	 x23:0x80025c60 x16:0x00000000 PA:0x80025ca0 store:0x00000000 load:0xffffffff
      351462000	     17471	800027ce	051ba223	sw	x17,68(x23)	 x23:0x80025c60 x17:0x47e865b2 PA:0x80025ca4 store:0x47e865b2 load:0xffffffff
      351762000	     17486	800027d2	052ba423	sw	x18,72(x23)	 x23:0x80025c60 x18:0xe6995000 PA:0x80025ca8 store:0xe6995000 load:0xffffffff
      351822000	     17489	800027d6	053ba623	sw	x19,76(x23)	 x23:0x80025c60 x19:0x19e5f58c PA:0x80025cac store:0x19e5f58c load:0xffffffff
      352242000	     17510	800027da	054ba823	sw	x20,80(x23)	 x23:0x80025c60 x20:0x00000000 PA:0x80025cb0 store:0x00000000 load:0xffffffff
      352602000	     17528	800027de	055baa23	sw	x21,84(x23)	 x23:0x80025c60 x21:0x00000001 PA:0x80025cb4 store:0x00000001 load:0xffffffff
      352862000	     17541	800027e2	056bac23	sw	x22,88(x23)	 x23:0x80025c60 x22:0x80021ff8 PA:0x80025cb8 store:0x80021ff8 load:0xffffffff
      353282000	     17562	800027e6	057bae23	sw	x23,92(x23)	 x23:0x80025c60 x23:0x80025c60 PA:0x80025cbc store:0x80025c60 load:0xffffffff
      353342000	     17565	800027ea	078ba023	sw	x24,96(x23)	 x23:0x80025c60 x24:0x0000d000 PA:0x80025cc0 store:0x0000d000 load:0xffffffff
      353362000	     17566	800027ee	079ba223	sw	x25,100(x23)	 x23:0x80025c60 x25:0xf0003c86 PA:0x80025cc4 store:0xf0003c86 load:0xffffffff
      353722000	     17584	800027f2	07aba423	sw	x26,104(x23)	 x23:0x80025c60 x26:0x00000000 PA:0x80025cc8 store:0x00000000 load:0xffffffff
      353782000	     17587	800027f6	07bba623	sw	x27,108(x23)	 x23:0x80025c60 x27:0xd03b5000 PA:0x80025ccc store:0xd03b5000 load:0xffffffff
      353802000	     17588	800027fa	07cba823	sw	x28,112(x23)	 x23:0x80025c60 x28:0x80021ff8 PA:0x80025cd0 store:0x80021ff8 load:0xffffffff
      354022000	     17599	800027fe	07dbaa23	sw	x29,116(x23)	 x23:0x80025c60 x29:0x00000000 PA:0x80025cd4 store:0x00000000 load:0xffffffff
      354042000	     17600	80002802	07ebac23	sw	x30,120(x23)	 x23:0x80025c60 x30:0xf0003c86 PA:0x80025cd8 store:0xf0003c86 load:0xffffffff
      354062000	     17601	80002806	07fbae23	sw	x31,124(x23)	 x23:0x80025c60 x31:0x00000000 PA:0x80025cdc store:0x00000000 load:0xffffffff
      354082000	     17602	8000280a	000b82b3	add	x5,x23,x0	 x23:0x80025c60  x0:0x00000000  x5=0x80025c60
      354102000	     17603	8000280e	90000c37	lui	x24,0x90000	 x24=0x90000000
      354122000	     17604	80002812	1c71	c.addi	x24,-4	 x24:0x90000000 x24=0x8ffffffc
      354142000	     17605	80002814	4f21	c.li	x30,8	 x30=0x00000008
      354162000	     17606	80002816	0f22	c.slli	x30,0x8	 x30:0x00000008 x30=0x00000800
      354182000	     17607	80002818	000f0f13	addi	x30,x30,0	 x30:0x00000800 x30=0x00000800
      354822000	     17639	8000281c	01ec2023	sw	x30,0(x24)	 x24:0x8ffffffc x30:0x00000800 PA:0x8ffffffc store:0x00000800 load:0xffffffff
      354842000	     17640	80002820	34102f73	csrrs	x30,mepc,x0	  x0:0x00000000 x30=0x8000a610
      354862000	     17641	80002824	34202f73	csrrs	x30,mcause,x0	  x0:0x00000000 x30=0x00000002
      354882000	     17642	80002828	4c0d	c.li	x24,3	 x24=0x00000003
      354902000	     17643	8000282a	018f1463	bne	x30,x24,80002832	 x30:0x00000002 x24:0x00000003
      355362000	     17666	80002832	4c21	c.li	x24,8	 x24=0x00000008
      355782000	     17687	80002834	058f0d63	beq	x30,x24,8000288e	 x30:0x00000002 x24:0x00000008
      355802000	     17688	80002838	4c25	c.li	x24,9	 x24=0x00000009
      355822000	     17689	8000283a	058f0a63	beq	x30,x24,8000288e	 x30:0x00000002 x24:0x00000009
      355842000	     17690	8000283e	4c2d	c.li	x24,11	 x24=0x0000000b
      356002000	     17698	80002840	058f0763	beq	x30,x24,8000288e	 x30:0x00000002 x24:0x0000000b
      356162000	     17706	80002844	4c05	c.li	x24,1	 x24=0x00000001
      356182000	     17707	80002846	358f0363	beq	x30,x24,80002b8c	 x30:0x00000002 x24:0x00000001
      356202000	     17708	8000284a	4c15	c.li	x24,5	 x24=0x00000005
      356302000	     17713	8000284c	638f0a63	beq	x30,x24,80002e80	 x30:0x00000002 x24:0x00000005
      356722000	     17734	80002850	4c1d	c.li	x24,7	 x24=0x00000007
      356742000	     17735	80002852	158f0ce3	beq	x30,x24,800031aa	 x30:0x00000002 x24:0x00000007
      356762000	     17736	80002856	4c31	c.li	x24,12	 x24=0x0000000c
      356782000	     17737	80002858	018f1463	bne	x30,x24,80002860	 x30:0x00000002 x24:0x0000000c
      357502000	     17773	80002860	4c35	c.li	x24,13	 x24=0x0000000d
      357522000	     17774	80002862	018f1463	bne	x30,x24,8000286a	 x30:0x00000002 x24:0x0000000d
      357902000	     17793	8000286a	4c3d	c.li	x24,15	 x24=0x0000000f
      358042000	     17800	8000286c	018f1463	bne	x30,x24,80002874	 x30:0x00000002 x24:0x0000000f
      358762000	     17836	80002874	4c09	c.li	x24,2	 x24=0x00000002
      358802000	     17838	80002876	018f1463	bne	x30,x24,8000287e	 x30:0x00000002 x24:0x00000002
      358822000	     17839	8000287a	3740906f	jal	x0,8000bbee	  x0=0x00000000
      359122000	     17854	8000bbee	90000c37	lui	x24,0x90000	 x24=0x90000000
      359142000	     17855	8000bbf2	1c71	c.addi	x24,-4	 x24:0x90000000 x24=0x8ffffffc
      359162000	     17856	8000bbf4	4f29	c.li	x30,10	 x30=0x0000000a
      359182000	     17857	8000bbf6	0f22	c.slli	x30,0x8	 x30:0x0000000a x30=0x00000a00
      359562000	     17876	8000bbf8	000f0f13	addi	x30,x30,0	 x30:0x00000a00 x30=0x00000a00
      360142000	     17905	8000bbfc	01ec2023	sw	x30,0(x24)	 x24:0x8ffffffc x30:0x00000a00 PA:0x8ffffffc store:0x00000a00 load:0xffffffff
      360162000	     17906	8000bc00	90000c37	lui	x24,0x90000	 x24=0x90000000
      360262000	     17911	8000bc04	1c71	c.addi	x24,-4	 x24:0x90000000 x24=0x8ffffffc
      360282000	     17912	8000bc06	34200f13	addi	x30,x0,834	  x0:0x00000000 x30=0x00000342
      360302000	     17913	8000bc0a	0f22	c.slli	x30,0x8	 x30:0x00000342 x30=0x00034200
      360502000	     17923	8000bc0c	0f0d	c.addi	x30,3	 x30:0x00034200 x30=0x00034203
      360642000	     17930	8000bc0e	01ec2023	sw	x30,0(x24)	 x24:0x8ffffffc x30:0x00034203 PA:0x8ffffffc store:0x00034203 load:0xffffffff
      360942000	     17945	8000bc12	34202f73	csrrs	x30,mcause,x0	  x0:0x00000000 x30=0x00000002
      361022000	     17949	8000bc16	01ec2023	sw	x30,0(x24)	 x24:0x8ffffffc x30:0x00000002 PA:0x8ffffffc store:0x00000002 load:0xffffffff
      361122000	     17954	8000bc1a	34102f73	csrrs	x30,mepc,x0	  x0:0x00000000 x30=0x8000a610
      361142000	     17955	8000bc1e	0f11	c.addi	x30,4	 x30:0x8000a610 x30=0x8000a614
      361262000	     17961	8000bc20	341f1073	csrrw	x0,mepc,x30	 x30:0x8000a614  x0=0x00000000
      361282000	     17962	8000bc24	00028bb3	add	x23,x5,x0	  x5:0x80025c60  x0:0x00000000 x23=0x80025c60
      361422000	     17969	8000bc28	004ba083	lw	x1,4(x23)	 x23:0x80025c60  x1=0xd03b5000 PA:0x80025c64 load:0xd03b5000
      361522000	     17974	8000bc2c	008ba103	lw	x2,8(x23)	 x23:0x80025c60  x2=0x6b8a0000 PA:0x80025c68 load:0x6b8a0000
      361702000	     17983	8000bc30	00cba183	lw	x3,12(x23)	 x23:0x80025c60  x3=0x20100000 PA:0x80025c6c load:0x20100000
      361782000	     17987	8000bc34	010ba203	lw	x4,16(x23)	 x23:0x80025c60  x4=0x00000000 PA:0x80025c70 load:0x00000000
      376102000	     18703	8000bc38	014ba283	lw	x5,20(x23)	 x23:0x80025c60  x5=0x80025ce0 PA:0x80025c74 load:0x80025ce0
      376182000	     18707	8000bc3c	018ba303	lw	x6,24(x23)	 x23:0x80025c60  x6=0x20000d2f PA:0x80025c78 load:0x20000d2f
      376542000	     18725	8000bc40	01cba383	lw	x7,28(x23)	 x23:0x80025c60  x7=0x6b8a0000 PA:0x80025c7c load:0x6b8a0000
      376682000	     18732	8000bc44	020ba403	lw	x8,32(x23)	 x23:0x80025c60  x8=0xc8a41000 PA:0x80025c80 load:0xc8a41000
      376742000	     18735	8000bc48	024ba483	lw	x9,36(x23)	 x23:0x80025c60  x9=0xffffffee PA:0x80025c84 load:0xffffffee
      376962000	     18746	8000bc4c	028ba503	lw	x10,40(x23)	 x23:0x80025c60 x10=0x00000000 PA:0x80025c88 load:0x00000000
      376982000	     18747	8000bc50	02cba583	lw	x11,44(x23)	 x23:0x80025c60 x11=0x00000290 PA:0x80025c8c load:0x00000290
      377542000	     18775	8000bc54	030ba603	lw	x12,48(x23)	 x23:0x80025c60 x12=0x00000000 PA:0x80025c90 load:0x00000000
      377602000	     18778	8000bc58	034ba683	lw	x13,52(x23)	 x23:0x80025c60 x13=0x00000290 PA:0x80025c94 load:0x00000290
      377622000	     18779	8000bc5c	038ba703	lw	x14,56(x23)	 x23:0x80025c60 x14=0x00000000 PA:0x80025c98 load:0x00000000
      378002000	     18798	8000bc60	03cba783	lw	x15,60(x23)	 x23:0x80025c60 x15=0x00000000 PA:0x80025c9c load:0x00000000
      378262000	     18811	8000bc64	040ba803	lw	x16,64(x23)	 x23:0x80025c60 x16=0x00000000 PA:0x80025ca0 load:0x00000000
      378282000	     18812	8000bc68	044ba883	lw	x17,68(x23)	 x23:0x80025c60 x17=0x47e865b2 PA:0x80025ca4 load:0x47e865b2
      378542000	     18825	8000bc6c	048ba903	lw	x18,72(x23)	 x23:0x80025c60 x18=0xe6995000 PA:0x80025ca8 load:0xe6995000
      378702000	     18833	8000bc70	04cba983	lw	x19,76(x23)	 x23:0x80025c60 x19=0x19e5f58c PA:0x80025cac load:0x19e5f58c
      378782000	     18837	8000bc74	050baa03	lw	x20,80(x23)	 x23:0x80025c60 x20=0x00000000 PA:0x80025cb0 load:0x00000000
      378802000	     18838	8000bc78	054baa83	lw	x21,84(x23)	 x23:0x80025c60 x21=0x00000001 PA:0x80025cb4 load:0x00000001
      378842000	     18840	8000bc7c	058bab03	lw	x22,88(x23)	 x23:0x80025c60 x22=0x80021ff8 PA:0x80025cb8 load:0x80021ff8
      378962000	     18846	8000bc80	05cbab83	lw	x23,92(x23)	 x23:0x80025c60 x23=0x80025c60 PA:0x80025cbc load:0x80025c60
      379042000	     18850	8000bc84	060bac03	lw	x24,96(x23)	 x23:0x80025c60 x24=0x0000d000 PA:0x80025cc0 load:0x0000d000
      379322000	     18864	8000bc88	064bac83	lw	x25,100(x23)	 x23:0x80025c60 x25=0xf0003c86 PA:0x80025cc4 load:0xf0003c86
      379382000	     18867	8000bc8c	068bad03	lw	x26,104(x23)	 x23:0x80025c60 x26=0x00000000 PA:0x80025cc8 load:0x00000000
      379462000	     18871	8000bc90	06cbad83	lw	x27,108(x23)	 x23:0x80025c60 x27=0xd03b5000 PA:0x80025ccc load:0xd03b5000
      380042000	     18900	8000bc94	070bae03	lw	x28,112(x23)	 x23:0x80025c60 x28=0x80021ff8 PA:0x80025cd0 load:0x80021ff8
      380102000	     18903	8000bc98	074bae83	lw	x29,116(x23)	 x23:0x80025c60 x29=0x00000000 PA:0x80025cd4 load:0x00000000
      380242000	     18910	8000bc9c	078baf03	lw	x30,120(x23)	 x23:0x80025c60 x30=0xf0003c86 PA:0x80025cd8 load:0xf0003c86
      380502000	     18923	8000bca0	07cbaf83	lw	x31,124(x23)	 x23:0x80025c60 x31=0x00000000 PA:0x80025cdc load:0x00000000
      380522000	     18924	8000bca4	080b8b93	addi	x23,x23,128	 x23:0x80025c60 x23=0x80025ce0
      380542000	     18925	8000bca8	000b82b3	add	x5,x23,x0	 x23:0x80025ce0  x0:0x00000000  x5=0x80025ce0
      380602000	     18928	8000bcac	0002ab83	lw	x23,0(x5)	  x5:0x80025ce0 x23=0x80021df8 PA:0x80025ce0 load:0x80021df8
      380622000	     18929	8000bcb0	0291	c.addi	x5,4	  x5:0x80025ce0  x5=0x80025ce4
      380662000	     18931	8000bcb2	30200073	mret	
      381262000	     18961	8000a614	0001	c.addi	x0,0	  x0:0x00000000  x0=0x00000000
      381362000	     18966	8000a616	b8aeef73	csrrsi	x30,mhpmcounter10h,29	 x30=0x00000000
      381422000	     18969	8000a61a	8e85	c.sub	x13,x9	 x13:0x00000290  x9:0xffffffee x13=0x000002a2
      381762000	     18986	8000a61c	8219	c.srli	x12,0x6	 x12:0x00000000 x12=0x00000000
      381782000	     18987	8000a61e	717d	c.addi16sp	x2,-16	  x2:0x6b8a0000  x2=0x6b89fff0
      381942000	     18995	8000a620	7b306273	csrrsi	x0,0x7b3,0	  x0=0x00000000
      382602000	     19028	80002700	0800006f	jal	x0,80002780	  x0=0x00000000
      383362000	     19066	80002780	12f1	c.addi	x5,-4	  x5:0x80025ce4  x5=0x80025ce0
      383522000	     19074	80002782	0172a023	sw	x23,0(x5)	  x5:0x80025ce0 x23:0x80021df8 PA:0x80025ce0 store:0x80021df8 load:0xffffffff
      383542000	     19075	80002786	00028bb3	add	x23,x5,x0	  x5:0x80025ce0  x0:0x00000000 x23=0x80025ce0
      383562000	     19076	8000278a	f80b8b93	addi	x23,x23,-128	 x23:0x80025ce0 x23=0x80025c60
      383662000	     19081	8000278e	001ba223	sw	x1,4(x23)	 x23:0x80025c60  x1:0xd03b5000 PA:0x80025c64 store:0xd03b5000 load:0xffffffff
      384042000	     19100	80002792	002ba423	sw	x2,8(x23)	 x23:0x80025c60  x2:0x6b89fff0 PA:0x80025c68 store:0x6b89fff0 load:0xffffffff
      384202000	     19108	80002796	003ba623	sw	x3,12(x23)	 x23:0x80025c60  x3:0x20100000 PA:0x80025c6c store:0x20100000 load:0xffffffff
      384382000	     19117	8000279a	004ba823	sw	x4,16(x23)	 x23:0x80025c60  x4:0x00000000 PA:0x80025c70 store:0x00000000 load:0xffffffff
      384642000	     19130	8000279e	005baa23	sw	x5,20(x23)	 x23:0x80025c60  x5:0x80025ce0 PA:0x80025c74 store:0x80025ce0 load:0xffffffff
      384722000	     19134	800027a2	006bac23	sw	x6,24(x23)	 x23:0x80025c60  x6:0x20000d2f PA:0x80025c78 store:0x20000d2f load:0xffffffff
      384782000	     19137	800027a6	007bae23	sw	x7,28(x23)	 x23:0x80025c60  x7:0x6b8a0000 PA:0x80025c7c store:0x6b8a0000 load:0xffffffff
      384802000	     19138	800027aa	028ba023	sw	x8,32(x23)	 x23:0x80025c60  x8:0xc8a41000 PA:0x80025c80 store:0xc8a41000 load:0xffffffff
      384822000	     19139	800027ae	029ba223	sw	x9,36(x23)	 x23:0x80025c60  x9:0xffffffee PA:0x80025c84 store:0xffffffee load:0xffffffff
      385122000	     19154	800027b2	02aba423	sw	x10,40(x23)	 x23:0x80025c60 x10:0x00000000 PA:0x80025c88 store:0x00000000 load:0xffffffff
      385562000	     19176	800027b6	02bba623	sw	x11,44(x23)	 x23:0x80025c60 x11:0x00000290 PA:0x80025c8c store:0x00000290 load:0xffffffff
      385842000	     19190	800027ba	02cba823	sw	x12,48(x23)	 x23:0x80025c60 x12:0x00000000 PA:0x80025c90 store:0x00000000 load:0xffffffff
      385902000	     19193	800027be	02dbaa23	sw	x13,52(x23)	 x23:0x80025c60 x13:0x000002a2 PA:0x80025c94 store:0x000002a2 load:0xffffffff
      385922000	     19194	800027c2	02ebac23	sw	x14,56(x23)	 x23:0x80025c60 x14:0x00000000 PA:0x80025c98 store:0x00000000 load:0xffffffff
      385942000	     19195	800027c6	02fbae23	sw	x15,60(x23)	 x23:0x80025c60 x15:0x00000000 PA:0x80025c9c store:0x00000000 load:0xffffffff
      385962000	     19196	800027ca	050ba023	sw	x16,64(x23)	 x23:0x80025c60 x16:0x00000000 PA:0x80025ca0 store:0x00000000 load:0xffffffff
      385982000	     19197	800027ce	051ba223	sw	x17,68(x23)	 x23:0x80025c60 x17:0x47e865b2 PA:0x80025ca4 store:0x47e865b2 load:0xffffffff
      386002000	     19198	800027d2	052ba423	sw	x18,72(x23)	 x23:0x80025c60 x18:0xe6995000 PA:0x80025ca8 store:0xe6995000 load:0xffffffff
      386422000	     19219	800027d6	053ba623	sw	x19,76(x23)	 x23:0x80025c60 x19:0x19e5f58c PA:0x80025cac store:0x19e5f58c load:0xffffffff
      386482000	     19222	800027da	054ba823	sw	x20,80(x23)	 x23:0x80025c60 x20:0x00000000 PA:0x80025cb0 store:0x00000000 load:0xffffffff
      386762000	     19236	800027de	055baa23	sw	x21,84(x23)	 x23:0x80025c60 x21:0x00000001 PA:0x80025cb4 store:0x00000001 load:0xffffffff
      386982000	     19247	800027e2	056bac23	sw	x22,88(x23)	 x23:0x80025c60 x22:0x80021ff8 PA:0x80025cb8 store:0x80021ff8 load:0xffffffff
      387222000	     19259	800027e6	057bae23	sw	x23,92(x23)	 x23:0x80025c60 x23:0x80025c60 PA:0x80025cbc store:0x80025c60 load:0xffffffff
      387602000	     19278	800027ea	078ba023	sw	x24,96(x23)	 x23:0x80025c60 x24:0x0000d000 PA:0x80025cc0 store:0x0000d000 load:0xffffffff
      387762000	     19286	800027ee	079ba223	sw	x25,100(x23)	 x23:0x80025c60 x25:0xf0003c86 PA:0x80025cc4 store:0xf0003c86 load:0xffffffff
      388082000	     19302	800027f2	07aba423	sw	x26,104(x23)	 x23:0x80025c60 x26:0x00000000 PA:0x80025cc8 store:0x00000000 load:0xffffffff
      388142000	     19305	800027f6	07bba623	sw	x27,108(x23)	 x23:0x80025c60 x27:0xd03b5000 PA:0x80025ccc store:0xd03b5000 load:0xffffffff
      388542000	     19325	800027fa	07cba823	sw	x28,112(x23)	 x23:0x80025c60 x28:0x80021ff8 PA:0x80025cd0 store:0x80021ff8 load:0xffffffff
      388882000	     19342	800027fe	07dbaa23	sw	x29,116(x23)	 x23:0x80025c60 x29:0x00000000 PA:0x80025cd4 store:0x00000000 load:0xffffffff
      388942000	     19345	80002802	07ebac23	sw	x30,120(x23)	 x23:0x80025c60 x30:0x00000000 PA:0x80025cd8 store:0x00000000 load:0xffffffff
      389202000	     19358	80002806	07fbae23	sw	x31,124(x23)	 x23:0x80025c60 x31:0x00000000 PA:0x80025cdc store:0x00000000 load:0xffffffff
      389222000	     19359	8000280a	000b82b3	add	x5,x23,x0	 x23:0x80025c60  x0:0x00000000  x5=0x80025c60
      389242000	     19360	8000280e	90000c37	lui	x24,0x90000	 x24=0x90000000
      389262000	     19361	80002812	1c71	c.addi	x24,-4	 x24:0x90000000 x24=0x8ffffffc
      389282000	     19362	80002814	4f21	c.li	x30,8	 x30=0x00000008
      389302000	     19363	80002816	0f22	c.slli	x30,0x8	 x30:0x00000008 x30=0x00000800
      389322000	     19364	80002818	000f0f13	addi	x30,x30,0	 x30:0x00000800 x30=0x00000800
      389482000	     19372	8000281c	01ec2023	sw	x30,0(x24)	 x24:0x8ffffffc x30:0x00000800 PA:0x8ffffffc store:0x00000800 load:0xffffffff
      389682000	     19382	80002820	34102f73	csrrs	x30,mepc,x0	  x0:0x00000000 x30=0x8000a620
      390102000	     19403	80002824	34202f73	csrrs	x30,mcause,x0	  x0:0x00000000 x30=0x00000002
      390122000	     19404	80002828	4c0d	c.li	x24,3	 x24=0x00000003
      390142000	     19405	8000282a	018f1463	bne	x30,x24,80002832	 x30:0x00000002 x24:0x00000003
      390842000	     19440	80002832	4c21	c.li	x24,8	 x24=0x00000008
      390982000	     19447	80002834	058f0d63	beq	x30,x24,8000288e	 x30:0x00000002 x24:0x00000008
      391002000	     19448	80002838	4c25	c.li	x24,9	 x24=0x00000009
      391202000	     19458	8000283a	058f0a63	beq	x30,x24,8000288e	 x30:0x00000002 x24:0x00000009
      391222000	     19459	8000283e	4c2d	c.li	x24,11	 x24=0x0000000b
      391622000	     19479	80002840	058f0763	beq	x30,x24,8000288e	 x30:0x00000002 x24:0x0000000b
      391642000	     19480	80002844	4c05	c.li	x24,1	 x24=0x00000001
      391842000	     19490	80002846	358f0363	beq	x30,x24,80002b8c	 x30:0x00000002 x24:0x00000001
      391862000	     19491	8000284a	4c15	c.li	x24,5	 x24=0x00000005
      391882000	     19492	8000284c	638f0a63	beq	x30,x24,80002e80	 x30:0x00000002 x24:0x00000005
      391902000	     19493	80002850	4c1d	c.li	x24,7	 x24=0x00000007
      392302000	     19513	80002852	158f0ce3	beq	x30,x24,800031aa	 x30:0x00000002 x24:0x00000007
      392322000	     19514	80002856	4c31	c.li	x24,12	 x24=0x0000000c
      392542000	     19525	80002858	018f1463	bne	x30,x24,80002860	 x30:0x00000002 x24:0x0000000c
      393202000	     19558	80002860	4c35	c.li	x24,13	 x24=0x0000000d
      393262000	     19561	80002862	018f1463	bne	x30,x24,8000286a	 x30:0x00000002 x24:0x0000000d
      394282000	     19612	8000286a	4c3d	c.li	x24,15	 x24=0x0000000f
      394582000	     19627	8000286c	018f1463	bne	x30,x24,80002874	 x30:0x00000002 x24:0x0000000f
      394882000	     19642	80002874	4c09	c.li	x24,2	 x24=0x00000002
      394902000	     19643	80002876	018f1463	bne	x30,x24,8000287e	 x30:0x00000002 x24:0x00000002
      394922000	     19644	8000287a	3740906f	jal	x0,8000bbee	  x0=0x00000000
      395342000	     19665	8000bbee	90000c37	lui	x24,0x90000	 x24=0x90000000
      395362000	     19666	8000bbf2	1c71	c.addi	x24,-4	 x24:0x90000000 x24=0x8ffffffc
      395382000	     19667	8000bbf4	4f29	c.li	x30,10	 x30=0x0000000a
      395402000	     19668	8000bbf6	0f22	c.slli	x30,0x8	 x30:0x0000000a x30=0x00000a00
      395422000	     19669	8000bbf8	000f0f13	addi	x30,x30,0	 x30:0x00000a00 x30=0x00000a00
      395482000	     19672	8000bbfc	01ec2023	sw	x30,0(x24)	 x24:0x8ffffffc x30:0x00000a00 PA:0x8ffffffc store:0x00000a00 load:0xffffffff
      395502000	     19673	8000bc00	90000c37	lui	x24,0x90000	 x24=0x90000000
      395562000	     19676	8000bc04	1c71	c.addi	x24,-4	 x24:0x90000000 x24=0x8ffffffc
      395682000	     19682	8000bc06	34200f13	addi	x30,x0,834	  x0:0x00000000 x30=0x00000342
      395702000	     19683	8000bc0a	0f22	c.slli	x30,0x8	 x30:0x00000342 x30=0x00034200
      395882000	     19692	8000bc0c	0f0d	c.addi	x30,3	 x30:0x00034200 x30=0x00034203
      396342000	     19715	8000bc0e	01ec2023	sw	x30,0(x24)	 x24:0x8ffffffc x30:0x00034203 PA:0x8ffffffc store:0x00034203 load:0xffffffff
      396362000	     19716	8000bc12	34202f73	csrrs	x30,mcause,x0	  x0:0x00000000 x30=0x00000002
      396682000	     19732	8000bc16	01ec2023	sw	x30,0(x24)	 x24:0x8ffffffc x30:0x00000002 PA:0x8ffffffc store:0x00000002 load:0xffffffff
      396702000	     19733	8000bc1a	34102f73	csrrs	x30,mepc,x0	  x0:0x00000000 x30=0x8000a620
      396722000	     19734	8000bc1e	0f11	c.addi	x30,4	 x30:0x8000a620 x30=0x8000a624
      396742000	     19735	8000bc20	341f1073	csrrw	x0,mepc,x30	 x30:0x8000a624  x0=0x00000000
      396762000	     19736	8000bc24	00028bb3	add	x23,x5,x0	  x5:0x80025c60  x0:0x00000000 x23=0x80025c60
      397202000	     19758	8000bc28	004ba083	lw	x1,4(x23)	 x23:0x80025c60  x1=0xd03b5000 PA:0x80025c64 load:0xd03b5000
      397262000	     19761	8000bc2c	008ba103	lw	x2,8(x23)	 x23:0x80025c60  x2=0x6b89fff0 PA:0x80025c68 load:0x6b89fff0
      397282000	     19762	8000bc30	00cba183	lw	x3,12(x23)	 x23:0x80025c60  x3=0x20100000 PA:0x80025c6c load:0x20100000
      397462000	     19771	8000bc34	010ba203	lw	x4,16(x23)	 x23:0x80025c60  x4=0x00000000 PA:0x80025c70 load:0x00000000
      397702000	     19783	8000bc38	014ba283	lw	x5,20(x23)	 x23:0x80025c60  x5=0x80025ce0 PA:0x80025c74 load:0x80025ce0
      398162000	     19806	8000bc3c	018ba303	lw	x6,24(x23)	 x23:0x80025c60  x6=0x20000d2f PA:0x80025c78 load:0x20000d2f
      398242000	     19810	8000bc40	01cba383	lw	x7,28(x23)	 x23:0x80025c60  x7=0x6b8a0000 PA:0x80025c7c load:0x6b8a0000
      398442000	     19820	8000bc44	020ba403	lw	x8,32(x23)	 x23:0x80025c60  x8=0xc8a41000 PA:0x80025c80 load:0xc8a41000
      398542000	     19825	8000bc48	024ba483	lw	x9,36(x23)	 x23:0x80025c60  x9=0xffffffee PA:0x80025c84 load:0xffffffee
      399002000	     19848	8000bc4c	028ba503	lw	x10,40(x23)	 x23:0x80025c60 x10=0x00000000 PA:0x80025c88 load:0x00000000
      399142000	     19855	8000bc50	02cba583	lw	x11,44(x23)	 x23:0x80025c60 x11=0x00000290 PA:0x80025c8c load:0x00000290
      399302000	     19863	8000bc54	030ba603	lw	x12,48(x23)	 x23:0x80025c60 x12=0x00000000 PA:0x80025c90 load:0x00000000
      399382000	     19867	8000bc58	034ba683	lw	x13,52(x23)	 x23:0x80025c60 x13=0x000002a2 PA:0x80025c94 load:0x000002a2
      399662000	     19881	8000bc5c	038ba703	lw	x14,56(x23)	 x23:0x80025c60 x14=0x00000000 PA:0x80025c98 load:0x00000000
      399722000	     19884	8000bc60	03cba783	lw	x15,60(x23)	 x23:0x80025c60 x15=0x00000000 PA:0x80025c9c load:0x00000000
      399822000	     19889	8000bc64	040ba803	lw	x16,64(x23)	 x23:0x80025c60 x16=0x00000000 PA:0x80025ca0 load:0x00000000
      400082000	     19902	8000bc68	044ba883	lw	x17,68(x23)	 x23:0x80025c60 x17=0x47e865b2 PA:0x80025ca4 load:0x47e865b2
      400382000	     19917	8000bc6c	048ba903	lw	x18,72(x23)	 x23:0x80025c60 x18=0xe6995000 PA:0x80025ca8 load:0xe6995000
      400562000	     19926	8000bc70	04cba983	lw	x19,76(x23)	 x23:0x80025c60 x19=0x19e5f58c PA:0x80025cac load:0x19e5f58c
      400742000	     19935	8000bc74	050baa03	lw	x20,80(x23)	 x23:0x80025c60 x20=0x00000000 PA:0x80025cb0 load:0x00000000
      401302000	     19963	8000bc78	054baa83	lw	x21,84(x23)	 x23:0x80025c60 x21=0x00000001 PA:0x80025cb4 load:0x00000001
      401562000	     19976	8000bc7c	058bab03	lw	x22,88(x23)	 x23:0x80025c60 x22=0x80021ff8 PA:0x80025cb8 load:0x80021ff8
      411002000	     20448	8000bc80	05cbab83	lw	x23,92(x23)	 x23:0x80025c60 x23=0x80025c60 PA:0x80025cbc load:0x80025c60
      411082000	     20452	8000bc84	060bac03	lw	x24,96(x23)	 x23:0x80025c60 x24=0x0000d000 PA:0x80025cc0 load:0x0000d000
      411182000	     20457	8000bc88	064bac83	lw	x25,100(x23)	 x23:0x80025c60 x25=0xf0003c86 PA:0x80025cc4 load:0xf0003c86
      411342000	     20465	8000bc8c	068bad03	lw	x26,104(x23)	 x23:0x80025c60 x26=0x00000000 PA:0x80025cc8 load:0x00000000
      411402000	     20468	8000bc90	06cbad83	lw	x27,108(x23)	 x23:0x80025c60 x27=0xd03b5000 PA:0x80025ccc load:0xd03b5000
      411422000	     20469	8000bc94	070bae03	lw	x28,112(x23)	 x23:0x80025c60 x28=0x80021ff8 PA:0x80025cd0 load:0x80021ff8
      411442000	     20470	8000bc98	074bae83	lw	x29,116(x23)	 x23:0x80025c60 x29=0x00000000 PA:0x80025cd4 load:0x00000000
      411462000	     20471	8000bc9c	078baf03	lw	x30,120(x23)	 x23:0x80025c60 x30=0x00000000 PA:0x80025cd8 load:0x00000000
      411882000	     20492	8000bca0	07cbaf83	lw	x31,124(x23)	 x23:0x80025c60 x31=0x00000000 PA:0x80025cdc load:0x00000000
      411902000	     20493	8000bca4	080b8b93	addi	x23,x23,128	 x23:0x80025c60 x23=0x80025ce0
      411922000	     20494	8000bca8	000b82b3	add	x5,x23,x0	 x23:0x80025ce0  x0:0x00000000  x5=0x80025ce0
      411982000	     20497	8000bcac	0002ab83	lw	x23,0(x5)	  x5:0x80025ce0 x23=0x80021df8 PA:0x80025ce0 load:0x80021df8
      412002000	     20498	8000bcb0	0291	c.addi	x5,4	  x5:0x80025ce0  x5=0x80025ce4
      412322000	     20514	8000bcb2	30200073	mret	
      412882000	     20542	8000a624	010b3b33	sltu	x22,x22,x16	 x22:0x80021ff8 x16:0x00000000 x22=0x00000000
      412902000	     20543	8000a628	1a46f893	andi	x17,x13,420	 x13:0x000002a2 x17=0x000000a0
      413002000	     20548	8000a62c	011933b3	sltu	x7,x18,x17	 x18:0xe6995000 x17:0x000000a0  x7=0x00000000
      413042000	     20550	8000a630	0276d3b3	divu	x7,x13,x7	 x13:0x000002a2  x7:0x00000000  x7=0xffffffff
      413362000	     20566	8000a634	0d56	c.slli	x26,0x15	 x26:0x00000000 x26=0x00000000
      413382000	     20567	8000a636	0001	c.addi	x0,0	  x0:0x00000000  x0=0x00000000
      413402000	     20568	8000a638	02448c63	beq	x9,x4,8000a670	  x9:0xffffffee  x4:0x00000000
      413602000	     20578	8000a63c	0214a1b3	mulhsu	x3,x9,x1	  x9:0xffffffee  x1:0xd03b5000  x3=0xfffffff1
      413622000	     20579	8000a640	e289	c.bnez	x13,8000a642	 x13:0x000002a2
      413822000	     20589	8000a642	305039f3	csrrc	x19,mtvec,x0	  x0:0x00000000 x19=0x80002701
      414562000	     20626	8000a646	02867cb3	remu	x25,x12,x8	 x12:0x00000000  x8:0xc8a41000 x25=0x00000000
      414582000	     20627	8000a64a	0244dc63	bge	x9,x4,8000a682	  x9:0xffffffee  x4:0x00000000
      414602000	     20628	8000a64e	f90b4693	xori	x13,x22,-112	 x22:0x00000000 x13=0xffffff90
      414622000	     20629	8000a652	01df0433	add	x8,x30,x29	 x30:0x00000000 x29:0x00000000  x8=0x00000000
      414642000	     20630	8000a656	14fd	c.addi	x9,-1	  x9:0xffffffee  x9=0xffffffed
      414702000	     20633	8000a658	031e0733	mul	x14,x28,x17	 x28:0x80021ff8 x17:0x000000a0 x14=0x0153fb00
      414862000	     20641	8000a65c	ca8d	c.beqz	x13,8000a68e	 x13:0xffffff90
      414882000	     20642	8000a65e	05316063	bltu	x2,x19,8000a69e	  x2:0x6b89fff0 x19:0x80002701
      415382000	     20667	8000a69e	02b38b33	mul	x22,x7,x11	  x7:0xffffffff x11:0x00000290 x22=0xfffffd70
      415402000	     20668	8000a6a2	3b706e73	csrrsi	x28,pmpaddr7,0	 x28=0x3dddeb0c
      415422000	     20669	8000a6a6	34336d73	csrrsi	x26,mtval,6	 x26=0x7b306273
      415482000	     20672	8000a6aa	8d5d	c.or	x10,x15	 x10:0x00000000 x15:0x00000000 x10=0x00000000
      415602000	     20678	8000a6ac	3dc5c693	xori	x13,x11,988	 x11:0x00000290 x13=0x0000014c
      415622000	     20679	8000a6b0	8191	c.srli	x11,0x4	 x11:0x00000290 x11=0x00000029
      415642000	     20680	8000a6b2	717d	c.addi16sp	x2,-16	  x2:0x6b89fff0  x2=0x6b89ffe0
      415662000	     20681	8000a6b4	b09da9f3	csrrs	x19,mhpmcounter9,x27	 x27:0xd03b5000 x19=0x00000053
      415722000	     20684	8000a6b8	0001	c.addi	x0,0	  x0:0x00000000  x0=0x00000000
      416022000	     20699	8000a6ba	00421533	sll	x10,x4,x4	  x4:0x00000000  x4:0x00000000 x10=0x00000000
      416042000	     20700	8000a6be	01378e63	beq	x15,x19,8000a6da	 x15:0x00000000 x19:0x00000053
      416462000	     20721	8000a6c2	b8003573	csrrc	x10,mcycleh,x0	  x0:0x00000000 x10=0x00000000
      416482000	     20722	8000a6c6	406cd593	srai	x11,x25,0x6	 x25:0x00000000 x11=0x00000000
      416502000	     20723	8000a6ca	6f51	c.lui	x30,0x14	 x30=0x00014000
      416662000	     20731	8000a6cc	01d220b3	slt	x1,x4,x29	  x4:0x00000000 x29:0x00000000  x1=0x00000000
      417082000	     20752	8000a6d0	c5aaf593	andi	x11,x21,-934	 x21:0x00000001 x11=0x00000000
      417122000	     20754	8000a6d4	03c63b33	mulhu	x22,x12,x28	 x12:0x00000000 x28:0x3dddeb0c x22=0x00000000
      417282000	     20762	8000a6d8	4d79	c.li	x26,30	 x26=0x0000001e
      417302000	     20763	8000a6da	0264e863	bltu	x9,x6,8000a70a	  x9:0xffffffed  x6:0x20000d2f
      417322000	     20764	8000a6de	ca85	c.beqz	x13,8000a70e	 x13:0x0000014c
      417362000	     20766	8000a6e0	031396b3	mulh	x13,x7,x17	  x7:0xffffffff x17:0x000000a0 x13=0xffffffff
      417582000	     20777	8000a6e4	3a303ff3	csrrc	x31,pmpcfg3,x0	  x0:0x00000000 x31=0x0f0f0f0f
      417742000	     20785	8000a6e8	8085	c.srli	x9,0x1	  x9:0xffffffed  x9=0x7ffffff6
      417842000	     20790	8000a6ea	4012dd93	srai	x27,x5,0x1	  x5:0x80025ce4 x27=0xc0012e72
      418142000	     20805	8000a6ee	b0b031f3	csrrc	x3,mhpmcounter11,x0	  x0:0x00000000  x3=0x00000018
      418562000	     20826	8000a6f2	0ff0000f	fence	iorw,iorw	
      418582000	     20827	8000a6f6	017e8033	add	x0,x29,x23	 x29:0x00000000 x23:0x80021df8  x0=0x00000000
      418742000	     20835	8000a6fa	0099acb3	slt	x25,x19,x9	 x19:0x00000053  x9:0x7ffffff6 x25=0x00000001
      418762000	     20836	8000a6fe	8d0d	c.sub	x10,x11	 x10:0x00000000 x11:0x00000000 x10=0x00000000
      418782000	     20837	8000a700	8ef5	c.and	x13,x13	 x13:0xffffffff x13:0xffffffff x13=0xffffffff
      418882000	     20842	8000a702	014fea63	bltu	x31,x20,8000a716	 x31:0x0f0f0f0f x20:0x00000000
      419042000	     20850	8000a706	326023f3	csrrs	x7,mhpmevent6,x0	  x0:0x00000000  x7=0x00000008
      419062000	     20851	8000a70a	418ede13	srai	x28,x29,0x18	 x29:0x00000000 x28=0x00000000
      419482000	     20872	8000a70e	25e44393	xori	x7,x8,606	  x8:0x00000000  x7=0x0000025e
      419522000	     20874	8000a712	01c081b3	add	x3,x1,x28	  x1:0x00000000 x28:0x00000000  x3=0x00000000
      419802000	     20888	8000a716	03ab2633	mulhsu	x12,x22,x26	 x22:0x00000000 x26:0x0000001e x12=0x00000000
      419822000	     20889	8000a71a	02ac8fb3	mul	x31,x25,x10	 x25:0x00000001 x10:0x00000000 x31=0x00000000
      419862000	     20891	8000a71e	0352a533	mulhsu	x10,x5,x21	  x5:0x80025ce4 x21:0x00000001 x10=0xffffffff
      420602000	     20928	8000a722	03246433	rem	x8,x8,x18	  x8:0x00000000 x18:0xe6995000  x8=0x00000000
      420622000	     20929	8000a726	01496663	bltu	x18,x20,8000a732	 x18:0xe6995000 x20:0x00000000
      420642000	     20930	8000a72a	3bb065f3	csrrsi	x11,pmpaddr11,0	 x11=0x0eeefc1d
      420662000	     20931	8000a72e	6f482193	slti	x3,x16,1780	 x16:0x00000000  x3=0x00000001
      420682000	     20932	8000a732	4a9d0eb7	lui	x29,0x4a9d0	 x29=0x4a9d0000
      420842000	     20940	8000a736	00083f33	sltu	x30,x16,x0	 x16:0x00000000  x0:0x00000000 x30=0x00000000
      420862000	     20941	8000a73a	81b2	c.mv	x3,x12	  x0:0x00000000 x12:0x00000000  x3=0x00000000
      420982000	     20947	8000a73c	0104efb3	or	x31,x9,x16	  x9:0x7ffffff6 x16:0x00000000 x31=0x7ffffff6
      421402000	     20968	8000a740	418c08b3	sub	x17,x24,x24	 x24:0x0000d000 x24:0x0000d000 x17=0x00000000
      421442000	     20970	8000a744	027e9f33	mulh	x30,x29,x7	 x29:0x4a9d0000  x7:0x0000025e x30=0x000000b0
      421462000	     20971	8000a748	b8013e73	csrrc	x28,mcycleh,x2	  x2:0x6b89ffe0 x28=0x00000000
      421622000	     20979	8000a74c	8c39	c.xor	x8,x14	  x8:0x00000000 x14:0x0153fb00  x8=0x0153fb00
      421642000	     20980	8000a74e	01456e63	bltu	x10,x20,8000a76a	 x10:0xffffffff x20:0x00000000
      421822000	     20989	8000a752	036cff63	bgeu	x25,x22,8000a790	 x25:0x00000001 x22:0x00000000
      422282000	     21012	8000a790	8e4d	c.or	x12,x11	 x12:0x00000000 x11:0x0eeefc1d x12=0x0eeefc1d
      423422000	     21069	8000a792	02a8dd33	divu	x26,x17,x10	 x17:0x00000000 x10:0xffffffff x26=0x00000000
      423442000	     21070	8000a796	03aa0833	mul	x16,x20,x26	 x20:0x00000000 x26:0x00000000 x16=0x00000000
      423462000	     21071	8000a79a	1008	c.addi4spn	x10,x2,32	 x10=0x6b8a0000
      423482000	     21072	8000a79c	747028f3	csrrs	x17,0x747,x0	  x0:0x00000000 x17=0x00000004
      423502000	     21073	8000a7a0	016edcb3	srl	x25,x29,x22	 x29:0x4a9d0000 x22:0x00000000 x25=0x4a9d0000
      423522000	     21074	8000a7a4	4f8cea13	ori	x20,x25,1272	 x25:0x4a9d0000 x20=0x4a9d04f8
      423542000	     21075	8000a7a8	000445b3	xor	x11,x8,x0	  x8:0x0153fb00  x0:0x00000000 x11=0x0153fb00
      423762000	     21086	8000a7ac	8d29	c.xor	x10,x10	 x10:0x6b8a0000 x10:0x6b8a0000 x10=0x00000000
      423782000	     21087	8000a7ae	82f9	c.srli	x13,0x1e	 x13:0xffffffff x13=0x00000003
      423842000	     21090	8000a7b0	3b6075f3	csrrci	x11,pmpaddr6,0	 x11=0x3999a6c8
      423862000	     21091	8000a7b4	0ff0000f	fence	iorw,iorw	
      423882000	     21092	8000a7b8	0992	c.slli	x19,0x4	 x19:0x00000053 x19=0x00000530
      423902000	     21093	8000a7ba	e0b9	c.bnez	x9,8000a800	  x9:0x7ffffff6
      424062000	     21101	8000a800	0000100f	fence.i	
      424422000	     21119	8000a804	0ca6	c.slli	x25,0x9	 x25:0x4a9d0000 x25=0x3a000000
      424442000	     21120	8000a806	02771a63	bne	x14,x7,8000a83a	 x14:0x0153fb00  x7:0x0000025e
      424922000	     21144	8000a83a	b8595b73	csrrwi	x22,mhpmcounter5h,18	 x22=0x00000000
      425702000	     21183	8000a83e	0274c4b3	div	x9,x9,x7	  x9:0x7ffffff6  x7:0x0000025e  x9=0x00361296
      425722000	     21184	8000a842	0001	c.addi	x0,0	  x0:0x00000000  x0=0x00000000
      425742000	     21185	8000a844	0001	c.addi	x0,0	  x0:0x00000000  x0=0x00000000
      425762000	     21186	8000a846	610d	c.addi16sp	x2,160	  x2:0x6b89ffe0  x2=0x6b8a0080
      425782000	     21187	8000a848	9d6e	c.add	x26,x27	 x26:0x00000000 x27:0xc0012e72 x26=0xc0012e72
      425822000	     21189	8000a84a	03c73133	mulhu	x2,x14,x28	 x14:0x0153fb00 x28:0x00000000  x2=0x00000000
      425842000	     21190	8000a84e	412b01b3	sub	x3,x22,x18	 x22:0x00000000 x18:0xe6995000  x3=0x1966b000
      425862000	     21191	8000a852	e401	c.bnez	x8,8000a85a	  x8:0x0153fb00
      426322000	     21214	8000a85a	00c94333	xor	x6,x18,x12	 x18:0xe6995000 x12:0x0eeefc1d  x6=0xe877ac1d
      426682000	     21232	8000a85e	0000100f	fence.i	
      427702000	     21283	8000a862	8f61	c.and	x14,x8	 x14:0x0153fb00  x8:0x0153fb00 x14=0x0153fb00
      428122000	     21304	8000a864	0ff0000f	fence	iorw,iorw	
      428162000	     21306	8000a868	0188b733	sltu	x14,x17,x24	 x17:0x00000004 x24:0x0000d000 x14=0x00000001
      428582000	     21327	8000a86c	92d08613	addi	x12,x1,-1747	  x1:0x00000000 x12=0xfffff92d
      428602000	     21328	8000a870	717d	c.addi16sp	x2,-16	  x2:0x00000000  x2=0xfffffff0
      428642000	     21330	8000a872	3b403673	csrrc	x12,pmpaddr4,x0	  x0:0x00000000 x12=0x31111e40
      428662000	     21331	8000a876	010c6733	or	x14,x24,x16	 x24:0x0000d000 x16:0x00000000 x14=0x0000d000
      428682000	     21332	8000a87a	01425b33	srl	x22,x4,x20	  x4:0x00000000 x20:0x4a9d04f8 x22=0x00000000
      428742000	     21335	8000a87e	6bd9af93	slti	x31,x19,1725	 x19:0x00000530 x31=0x00000001
      428862000	     21341	8000a882	344a4b13	xori	x22,x20,836	 x20:0x4a9d04f8 x22=0x4a9d07bc
      428882000	     21342	8000a886	02a40e33	mul	x28,x8,x10	  x8:0x0153fb00 x10:0x00000000 x28=0x00000000
      428902000	     21343	8000a88a	8e55	c.or	x12,x13	 x12:0x31111e40 x13:0x00000003 x12=0x31111e43
      428962000	     21346	8000a88c	40425eb3	sra	x29,x4,x4	  x4:0x00000000  x4:0x00000000 x29=0x00000000
      429382000	     21367	8000a890	01eef563	bgeu	x29,x30,8000a89a	 x29:0x00000000 x30:0x000000b0
      429422000	     21369	8000a894	1afd	c.addi	x21,-1	 x21:0x00000001 x21=0x00000000
      429442000	     21370	8000a896	93be	c.add	x7,x15	  x7:0x0000025e x15:0x00000000  x7=0x0000025e
      429462000	     21371	8000a898	0001	c.addi	x0,0	  x0:0x00000000  x0=0x00000000
      429482000	     21372	8000a89a	043d9263	bne	x27,x3,8000a8de	 x27:0xc0012e72  x3:0x1966b000
      430602000	     21428	8000a8de	03607533	remu	x10,x0,x22	  x0:0x00000000 x22:0x4a9d07bc x10=0x00000000
      430622000	     21429	8000a8e2	841e	c.mv	x8,x7	  x0:0x00000000  x7:0x0000025e  x8=0x0000025e
      430642000	     21430	8000a8e4	a3282d93	slti	x27,x16,-1486	 x16:0x00000000 x27=0x00000000
      430662000	     21431	8000a8e8	8b61	c.andi	x14,24	 x14:0x0000d000 x14=0x00000000
      430682000	     21432	8000a8ea	344035f3	csrrc	x11,mip,x0	  x0:0x00000000 x11=0x00000000
      430702000	     21433	8000a8ee	0000100f	fence.i	
      431062000	     21451	8000a8f2	cc220113	addi	x2,x4,-830	  x4:0x00000000  x2=0xfffffcc2
      431122000	     21454	8000a8f6	00ce7533	and	x10,x28,x12	 x28:0x00000000 x12:0x31111e43 x10=0x00000000
      431142000	     21455	8000a8fa	cf15	c.beqz	x14,8000a936	 x14:0x00000000
      432002000	     21498	8000a936	be752517	auipc	x10,0xbe752	 x10=0x3e75c936
      432022000	     21499	8000a93a	0836	c.slli	x16,0xd	 x16:0x00000000 x16=0x00000000
      432422000	     21519	8000a93c	8dc5	c.or	x11,x9	 x11:0x00000000  x9:0x00361296 x11=0x00361296
      432562000	     21526	8000a93e	03d88a33	mul	x20,x17,x29	 x17:0x00000004 x29:0x00000000 x20=0x00000000
      432582000	     21527	8000a942	1a7d	c.addi	x20,-1	 x20:0x00000000 x20=0xffffffff
      432622000	     21529	8000a944	00f2ba33	sltu	x20,x5,x15	  x5:0x80025ce4 x15:0x00000000 x20=0x00000000
      432762000	     21536	8000a948	8ead	c.xor	x13,x11	 x13:0x00000003 x11:0x00361296 x13=0x00361295
      432822000	     21539	8000a94a	024605b3	mul	x11,x12,x4	 x12:0x31111e43  x4:0x00000000 x11=0x00000000
      432942000	     21545	8000a94e	00aced33	or	x26,x25,x10	 x25:0x3a000000 x10:0x3e75c936 x26=0x3e75c936
      433362000	     21566	8000a952	41628033	sub	x0,x5,x22	  x5:0x80025ce4 x22:0x4a9d07bc  x0=0x00000000
      433382000	     21567	8000a956	0eaa	c.slli	x29,0xa	 x29:0x00000000 x29=0x00000000
      433482000	     21572	8000a958	8ed9	c.or	x13,x14	 x13:0x00361295 x14:0x00000000 x13=0x00361295
      433502000	     21573	8000a95a	01589833	sll	x16,x17,x21	 x17:0x00000004 x21:0x00000000 x16=0x00000004
      433702000	     21583	8000a95e	f11f5b73	csrrwi	x0,mvendorid,30	  x0=0x00000000
      434302000	     21613	80002700	0800006f	jal	x0,80002780	  x0=0x00000000
      434882000	     21642	80002780	12f1	c.addi	x5,-4	  x5:0x80025ce4  x5=0x80025ce0
      435502000	     21673	80002782	0172a023	sw	x23,0(x5)	  x5:0x80025ce0 x23:0x80021df8 PA:0x80025ce0 store:0x80021df8 load:0xffffffff
      435522000	     21674	80002786	00028bb3	add	x23,x5,x0	  x5:0x80025ce0  x0:0x00000000 x23=0x80025ce0
      435542000	     21675	8000278a	f80b8b93	addi	x23,x23,-128	 x23:0x80025ce0 x23=0x80025c60
      435602000	     21678	8000278e	001ba223	sw	x1,4(x23)	 x23:0x80025c60  x1:0x00000000 PA:0x80025c64 store:0x00000000 load:0xffffffff
      435822000	     21689	80002792	002ba423	sw	x2,8(x23)	 x23:0x80025c60  x2:0xfffffcc2 PA:0x80025c68 store:0xfffffcc2 load:0xffffffff
      436002000	     21698	80002796	003ba623	sw	x3,12(x23)	 x23:0x80025c60  x3:0x1966b000 PA:0x80025c6c store:0x1966b000 load:0xffffffff
      436342000	     21715	8000279a	004ba823	sw	x4,16(x23)	 x23:0x80025c60  x4:0x00000000 PA:0x80025c70 store:0x00000000 load:0xffffffff
      436682000	     21732	8000279e	005baa23	sw	x5,20(x23)	 x23:0x80025c60  x5:0x80025ce0 PA:0x80025c74 store:0x80025ce0 load:0xffffffff
      436742000	     21735	800027a2	006bac23	sw	x6,24(x23)	 x23:0x80025c60  x6:0xe877ac1d PA:0x80025c78 store:0xe877ac1d load:0xffffffff
      437342000	     21765	800027a6	007bae23	sw	x7,28(x23)	 x23:0x80025c60  x7:0x0000025e PA:0x80025c7c store:0x0000025e load:0xffffffff
      437402000	     21768	800027aa	028ba023	sw	x8,32(x23)	 x23:0x80025c60  x8:0x0000025e PA:0x80025c80 store:0x0000025e load:0xffffffff
      437422000	     21769	800027ae	029ba223	sw	x9,36(x23)	 x23:0x80025c60  x9:0x00361296 PA:0x80025c84 store:0x00361296 load:0xffffffff
      437582000	     21777	800027b2	02aba423	sw	x10,40(x23)	 x23:0x80025c60 x10:0x3e75c936 PA:0x80025c88 store:0x3e75c936 load:0xffffffff
      437822000	     21789	800027b6	02bba623	sw	x11,44(x23)	 x23:0x80025c60 x11:0x00000000 PA:0x80025c8c store:0x00000000 load:0xffffffff
      438022000	     21799	800027ba	02cba823	sw	x12,48(x23)	 x23:0x80025c60 x12:0x31111e43 PA:0x80025c90 store:0x31111e43 load:0xffffffff
      438262000	     21811	800027be	02dbaa23	sw	x13,52(x23)	 x23:0x80025c60 x13:0x00361295 PA:0x80025c94 store:0x00361295 load:0xffffffff
      438702000	     21833	800027c2	02ebac23	sw	x14,56(x23)	 x23:0x80025c60 x14:0x00000000 PA:0x80025c98 store:0x00000000 load:0xffffffff
      438762000	     21836	800027c6	02fbae23	sw	x15,60(x23)	 x23:0x80025c60 x15:0x00000000 PA:0x80025c9c store:0x00000000 load:0xffffffff
      438782000	     21837	800027ca	050ba023	sw	x16,64(x23)	 x23:0x80025c60 x16:0x00000004 PA:0x80025ca0 store:0x00000004 load:0xffffffff
      438942000	     21845	800027ce	051ba223	sw	x17,68(x23)	 x23:0x80025c60 x17:0x00000004 PA:0x80025ca4 store:0x00000004 load:0xffffffff
      439182000	     21857	800027d2	052ba423	sw	x18,72(x23)	 x23:0x80025c60 x18:0xe6995000 PA:0x80025ca8 store:0xe6995000 load:0xffffffff
      439242000	     21860	800027d6	053ba623	sw	x19,76(x23)	 x23:0x80025c60 x19:0x00000530 PA:0x80025cac store:0x00000530 load:0xffffffff
      439262000	     21861	800027da	054ba823	sw	x20,80(x23)	 x23:0x80025c60 x20:0x00000000 PA:0x80025cb0 store:0x00000000 load:0xffffffff
      439402000	     21868	800027de	055baa23	sw	x21,84(x23)	 x23:0x80025c60 x21:0x00000000 PA:0x80025cb4 store:0x00000000 load:0xffffffff
      439462000	     21871	800027e2	056bac23	sw	x22,88(x23)	 x23:0x80025c60 x22:0x4a9d07bc PA:0x80025cb8 store:0x4a9d07bc load:0xffffffff
      439682000	     21882	800027e6	057bae23	sw	x23,92(x23)	 x23:0x80025c60 x23:0x80025c60 PA:0x80025cbc store:0x80025c60 load:0xffffffff
      439702000	     21883	800027ea	078ba023	sw	x24,96(x23)	 x23:0x80025c60 x24:0x0000d000 PA:0x80025cc0 store:0x0000d000 load:0xffffffff
      439722000	     21884	800027ee	079ba223	sw	x25,100(x23)	 x23:0x80025c60 x25:0x3a000000 PA:0x80025cc4 store:0x3a000000 load:0xffffffff
      440262000	     21911	800027f2	07aba423	sw	x26,104(x23)	 x23:0x80025c60 x26:0x3e75c936 PA:0x80025cc8 store:0x3e75c936 load:0xffffffff
      440322000	     21914	800027f6	07bba623	sw	x27,108(x23)	 x23:0x80025c60 x27:0x00000000 PA:0x80025ccc store:0x00000000 load:0xffffffff
      440822000	     21939	800027fa	07cba823	sw	x28,112(x23)	 x23:0x80025c60 x28:0x00000000 PA:0x80025cd0 store:0x00000000 load:0xffffffff
      441282000	     21962	800027fe	07dbaa23	sw	x29,116(x23)	 x23:0x80025c60 x29:0x00000000 PA:0x80025cd4 store:0x00000000 load:0xffffffff
      441622000	     21979	80002802	07ebac23	sw	x30,120(x23)	 x23:0x80025c60 x30:0x000000b0 PA:0x80025cd8 store:0x000000b0 load:0xffffffff
      441902000	     21993	80002806	07fbae23	sw	x31,124(x23)	 x23:0x80025c60 x31:0x00000001 PA:0x80025cdc store:0x00000001 load:0xffffffff
      444882000	     22142	8000280a	000b82b3	add	x5,x23,x0	 x23:0x80025c60  x0:0x00000000  x5=0x80025c60
      444902000	     22143	8000280e	90000c37	lui	x24,0x90000	 x24=0x90000000
      444922000	     22144	80002812	1c71	c.addi	x24,-4	 x24:0x90000000 x24=0x8ffffffc
      444942000	     22145	80002814	4f21	c.li	x30,8	 x30=0x00000008
      444962000	     22146	80002816	0f22	c.slli	x30,0x8	 x30:0x00000008 x30=0x00000800
      444982000	     22147	80002818	000f0f13	addi	x30,x30,0	 x30:0x00000800 x30=0x00000800
      445122000	     22154	8000281c	01ec2023	sw	x30,0(x24)	 x24:0x8ffffffc x30:0x00000800 PA:0x8ffffffc store:0x00000800 load:0xffffffff
      445322000	     22164	80002820	34102f73	csrrs	x30,mepc,x0	  x0:0x00000000 x30=0x8000a95e
      445382000	     22167	80002824	34202f73	csrrs	x30,mcause,x0	  x0:0x00000000 x30=0x00000002
      445402000	     22168	80002828	4c0d	c.li	x24,3	 x24=0x00000003
      445582000	     22177	8000282a	018f1463	bne	x30,x24,80002832	 x30:0x00000002 x24:0x00000003
      446082000	     22202	80002832	4c21	c.li	x24,8	 x24=0x00000008
      446102000	     22203	80002834	058f0d63	beq	x30,x24,8000288e	 x30:0x00000002 x24:0x00000008
      446442000	     22220	80002838	4c25	c.li	x24,9	 x24=0x00000009
      446522000	     22224	8000283a	058f0a63	beq	x30,x24,8000288e	 x30:0x00000002 x24:0x00000009
      446542000	     22225	8000283e	4c2d	c.li	x24,11	 x24=0x0000000b
      446562000	     22226	80002840	058f0763	beq	x30,x24,8000288e	 x30:0x00000002 x24:0x0000000b
      446582000	     22227	80002844	4c05	c.li	x24,1	 x24=0x00000001
      446602000	     22228	80002846	358f0363	beq	x30,x24,80002b8c	 x30:0x00000002 x24:0x00000001
      446622000	     22229	8000284a	4c15	c.li	x24,5	 x24=0x00000005
      446742000	     22235	8000284c	638f0a63	beq	x30,x24,80002e80	 x30:0x00000002 x24:0x00000005
      446822000	     22239	80002850	4c1d	c.li	x24,7	 x24=0x00000007
      447022000	     22249	80002852	158f0ce3	beq	x30,x24,800031aa	 x30:0x00000002 x24:0x00000007
      447042000	     22250	80002856	4c31	c.li	x24,12	 x24=0x0000000c
      447402000	     22268	80002858	018f1463	bne	x30,x24,80002860	 x30:0x00000002 x24:0x0000000c
      448162000	     22306	80002860	4c35	c.li	x24,13	 x24=0x0000000d
      448182000	     22307	80002862	018f1463	bne	x30,x24,8000286a	 x30:0x00000002 x24:0x0000000d
      449122000	     22354	8000286a	4c3d	c.li	x24,15	 x24=0x0000000f
      449142000	     22355	8000286c	018f1463	bne	x30,x24,80002874	 x30:0x00000002 x24:0x0000000f
      450102000	     22403	80002874	4c09	c.li	x24,2	 x24=0x00000002
      450522000	     22424	80002876	018f1463	bne	x30,x24,8000287e	 x30:0x00000002 x24:0x00000002
      450562000	     22426	8000287a	3740906f	jal	x0,8000bbee	  x0=0x00000000
      451362000	     22466	8000bbee	90000c37	lui	x24,0x90000	 x24=0x90000000
      451382000	     22467	8000bbf2	1c71	c.addi	x24,-4	 x24:0x90000000 x24=0x8ffffffc
      451402000	     22468	8000bbf4	4f29	c.li	x30,10	 x30=0x0000000a
      451422000	     22469	8000bbf6	0f22	c.slli	x30,0x8	 x30:0x0000000a x30=0x00000a00
      451442000	     22470	8000bbf8	000f0f13	addi	x30,x30,0	 x30:0x00000a00 x30=0x00000a00
      451562000	     22476	8000bbfc	01ec2023	sw	x30,0(x24)	 x24:0x8ffffffc x30:0x00000a00 PA:0x8ffffffc store:0x00000a00 load:0xffffffff
      451582000	     22477	8000bc00	90000c37	lui	x24,0x90000	 x24=0x90000000
      451602000	     22478	8000bc04	1c71	c.addi	x24,-4	 x24:0x90000000 x24=0x8ffffffc
      451622000	     22479	8000bc06	34200f13	addi	x30,x0,834	  x0:0x00000000 x30=0x00000342
      451642000	     22480	8000bc0a	0f22	c.slli	x30,0x8	 x30:0x00000342 x30=0x00034200
      451662000	     22481	8000bc0c	0f0d	c.addi	x30,3	 x30:0x00034200 x30=0x00034203
      451722000	     22484	8000bc0e	01ec2023	sw	x30,0(x24)	 x24:0x8ffffffc x30:0x00034203 PA:0x8ffffffc store:0x00034203 load:0xffffffff
      451742000	     22485	8000bc12	34202f73	csrrs	x30,mcause,x0	  x0:0x00000000 x30=0x00000002
      452142000	     22505	8000bc16	01ec2023	sw	x30,0(x24)	 x24:0x8ffffffc x30:0x00000002 PA:0x8ffffffc store:0x00000002 load:0xffffffff
      452162000	     22506	8000bc1a	34102f73	csrrs	x30,mepc,x0	  x0:0x00000000 x30=0x8000a95e
      452182000	     22507	8000bc1e	0f11	c.addi	x30,4	 x30:0x8000a95e x30=0x8000a962
      452202000	     22508	8000bc20	341f1073	csrrw	x0,mepc,x30	 x30:0x8000a962  x0=0x00000000
      452222000	     22509	8000bc24	00028bb3	add	x23,x5,x0	  x5:0x80025c60  x0:0x00000000 x23=0x80025c60
      452382000	     22517	8000bc28	004ba083	lw	x1,4(x23)	 x23:0x80025c60  x1=0x00000000 PA:0x80025c64 load:0x00000000
      452442000	     22520	8000bc2c	008ba103	lw	x2,8(x23)	 x23:0x80025c60  x2=0xfffffcc2 PA:0x80025c68 load:0xfffffcc2
      452722000	     22534	8000bc30	00cba183	lw	x3,12(x23)	 x23:0x80025c60  x3=0x1966b000 PA:0x80025c6c load:0x1966b000
      452842000	     22540	8000bc34	010ba203	lw	x4,16(x23)	 x23:0x80025c60  x4=0x00000000 PA:0x80025c70 load:0x00000000
      452902000	     22543	8000bc38	014ba283	lw	x5,20(x23)	 x23:0x80025c60  x5=0x80025ce0 PA:0x80025c74 load:0x80025ce0
      453022000	     22549	8000bc3c	018ba303	lw	x6,24(x23)	 x23:0x80025c60  x6=0xe877ac1d PA:0x80025c78 load:0xe877ac1d
      453482000	     22572	8000bc40	01cba383	lw	x7,28(x23)	 x23:0x80025c60  x7=0x0000025e PA:0x80025c7c load:0x0000025e
      454142000	     22605	8000bc44	020ba403	lw	x8,32(x23)	 x23:0x80025c60  x8=0x0000025e PA:0x80025c80 load:0x0000025e
      454202000	     22608	8000bc48	024ba483	lw	x9,36(x23)	 x23:0x80025c60  x9=0x00361296 PA:0x80025c84 load:0x00361296
      454502000	     22623	8000bc4c	028ba503	lw	x10,40(x23)	 x23:0x80025c60 x10=0x3e75c936 PA:0x80025c88 load:0x3e75c936
      454762000	     22636	8000bc50	02cba583	lw	x11,44(x23)	 x23:0x80025c60 x11=0x00000000 PA:0x80025c8c load:0x00000000
      454782000	     22637	8000bc54	030ba603	lw	x12,48(x23)	 x23:0x80025c60 x12=0x31111e43 PA:0x80025c90 load:0x31111e43
      455202000	     22658	8000bc58	034ba683	lw	x13,52(x23)	 x23:0x80025c60 x13=0x00361295 PA:0x80025c94 load:0x00361295
      455322000	     22664	8000bc5c	038ba703	lw	x14,56(x23)	 x23:0x80025c60 x14=0x00000000 PA:0x80025c98 load:0x00000000
      455382000	     22667	8000bc60	03cba783	lw	x15,60(x23)	 x23:0x80025c60 x15=0x00000000 PA:0x80025c9c load:0x00000000
      455462000	     22671	8000bc64	040ba803	lw	x16,64(x23)	 x23:0x80025c60 x16=0x00000004 PA:0x80025ca0 load:0x00000004
      455522000	     22674	8000bc68	044ba883	lw	x17,68(x23)	 x23:0x80025c60 x17=0x00000004 PA:0x80025ca4 load:0x00000004
      455542000	     22675	8000bc6c	048ba903	lw	x18,72(x23)	 x23:0x80025c60 x18=0xe6995000 PA:0x80025ca8 load:0xe6995000
      455722000	     22684	8000bc70	04cba983	lw	x19,76(x23)	 x23:0x80025c60 x19=0x00000530 PA:0x80025cac load:0x00000530
      455782000	     22687	8000bc74	050baa03	lw	x20,80(x23)	 x23:0x80025c60 x20=0x00000000 PA:0x80025cb0 load:0x00000000
      456122000	     22704	8000bc78	054baa83	lw	x21,84(x23)	 x23:0x80025c60 x21=0x00000000 PA:0x80025cb4 load:0x00000000
      456482000	     22722	8000bc7c	058bab03	lw	x22,88(x23)	 x23:0x80025c60 x22=0x4a9d07bc PA:0x80025cb8 load:0x4a9d07bc
      456942000	     22745	8000bc80	05cbab83	lw	x23,92(x23)	 x23:0x80025c60 x23=0x80025c60 PA:0x80025cbc load:0x80025c60
      457262000	     22761	8000bc84	060bac03	lw	x24,96(x23)	 x23:0x80025c60 x24=0x0000d000 PA:0x80025cc0 load:0x0000d000
      457382000	     22767	8000bc88	064bac83	lw	x25,100(x23)	 x23:0x80025c60 x25=0x3a000000 PA:0x80025cc4 load:0x3a000000
      457442000	     22770	8000bc8c	068bad03	lw	x26,104(x23)	 x23:0x80025c60 x26=0x3e75c936 PA:0x80025cc8 load:0x3e75c936
      457582000	     22777	8000bc90	06cbad83	lw	x27,108(x23)	 x23:0x80025c60 x27=0x00000000 PA:0x80025ccc load:0x00000000
      457722000	     22784	8000bc94	070bae03	lw	x28,112(x23)	 x23:0x80025c60 x28=0x00000000 PA:0x80025cd0 load:0x00000000
      457782000	     22787	8000bc98	074bae83	lw	x29,116(x23)	 x23:0x80025c60 x29=0x00000000 PA:0x80025cd4 load:0x00000000
      457982000	     22797	8000bc9c	078baf03	lw	x30,120(x23)	 x23:0x80025c60 x30=0x000000b0 PA:0x80025cd8 load:0x000000b0
      458342000	     22815	8000bca0	07cbaf83	lw	x31,124(x23)	 x23:0x80025c60 x31=0x00000001 PA:0x80025cdc load:0x00000001
      458362000	     22816	8000bca4	080b8b93	addi	x23,x23,128	 x23:0x80025c60 x23=0x80025ce0
      458382000	     22817	8000bca8	000b82b3	add	x5,x23,x0	 x23:0x80025ce0  x0:0x00000000  x5=0x80025ce0
      458442000	     22820	8000bcac	0002ab83	lw	x23,0(x5)	  x5:0x80025ce0 x23=0x80021df8 PA:0x80025ce0 load:0x80021df8
      458462000	     22821	8000bcb0	0291	c.addi	x5,4	  x5:0x80025ce0  x5=0x80025ce4
      458482000	     22822	8000bcb2	30200073	mret	
      460102000	     22903	8000a962	30502df3	csrrs	x27,mtvec,x0	  x0:0x00000000 x27=0x80002701
      460122000	     22904	8000a966	8a72	c.mv	x20,x28	  x0:0x00000000 x28:0x00000000 x20=0x00000000
      461122000	     22954	8000a968	03137b33	remu	x22,x6,x17	  x6:0xe877ac1d x17:0x00000004 x22=0x00000001
      461142000	     22955	8000a96c	b038b693	sltiu	x13,x17,-1277	 x17:0x00000004 x13=0x00000001
      461162000	     22956	8000a970	b0c02af3	csrrs	x21,mhpmcounter12,x0	  x0:0x00000000 x21=0x00000589
      461182000	     22957	8000a974	7b3078f3	csrrci	x0,0x7b3,0	  x0=0x00000000
      461462000	     22971	80002700	0800006f	jal	x0,80002780	  x0=0x00000000
      462202000	     23008	80002780	12f1	c.addi	x5,-4	  x5:0x80025ce4  x5=0x80025ce0
      462402000	     23018	80002782	0172a023	sw	x23,0(x5)	  x5:0x80025ce0 x23:0x80021df8 PA:0x80025ce0 store:0x80021df8 load:0xffffffff
      462422000	     23019	80002786	00028bb3	add	x23,x5,x0	  x5:0x80025ce0  x0:0x00000000 x23=0x80025ce0
      462442000	     23020	8000278a	f80b8b93	addi	x23,x23,-128	 x23:0x80025ce0 x23=0x80025c60
      462602000	     23028	8000278e	001ba223	sw	x1,4(x23)	 x23:0x80025c60  x1:0x00000000 PA:0x80025c64 store:0x00000000 load:0xffffffff
      462662000	     23031	80002792	002ba423	sw	x2,8(x23)	 x23:0x80025c60  x2:0xfffffcc2 PA:0x80025c68 store:0xfffffcc2 load:0xffffffff
      462742000	     23035	80002796	003ba623	sw	x3,12(x23)	 x23:0x80025c60  x3:0x1966b000 PA:0x80025c6c store:0x1966b000 load:0xffffffff
      463162000	     23056	8000279a	004ba823	sw	x4,16(x23)	 x23:0x80025c60  x4:0x00000000 PA:0x80025c70 store:0x00000000 load:0xffffffff
      463222000	     23059	8000279e	005baa23	sw	x5,20(x23)	 x23:0x80025c60  x5:0x80025ce0 PA:0x80025c74 store:0x80025ce0 load:0xffffffff
      463602000	     23078	800027a2	006bac23	sw	x6,24(x23)	 x23:0x80025c60  x6:0xe877ac1d PA:0x80025c78 store:0xe877ac1d load:0xffffffff
      463662000	     23081	800027a6	007bae23	sw	x7,28(x23)	 x23:0x80025c60  x7:0x0000025e PA:0x80025c7c store:0x0000025e load:0xffffffff
      463982000	     23097	800027aa	028ba023	sw	x8,32(x23)	 x23:0x80025c60  x8:0x0000025e PA:0x80025c80 store:0x0000025e load:0xffffffff
      464042000	     23100	800027ae	029ba223	sw	x9,36(x23)	 x23:0x80025c60  x9:0x00361296 PA:0x80025c84 store:0x00361296 load:0xffffffff
      464062000	     23101	800027b2	02aba423	sw	x10,40(x23)	 x23:0x80025c60 x10:0x3e75c936 PA:0x80025c88 store:0x3e75c936 load:0xffffffff
      464262000	     23111	800027b6	02bba623	sw	x11,44(x23)	 x23:0x80025c60 x11:0x00000000 PA:0x80025c8c store:0x00000000 load:0xffffffff
      464402000	     23118	800027ba	02cba823	sw	x12,48(x23)	 x23:0x80025c60 x12:0x31111e43 PA:0x80025c90 store:0x31111e43 load:0xffffffff
      464462000	     23121	800027be	02dbaa23	sw	x13,52(x23)	 x23:0x80025c60 x13:0x00000001 PA:0x80025c94 store:0x00000001 load:0xffffffff
      464542000	     23125	800027c2	02ebac23	sw	x14,56(x23)	 x23:0x80025c60 x14:0x00000000 PA:0x80025c98 store:0x00000000 load:0xffffffff
      464562000	     23126	800027c6	02fbae23	sw	x15,60(x23)	 x23:0x80025c60 x15:0x00000000 PA:0x80025c9c store:0x00000000 load:0xffffffff
      464582000	     23127	800027ca	050ba023	sw	x16,64(x23)	 x23:0x80025c60 x16:0x00000004 PA:0x80025ca0 store:0x00000004 load:0xffffffff
      465042000	     23150	800027ce	051ba223	sw	x17,68(x23)	 x23:0x80025c60 x17:0x00000004 PA:0x80025ca4 store:0x00000004 load:0xffffffff
      465102000	     23153	800027d2	052ba423	sw	x18,72(x23)	 x23:0x80025c60 x18:0xe6995000 PA:0x80025ca8 store:0xe6995000 load:0xffffffff
      465122000	     23154	800027d6	053ba623	sw	x19,76(x23)	 x23:0x80025c60 x19:0x00000530 PA:0x80025cac store:0x00000530 load:0xffffffff
      465142000	     23155	800027da	054ba823	sw	x20,80(x23)	 x23:0x80025c60 x20:0x00000000 PA:0x80025cb0 store:0x00000000 load:0xffffffff
      465562000	     23176	800027de	055baa23	sw	x21,84(x23)	 x23:0x80025c60 x21:0x00000589 PA:0x80025cb4 store:0x00000589 load:0xffffffff
      466022000	     23199	800027e2	056bac23	sw	x22,88(x23)	 x23:0x80025c60 x22:0x00000001 PA:0x80025cb8 store:0x00000001 load:0xffffffff
      466482000	     23222	800027e6	057bae23	sw	x23,92(x23)	 x23:0x80025c60 x23:0x80025c60 PA:0x80025cbc store:0x80025c60 load:0xffffffff
      466642000	     23230	800027ea	078ba023	sw	x24,96(x23)	 x23:0x80025c60 x24:0x0000d000 PA:0x80025cc0 store:0x0000d000 load:0xffffffff
      466702000	     23233	800027ee	079ba223	sw	x25,100(x23)	 x23:0x80025c60 x25:0x3a000000 PA:0x80025cc4 store:0x3a000000 load:0xffffffff
      466722000	     23234	800027f2	07aba423	sw	x26,104(x23)	 x23:0x80025c60 x26:0x3e75c936 PA:0x80025cc8 store:0x3e75c936 load:0xffffffff
      466742000	     23235	800027f6	07bba623	sw	x27,108(x23)	 x23:0x80025c60 x27:0x80002701 PA:0x80025ccc store:0x80002701 load:0xffffffff
      466762000	     23236	800027fa	07cba823	sw	x28,112(x23)	 x23:0x80025c60 x28:0x00000000 PA:0x80025cd0 store:0x00000000 load:0xffffffff
      467002000	     23248	800027fe	07dbaa23	sw	x29,116(x23)	 x23:0x80025c60 x29:0x00000000 PA:0x80025cd4 store:0x00000000 load:0xffffffff
      467062000	     23251	80002802	07ebac23	sw	x30,120(x23)	 x23:0x80025c60 x30:0x000000b0 PA:0x80025cd8 store:0x000000b0 load:0xffffffff
      467082000	     23252	80002806	07fbae23	sw	x31,124(x23)	 x23:0x80025c60 x31:0x00000001 PA:0x80025cdc store:0x00000001 load:0xffffffff
      467102000	     23253	8000280a	000b82b3	add	x5,x23,x0	 x23:0x80025c60  x0:0x00000000  x5=0x80025c60
      467122000	     23254	8000280e	90000c37	lui	x24,0x90000	 x24=0x90000000
      467142000	     23255	80002812	1c71	c.addi	x24,-4	 x24:0x90000000 x24=0x8ffffffc
      467162000	     23256	80002814	4f21	c.li	x30,8	 x30=0x00000008
      467182000	     23257	80002816	0f22	c.slli	x30,0x8	 x30:0x00000008 x30=0x00000800
      467202000	     23258	80002818	000f0f13	addi	x30,x30,0	 x30:0x00000800 x30=0x00000800
      467662000	     23281	8000281c	01ec2023	sw	x30,0(x24)	 x24:0x8ffffffc x30:0x00000800 PA:0x8ffffffc store:0x00000800 load:0xffffffff
      467682000	     23282	80002820	34102f73	csrrs	x30,mepc,x0	  x0:0x00000000 x30=0x8000a974
      467702000	     23283	80002824	34202f73	csrrs	x30,mcause,x0	  x0:0x00000000 x30=0x00000002
      467742000	     23285	80002828	4c0d	c.li	x24,3	 x24=0x00000003
      467762000	     23286	8000282a	018f1463	bne	x30,x24,80002832	 x30:0x00000002 x24:0x00000003
      468262000	     23311	80002832	4c21	c.li	x24,8	 x24=0x00000008
      468282000	     23312	80002834	058f0d63	beq	x30,x24,8000288e	 x30:0x00000002 x24:0x00000008
      468302000	     23313	80002838	4c25	c.li	x24,9	 x24=0x00000009
      468322000	     23314	8000283a	058f0a63	beq	x30,x24,8000288e	 x30:0x00000002 x24:0x00000009
      468342000	     23315	8000283e	4c2d	c.li	x24,11	 x24=0x0000000b
      468362000	     23316	80002840	058f0763	beq	x30,x24,8000288e	 x30:0x00000002 x24:0x0000000b
      468382000	     23317	80002844	4c05	c.li	x24,1	 x24=0x00000001
      468402000	     23318	80002846	358f0363	beq	x30,x24,80002b8c	 x30:0x00000002 x24:0x00000001
      468422000	     23319	8000284a	4c15	c.li	x24,5	 x24=0x00000005
      468562000	     23326	8000284c	638f0a63	beq	x30,x24,80002e80	 x30:0x00000002 x24:0x00000005
      468582000	     23327	80002850	4c1d	c.li	x24,7	 x24=0x00000007
      468602000	     23328	80002852	158f0ce3	beq	x30,x24,800031aa	 x30:0x00000002 x24:0x00000007
      468622000	     23329	80002856	4c31	c.li	x24,12	 x24=0x0000000c
      468642000	     23330	80002858	018f1463	bne	x30,x24,80002860	 x30:0x00000002 x24:0x0000000c
      469122000	     23354	80002860	4c35	c.li	x24,13	 x24=0x0000000d
      469142000	     23355	80002862	018f1463	bne	x30,x24,8000286a	 x30:0x00000002 x24:0x0000000d
      469802000	     23388	8000286a	4c3d	c.li	x24,15	 x24=0x0000000f
      469882000	     23392	8000286c	018f1463	bne	x30,x24,80002874	 x30:0x00000002 x24:0x0000000f
      470302000	     23413	80002874	4c09	c.li	x24,2	 x24=0x00000002
      470722000	     23434	80002876	018f1463	bne	x30,x24,8000287e	 x30:0x00000002 x24:0x00000002
      470742000	     23435	8000287a	3740906f	jal	x0,8000bbee	  x0=0x00000000
      471422000	     23469	8000bbee	90000c37	lui	x24,0x90000	 x24=0x90000000
      471442000	     23470	8000bbf2	1c71	c.addi	x24,-4	 x24:0x90000000 x24=0x8ffffffc
      471462000	     23471	8000bbf4	4f29	c.li	x30,10	 x30=0x0000000a
      471482000	     23472	8000bbf6	0f22	c.slli	x30,0x8	 x30:0x0000000a x30=0x00000a00
      471502000	     23473	8000bbf8	000f0f13	addi	x30,x30,0	 x30:0x00000a00 x30=0x00000a00
      471782000	     23487	8000bbfc	01ec2023	sw	x30,0(x24)	 x24:0x8ffffffc x30:0x00000a00 PA:0x8ffffffc store:0x00000a00 load:0xffffffff
      471902000	     23493	8000bc00	90000c37	lui	x24,0x90000	 x24=0x90000000
      472262000	     23511	8000bc04	1c71	c.addi	x24,-4	 x24:0x90000000 x24=0x8ffffffc
      472282000	     23512	8000bc06	34200f13	addi	x30,x0,834	  x0:0x00000000 x30=0x00000342
      472302000	     23513	8000bc0a	0f22	c.slli	x30,0x8	 x30:0x00000342 x30=0x00034200
      472582000	     23527	8000bc0c	0f0d	c.addi	x30,3	 x30:0x00034200 x30=0x00034203
      472702000	     23533	8000bc0e	01ec2023	sw	x30,0(x24)	 x24:0x8ffffffc x30:0x00034203 PA:0x8ffffffc store:0x00034203 load:0xffffffff
      472722000	     23534	8000bc12	34202f73	csrrs	x30,mcause,x0	  x0:0x00000000 x30=0x00000002
      472782000	     23537	8000bc16	01ec2023	sw	x30,0(x24)	 x24:0x8ffffffc x30:0x00000002 PA:0x8ffffffc store:0x00000002 load:0xffffffff
      472802000	     23538	8000bc1a	34102f73	csrrs	x30,mepc,x0	  x0:0x00000000 x30=0x8000a974
      472822000	     23539	8000bc1e	0f11	c.addi	x30,4	 x30:0x8000a974 x30=0x8000a978
      472842000	     23540	8000bc20	341f1073	csrrw	x0,mepc,x30	 x30:0x8000a978  x0=0x00000000
      472862000	     23541	8000bc24	00028bb3	add	x23,x5,x0	  x5:0x80025c60  x0:0x00000000 x23=0x80025c60
      473102000	     23553	8000bc28	004ba083	lw	x1,4(x23)	 x23:0x80025c60  x1=0x00000000 PA:0x80025c64 load:0x00000000
      473162000	     23556	8000bc2c	008ba103	lw	x2,8(x23)	 x23:0x80025c60  x2=0xfffffcc2 PA:0x80025c68 load:0xfffffcc2
      473182000	     23557	8000bc30	00cba183	lw	x3,12(x23)	 x23:0x80025c60  x3=0x1966b000 PA:0x80025c6c load:0x1966b000
      473362000	     23566	8000bc34	010ba203	lw	x4,16(x23)	 x23:0x80025c60  x4=0x00000000 PA:0x80025c70 load:0x00000000
      473702000	     23583	8000bc38	014ba283	lw	x5,20(x23)	 x23:0x80025c60  x5=0x80025ce0 PA:0x80025c74 load:0x80025ce0
      473862000	     23591	8000bc3c	018ba303	lw	x6,24(x23)	 x23:0x80025c60  x6=0xe877ac1d PA:0x80025c78 load:0xe877ac1d
      474322000	     23614	8000bc40	01cba383	lw	x7,28(x23)	 x23:0x80025c60  x7=0x0000025e PA:0x80025c7c load:0x0000025e
      474382000	     23617	8000bc44	020ba403	lw	x8,32(x23)	 x23:0x80025c60  x8=0x0000025e PA:0x80025c80 load:0x0000025e
      474802000	     23638	8000bc48	024ba483	lw	x9,36(x23)	 x23:0x80025c60  x9=0x00361296 PA:0x80025c84 load:0x00361296
      475122000	     23654	8000bc4c	028ba503	lw	x10,40(x23)	 x23:0x80025c60 x10=0x3e75c936 PA:0x80025c88 load:0x3e75c936
      475302000	     23663	8000bc50	02cba583	lw	x11,44(x23)	 x23:0x80025c60 x11=0x00000000 PA:0x80025c8c load:0x00000000
      475402000	     23668	8000bc54	030ba603	lw	x12,48(x23)	 x23:0x80025c60 x12=0x31111e43 PA:0x80025c90 load:0x31111e43
      475422000	     23669	8000bc58	034ba683	lw	x13,52(x23)	 x23:0x80025c60 x13=0x00000001 PA:0x80025c94 load:0x00000001
      475442000	     23670	8000bc5c	038ba703	lw	x14,56(x23)	 x23:0x80025c60 x14=0x00000000 PA:0x80025c98 load:0x00000000
      475562000	     23676	8000bc60	03cba783	lw	x15,60(x23)	 x23:0x80025c60 x15=0x00000000 PA:0x80025c9c load:0x00000000
      475582000	     23677	8000bc64	040ba803	lw	x16,64(x23)	 x23:0x80025c60 x16=0x00000004 PA:0x80025ca0 load:0x00000004
      476002000	     23698	8000bc68	044ba883	lw	x17,68(x23)	 x23:0x80025c60 x17=0x00000004 PA:0x80025ca4 load:0x00000004
      476062000	     23701	8000bc6c	048ba903	lw	x18,72(x23)	 x23:0x80025c60 x18=0xe6995000 PA:0x80025ca8 load:0xe6995000
      476482000	     23722	8000bc70	04cba983	lw	x19,76(x23)	 x23:0x80025c60 x19=0x00000530 PA:0x80025cac load:0x00000530
      476622000	     23729	8000bc74	050baa03	lw	x20,80(x23)	 x23:0x80025c60 x20=0x00000000 PA:0x80025cb0 load:0x00000000
      476702000	     23733	8000bc78	054baa83	lw	x21,84(x23)	 x23:0x80025c60 x21=0x00000589 PA:0x80025cb4 load:0x00000589
      476722000	     23734	8000bc7c	058bab03	lw	x22,88(x23)	 x23:0x80025c60 x22=0x00000001 PA:0x80025cb8 load:0x00000001
      476762000	     23736	8000bc80	05cbab83	lw	x23,92(x23)	 x23:0x80025c60 x23=0x80025c60 PA:0x80025cbc load:0x80025c60
      476882000	     23742	8000bc84	060bac03	lw	x24,96(x23)	 x23:0x80025c60 x24=0x0000d000 PA:0x80025cc0 load:0x0000d000
      477162000	     23756	8000bc88	064bac83	lw	x25,100(x23)	 x23:0x80025c60 x25=0x3a000000 PA:0x80025cc4 load:0x3a000000
      477222000	     23759	8000bc8c	068bad03	lw	x26,104(x23)	 x23:0x80025c60 x26=0x3e75c936 PA:0x80025cc8 load:0x3e75c936
      477242000	     23760	8000bc90	06cbad83	lw	x27,108(x23)	 x23:0x80025c60 x27=0x80002701 PA:0x80025ccc load:0x80002701
      477262000	     23761	8000bc94	070bae03	lw	x28,112(x23)	 x23:0x80025c60 x28=0x00000000 PA:0x80025cd0 load:0x00000000
      477842000	     23790	8000bc98	074bae83	lw	x29,116(x23)	 x23:0x80025c60 x29=0x00000000 PA:0x80025cd4 load:0x00000000
      477902000	     23793	8000bc9c	078baf03	lw	x30,120(x23)	 x23:0x80025c60 x30=0x000000b0 PA:0x80025cd8 load:0x000000b0
      477922000	     23794	8000bca0	07cbaf83	lw	x31,124(x23)	 x23:0x80025c60 x31=0x00000001 PA:0x80025cdc load:0x00000001
      477942000	     23795	8000bca4	080b8b93	addi	x23,x23,128	 x23:0x80025c60 x23=0x80025ce0
      477962000	     23796	8000bca8	000b82b3	add	x5,x23,x0	 x23:0x80025ce0  x0:0x00000000  x5=0x80025ce0
      478122000	     23804	8000bcac	0002ab83	lw	x23,0(x5)	  x5:0x80025ce0 x23=0x80021df8 PA:0x80025ce0 load:0x80021df8
      478142000	     23805	8000bcb0	0291	c.addi	x5,4	  x5:0x80025ce0  x5=0x80025ce4
      484982000	     24147	8000bcb2	30200073	mret	
      485382000	     24167	8000a978	03829a63	bne	x5,x24,8000a9ac	  x5:0x80025ce4 x24:0x0000d000
      486922000	     24244	8000a9ac	0307eeb3	rem	x29,x15,x16	 x15:0x00000000 x16:0x00000004 x29=0x00000000
      486942000	     24245	8000a9b0	0182c863	blt	x5,x24,8000a9c0	  x5:0x80025ce4 x24:0x0000d000
      487042000	     24250	8000a9c0	03f89e63	bne	x17,x31,8000a9fc	 x17:0x00000004 x31:0x00000001
      487402000	     24268	8000a9fc	c1022693	slti	x13,x4,-1008	  x4:0x00000000 x13=0x00000000
      487422000	     24269	8000aa00	02b76f63	bltu	x14,x11,8000aa3e	 x14:0x00000000 x11:0x00000000
      487442000	     24270	8000aa04	02520cb3	mul	x25,x4,x5	  x4:0x00000000  x5:0x80025ce4 x25=0x00000000
      487462000	     24271	8000aa08	0001	c.addi	x0,0	  x0:0x00000000  x0=0x00000000
      487902000	     24293	8000aa0a	0385a9b3	mulhsu	x19,x11,x24	 x11:0x00000000 x24:0x0000d000 x19=0x00000000
      487922000	     24294	8000aa0e	0ff0000f	fence	iorw,iorw	
      487982000	     24297	8000aa12	0ec1ea93	ori	x21,x3,236	  x3:0x1966b000 x21=0x1966b0ec
      488002000	     24298	8000aa16	32703c73	csrrc	x24,mhpmevent7,x0	  x0:0x00000000 x24=0x00000010
      488022000	     24299	8000aa1a	5f7d	c.li	x30,-1	 x30=0xffffffff
      488122000	     24304	8000aa1c	8c3d	c.xor	x8,x15	  x8:0x0000025e x15:0x00000000  x8=0x0000025e
      488262000	     24311	8000aa1e	d704e913	ori	x18,x9,-656	  x9:0x00361296 x18=0xfffffff6
      488282000	     24312	8000aa22	ca8d	c.beqz	x13,8000aa54	 x13:0x00000000
      488562000	     24326	8000aa54	1ffd	c.addi	x31,-1	 x31:0x00000001 x31=0x00000000
      488582000	     24327	8000aa56	ec89	c.bnez	x9,8000aa70	  x9:0x00361296
      488782000	     24337	8000aa70	40fc89b3	sub	x19,x25,x15	 x25:0x00000000 x15:0x00000000 x19=0x00000000
      488822000	     24339	8000aa74	402b5913	srai	x18,x22,0x2	 x22:0x00000001 x18=0x00000000
      488862000	     24341	8000aa78	034f73b3	remu	x7,x30,x20	 x30:0xffffffff x20:0x00000000  x7=0xffffffff
      488962000	     24346	8000aa7c	327cfd73	csrrci	x26,mhpmevent7,25	 x26=0x00000010
      489022000	     24349	8000aa80	3c033613	sltiu	x12,x6,960	  x6:0xe877ac1d x12=0x00000000
      489042000	     24350	8000aa84	41ac8a33	sub	x20,x25,x26	 x25:0x00000000 x26:0x00000010 x20=0xfffffff0
      489122000	     24354	8000aa88	f15ea3f3	csrrs	x0,0xf15,x0	  x0:0x00000000  x0=0x00000000
      489642000	     24380	80002700	0800006f	jal	x0,80002780	  x0=0x00000000
      489882000	     24392	80002780	12f1	c.addi	x5,-4	  x5:0x80025ce4  x5=0x80025ce0
      490342000	     24415	80002782	0172a023	sw	x23,0(x5)	  x5:0x80025ce0 x23:0x80021df8 PA:0x80025ce0 store:0x80021df8 load:0xffffffff
      490362000	     24416	80002786	00028bb3	add	x23,x5,x0	  x5:0x80025ce0  x0:0x00000000 x23=0x80025ce0
      490382000	     24417	8000278a	f80b8b93	addi	x23,x23,-128	 x23:0x80025ce0 x23=0x80025c60
      490442000	     24420	8000278e	001ba223	sw	x1,4(x23)	 x23:0x80025c60  x1:0x00000000 PA:0x80025c64 store:0x00000000 load:0xffffffff
      490862000	     24441	80002792	002ba423	sw	x2,8(x23)	 x23:0x80025c60  x2:0xfffffcc2 PA:0x80025c68 store:0xfffffcc2 load:0xffffffff
      491322000	     24464	80002796	003ba623	sw	x3,12(x23)	 x23:0x80025c60  x3:0x1966b000 PA:0x80025c6c store:0x1966b000 load:0xffffffff
      491462000	     24471	8000279a	004ba823	sw	x4,16(x23)	 x23:0x80025c60  x4:0x00000000 PA:0x80025c70 store:0x00000000 load:0xffffffff
      491782000	     24487	8000279e	005baa23	sw	x5,20(x23)	 x23:0x80025c60  x5:0x80025ce0 PA:0x80025c74 store:0x80025ce0 load:0xffffffff
      492182000	     24507	800027a2	006bac23	sw	x6,24(x23)	 x23:0x80025c60  x6:0xe877ac1d PA:0x80025c78 store:0xe877ac1d load:0xffffffff
      492242000	     24510	800027a6	007bae23	sw	x7,28(x23)	 x23:0x80025c60  x7:0xffffffff PA:0x80025c7c store:0xffffffff load:0xffffffff
      492542000	     24525	800027aa	028ba023	sw	x8,32(x23)	 x23:0x80025c60  x8:0x0000025e PA:0x80025c80 store:0x0000025e load:0xffffffff
      492802000	     24538	800027ae	029ba223	sw	x9,36(x23)	 x23:0x80025c60  x9:0x00361296 PA:0x80025c84 store:0x00361296 load:0xffffffff
      492822000	     24539	800027b2	02aba423	sw	x10,40(x23)	 x23:0x80025c60 x10:0x3e75c936 PA:0x80025c88 store:0x3e75c936 load:0xffffffff
      493062000	     24551	800027b6	02bba623	sw	x11,44(x23)	 x23:0x80025c60 x11:0x00000000 PA:0x80025c8c store:0x00000000 load:0xffffffff
      493442000	     24570	800027ba	02cba823	sw	x12,48(x23)	 x23:0x80025c60 x12:0x00000000 PA:0x80025c90 store:0x00000000 load:0xffffffff
      493502000	     24573	800027be	02dbaa23	sw	x13,52(x23)	 x23:0x80025c60 x13:0x00000000 PA:0x80025c94 store:0x00000000 load:0xffffffff
      493602000	     24578	800027c2	02ebac23	sw	x14,56(x23)	 x23:0x80025c60 x14:0x00000000 PA:0x80025c98 store:0x00000000 load:0xffffffff
      493722000	     24584	800027c6	02fbae23	sw	x15,60(x23)	 x23:0x80025c60 x15:0x00000000 PA:0x80025c9c store:0x00000000 load:0xffffffff
      493922000	     24594	800027ca	050ba023	sw	x16,64(x23)	 x23:0x80025c60 x16:0x00000004 PA:0x80025ca0 store:0x00000004 load:0xffffffff
      494342000	     24615	800027ce	051ba223	sw	x17,68(x23)	 x23:0x80025c60 x17:0x00000004 PA:0x80025ca4 store:0x00000004 load:0xffffffff
      494802000	     24638	800027d2	052ba423	sw	x18,72(x23)	 x23:0x80025c60 x18:0x00000000 PA:0x80025ca8 store:0x00000000 load:0xffffffff
      494862000	     24641	800027d6	053ba623	sw	x19,76(x23)	 x23:0x80025c60 x19:0x00000000 PA:0x80025cac store:0x00000000 load:0xffffffff
      494882000	     24642	800027da	054ba823	sw	x20,80(x23)	 x23:0x80025c60 x20:0xfffffff0 PA:0x80025cb0 store:0xfffffff0 load:0xffffffff
      494902000	     24643	800027de	055baa23	sw	x21,84(x23)	 x23:0x80025c60 x21:0x1966b0ec PA:0x80025cb4 store:0x1966b0ec load:0xffffffff
      495082000	     24652	800027e2	056bac23	sw	x22,88(x23)	 x23:0x80025c60 x22:0x00000001 PA:0x80025cb8 store:0x00000001 load:0xffffffff
      495422000	     24669	800027e6	057bae23	sw	x23,92(x23)	 x23:0x80025c60 x23:0x80025c60 PA:0x80025cbc store:0x80025c60 load:0xffffffff
      495822000	     24689	800027ea	078ba023	sw	x24,96(x23)	 x23:0x80025c60 x24:0x00000010 PA:0x80025cc0 store:0x00000010 load:0xffffffff
      495882000	     24692	800027ee	079ba223	sw	x25,100(x23)	 x23:0x80025c60 x25:0x00000000 PA:0x80025cc4 store:0x00000000 load:0xffffffff
      496102000	     24703	800027f2	07aba423	sw	x26,104(x23)	 x23:0x80025c60 x26:0x00000010 PA:0x80025cc8 store:0x00000010 load:0xffffffff
      496142000	     24705	800027f6	07bba623	sw	x27,108(x23)	 x23:0x80025c60 x27:0x80002701 PA:0x80025ccc store:0x80002701 load:0xffffffff
      496522000	     24724	800027fa	07cba823	sw	x28,112(x23)	 x23:0x80025c60 x28:0x00000000 PA:0x80025cd0 store:0x00000000 load:0xffffffff
      496602000	     24728	800027fe	07dbaa23	sw	x29,116(x23)	 x23:0x80025c60 x29:0x00000000 PA:0x80025cd4 store:0x00000000 load:0xffffffff
      496782000	     24737	80002802	07ebac23	sw	x30,120(x23)	 x23:0x80025c60 x30:0xffffffff PA:0x80025cd8 store:0xffffffff load:0xffffffff
      497002000	     24748	80002806	07fbae23	sw	x31,124(x23)	 x23:0x80025c60 x31:0x00000000 PA:0x80025cdc store:0x00000000 load:0xffffffff
      497022000	     24749	8000280a	000b82b3	add	x5,x23,x0	 x23:0x80025c60  x0:0x00000000  x5=0x80025c60
      497042000	     24750	8000280e	90000c37	lui	x24,0x90000	 x24=0x90000000
      497062000	     24751	80002812	1c71	c.addi	x24,-4	 x24:0x90000000 x24=0x8ffffffc
      497082000	     24752	80002814	4f21	c.li	x30,8	 x30=0x00000008
      497102000	     24753	80002816	0f22	c.slli	x30,0x8	 x30:0x00000008 x30=0x00000800
      497122000	     24754	80002818	000f0f13	addi	x30,x30,0	 x30:0x00000800 x30=0x00000800
      497582000	     24777	8000281c	01ec2023	sw	x30,0(x24)	 x24:0x8ffffffc x30:0x00000800 PA:0x8ffffffc store:0x00000800 load:0xffffffff
      497602000	     24778	80002820	34102f73	csrrs	x30,mepc,x0	  x0:0x00000000 x30=0x8000aa88
      497622000	     24779	80002824	34202f73	csrrs	x30,mcause,x0	  x0:0x00000000 x30=0x00000002
      497642000	     24780	80002828	4c0d	c.li	x24,3	 x24=0x00000003
      497662000	     24781	8000282a	018f1463	bne	x30,x24,80002832	 x30:0x00000002 x24:0x00000003
      498042000	     24800	80002832	4c21	c.li	x24,8	 x24=0x00000008
      498062000	     24801	80002834	058f0d63	beq	x30,x24,8000288e	 x30:0x00000002 x24:0x00000008
      498082000	     24802	80002838	4c25	c.li	x24,9	 x24=0x00000009
      498102000	     24803	8000283a	058f0a63	beq	x30,x24,8000288e	 x30:0x00000002 x24:0x00000009
      498122000	     24804	8000283e	4c2d	c.li	x24,11	 x24=0x0000000b
      498142000	     24805	80002840	058f0763	beq	x30,x24,8000288e	 x30:0x00000002 x24:0x0000000b
      498222000	     24809	80002844	4c05	c.li	x24,1	 x24=0x00000001
      498322000	     24814	80002846	358f0363	beq	x30,x24,80002b8c	 x30:0x00000002 x24:0x00000001
      498342000	     24815	8000284a	4c15	c.li	x24,5	 x24=0x00000005
      498382000	     24817	8000284c	638f0a63	beq	x30,x24,80002e80	 x30:0x00000002 x24:0x00000005
      498502000	     24823	80002850	4c1d	c.li	x24,7	 x24=0x00000007
      498522000	     24824	80002852	158f0ce3	beq	x30,x24,800031aa	 x30:0x00000002 x24:0x00000007
      498542000	     24825	80002856	4c31	c.li	x24,12	 x24=0x0000000c
      498562000	     24826	80002858	018f1463	bne	x30,x24,80002860	 x30:0x00000002 x24:0x0000000c
      499042000	     24850	80002860	4c35	c.li	x24,13	 x24=0x0000000d
      499242000	     24860	80002862	018f1463	bne	x30,x24,8000286a	 x30:0x00000002 x24:0x0000000d
      499842000	     24890	8000286a	4c3d	c.li	x24,15	 x24=0x0000000f
      499862000	     24891	8000286c	018f1463	bne	x30,x24,80002874	 x30:0x00000002 x24:0x0000000f
      500702000	     24933	80002874	4c09	c.li	x24,2	 x24=0x00000002
      500722000	     24934	80002876	018f1463	bne	x30,x24,8000287e	 x30:0x00000002 x24:0x00000002
      500782000	     24937	8000287a	3740906f	jal	x0,8000bbee	  x0=0x00000000
      501742000	     24985	8000bbee	90000c37	lui	x24,0x90000	 x24=0x90000000
      501762000	     24986	8000bbf2	1c71	c.addi	x24,-4	 x24:0x90000000 x24=0x8ffffffc
      501782000	     24987	8000bbf4	4f29	c.li	x30,10	 x30=0x0000000a
      501802000	     24988	8000bbf6	0f22	c.slli	x30,0x8	 x30:0x0000000a x30=0x00000a00
      501822000	     24989	8000bbf8	000f0f13	addi	x30,x30,0	 x30:0x00000a00 x30=0x00000a00
      502082000	     25002	8000bbfc	01ec2023	sw	x30,0(x24)	 x24:0x8ffffffc x30:0x00000a00 PA:0x8ffffffc store:0x00000a00 load:0xffffffff
      502222000	     25009	8000bc00	90000c37	lui	x24,0x90000	 x24=0x90000000
      502242000	     25010	8000bc04	1c71	c.addi	x24,-4	 x24:0x90000000 x24=0x8ffffffc
      502262000	     25011	8000bc06	34200f13	addi	x30,x0,834	  x0:0x00000000 x30=0x00000342
      502282000	     25012	8000bc0a	0f22	c.slli	x30,0x8	 x30:0x00000342 x30=0x00034200
      502302000	     25013	8000bc0c	0f0d	c.addi	x30,3	 x30:0x00034200 x30=0x00034203
      502502000	     25023	8000bc0e	01ec2023	sw	x30,0(x24)	 x24:0x8ffffffc x30:0x00034203 PA:0x8ffffffc store:0x00034203 load:0xffffffff
      502522000	     25024	8000bc12	34202f73	csrrs	x30,mcause,x0	  x0:0x00000000 x30=0x00000002
      502782000	     25037	8000bc16	01ec2023	sw	x30,0(x24)	 x24:0x8ffffffc x30:0x00000002 PA:0x8ffffffc store:0x00000002 load:0xffffffff
      502802000	     25038	8000bc1a	34102f73	csrrs	x30,mepc,x0	  x0:0x00000000 x30=0x8000aa88
      502822000	     25039	8000bc1e	0f11	c.addi	x30,4	 x30:0x8000aa88 x30=0x8000aa8c
      502842000	     25040	8000bc20	341f1073	csrrw	x0,mepc,x30	 x30:0x8000aa8c  x0=0x00000000
      502862000	     25041	8000bc24	00028bb3	add	x23,x5,x0	  x5:0x80025c60  x0:0x00000000 x23=0x80025c60
      503302000	     25063	8000bc28	004ba083	lw	x1,4(x23)	 x23:0x80025c60  x1=0x00000000 PA:0x80025c64 load:0x00000000
      503422000	     25069	8000bc2c	008ba103	lw	x2,8(x23)	 x23:0x80025c60  x2=0xfffffcc2 PA:0x80025c68 load:0xfffffcc2
      503582000	     25077	8000bc30	00cba183	lw	x3,12(x23)	 x23:0x80025c60  x3=0x1966b000 PA:0x80025c6c load:0x1966b000
      504182000	     25107	8000bc34	010ba203	lw	x4,16(x23)	 x23:0x80025c60  x4=0x00000000 PA:0x80025c70 load:0x00000000
      504342000	     25115	8000bc38	014ba283	lw	x5,20(x23)	 x23:0x80025c60  x5=0x80025ce0 PA:0x80025c74 load:0x80025ce0
      504462000	     25121	8000bc3c	018ba303	lw	x6,24(x23)	 x23:0x80025c60  x6=0xe877ac1d PA:0x80025c78 load:0xe877ac1d
      504522000	     25124	8000bc40	01cba383	lw	x7,28(x23)	 x23:0x80025c60  x7=0xffffffff PA:0x80025c7c load:0xffffffff
      504582000	     25127	8000bc44	020ba403	lw	x8,32(x23)	 x23:0x80025c60  x8=0x0000025e PA:0x80025c80 load:0x0000025e
      504682000	     25132	8000bc48	024ba483	lw	x9,36(x23)	 x23:0x80025c60  x9=0x00361296 PA:0x80025c84 load:0x00361296
      504882000	     25142	8000bc4c	028ba503	lw	x10,40(x23)	 x23:0x80025c60 x10=0x3e75c936 PA:0x80025c88 load:0x3e75c936
      505142000	     25155	8000bc50	02cba583	lw	x11,44(x23)	 x23:0x80025c60 x11=0x00000000 PA:0x80025c8c load:0x00000000
      505602000	     25178	8000bc54	030ba603	lw	x12,48(x23)	 x23:0x80025c60 x12=0x00000000 PA:0x80025c90 load:0x00000000
      505662000	     25181	8000bc58	034ba683	lw	x13,52(x23)	 x23:0x80025c60 x13=0x00000000 PA:0x80025c94 load:0x00000000
      505982000	     25197	8000bc5c	038ba703	lw	x14,56(x23)	 x23:0x80025c60 x14=0x00000000 PA:0x80025c98 load:0x00000000
      506522000	     25224	8000bc60	03cba783	lw	x15,60(x23)	 x23:0x80025c60 x15=0x00000000 PA:0x80025c9c load:0x00000000
      506782000	     25237	8000bc64	040ba803	lw	x16,64(x23)	 x23:0x80025c60 x16=0x00000004 PA:0x80025ca0 load:0x00000004
      506962000	     25246	8000bc68	044ba883	lw	x17,68(x23)	 x23:0x80025c60 x17=0x00000004 PA:0x80025ca4 load:0x00000004
      507002000	     25248	8000bc6c	048ba903	lw	x18,72(x23)	 x23:0x80025c60 x18=0x00000000 PA:0x80025ca8 load:0x00000000
      507162000	     25256	8000bc70	04cba983	lw	x19,76(x23)	 x23:0x80025c60 x19=0x00000000 PA:0x80025cac load:0x00000000
      507222000	     25259	8000bc74	050baa03	lw	x20,80(x23)	 x23:0x80025c60 x20=0xfffffff0 PA:0x80025cb0 load:0xfffffff0
      507422000	     25269	8000bc78	054baa83	lw	x21,84(x23)	 x23:0x80025c60 x21=0x1966b0ec PA:0x80025cb4 load:0x1966b0ec
      507482000	     25272	8000bc7c	058bab03	lw	x22,88(x23)	 x23:0x80025c60 x22=0x00000001 PA:0x80025cb8 load:0x00000001
      507702000	     25283	8000bc80	05cbab83	lw	x23,92(x23)	 x23:0x80025c60 x23=0x80025c60 PA:0x80025cbc load:0x80025c60
      507742000	     25285	8000bc84	060bac03	lw	x24,96(x23)	 x23:0x80025c60 x24=0x00000010 PA:0x80025cc0 load:0x00000010
      508022000	     25299	8000bc88	064bac83	lw	x25,100(x23)	 x23:0x80025c60 x25=0x00000000 PA:0x80025cc4 load:0x00000000
      508222000	     25309	8000bc8c	068bad03	lw	x26,104(x23)	 x23:0x80025c60 x26=0x00000010 PA:0x80025cc8 load:0x00000010
      508282000	     25312	8000bc90	06cbad83	lw	x27,108(x23)	 x23:0x80025c60 x27=0x80002701 PA:0x80025ccc load:0x80002701
      508302000	     25313	8000bc94	070bae03	lw	x28,112(x23)	 x23:0x80025c60 x28=0x00000000 PA:0x80025cd0 load:0x00000000
      508322000	     25314	8000bc98	074bae83	lw	x29,116(x23)	 x23:0x80025c60 x29=0x00000000 PA:0x80025cd4 load:0x00000000
      508682000	     25332	8000bc9c	078baf03	lw	x30,120(x23)	 x23:0x80025c60 x30=0xffffffff PA:0x80025cd8 load:0xffffffff
      508702000	     25333	8000bca0	07cbaf83	lw	x31,124(x23)	 x23:0x80025c60 x31=0x00000000 PA:0x80025cdc load:0x00000000
      508722000	     25334	8000bca4	080b8b93	addi	x23,x23,128	 x23:0x80025c60 x23=0x80025ce0
      508742000	     25335	8000bca8	000b82b3	add	x5,x23,x0	 x23:0x80025ce0  x0:0x00000000  x5=0x80025ce0
      509322000	     25364	8000bcac	0002ab83	lw	x23,0(x5)	  x5:0x80025ce0 x23=0x80021df8 PA:0x80025ce0 load:0x80021df8
      509342000	     25365	8000bcb0	0291	c.addi	x5,4	  x5:0x80025ce0  x5=0x80025ce4
      509362000	     25366	8000bcb2	30200073	mret	
      509862000	     25391	8000aa8c	00facab3	xor	x21,x21,x15	 x21:0x1966b0ec x15:0x00000000 x21=0x1966b0ec
      510042000	     25400	8000aa90	0001	c.addi	x0,0	  x0:0x00000000  x0=0x00000000
      510162000	     25406	8000aa92	32961373	csrrw	x6,mhpmevent9,x12	 x12:0x00000000  x6=0x00000040
      510262000	     25411	8000aa96	406c89b3	sub	x19,x25,x6	 x25:0x00000000  x6:0x00000040 x19=0xffffffc0
      510282000	     25412	8000aa9a	1680	c.addi4spn	x8,x2,864	  x8=0x00000022
      510602000	     25428	8000aa9c	03f55733	divu	x14,x10,x31	 x10:0x3e75c936 x31:0x00000000 x14=0xffffffff
      511002000	     25448	8000aaa0	8096	c.mv	x1,x5	  x0:0x00000000  x5:0x80025ce4  x1=0x80025ce4
      511022000	     25449	8000aaa2	00137fb3	and	x31,x6,x1	  x6:0x00000040  x1:0x80025ce4 x31=0x00000040
      511042000	     25450	8000aaa6	9cae	c.add	x25,x11	 x25:0x00000000 x11:0x00000000 x25=0x00000000
      511062000	     25451	8000aaa8	01fe4ab3	xor	x21,x28,x31	 x28:0x00000000 x31:0x00000040 x21=0x00000040
      511082000	     25452	8000aaac	8dad	c.xor	x11,x11	 x11:0x00000000 x11:0x00000000 x11=0x00000000
      511522000	     25474	8000aaae	03b021b3	mulhsu	x3,x0,x27	  x0:0x00000000 x27:0x80002701  x3=0x00000000
      511542000	     25475	8000aab2	41a3d213	srai	x4,x7,0x1a	  x7:0xffffffff  x4=0xffffffff
      511662000	     25481	8000aab6	0033af33	slt	x30,x7,x3	  x7:0xffffffff  x3:0x00000000 x30=0x00000001
      511682000	     25482	8000aaba	717d	c.addi16sp	x2,-16	  x2:0xfffffcc2  x2=0xfffffcb2
      511882000	     25492	8000aabc	8b5d	c.andi	x14,23	 x14:0xffffffff x14=0x00000017
      511942000	     25495	8000aabe	a23db0b7	lui	x1,0xa23db	  x1=0xa23db000
      512102000	     25503	8000aac2	02922933	mulhsu	x18,x4,x9	  x4:0xffffffff  x9:0x00361296 x18=0xffffffff
      512122000	     25504	8000aac6	178c	c.addi4spn	x11,x2,992	 x11=0x00000092
      512142000	     25505	8000aac8	65c42a13	slti	x20,x8,1628	  x8:0x00000022 x20=0x00000001
      512242000	     25510	8000aacc	00e1d313	srli	x6,x3,0xe	  x3:0x00000000  x6=0x00000000
      512602000	     25528	8000aad0	508d8417	auipc	x8,0x508d8	  x8=0xd08e2ad0
      512942000	     25545	8000aad4	b8c06e73	csrrsi	x28,mhpmcounter12h,0	 x28=0x00000000
      513362000	     25566	8000aad8	014a8663	beq	x21,x20,8000aae4	 x21:0x00000040 x20:0x00000001
      514422000	     25619	8000aadc	0293fa33	remu	x20,x7,x9	  x7:0xffffffff  x9:0x00361296 x20=0x000001d7
      514442000	     25620	8000aae0	01148b63	beq	x9,x17,8000aaf6	  x9:0x00361296 x17:0x00000004
      514462000	     25621	8000aae4	a3515fb7	lui	x31,0xa3515	 x31=0xa3515000
      514482000	     25622	8000aae8	04368613	addi	x12,x13,67	 x13:0x00000000 x12=0x00000043
      514502000	     25623	8000aaec	0000100f	fence.i	
      514982000	     25647	8000aaf0	8e79	c.and	x12,x14	 x12:0x00000043 x14:0x00000017 x12=0x00000003
      515002000	     25648	8000aaf2	8759	c.srai	x14,0x16	 x14:0x00000017 x14=0x00000000
      515362000	     25666	8000aaf4	0e21	c.addi	x28,8	 x28:0x00000000 x28=0x00000008
      515482000	     25672	8000aaf6	7c0363f3	csrrsi	x7,0x7c0,6	  x7=0x00000100
      522842000	     26040	8000aafa	82f9	c.srli	x13,0x1e	 x13:0x00000000 x13=0x00000000
      522862000	     26041	8000aafc	97947d37	lui	x26,0x97947	 x26=0x97947000
      522882000	     26042	8000ab00	a5110117	auipc	x2,0xa5110	  x2=0x2511ab00
      522982000	     26047	8000ab04	04840063	beq	x8,x8,8000ab44	  x8:0xd08e2ad0  x8:0xd08e2ad0
      523522000	     26074	8000ab44	8c65	c.and	x8,x9	  x8:0xd08e2ad0  x9:0x00361296  x8=0x00060290
      523562000	     26076	8000ab46	81ed	c.srli	x11,0x1b	 x11:0x00000092 x11=0x00000000
      523582000	     26077	8000ab48	0e00	c.addi4spn	x8,x2,784	  x8=0x2511ae10
      523602000	     26078	8000ab4a	405c0633	sub	x12,x24,x5	 x24:0x00000010  x5:0x80025ce4 x12=0x7ffda32c
      523982000	     26097	8000ab4e	04835917	auipc	x18,0x4835	 x18=0x8483fb4e
      524002000	     26098	8000ab52	3a0060f3	csrrsi	x1,pmpcfg0,0	  x1=0x0f0f0f0f
      524022000	     26099	8000ab56	012e6733	or	x14,x28,x18	 x28:0x00000008 x18:0x8483fb4e x14=0x8483fb4e
      524142000	     26105	8000ab5a	414c0eb3	sub	x29,x24,x20	 x24:0x00000010 x20:0x000001d7 x29=0xfffffe39
      524162000	     26106	8000ab5e	03f786b3	mul	x13,x15,x31	 x15:0x00000000 x31:0xa3515000 x13=0x00000000
      524602000	     26128	8000ab62	00521563	bne	x4,x5,8000ab6c	  x4:0xffffffff  x5:0x80025ce4
      525122000	     26154	8000ab6c	9936	c.add	x18,x13	 x18:0x8483fb4e x13:0x00000000 x18=0x8483fb4e
      525142000	     26155	8000ab6e	b89e3673	csrrc	x12,mhpmcounter9h,x28	 x28:0x00000008 x12=0x00000000
      525202000	     26158	8000ab72	3251ed73	csrrsi	x26,mhpmevent5,3	 x26=0x00000004
      525282000	     26162	8000ab76	0d91	c.addi	x27,4	 x27:0x80002701 x27=0x80002705
      525322000	     26164	8000ab78	01040263	beq	x8,x16,8000ab7c	  x8:0x2511ae10 x16:0x00000004
      525722000	     26184	8000ab7c	017554b3	srl	x9,x10,x23	 x10:0x3e75c936 x23:0x80021df8  x9=0x0000003e
      525742000	     26185	8000ab80	3ba02273	csrrs	x4,pmpaddr10,x0	  x0:0x00000000  x4=0x0aaab7d9
      526102000	     26203	8000ab84	414b8033	sub	x0,x23,x20	 x23:0x80021df8 x20:0x000001d7  x0=0x00000000
      526262000	     26211	8000ab88	53f92613	slti	x12,x18,1343	 x18:0x8483fb4e x12=0x00000001
      526602000	     26228	8000ab8c	927a	c.add	x4,x30	  x4:0x0aaab7d9 x30:0x00000001  x4=0x0aaab7da
      527382000	     26267	8000ab8e	01e90763	beq	x18,x30,8000ab9c	 x18:0x8483fb4e x30:0x00000001
      528082000	     26302	8000ab92	00a78d33	add	x26,x15,x10	 x15:0x00000000 x10:0x3e75c936 x26=0x3e75c936
      528102000	     26303	8000ab96	86bd	c.srai	x13,0xf	 x13:0x00000000 x13=0x00000000
      528122000	     26304	8000ab98	38e91e97	auipc	x29,0x38e91	 x29=0xb8e9bb98
      528162000	     26306	8000ab9c	0001	c.addi	x0,0	  x0:0x00000000  x0=0x00000000
      528182000	     26307	8000ab9e	32aa34f3	csrrc	x9,mhpmevent10,x20	 x20:0x000001d7  x9=0x00000080
      529002000	     26348	8000aba2	032e3a33	mulhu	x20,x28,x18	 x28:0x00000008 x18:0x8483fb4e x20=0x00000004
      529042000	     26350	8000aba6	8f45	c.or	x14,x9	 x14:0x8483fb4e  x9:0x00000080 x14=0x8483fbce
      529062000	     26351	8000aba8	010935b3	sltu	x11,x18,x16	 x18:0x8483fb4e x16:0x00000004 x11=0x00000000
      529082000	     26352	8000abac	8b4d	c.andi	x14,19	 x14:0x8483fbce x14=0x00000002
      529122000	     26354	8000abae	00e71693	slli	x13,x14,0xe	 x14:0x00000002 x13=0x00008000
      529142000	     26355	8000abb2	9926	c.add	x18,x9	 x18:0x8483fb4e  x9:0x00000080 x18=0x8483fbce
      529182000	     26357	8000abb4	951e	c.add	x10,x7	 x10:0x3e75c936  x7:0x00000100 x10=0x3e75ca36
      529942000	     26395	8000abb6	8c39	c.xor	x8,x14	  x8:0x2511ae10 x14:0x00000002  x8=0x2511ae12
      529982000	     26397	8000abb8	00197e63	bgeu	x18,x1,8000abd4	 x18:0x8483fbce  x1:0x0f0f0f0f
      530322000	     26414	8000abd4	00ce	c.slli	x1,0x13	  x1:0x0f0f0f0f  x1=0x78780000
      531082000	     26452	8000abd6	3423d6f3	csrrwi	x13,mcause,7	 x13=0x00000002
      531142000	     26455	8000abda	02a48cb3	mul	x25,x9,x10	  x9:0x00000080 x10:0x3e75ca36 x25=0x3ae51b00
      531182000	     26457	8000abde	9dade193	ori	x3,x27,-1574	 x27:0x80002705  x3=0xffffffdf
      531202000	     26458	8000abe2	0145fcb3	and	x25,x11,x20	 x11:0x00000000 x20:0x00000004 x25=0x00000000
      531942000	     26495	8000abe6	0334dcb3	divu	x25,x9,x19	  x9:0x00000080 x19:0xffffffc0 x25=0x00000000
      531982000	     26497	8000abea	7b307b73	csrrci	x0,0x7b3,0	  x0=0x00000000
      532242000	     26510	80002700	0800006f	jal	x0,80002780	  x0=0x00000000
      532482000	     26522	80002780	12f1	c.addi	x5,-4	  x5:0x80025ce4  x5=0x80025ce0
      532882000	     26542	80002782	0172a023	sw	x23,0(x5)	  x5:0x80025ce0 x23:0x80021df8 PA:0x80025ce0 store:0x80021df8 load:0xffffffff
      533662000	     26581	80002786	00028bb3	add	x23,x5,x0	  x5:0x80025ce0  x0:0x00000000 x23=0x80025ce0
      534422000	     26619	8000278a	f80b8b93	addi	x23,x23,-128	 x23:0x80025ce0 x23=0x80025c60
      534482000	     26622	8000278e	001ba223	sw	x1,4(x23)	 x23:0x80025c60  x1:0x78780000 PA:0x80025c64 store:0x78780000 load:0xffffffff
      534602000	     26628	80002792	002ba423	sw	x2,8(x23)	 x23:0x80025c60  x2:0x2511ab00 PA:0x80025c68 store:0x2511ab00 load:0xffffffff
      535022000	     26649	80002796	003ba623	sw	x3,12(x23)	 x23:0x80025c60  x3:0xffffffdf PA:0x80025c6c store:0xffffffdf load:0xffffffff
      535302000	     26663	8000279a	004ba823	sw	x4,16(x23)	 x23:0x80025c60  x4:0x0aaab7da PA:0x80025c70 store:0x0aaab7da load:0xffffffff
      535422000	     26669	8000279e	005baa23	sw	x5,20(x23)	 x23:0x80025c60  x5:0x80025ce0 PA:0x80025c74 store:0x80025ce0 load:0xffffffff
      535482000	     26672	800027a2	006bac23	sw	x6,24(x23)	 x23:0x80025c60  x6:0x00000000 PA:0x80025c78 store:0x00000000 load:0xffffffff
      536422000	     26719	800027a6	007bae23	sw	x7,28(x23)	 x23:0x80025c60  x7:0x00000100 PA:0x80025c7c store:0x00000100 load:0xffffffff
      536482000	     26722	800027aa	028ba023	sw	x8,32(x23)	 x23:0x80025c60  x8:0x2511ae12 PA:0x80025c80 store:0x2511ae12 load:0xffffffff
      536522000	     26724	800027ae	029ba223	sw	x9,36(x23)	 x23:0x80025c60  x9:0x00000080 PA:0x80025c84 store:0x00000080 load:0xffffffff
      536562000	     26726	800027b2	02aba423	sw	x10,40(x23)	 x23:0x80025c60 x10:0x3e75ca36 PA:0x80025c88 store:0x3e75ca36 load:0xffffffff
      536642000	     26730	800027b6	02bba623	sw	x11,44(x23)	 x23:0x80025c60 x11:0x00000000 PA:0x80025c8c store:0x00000000 load:0xffffffff
      537842000	     26790	800027ba	02cba823	sw	x12,48(x23)	 x23:0x80025c60 x12:0x00000001 PA:0x80025c90 store:0x00000001 load:0xffffffff
      539602000	     26878	800027be	02dbaa23	sw	x13,52(x23)	 x23:0x80025c60 x13:0x00000002 PA:0x80025c94 store:0x00000002 load:0xffffffff
      539742000	     26885	800027c2	02ebac23	sw	x14,56(x23)	 x23:0x80025c60 x14:0x00000002 PA:0x80025c98 store:0x00000002 load:0xffffffff
      540082000	     26902	800027c6	02fbae23	sw	x15,60(x23)	 x23:0x80025c60 x15:0x00000000 PA:0x80025c9c store:0x00000000 load:0xffffffff
      540162000	     26906	800027ca	050ba023	sw	x16,64(x23)	 x23:0x80025c60 x16:0x00000004 PA:0x80025ca0 store:0x00000004 load:0xffffffff
      540562000	     26926	800027ce	051ba223	sw	x17,68(x23)	 x23:0x80025c60 x17:0x00000004 PA:0x80025ca4 store:0x00000004 load:0xffffffff
      541922000	     26994	800027d2	052ba423	sw	x18,72(x23)	 x23:0x80025c60 x18:0x8483fbce PA:0x80025ca8 store:0x8483fbce load:0xffffffff
      542042000	     27000	800027d6	053ba623	sw	x19,76(x23)	 x23:0x80025c60 x19:0xffffffc0 PA:0x80025cac store:0xffffffc0 load:0xffffffff
      542442000	     27020	800027da	054ba823	sw	x20,80(x23)	 x23:0x80025c60 x20:0x00000004 PA:0x80025cb0 store:0x00000004 load:0xffffffff
      542462000	     27021	800027de	055baa23	sw	x21,84(x23)	 x23:0x80025c60 x21:0x00000040 PA:0x80025cb4 store:0x00000040 load:0xffffffff
      542502000	     27023	800027e2	056bac23	sw	x22,88(x23)	 x23:0x80025c60 x22:0x00000001 PA:0x80025cb8 store:0x00000001 load:0xffffffff
      542822000	     27039	800027e6	057bae23	sw	x23,92(x23)	 x23:0x80025c60 x23:0x80025c60 PA:0x80025cbc store:0x80025c60 load:0xffffffff
      543082000	     27052	800027ea	078ba023	sw	x24,96(x23)	 x23:0x80025c60 x24:0x00000010 PA:0x80025cc0 store:0x00000010 load:0xffffffff
      543142000	     27055	800027ee	079ba223	sw	x25,100(x23)	 x23:0x80025c60 x25:0x00000000 PA:0x80025cc4 store:0x00000000 load:0xffffffff
      543162000	     27056	800027f2	07aba423	sw	x26,104(x23)	 x23:0x80025c60 x26:0x3e75c936 PA:0x80025cc8 store:0x3e75c936 load:0xffffffff
      544162000	     27106	800027f6	07bba623	sw	x27,108(x23)	 x23:0x80025c60 x27:0x80002705 PA:0x80025ccc store:0x80002705 load:0xffffffff
      544562000	     27126	800027fa	07cba823	sw	x28,112(x23)	 x23:0x80025c60 x28:0x00000008 PA:0x80025cd0 store:0x00000008 load:0xffffffff
      544942000	     27145	800027fe	07dbaa23	sw	x29,116(x23)	 x23:0x80025c60 x29:0xb8e9bb98 PA:0x80025cd4 store:0xb8e9bb98 load:0xffffffff
      545422000	     27169	80002802	07ebac23	sw	x30,120(x23)	 x23:0x80025c60 x30:0x00000001 PA:0x80025cd8 store:0x00000001 load:0xffffffff
      545482000	     27172	80002806	07fbae23	sw	x31,124(x23)	 x23:0x80025c60 x31:0xa3515000 PA:0x80025cdc store:0xa3515000 load:0xffffffff
      546242000	     27210	8000280a	000b82b3	add	x5,x23,x0	 x23:0x80025c60  x0:0x00000000  x5=0x80025c60
      546262000	     27211	8000280e	90000c37	lui	x24,0x90000	 x24=0x90000000
      546282000	     27212	80002812	1c71	c.addi	x24,-4	 x24:0x90000000 x24=0x8ffffffc
      546322000	     27214	80002814	4f21	c.li	x30,8	 x30=0x00000008
      547122000	     27254	80002816	0f22	c.slli	x30,0x8	 x30:0x00000008 x30=0x00000800
      547162000	     27256	80002818	000f0f13	addi	x30,x30,0	 x30:0x00000800 x30=0x00000800
      547242000	     27260	8000281c	01ec2023	sw	x30,0(x24)	 x24:0x8ffffffc x30:0x00000800 PA:0x8ffffffc store:0x00000800 load:0xffffffff
      547262000	     27261	80002820	34102f73	csrrs	x30,mepc,x0	  x0:0x00000000 x30=0x8000abea
      547302000	     27263	80002824	34202f73	csrrs	x30,mcause,x0	  x0:0x00000000 x30=0x00000002
      547322000	     27264	80002828	4c0d	c.li	x24,3	 x24=0x00000003
      547362000	     27266	8000282a	018f1463	bne	x30,x24,80002832	 x30:0x00000002 x24:0x00000003
      548162000	     27306	80002832	4c21	c.li	x24,8	 x24=0x00000008
      548202000	     27308	80002834	058f0d63	beq	x30,x24,8000288e	 x30:0x00000002 x24:0x00000008
      548542000	     27325	80002838	4c25	c.li	x24,9	 x24=0x00000009
      548602000	     27328	8000283a	058f0a63	beq	x30,x24,8000288e	 x30:0x00000002 x24:0x00000009
      548882000	     27342	8000283e	4c2d	c.li	x24,11	 x24=0x0000000b
      548922000	     27344	80002840	058f0763	beq	x30,x24,8000288e	 x30:0x00000002 x24:0x0000000b
      549582000	     27377	80002844	4c05	c.li	x24,1	 x24=0x00000001
      559682000	     27882	80002846	358f0363	beq	x30,x24,80002b8c	 x30:0x00000002 x24:0x00000001
      559902000	     27893	8000284a	4c15	c.li	x24,5	 x24=0x00000005
      559942000	     27895	8000284c	638f0a63	beq	x30,x24,80002e80	 x30:0x00000002 x24:0x00000005
      560822000	     27939	80002850	4c1d	c.li	x24,7	 x24=0x00000007
      561022000	     27949	80002852	158f0ce3	beq	x30,x24,800031aa	 x30:0x00000002 x24:0x00000007
      561562000	     27976	80002856	4c31	c.li	x24,12	 x24=0x0000000c
      561602000	     27978	80002858	018f1463	bne	x30,x24,80002860	 x30:0x00000002 x24:0x0000000c
      561862000	     27991	80002860	4c35	c.li	x24,13	 x24=0x0000000d
      562002000	     27998	80002862	018f1463	bne	x30,x24,8000286a	 x30:0x00000002 x24:0x0000000d
      563042000	     28050	8000286a	4c3d	c.li	x24,15	 x24=0x0000000f
      563102000	     28053	8000286c	018f1463	bne	x30,x24,80002874	 x30:0x00000002 x24:0x0000000f
      563282000	     28062	80002874	4c09	c.li	x24,2	 x24=0x00000002
      563542000	     28075	80002876	018f1463	bne	x30,x24,8000287e	 x30:0x00000002 x24:0x00000002
      564282000	     28112	8000287a	3740906f	jal	x0,8000bbee	  x0=0x00000000
      565182000	     28157	8000bbee	90000c37	lui	x24,0x90000	 x24=0x90000000
      565202000	     28158	8000bbf2	1c71	c.addi	x24,-4	 x24:0x90000000 x24=0x8ffffffc
      565282000	     28162	8000bbf4	4f29	c.li	x30,10	 x30=0x0000000a
      565302000	     28163	8000bbf6	0f22	c.slli	x30,0x8	 x30:0x0000000a x30=0x00000a00
      566102000	     28203	8000bbf8	000f0f13	addi	x30,x30,0	 x30:0x00000a00 x30=0x00000a00
      566162000	     28206	8000bbfc	01ec2023	sw	x30,0(x24)	 x24:0x8ffffffc x30:0x00000a00 PA:0x8ffffffc store:0x00000a00 load:0xffffffff
      566182000	     28207	8000bc00	90000c37	lui	x24,0x90000	 x24=0x90000000
      566222000	     28209	8000bc04	1c71	c.addi	x24,-4	 x24:0x90000000 x24=0x8ffffffc
      566242000	     28210	8000bc06	34200f13	addi	x30,x0,834	  x0:0x00000000 x30=0x00000342
      566282000	     28212	8000bc0a	0f22	c.slli	x30,0x8	 x30:0x00000342 x30=0x00034200
      566302000	     28213	8000bc0c	0f0d	c.addi	x30,3	 x30:0x00034200 x30=0x00034203
      566382000	     28217	8000bc0e	01ec2023	sw	x30,0(x24)	 x24:0x8ffffffc x30:0x00034203 PA:0x8ffffffc store:0x00034203 load:0xffffffff
      567182000	     28257	8000bc12	34202f73	csrrs	x30,mcause,x0	  x0:0x00000000 x30=0x00000002
      567242000	     28260	8000bc16	01ec2023	sw	x30,0(x24)	 x24:0x8ffffffc x30:0x00000002 PA:0x8ffffffc store:0x00000002 load:0xffffffff
      568002000	     28298	8000bc1a	34102f73	csrrs	x30,mepc,x0	  x0:0x00000000 x30=0x8000abea
      568762000	     28336	8000bc1e	0f11	c.addi	x30,4	 x30:0x8000abea x30=0x8000abee
      568782000	     28337	8000bc20	341f1073	csrrw	x0,mepc,x30	 x30:0x8000abee  x0=0x00000000
      568802000	     28338	8000bc24	00028bb3	add	x23,x5,x0	  x5:0x80025c60  x0:0x00000000 x23=0x80025c60
      568902000	     28343	8000bc28	004ba083	lw	x1,4(x23)	 x23:0x80025c60  x1=0x78780000 PA:0x80025c64 load:0x78780000
      568922000	     28344	8000bc2c	008ba103	lw	x2,8(x23)	 x23:0x80025c60  x2=0x2511ab00 PA:0x80025c68 load:0x2511ab00
      569102000	     28353	8000bc30	00cba183	lw	x3,12(x23)	 x23:0x80025c60  x3=0xffffffdf PA:0x80025c6c load:0xffffffdf
      569182000	     28357	8000bc34	010ba203	lw	x4,16(x23)	 x23:0x80025c60  x4=0x0aaab7da PA:0x80025c70 load:0x0aaab7da
      570082000	     28402	8000bc38	014ba283	lw	x5,20(x23)	 x23:0x80025c60  x5=0x80025ce0 PA:0x80025c74 load:0x80025ce0
      570262000	     28411	8000bc3c	018ba303	lw	x6,24(x23)	 x23:0x80025c60  x6=0x00000000 PA:0x80025c78 load:0x00000000
      570482000	     28422	8000bc40	01cba383	lw	x7,28(x23)	 x23:0x80025c60  x7=0x00000100 PA:0x80025c7c load:0x00000100
      570522000	     28424	8000bc44	020ba403	lw	x8,32(x23)	 x23:0x80025c60  x8=0x2511ae12 PA:0x80025c80 load:0x2511ae12
      570722000	     28434	8000bc48	024ba483	lw	x9,36(x23)	 x23:0x80025c60  x9=0x00000080 PA:0x80025c84 load:0x00000080
      570782000	     28437	8000bc4c	028ba503	lw	x10,40(x23)	 x23:0x80025c60 x10=0x3e75ca36 PA:0x80025c88 load:0x3e75ca36
      571422000	     28469	8000bc50	02cba583	lw	x11,44(x23)	 x23:0x80025c60 x11=0x00000000 PA:0x80025c8c load:0x00000000
      571482000	     28472	8000bc54	030ba603	lw	x12,48(x23)	 x23:0x80025c60 x12=0x00000001 PA:0x80025c90 load:0x00000001
      571522000	     28474	8000bc58	034ba683	lw	x13,52(x23)	 x23:0x80025c60 x13=0x00000002 PA:0x80025c94 load:0x00000002
      571742000	     28485	8000bc5c	038ba703	lw	x14,56(x23)	 x23:0x80025c60 x14=0x00000002 PA:0x80025c98 load:0x00000002
      571802000	     28488	8000bc60	03cba783	lw	x15,60(x23)	 x23:0x80025c60 x15=0x00000000 PA:0x80025c9c load:0x00000000
      572602000	     28528	8000bc64	040ba803	lw	x16,64(x23)	 x23:0x80025c60 x16=0x00000004 PA:0x80025ca0 load:0x00000004
      572622000	     28529	8000bc68	044ba883	lw	x17,68(x23)	 x23:0x80025c60 x17=0x00000004 PA:0x80025ca4 load:0x00000004
      572702000	     28533	8000bc6c	048ba903	lw	x18,72(x23)	 x23:0x80025c60 x18=0x8483fbce PA:0x80025ca8 load:0x8483fbce
      573202000	     28558	8000bc70	04cba983	lw	x19,76(x23)	 x23:0x80025c60 x19=0xffffffc0 PA:0x80025cac load:0xffffffc0
      574222000	     28609	8000bc74	050baa03	lw	x20,80(x23)	 x23:0x80025c60 x20=0x00000004 PA:0x80025cb0 load:0x00000004
      574282000	     28612	8000bc78	054baa83	lw	x21,84(x23)	 x23:0x80025c60 x21=0x00000040 PA:0x80025cb4 load:0x00000040
      574302000	     28613	8000bc7c	058bab03	lw	x22,88(x23)	 x23:0x80025c60 x22=0x00000001 PA:0x80025cb8 load:0x00000001
      574502000	     28623	8000bc80	05cbab83	lw	x23,92(x23)	 x23:0x80025c60 x23=0x80025c60 PA:0x80025cbc load:0x80025c60
      574582000	     28627	8000bc84	060bac03	lw	x24,96(x23)	 x23:0x80025c60 x24=0x00000010 PA:0x80025cc0 load:0x00000010
      574602000	     28628	8000bc88	064bac83	lw	x25,100(x23)	 x23:0x80025c60 x25=0x00000000 PA:0x80025cc4 load:0x00000000
      574842000	     28640	8000bc8c	068bad03	lw	x26,104(x23)	 x23:0x80025c60 x26=0x3e75c936 PA:0x80025cc8 load:0x3e75c936
      575342000	     28665	8000bc90	06cbad83	lw	x27,108(x23)	 x23:0x80025c60 x27=0x80002705 PA:0x80025ccc load:0x80002705
      575402000	     28668	8000bc94	070bae03	lw	x28,112(x23)	 x23:0x80025c60 x28=0x00000008 PA:0x80025cd0 load:0x00000008
      575642000	     28680	8000bc98	074bae83	lw	x29,116(x23)	 x23:0x80025c60 x29=0xb8e9bb98 PA:0x80025cd4 load:0xb8e9bb98
      576102000	     28703	8000bc9c	078baf03	lw	x30,120(x23)	 x23:0x80025c60 x30=0x00000001 PA:0x80025cd8 load:0x00000001
      576322000	     28714	8000bca0	07cbaf83	lw	x31,124(x23)	 x23:0x80025c60 x31=0xa3515000 PA:0x80025cdc load:0xa3515000
      576342000	     28715	8000bca4	080b8b93	addi	x23,x23,128	 x23:0x80025c60 x23=0x80025ce0
      577102000	     28753	8000bca8	000b82b3	add	x5,x23,x0	 x23:0x80025ce0  x0:0x00000000  x5=0x80025ce0
      577202000	     28758	8000bcac	0002ab83	lw	x23,0(x5)	  x5:0x80025ce0 x23=0x80021df8 PA:0x80025ce0 load:0x80021df8
      577222000	     28759	8000bcb0	0291	c.addi	x5,4	  x5:0x80025ce0  x5=0x80025ce4
      577262000	     28761	8000bcb2	30200073	mret	
      577502000	     28773	8000abee	40fcd113	srai	x2,x25,0xf	 x25:0x00000000  x2=0x00000000
      577542000	     28775	8000abf2	32b030f3	csrrc	x1,mhpmevent11,x0	  x0:0x00000000  x1=0x00000100
      578322000	     28814	8000abf6	8a3e	c.mv	x20,x15	  x0:0x00000000 x15:0x00000000 x20=0x00000000
      578342000	     28815	8000abf8	00a92fb3	slt	x31,x18,x10	 x18:0x8483fbce x10:0x3e75ca36 x31=0x00000001
      578382000	     28817	8000abfc	b8302d73	csrrs	x26,mhpmcounter3h,x0	  x0:0x00000000 x26=0x00000000
      578402000	     28818	8000ac00	85bb3eb7	lui	x29,0x85bb3	 x29=0x85bb3000
      579142000	     28855	8000ac04	03dd6f33	rem	x30,x26,x29	 x26:0x00000000 x29:0x85bb3000 x30=0x00000000
      579902000	     28893	8000ac08	3b402f73	csrrs	x30,pmpaddr4,x0	  x0:0x00000000 x30=0x31111e40
      579942000	     28895	8000ac0c	01a0c763	blt	x1,x26,8000ac1a	  x1:0x00000100 x26:0x00000000
      580022000	     28899	8000ac10	7a207d73	csrrci	x26,tdata2,0	 x26=0x00000000
      580142000	     28905	8000ac14	8cb9	c.xor	x9,x14	  x9:0x00000080 x14:0x00000002  x9=0x00000082
      580942000	     28945	8000ac16	035adcb3	divu	x25,x21,x21	 x21:0x00000040 x21:0x00000040 x25=0x00000001
      580982000	     28947	8000ac1a	293f6213	ori	x4,x30,659	 x30:0x31111e40  x4=0x31111ed3
      581762000	     28986	8000ac1e	03d5d433	divu	x8,x11,x29	 x11:0x00000000 x29:0x85bb3000  x8=0x00000000
      581802000	     28988	8000ac22	05cd1063	bne	x26,x28,8000ac62	 x26:0x00000000 x28:0x00000008
      581882000	     28992	8000ac62	8cf9	c.and	x9,x14	  x9:0x00000082 x14:0x00000002  x9=0x00000002
      582042000	     29000	8000ac64	022cbdb3	mulhu	x27,x25,x2	 x25:0x00000001  x2:0x00000000 x27=0x00000000
      582062000	     29001	8000ac68	8ea1	c.xor	x13,x8	 x13:0x00000002  x8:0x00000000 x13=0x00000002
      582822000	     29039	8000ac6a	34075473	csrrwi	x8,mscratch,14	  x8=0x00000000
      582842000	     29040	8000ac6e	00c49333	sll	x6,x9,x12	  x9:0x00000002 x12:0x00000001  x6=0x00000004
      582882000	     29042	8000ac72	8ec9	c.or	x13,x10	 x13:0x00000002 x10:0x3e75ca36 x13=0x3e75ca36
      583622000	     29079	8000ac74	0314d133	divu	x2,x9,x17	  x9:0x00000002 x17:0x00000004  x2=0x00000000
      584402000	     29118	8000ac78	0275	c.addi	x4,29	  x4:0x31111ed3  x4=0x31111ef0
      584422000	     29119	8000ac7a	40055493	srai	x9,x10,0x0	 x10:0x3e75ca36  x9=0x3e75ca36
      584442000	     29120	8000ac7e	0001	c.addi	x0,0	  x0:0x00000000  x0=0x00000000
      584502000	     29123	8000ac80	80dd	c.srli	x9,0x17	  x9:0x3e75ca36  x9=0x0000007c
      584522000	     29124	8000ac82	8ca1	c.xor	x9,x8	  x9:0x0000007c  x8:0x00000000  x9=0x0000007c
      584562000	     29126	8000ac84	036b5f63	bge	x22,x22,8000acc2	 x22:0x00000001 x22:0x00000001
      584942000	     29145	8000acc2	01704e63	blt	x0,x23,8000acde	  x0:0x00000000 x23:0x80021df8
      585642000	     29180	8000acc6	02ee05b3	mul	x11,x28,x14	 x28:0x00000008 x14:0x00000002 x11=0x00000010
      585682000	     29182	8000acca	02ebd063	bge	x23,x14,8000acea	 x23:0x80021df8 x14:0x00000002
      586882000	     29242	8000acce	026fe133	rem	x2,x31,x6	 x31:0x00000001  x6:0x00000004  x2=0x00000001
      586942000	     29245	8000acd2	f15e1af3	csrrw	x0,0xf15,x0	  x0:0x00000000  x0=0x00000000
      587422000	     29269	80002700	0800006f	jal	x0,80002780	  x0=0x00000000
      588322000	     29314	80002780	12f1	c.addi	x5,-4	  x5:0x80025ce4  x5=0x80025ce0
      588562000	     29326	80002782	0172a023	sw	x23,0(x5)	  x5:0x80025ce0 x23:0x80021df8 PA:0x80025ce0 store:0x80021df8 load:0xffffffff
      588902000	     29343	80002786	00028bb3	add	x23,x5,x0	  x5:0x80025ce0  x0:0x00000000 x23=0x80025ce0
      588922000	     29344	8000278a	f80b8b93	addi	x23,x23,-128	 x23:0x80025ce0 x23=0x80025c60
      589102000	     29353	8000278e	001ba223	sw	x1,4(x23)	 x23:0x80025c60  x1:0x00000100 PA:0x80025c64 store:0x00000100 load:0xffffffff
      589682000	     29382	80002792	002ba423	sw	x2,8(x23)	 x23:0x80025c60  x2:0x00000001 PA:0x80025c68 store:0x00000001 load:0xffffffff
      589862000	     29391	80002796	003ba623	sw	x3,12(x23)	 x23:0x80025c60  x3:0xffffffdf PA:0x80025c6c store:0xffffffdf load:0xffffffff
      590362000	     29416	8000279a	004ba823	sw	x4,16(x23)	 x23:0x80025c60  x4:0x31111ef0 PA:0x80025c70 store:0x31111ef0 load:0xffffffff
      590482000	     29422	8000279e	005baa23	sw	x5,20(x23)	 x23:0x80025c60  x5:0x80025ce0 PA:0x80025c74 store:0x80025ce0 load:0xffffffff
      590722000	     29434	800027a2	006bac23	sw	x6,24(x23)	 x23:0x80025c60  x6:0x00000004 PA:0x80025c78 store:0x00000004 load:0xffffffff
      590782000	     29437	800027a6	007bae23	sw	x7,28(x23)	 x23:0x80025c60  x7:0x00000100 PA:0x80025c7c store:0x00000100 load:0xffffffff
      591582000	     29477	800027aa	028ba023	sw	x8,32(x23)	 x23:0x80025c60  x8:0x00000000 PA:0x80025c80 store:0x00000000 load:0xffffffff
      591722000	     29484	800027ae	029ba223	sw	x9,36(x23)	 x23:0x80025c60  x9:0x0000007c PA:0x80025c84 store:0x0000007c load:0xffffffff
      591802000	     29488	800027b2	02aba423	sw	x10,40(x23)	 x23:0x80025c60 x10:0x3e75ca36 PA:0x80025c88 store:0x3e75ca36 load:0xffffffff
      592022000	     29499	800027b6	02bba623	sw	x11,44(x23)	 x23:0x80025c60 x11:0x00000010 PA:0x80025c8c store:0x00000010 load:0xffffffff
      592042000	     29500	800027ba	02cba823	sw	x12,48(x23)	 x23:0x80025c60 x12:0x00000001 PA:0x80025c90 store:0x00000001 load:0xffffffff
      593282000	     29562	800027be	02dbaa23	sw	x13,52(x23)	 x23:0x80025c60 x13:0x3e75ca36 PA:0x80025c94 store:0x3e75ca36 load:0xffffffff
      593522000	     29574	800027c2	02ebac23	sw	x14,56(x23)	 x23:0x80025c60 x14:0x00000002 PA:0x80025c98 store:0x00000002 load:0xffffffff
      593982000	     29597	800027c6	02fbae23	sw	x15,60(x23)	 x23:0x80025c60 x15:0x00000000 PA:0x80025c9c store:0x00000000 load:0xffffffff
      594062000	     29601	800027ca	050ba023	sw	x16,64(x23)	 x23:0x80025c60 x16:0x00000004 PA:0x80025ca0 store:0x00000004 load:0xffffffff
      594082000	     29602	800027ce	051ba223	sw	x17,68(x23)	 x23:0x80025c60 x17:0x00000004 PA:0x80025ca4 store:0x00000004 load:0xffffffff
      594282000	     29612	800027d2	052ba423	sw	x18,72(x23)	 x23:0x80025c60 x18:0x8483fbce PA:0x80025ca8 store:0x8483fbce load:0xffffffff
      594362000	     29616	800027d6	053ba623	sw	x19,76(x23)	 x23:0x80025c60 x19:0xffffffc0 PA:0x80025cac store:0xffffffc0 load:0xffffffff
      594382000	     29617	800027da	054ba823	sw	x20,80(x23)	 x23:0x80025c60 x20:0x00000000 PA:0x80025cb0 store:0x00000000 load:0xffffffff
      594562000	     29626	800027de	055baa23	sw	x21,84(x23)	 x23:0x80025c60 x21:0x00000040 PA:0x80025cb4 store:0x00000040 load:0xffffffff
      594642000	     29630	800027e2	056bac23	sw	x22,88(x23)	 x23:0x80025c60 x22:0x00000001 PA:0x80025cb8 store:0x00000001 load:0xffffffff
      594662000	     29631	800027e6	057bae23	sw	x23,92(x23)	 x23:0x80025c60 x23:0x80025c60 PA:0x80025cbc store:0x80025c60 load:0xffffffff
      594822000	     29639	800027ea	078ba023	sw	x24,96(x23)	 x23:0x80025c60 x24:0x00000010 PA:0x80025cc0 store:0x00000010 load:0xffffffff
      594842000	     29640	800027ee	079ba223	sw	x25,100(x23)	 x23:0x80025c60 x25:0x00000001 PA:0x80025cc4 store:0x00000001 load:0xffffffff
      594882000	     29642	800027f2	07aba423	sw	x26,104(x23)	 x23:0x80025c60 x26:0x00000000 PA:0x80025cc8 store:0x00000000 load:0xffffffff
      595082000	     29652	800027f6	07bba623	sw	x27,108(x23)	 x23:0x80025c60 x27:0x00000000 PA:0x80025ccc store:0x00000000 load:0xffffffff
      595342000	     29665	800027fa	07cba823	sw	x28,112(x23)	 x23:0x80025c60 x28:0x00000008 PA:0x80025cd0 store:0x00000008 load:0xffffffff
      595662000	     29681	800027fe	07dbaa23	sw	x29,116(x23)	 x23:0x80025c60 x29:0x85bb3000 PA:0x80025cd4 store:0x85bb3000 load:0xffffffff
      595922000	     29694	80002802	07ebac23	sw	x30,120(x23)	 x23:0x80025c60 x30:0x31111e40 PA:0x80025cd8 store:0x31111e40 load:0xffffffff
      596222000	     29709	80002806	07fbae23	sw	x31,124(x23)	 x23:0x80025c60 x31:0x00000001 PA:0x80025cdc store:0x00000001 load:0xffffffff
      596242000	     29710	8000280a	000b82b3	add	x5,x23,x0	 x23:0x80025c60  x0:0x00000000  x5=0x80025c60
      596282000	     29712	8000280e	90000c37	lui	x24,0x90000	 x24=0x90000000
      597062000	     29751	80002812	1c71	c.addi	x24,-4	 x24:0x90000000 x24=0x8ffffffc
      597102000	     29753	80002814	4f21	c.li	x30,8	 x30=0x00000008
      597122000	     29754	80002816	0f22	c.slli	x30,0x8	 x30:0x00000008 x30=0x00000800
      597162000	     29756	80002818	000f0f13	addi	x30,x30,0	 x30:0x00000800 x30=0x00000800
      597362000	     29766	8000281c	01ec2023	sw	x30,0(x24)	 x24:0x8ffffffc x30:0x00000800 PA:0x8ffffffc store:0x00000800 load:0xffffffff
      598122000	     29804	80002820	34102f73	csrrs	x30,mepc,x0	  x0:0x00000000 x30=0x8000acd2
      598142000	     29805	80002824	34202f73	csrrs	x30,mcause,x0	  x0:0x00000000 x30=0x00000002
      598162000	     29806	80002828	4c0d	c.li	x24,3	 x24=0x00000003
      598942000	     29845	8000282a	018f1463	bne	x30,x24,80002832	 x30:0x00000002 x24:0x00000003
      599062000	     29851	80002832	4c21	c.li	x24,8	 x24=0x00000008
      599222000	     29859	80002834	058f0d63	beq	x30,x24,8000288e	 x30:0x00000002 x24:0x00000008
      600342000	     29915	80002838	4c25	c.li	x24,9	 x24=0x00000009
      600622000	     29929	8000283a	058f0a63	beq	x30,x24,8000288e	 x30:0x00000002 x24:0x00000009
      601582000	     29977	8000283e	4c2d	c.li	x24,11	 x24=0x0000000b
      601782000	     29987	80002840	058f0763	beq	x30,x24,8000288e	 x30:0x00000002 x24:0x0000000b
      602222000	     30009	80002844	4c05	c.li	x24,1	 x24=0x00000001
      602282000	     30012	80002846	358f0363	beq	x30,x24,80002b8c	 x30:0x00000002 x24:0x00000001
      602942000	     30045	8000284a	4c15	c.li	x24,5	 x24=0x00000005
      603162000	     30056	8000284c	638f0a63	beq	x30,x24,80002e80	 x30:0x00000002 x24:0x00000005
      603242000	     30060	80002850	4c1d	c.li	x24,7	 x24=0x00000007
      603282000	     30062	80002852	158f0ce3	beq	x30,x24,800031aa	 x30:0x00000002 x24:0x00000007
      604402000	     30118	80002856	4c31	c.li	x24,12	 x24=0x0000000c
      604442000	     30120	80002858	018f1463	bne	x30,x24,80002860	 x30:0x00000002 x24:0x0000000c
      604582000	     30127	80002860	4c35	c.li	x24,13	 x24=0x0000000d
      604622000	     30129	80002862	018f1463	bne	x30,x24,8000286a	 x30:0x00000002 x24:0x0000000d
      604802000	     30138	8000286a	4c3d	c.li	x24,15	 x24=0x0000000f
      605042000	     30150	8000286c	018f1463	bne	x30,x24,80002874	 x30:0x00000002 x24:0x0000000f
      605842000	     30190	80002874	4c09	c.li	x24,2	 x24=0x00000002
      606002000	     30198	80002876	018f1463	bne	x30,x24,8000287e	 x30:0x00000002 x24:0x00000002
      606602000	     30228	8000287a	3740906f	jal	x0,8000bbee	  x0=0x00000000
      607422000	     30269	8000bbee	90000c37	lui	x24,0x90000	 x24=0x90000000
      607442000	     30270	8000bbf2	1c71	c.addi	x24,-4	 x24:0x90000000 x24=0x8ffffffc
      607562000	     30276	8000bbf4	4f29	c.li	x30,10	 x30=0x0000000a
      607582000	     30277	8000bbf6	0f22	c.slli	x30,0x8	 x30:0x0000000a x30=0x00000a00
      607742000	     30285	8000bbf8	000f0f13	addi	x30,x30,0	 x30:0x00000a00 x30=0x00000a00
      607802000	     30288	8000bbfc	01ec2023	sw	x30,0(x24)	 x24:0x8ffffffc x30:0x00000a00 PA:0x8ffffffc store:0x00000a00 load:0xffffffff
      607942000	     30295	8000bc00	90000c37	lui	x24,0x90000	 x24=0x90000000
      608322000	     30314	8000bc04	1c71	c.addi	x24,-4	 x24:0x90000000 x24=0x8ffffffc
      608642000	     30330	8000bc06	34200f13	addi	x30,x0,834	  x0:0x00000000 x30=0x00000342
      608662000	     30331	8000bc0a	0f22	c.slli	x30,0x8	 x30:0x00000342 x30=0x00034200
      608682000	     30332	8000bc0c	0f0d	c.addi	x30,3	 x30:0x00034200 x30=0x00034203
      609482000	     30372	8000bc0e	01ec2023	sw	x30,0(x24)	 x24:0x8ffffffc x30:0x00034203 PA:0x8ffffffc store:0x00034203 load:0xffffffff
      609502000	     30373	8000bc12	34202f73	csrrs	x30,mcause,x0	  x0:0x00000000 x30=0x00000002
      609662000	     30381	8000bc16	01ec2023	sw	x30,0(x24)	 x24:0x8ffffffc x30:0x00000002 PA:0x8ffffffc store:0x00000002 load:0xffffffff
      609682000	     30382	8000bc1a	34102f73	csrrs	x30,mepc,x0	  x0:0x00000000 x30=0x8000acd2
      609722000	     30384	8000bc1e	0f11	c.addi	x30,4	 x30:0x8000acd2 x30=0x8000acd6
      609742000	     30385	8000bc20	341f1073	csrrw	x0,mepc,x30	 x30:0x8000acd6  x0=0x00000000
      609762000	     30386	8000bc24	00028bb3	add	x23,x5,x0	  x5:0x80025c60  x0:0x00000000 x23=0x80025c60
      610022000	     30399	8000bc28	004ba083	lw	x1,4(x23)	 x23:0x80025c60  x1=0x00000100 PA:0x80025c64 load:0x00000100
      610122000	     30404	8000bc2c	008ba103	lw	x2,8(x23)	 x23:0x80025c60  x2=0x00000001 PA:0x80025c68 load:0x00000001
      610162000	     30406	8000bc30	00cba183	lw	x3,12(x23)	 x23:0x80025c60  x3=0xffffffdf PA:0x80025c6c load:0xffffffdf
      610602000	     30428	8000bc34	010ba203	lw	x4,16(x23)	 x23:0x80025c60  x4=0x31111ef0 PA:0x80025c70 load:0x31111ef0
      610722000	     30434	8000bc38	014ba283	lw	x5,20(x23)	 x23:0x80025c60  x5=0x80025ce0 PA:0x80025c74 load:0x80025ce0
      610962000	     30446	8000bc3c	018ba303	lw	x6,24(x23)	 x23:0x80025c60  x6=0x00000004 PA:0x80025c78 load:0x00000004
      611762000	     30486	8000bc40	01cba383	lw	x7,28(x23)	 x23:0x80025c60  x7=0x00000100 PA:0x80025c7c load:0x00000100
      612642000	     30530	8000bc44	020ba403	lw	x8,32(x23)	 x23:0x80025c60  x8=0x00000000 PA:0x80025c80 load:0x00000000
      612702000	     30533	8000bc48	024ba483	lw	x9,36(x23)	 x23:0x80025c60  x9=0x0000007c PA:0x80025c84 load:0x0000007c
      612842000	     30540	8000bc4c	028ba503	lw	x10,40(x23)	 x23:0x80025c60 x10=0x3e75ca36 PA:0x80025c88 load:0x3e75ca36
      613642000	     30580	8000bc50	02cba583	lw	x11,44(x23)	 x23:0x80025c60 x11=0x00000010 PA:0x80025c8c load:0x00000010
      613662000	     30581	8000bc54	030ba603	lw	x12,48(x23)	 x23:0x80025c60 x12=0x00000001 PA:0x80025c90 load:0x00000001
      614102000	     30603	8000bc58	034ba683	lw	x13,52(x23)	 x23:0x80025c60 x13=0x3e75ca36 PA:0x80025c94 load:0x3e75ca36
      614422000	     30619	8000bc5c	038ba703	lw	x14,56(x23)	 x23:0x80025c60 x14=0x00000002 PA:0x80025c98 load:0x00000002
      615342000	     30665	8000bc60	03cba783	lw	x15,60(x23)	 x23:0x80025c60 x15=0x00000000 PA:0x80025c9c load:0x00000000
      615562000	     30676	8000bc64	040ba803	lw	x16,64(x23)	 x23:0x80025c60 x16=0x00000004 PA:0x80025ca0 load:0x00000004
      615622000	     30679	8000bc68	044ba883	lw	x17,68(x23)	 x23:0x80025c60 x17=0x00000004 PA:0x80025ca4 load:0x00000004
      615762000	     30686	8000bc6c	048ba903	lw	x18,72(x23)	 x23:0x80025c60 x18=0x8483fbce PA:0x80025ca8 load:0x8483fbce
      615842000	     30690	8000bc70	04cba983	lw	x19,76(x23)	 x23:0x80025c60 x19=0xffffffc0 PA:0x80025cac load:0xffffffc0
      629922000	     31394	8000bc74	050baa03	lw	x20,80(x23)	 x23:0x80025c60 x20=0x00000000 PA:0x80025cb0 load:0x00000000
      630202000	     31408	8000bc78	054baa83	lw	x21,84(x23)	 x23:0x80025c60 x21=0x00000040 PA:0x80025cb4 load:0x00000040
      630542000	     31425	8000bc7c	058bab03	lw	x22,88(x23)	 x23:0x80025c60 x22=0x00000001 PA:0x80025cb8 load:0x00000001
      631522000	     31474	8000bc80	05cbab83	lw	x23,92(x23)	 x23:0x80025c60 x23=0x80025c60 PA:0x80025cbc load:0x80025c60
      631842000	     31490	8000bc84	060bac03	lw	x24,96(x23)	 x23:0x80025c60 x24=0x00000010 PA:0x80025cc0 load:0x00000010
      631922000	     31494	8000bc88	064bac83	lw	x25,100(x23)	 x23:0x80025c60 x25=0x00000001 PA:0x80025cc4 load:0x00000001
      632782000	     31537	8000bc8c	068bad03	lw	x26,104(x23)	 x23:0x80025c60 x26=0x00000000 PA:0x80025cc8 load:0x00000000
      632882000	     31542	8000bc90	06cbad83	lw	x27,108(x23)	 x23:0x80025c60 x27=0x00000000 PA:0x80025ccc load:0x00000000
      633382000	     31567	8000bc94	070bae03	lw	x28,112(x23)	 x23:0x80025c60 x28=0x00000008 PA:0x80025cd0 load:0x00000008
      633482000	     31572	8000bc98	074bae83	lw	x29,116(x23)	 x23:0x80025c60 x29=0x85bb3000 PA:0x80025cd4 load:0x85bb3000
      633542000	     31575	8000bc9c	078baf03	lw	x30,120(x23)	 x23:0x80025c60 x30=0x31111e40 PA:0x80025cd8 load:0x31111e40
      633582000	     31577	8000bca0	07cbaf83	lw	x31,124(x23)	 x23:0x80025c60 x31=0x00000001 PA:0x80025cdc load:0x00000001
      633602000	     31578	8000bca4	080b8b93	addi	x23,x23,128	 x23:0x80025c60 x23=0x80025ce0
      633622000	     31579	8000bca8	000b82b3	add	x5,x23,x0	 x23:0x80025ce0  x0:0x00000000  x5=0x80025ce0
      634442000	     31620	8000bcac	0002ab83	lw	x23,0(x5)	  x5:0x80025ce0 x23=0x80021df8 PA:0x80025ce0 load:0x80021df8
      634462000	     31621	8000bcb0	0291	c.addi	x5,4	  x5:0x80025ce0  x5=0x80025ce4
      634482000	     31622	8000bcb2	30200073	mret	
      635062000	     31651	8000acd6	01419eb3	sll	x29,x3,x20	  x3:0xffffffdf x20:0x00000000 x29=0xffffffdf
      635482000	     31672	8000acda	0000100f	fence.i	
      636682000	     31732	8000acde	b03d56f3	csrrwi	x13,mhpmcounter3,26	 x13=0x0000160e
      637082000	     31752	8000ace2	7a107e73	csrrci	x28,tdata1,0	 x28=0x28001048
      637142000	     31755	8000ace6	7b106e73	csrrsi	x0,dpc,0	  x0=0x00000000
      637822000	     31789	80002700	0800006f	jal	x0,80002780	  x0=0x00000000
      638342000	     31815	80002780	12f1	c.addi	x5,-4	  x5:0x80025ce4  x5=0x80025ce0
      638422000	     31819	80002782	0172a023	sw	x23,0(x5)	  x5:0x80025ce0 x23:0x80021df8 PA:0x80025ce0 store:0x80021df8 load:0xffffffff
      638462000	     31821	80002786	00028bb3	add	x23,x5,x0	  x5:0x80025ce0  x0:0x00000000 x23=0x80025ce0
      638482000	     31822	8000278a	f80b8b93	addi	x23,x23,-128	 x23:0x80025ce0 x23=0x80025c60
      638602000	     31828	8000278e	001ba223	sw	x1,4(x23)	 x23:0x80025c60  x1:0x00000100 PA:0x80025c64 store:0x00000100 load:0xffffffff
      639042000	     31850	80002792	002ba423	sw	x2,8(x23)	 x23:0x80025c60  x2:0x00000001 PA:0x80025c68 store:0x00000001 load:0xffffffff
      639102000	     31853	80002796	003ba623	sw	x3,12(x23)	 x23:0x80025c60  x3:0xffffffdf PA:0x80025c6c store:0xffffffdf load:0xffffffff
      639122000	     31854	8000279a	004ba823	sw	x4,16(x23)	 x23:0x80025c60  x4:0x31111ef0 PA:0x80025c70 store:0x31111ef0 load:0xffffffff
      639262000	     31861	8000279e	005baa23	sw	x5,20(x23)	 x23:0x80025c60  x5:0x80025ce0 PA:0x80025c74 store:0x80025ce0 load:0xffffffff
      639502000	     31873	800027a2	006bac23	sw	x6,24(x23)	 x23:0x80025c60  x6:0x00000004 PA:0x80025c78 store:0x00000004 load:0xffffffff
      639522000	     31874	800027a6	007bae23	sw	x7,28(x23)	 x23:0x80025c60  x7:0x00000100 PA:0x80025c7c store:0x00000100 load:0xffffffff
      639562000	     31876	800027aa	028ba023	sw	x8,32(x23)	 x23:0x80025c60  x8:0x00000000 PA:0x80025c80 store:0x00000000 load:0xffffffff
      640042000	     31900	800027ae	029ba223	sw	x9,36(x23)	 x23:0x80025c60  x9:0x0000007c PA:0x80025c84 store:0x0000007c load:0xffffffff
      641042000	     31950	800027b2	02aba423	sw	x10,40(x23)	 x23:0x80025c60 x10:0x3e75ca36 PA:0x80025c88 store:0x3e75ca36 load:0xffffffff
      641102000	     31953	800027b6	02bba623	sw	x11,44(x23)	 x23:0x80025c60 x11:0x00000010 PA:0x80025c8c store:0x00000010 load:0xffffffff
      641122000	     31954	800027ba	02cba823	sw	x12,48(x23)	 x23:0x80025c60 x12:0x00000001 PA:0x80025c90 store:0x00000001 load:0xffffffff
      641162000	     31956	800027be	02dbaa23	sw	x13,52(x23)	 x23:0x80025c60 x13:0x0000160e PA:0x80025c94 store:0x0000160e load:0xffffffff
      641482000	     31972	800027c2	02ebac23	sw	x14,56(x23)	 x23:0x80025c60 x14:0x00000002 PA:0x80025c98 store:0x00000002 load:0xffffffff
      641542000	     31975	800027c6	02fbae23	sw	x15,60(x23)	 x23:0x80025c60 x15:0x00000000 PA:0x80025c9c store:0x00000000 load:0xffffffff
      643082000	     32052	800027ca	050ba023	sw	x16,64(x23)	 x23:0x80025c60 x16:0x00000004 PA:0x80025ca0 store:0x00000004 load:0xffffffff
      643882000	     32092	800027ce	051ba223	sw	x17,68(x23)	 x23:0x80025c60 x17:0x00000004 PA:0x80025ca4 store:0x00000004 load:0xffffffff
      643922000	     32094	800027d2	052ba423	sw	x18,72(x23)	 x23:0x80025c60 x18:0x8483fbce PA:0x80025ca8 store:0x8483fbce load:0xffffffff
      644002000	     32098	800027d6	053ba623	sw	x19,76(x23)	 x23:0x80025c60 x19:0xffffffc0 PA:0x80025cac store:0xffffffc0 load:0xffffffff
      644022000	     32099	800027da	054ba823	sw	x20,80(x23)	 x23:0x80025c60 x20:0x00000000 PA:0x80025cb0 store:0x00000000 load:0xffffffff
      644982000	     32147	800027de	055baa23	sw	x21,84(x23)	 x23:0x80025c60 x21:0x00000040 PA:0x80025cb4 store:0x00000040 load:0xffffffff
      645222000	     32159	800027e2	056bac23	sw	x22,88(x23)	 x23:0x80025c60 x22:0x00000001 PA:0x80025cb8 store:0x00000001 load:0xffffffff
      645282000	     32162	800027e6	057bae23	sw	x23,92(x23)	 x23:0x80025c60 x23:0x80025c60 PA:0x80025cbc store:0x80025c60 load:0xffffffff
      645342000	     32165	800027ea	078ba023	sw	x24,96(x23)	 x23:0x80025c60 x24:0x00000010 PA:0x80025cc0 store:0x00000010 load:0xffffffff
      645422000	     32169	800027ee	079ba223	sw	x25,100(x23)	 x23:0x80025c60 x25:0x00000001 PA:0x80025cc4 store:0x00000001 load:0xffffffff
      645782000	     32187	800027f2	07aba423	sw	x26,104(x23)	 x23:0x80025c60 x26:0x00000000 PA:0x80025cc8 store:0x00000000 load:0xffffffff
      646182000	     32207	800027f6	07bba623	sw	x27,108(x23)	 x23:0x80025c60 x27:0x00000000 PA:0x80025ccc store:0x00000000 load:0xffffffff
      646342000	     32215	800027fa	07cba823	sw	x28,112(x23)	 x23:0x80025c60 x28:0x28001048 PA:0x80025cd0 store:0x28001048 load:0xffffffff
      647362000	     32266	800027fe	07dbaa23	sw	x29,116(x23)	 x23:0x80025c60 x29:0xffffffdf PA:0x80025cd4 store:0xffffffdf load:0xffffffff
      647482000	     32272	80002802	07ebac23	sw	x30,120(x23)	 x23:0x80025c60 x30:0x31111e40 PA:0x80025cd8 store:0x31111e40 load:0xffffffff
      647602000	     32278	80002806	07fbae23	sw	x31,124(x23)	 x23:0x80025c60 x31:0x00000001 PA:0x80025cdc store:0x00000001 load:0xffffffff
      647642000	     32280	8000280a	000b82b3	add	x5,x23,x0	 x23:0x80025c60  x0:0x00000000  x5=0x80025c60
      647662000	     32281	8000280e	90000c37	lui	x24,0x90000	 x24=0x90000000
      647702000	     32283	80002812	1c71	c.addi	x24,-4	 x24:0x90000000 x24=0x8ffffffc
      647722000	     32284	80002814	4f21	c.li	x30,8	 x30=0x00000008
      647762000	     32286	80002816	0f22	c.slli	x30,0x8	 x30:0x00000008 x30=0x00000800
      647782000	     32287	80002818	000f0f13	addi	x30,x30,0	 x30:0x00000800 x30=0x00000800
      647822000	     32289	8000281c	01ec2023	sw	x30,0(x24)	 x24:0x8ffffffc x30:0x00000800 PA:0x8ffffffc store:0x00000800 load:0xffffffff
      647862000	     32291	80002820	34102f73	csrrs	x30,mepc,x0	  x0:0x00000000 x30=0x8000ace6
      647882000	     32292	80002824	34202f73	csrrs	x30,mcause,x0	  x0:0x00000000 x30=0x00000002
      647922000	     32294	80002828	4c0d	c.li	x24,3	 x24=0x00000003
      647982000	     32297	8000282a	018f1463	bne	x30,x24,80002832	 x30:0x00000002 x24:0x00000003
      648642000	     32330	80002832	4c21	c.li	x24,8	 x24=0x00000008
      649082000	     32352	80002834	058f0d63	beq	x30,x24,8000288e	 x30:0x00000002 x24:0x00000008
      649862000	     32391	80002838	4c25	c.li	x24,9	 x24=0x00000009
      649962000	     32396	8000283a	058f0a63	beq	x30,x24,8000288e	 x30:0x00000002 x24:0x00000009
      650522000	     32424	8000283e	4c2d	c.li	x24,11	 x24=0x0000000b
      650962000	     32446	80002840	058f0763	beq	x30,x24,8000288e	 x30:0x00000002 x24:0x0000000b
      651142000	     32455	80002844	4c05	c.li	x24,1	 x24=0x00000001
      651582000	     32477	80002846	358f0363	beq	x30,x24,80002b8c	 x30:0x00000002 x24:0x00000001
      652522000	     32524	8000284a	4c15	c.li	x24,5	 x24=0x00000005
      652562000	     32526	8000284c	638f0a63	beq	x30,x24,80002e80	 x30:0x00000002 x24:0x00000005
      653262000	     32561	80002850	4c1d	c.li	x24,7	 x24=0x00000007
      653322000	     32564	80002852	158f0ce3	beq	x30,x24,800031aa	 x30:0x00000002 x24:0x00000007
      654182000	     32607	80002856	4c31	c.li	x24,12	 x24=0x0000000c
      654242000	     32610	80002858	018f1463	bne	x30,x24,80002860	 x30:0x00000002 x24:0x0000000c
      654562000	     32626	80002860	4c35	c.li	x24,13	 x24=0x0000000d
      654862000	     32641	80002862	018f1463	bne	x30,x24,8000286a	 x30:0x00000002 x24:0x0000000d
      655242000	     32660	8000286a	4c3d	c.li	x24,15	 x24=0x0000000f
      655682000	     32682	8000286c	018f1463	bne	x30,x24,80002874	 x30:0x00000002 x24:0x0000000f
      656282000	     32712	80002874	4c09	c.li	x24,2	 x24=0x00000002
      656722000	     32734	80002876	018f1463	bne	x30,x24,8000287e	 x30:0x00000002 x24:0x00000002
      657642000	     32780	8000287a	3740906f	jal	x0,8000bbee	  x0=0x00000000
      658362000	     32816	8000bbee	90000c37	lui	x24,0x90000	 x24=0x90000000
      658382000	     32817	8000bbf2	1c71	c.addi	x24,-4	 x24:0x90000000 x24=0x8ffffffc
      658422000	     32819	8000bbf4	4f29	c.li	x30,10	 x30=0x0000000a
      658442000	     32820	8000bbf6	0f22	c.slli	x30,0x8	 x30:0x0000000a x30=0x00000a00
      658802000	     32838	8000bbf8	000f0f13	addi	x30,x30,0	 x30:0x00000a00 x30=0x00000a00
      658882000	     32842	8000bbfc	01ec2023	sw	x30,0(x24)	 x24:0x8ffffffc x30:0x00000a00 PA:0x8ffffffc store:0x00000a00 load:0xffffffff
      658902000	     32843	8000bc00	90000c37	lui	x24,0x90000	 x24=0x90000000
      658922000	     32844	8000bc04	1c71	c.addi	x24,-4	 x24:0x90000000 x24=0x8ffffffc
      659322000	     32864	8000bc06	34200f13	addi	x30,x0,834	  x0:0x00000000 x30=0x00000342
      660082000	     32902	8000bc0a	0f22	c.slli	x30,0x8	 x30:0x00000342 x30=0x00034200
      660102000	     32903	8000bc0c	0f0d	c.addi	x30,3	 x30:0x00034200 x30=0x00034203
      660262000	     32911	8000bc0e	01ec2023	sw	x30,0(x24)	 x24:0x8ffffffc x30:0x00034203 PA:0x8ffffffc store:0x00034203 load:0xffffffff
      660302000	     32913	8000bc12	34202f73	csrrs	x30,mcause,x0	  x0:0x00000000 x30=0x00000002
      660762000	     32936	8000bc16	01ec2023	sw	x30,0(x24)	 x24:0x8ffffffc x30:0x00000002 PA:0x8ffffffc store:0x00000002 load:0xffffffff
      660782000	     32937	8000bc1a	34102f73	csrrs	x30,mepc,x0	  x0:0x00000000 x30=0x8000ace6
      660822000	     32939	8000bc1e	0f11	c.addi	x30,4	 x30:0x8000ace6 x30=0x8000acea
      660842000	     32940	8000bc20	341f1073	csrrw	x0,mepc,x30	 x30:0x8000acea  x0=0x00000000
      660882000	     32942	8000bc24	00028bb3	add	x23,x5,x0	  x5:0x80025c60  x0:0x00000000 x23=0x80025c60
      661222000	     32959	8000bc28	004ba083	lw	x1,4(x23)	 x23:0x80025c60  x1=0x00000100 PA:0x80025c64 load:0x00000100
      661482000	     32972	8000bc2c	008ba103	lw	x2,8(x23)	 x23:0x80025c60  x2=0x00000001 PA:0x80025c68 load:0x00000001
      661702000	     32983	8000bc30	00cba183	lw	x3,12(x23)	 x23:0x80025c60  x3=0xffffffdf PA:0x80025c6c load:0xffffffdf
      662022000	     32999	8000bc34	010ba203	lw	x4,16(x23)	 x23:0x80025c60  x4=0x31111ef0 PA:0x80025c70 load:0x31111ef0
      662222000	     33009	8000bc38	014ba283	lw	x5,20(x23)	 x23:0x80025c60  x5=0x80025ce0 PA:0x80025c74 load:0x80025ce0
      662322000	     33014	8000bc3c	018ba303	lw	x6,24(x23)	 x23:0x80025c60  x6=0x00000004 PA:0x80025c78 load:0x00000004
      662342000	     33015	8000bc40	01cba383	lw	x7,28(x23)	 x23:0x80025c60  x7=0x00000100 PA:0x80025c7c load:0x00000100
      662582000	     33027	8000bc44	020ba403	lw	x8,32(x23)	 x23:0x80025c60  x8=0x00000000 PA:0x80025c80 load:0x00000000
      662722000	     33034	8000bc48	024ba483	lw	x9,36(x23)	 x23:0x80025c60  x9=0x0000007c PA:0x80025c84 load:0x0000007c
      663602000	     33078	8000bc4c	028ba503	lw	x10,40(x23)	 x23:0x80025c60 x10=0x3e75ca36 PA:0x80025c88 load:0x3e75ca36
      663842000	     33090	8000bc50	02cba583	lw	x11,44(x23)	 x23:0x80025c60 x11=0x00000010 PA:0x80025c8c load:0x00000010
      664162000	     33106	8000bc54	030ba603	lw	x12,48(x23)	 x23:0x80025c60 x12=0x00000001 PA:0x80025c90 load:0x00000001
      665382000	     33167	8000bc58	034ba683	lw	x13,52(x23)	 x23:0x80025c60 x13=0x0000160e PA:0x80025c94 load:0x0000160e
      665462000	     33171	8000bc5c	038ba703	lw	x14,56(x23)	 x23:0x80025c60 x14=0x00000002 PA:0x80025c98 load:0x00000002
      665502000	     33173	8000bc60	03cba783	lw	x15,60(x23)	 x23:0x80025c60 x15=0x00000000 PA:0x80025c9c load:0x00000000
      665682000	     33182	8000bc64	040ba803	lw	x16,64(x23)	 x23:0x80025c60 x16=0x00000004 PA:0x80025ca0 load:0x00000004
      665802000	     33188	8000bc68	044ba883	lw	x17,68(x23)	 x23:0x80025c60 x17=0x00000004 PA:0x80025ca4 load:0x00000004
      666002000	     33198	8000bc6c	048ba903	lw	x18,72(x23)	 x23:0x80025c60 x18=0x8483fbce PA:0x80025ca8 load:0x8483fbce
      666102000	     33203	8000bc70	04cba983	lw	x19,76(x23)	 x23:0x80025c60 x19=0xffffffc0 PA:0x80025cac load:0xffffffc0
      666322000	     33214	8000bc74	050baa03	lw	x20,80(x23)	 x23:0x80025c60 x20=0x00000000 PA:0x80025cb0 load:0x00000000
      666802000	     33238	8000bc78	054baa83	lw	x21,84(x23)	 x23:0x80025c60 x21=0x00000040 PA:0x80025cb4 load:0x00000040
      680602000	     33928	8000bc7c	058bab03	lw	x22,88(x23)	 x23:0x80025c60 x22=0x00000001 PA:0x80025cb8 load:0x00000001
      680622000	     33929	8000bc80	05cbab83	lw	x23,92(x23)	 x23:0x80025c60 x23=0x80025c60 PA:0x80025cbc load:0x80025c60
      680662000	     33931	8000bc84	060bac03	lw	x24,96(x23)	 x23:0x80025c60 x24=0x00000010 PA:0x80025cc0 load:0x00000010
      681462000	     33971	8000bc88	064bac83	lw	x25,100(x23)	 x23:0x80025c60 x25=0x00000001 PA:0x80025cc4 load:0x00000001
      682622000	     34029	8000bc8c	068bad03	lw	x26,104(x23)	 x23:0x80025c60 x26=0x00000000 PA:0x80025cc8 load:0x00000000
      682882000	     34042	8000bc90	06cbad83	lw	x27,108(x23)	 x23:0x80025c60 x27=0x00000000 PA:0x80025ccc load:0x00000000
      683042000	     34050	8000bc94	070bae03	lw	x28,112(x23)	 x23:0x80025c60 x28=0x28001048 PA:0x80025cd0 load:0x28001048
      683102000	     34053	8000bc98	074bae83	lw	x29,116(x23)	 x23:0x80025c60 x29=0xffffffdf PA:0x80025cd4 load:0xffffffdf
      683122000	     34054	8000bc9c	078baf03	lw	x30,120(x23)	 x23:0x80025c60 x30=0x31111e40 PA:0x80025cd8 load:0x31111e40
      683322000	     34064	8000bca0	07cbaf83	lw	x31,124(x23)	 x23:0x80025c60 x31=0x00000001 PA:0x80025cdc load:0x00000001
      683362000	     34066	8000bca4	080b8b93	addi	x23,x23,128	 x23:0x80025c60 x23=0x80025ce0
      683382000	     34067	8000bca8	000b82b3	add	x5,x23,x0	 x23:0x80025ce0  x0:0x00000000  x5=0x80025ce0
      683502000	     34073	8000bcac	0002ab83	lw	x23,0(x5)	  x5:0x80025ce0 x23=0x80021df8 PA:0x80025ce0 load:0x80021df8
      683822000	     34089	8000bcb0	0291	c.addi	x5,4	  x5:0x80025ce0  x5=0x80025ce4
      684182000	     34107	8000bcb2	30200073	mret	
      685042000	     34150	8000acea	0001	c.addi	x0,0	  x0:0x00000000  x0=0x00000000
      685822000	     34189	8000acec	05f77263	bgeu	x14,x31,8000ad30	 x14:0x00000002 x31:0x00000001
      686042000	     34200	8000ad30	014d4563	blt	x26,x20,8000ad3a	 x26:0x00000000 x20:0x00000000
      687022000	     34249	8000ad34	03339263	bne	x7,x19,8000ad58	  x7:0x00000100 x19:0xffffffc0
      687782000	     34287	8000ad58	02b700b3	mul	x1,x14,x11	 x14:0x00000002 x11:0x00000010  x1=0x00000020
      687962000	     34296	8000ad5c	01b85213	srli	x4,x16,0x1b	 x16:0x00000004  x4=0x00000000
      688022000	     34299	8000ad60	05ff1163	bne	x30,x31,8000ada2	 x30:0x31111e40 x31:0x00000001
      688322000	     34314	8000ada2	0168f263	bgeu	x17,x22,8000ada6	 x17:0x00000004 x22:0x00000001
      688802000	     34338	8000ada6	01e8df93	srli	x31,x17,0x1e	 x17:0x00000004 x31=0x00000000
      688842000	     34340	8000adaa	86fd	c.srai	x13,0x1f	 x13:0x0000160e x13=0x00000000
      688862000	     34341	8000adac	b0906873	csrrsi	x16,mhpmcounter9,0	 x16=0xd03b509a
      688902000	     34343	8000adb0	410706b3	sub	x13,x14,x16	 x14:0x00000002 x16:0xd03b509a x13=0x2fc4af68
      689142000	     34355	8000adb4	00b945b3	xor	x11,x18,x11	 x18:0x8483fbce x11:0x00000010 x11=0x8483fbde
      689302000	     34363	8000adb8	53ef0493	addi	x9,x30,1342	 x30:0x31111e40  x9=0x3111237e
      689502000	     34373	8000adbc	e905	c.bnez	x10,8000adec	 x10:0x3e75ca36
      690242000	     34410	8000adec	00d581b3	add	x3,x11,x13	 x11:0x8483fbde x13:0x2fc4af68  x3=0xb448ab46
      690382000	     34417	8000adf0	a29ecf13	xori	x30,x29,-1495	 x29:0xffffffdf x30=0x000005f6
      690422000	     34419	8000adf4	952ac713	xori	x14,x21,-1710	 x21:0x00000040 x14=0xfffff912
      690542000	     34425	8000adf8	e499	c.bnez	x9,8000ae06	  x9:0x3111237e
      691082000	     34452	8000ae06	034c2333	mulhsu	x6,x24,x20	 x24:0x00000010 x20:0x00000000  x6=0x00000000
      692042000	     34500	8000ae0a	0239cfb3	div	x31,x19,x3	 x19:0xffffffc0  x3:0xb448ab46 x31=0x00000000
      692082000	     34502	8000ae0e	8d45	c.or	x10,x9	 x10:0x3e75ca36  x9:0x3111237e x10=0x3f75eb7e
      692102000	     34503	8000ae10	00539893	slli	x17,x7,0x5	  x7:0x00000100 x17=0x00002000
      692122000	     34504	8000ae14	e34bf893	andi	x17,x23,-460	 x23:0x80021df8 x17=0x80021c30
      692902000	     34543	8000ae18	8c4d	c.or	x8,x11	  x8:0x00000000 x11:0x8483fbde  x8=0x8483fbde
      692922000	     34544	8000ae1a	485b7113	andi	x2,x22,1157	 x22:0x00000001  x2=0x00000001
      692982000	     34547	8000ae1e	03121263	bne	x4,x17,8000ae42	  x4:0x00000000 x17:0x80021c30
      693062000	     34551	8000ae42	3a206cf3	csrrsi	x25,pmpcfg2,0	 x25=0x0f0f0f0f
      693242000	     34560	8000ae46	0301dd63	bge	x3,x16,8000ae80	  x3:0xb448ab46 x16:0xd03b509a
      693662000	     34581	8000ae4a	01ce53b3	srl	x7,x28,x28	 x28:0x28001048 x28:0x28001048  x7=0x00280010
      693922000	     34594	8000ae4e	3a202af3	csrrs	x21,pmpcfg2,x0	  x0:0x00000000 x21=0x0f0f0f0f
      694702000	     34633	8000ae52	031fd733	divu	x14,x31,x17	 x31:0x00000000 x17:0x80021c30 x14=0x00000000
      694722000	     34634	8000ae56	01295fb3	srl	x31,x18,x18	 x18:0x8483fbce x18:0x8483fbce x31=0x0002120f
      694742000	     34635	8000ae5a	031e	c.slli	x6,0x7	  x6:0x00000000  x6=0x00000000
      694782000	     34637	8000ae5c	016a38b3	sltu	x17,x20,x22	 x20:0x00000000 x22:0x00000001 x17=0x00000001
      695542000	     34675	8000ae60	987d	c.andi	x8,-1	  x8:0x8483fbde  x8=0x8483fbde
      695582000	     34677	8000ae62	567d	c.li	x12,-1	 x12=0xffffffff
      695602000	     34678	8000ae64	9ee5fb37	lui	x22,0x9ee5f	 x22=0x9ee5f000
      695622000	     34679	8000ae68	8d8d	c.sub	x11,x11	 x11:0x8483fbde x11:0x8483fbde x11=0x00000000
      695682000	     34682	8000ae6a	0076e763	bltu	x13,x7,8000ae78	 x13:0x2fc4af68  x7:0x00280010
      695922000	     34694	8000ae6e	8c09	c.sub	x8,x10	  x8:0x8483fbde x10:0x3f75eb7e  x8=0x450e1060
      696102000	     34703	8000ae70	f14eff73	csrrci	x0,mhartid,29	  x0=0x00000000
      696362000	     34716	80002700	0800006f	jal	x0,80002780	  x0=0x00000000
      696902000	     34743	80002780	12f1	c.addi	x5,-4	  x5:0x80025ce4  x5=0x80025ce0
      697102000	     34753	80002782	0172a023	sw	x23,0(x5)	  x5:0x80025ce0 x23:0x80021df8 PA:0x80025ce0 store:0x80021df8 load:0xffffffff
      697262000	     34761	80002786	00028bb3	add	x23,x5,x0	  x5:0x80025ce0  x0:0x00000000 x23=0x80025ce0
      697302000	     34763	8000278a	f80b8b93	addi	x23,x23,-128	 x23:0x80025ce0 x23=0x80025c60
      697642000	     34780	8000278e	001ba223	sw	x1,4(x23)	 x23:0x80025c60  x1:0x00000020 PA:0x80025c64 store:0x00000020 load:0xffffffff
      697742000	     34785	80002792	002ba423	sw	x2,8(x23)	 x23:0x80025c60  x2:0x00000001 PA:0x80025c68 store:0x00000001 load:0xffffffff
      697862000	     34791	80002796	003ba623	sw	x3,12(x23)	 x23:0x80025c60  x3:0xb448ab46 PA:0x80025c6c store:0xb448ab46 load:0xffffffff
      698022000	     34799	8000279a	004ba823	sw	x4,16(x23)	 x23:0x80025c60  x4:0x00000000 PA:0x80025c70 store:0x00000000 load:0xffffffff
      698062000	     34801	8000279e	005baa23	sw	x5,20(x23)	 x23:0x80025c60  x5:0x80025ce0 PA:0x80025c74 store:0x80025ce0 load:0xffffffff
      698482000	     34822	800027a2	006bac23	sw	x6,24(x23)	 x23:0x80025c60  x6:0x00000000 PA:0x80025c78 store:0x00000000 load:0xffffffff
      698882000	     34842	800027a6	007bae23	sw	x7,28(x23)	 x23:0x80025c60  x7:0x00280010 PA:0x80025c7c store:0x00280010 load:0xffffffff
      699042000	     34850	800027aa	028ba023	sw	x8,32(x23)	 x23:0x80025c60  x8:0x450e1060 PA:0x80025c80 store:0x450e1060 load:0xffffffff
      699222000	     34859	800027ae	029ba223	sw	x9,36(x23)	 x23:0x80025c60  x9:0x3111237e PA:0x80025c84 store:0x3111237e load:0xffffffff
      699282000	     34862	800027b2	02aba423	sw	x10,40(x23)	 x23:0x80025c60 x10:0x3f75eb7e PA:0x80025c88 store:0x3f75eb7e load:0xffffffff
      699322000	     34864	800027b6	02bba623	sw	x11,44(x23)	 x23:0x80025c60 x11:0x00000000 PA:0x80025c8c store:0x00000000 load:0xffffffff
      700122000	     34904	800027ba	02cba823	sw	x12,48(x23)	 x23:0x80025c60 x12:0xffffffff PA:0x80025c90 store:0xffffffff load:0xffffffff
      701682000	     34982	800027be	02dbaa23	sw	x13,52(x23)	 x23:0x80025c60 x13:0x2fc4af68 PA:0x80025c94 store:0x2fc4af68 load:0xffffffff
      701702000	     34983	800027c2	02ebac23	sw	x14,56(x23)	 x23:0x80025c60 x14:0x00000000 PA:0x80025c98 store:0x00000000 load:0xffffffff
      701802000	     34988	800027c6	02fbae23	sw	x15,60(x23)	 x23:0x80025c60 x15:0x00000000 PA:0x80025c9c store:0x00000000 load:0xffffffff
      701922000	     34994	800027ca	050ba023	sw	x16,64(x23)	 x23:0x80025c60 x16:0xd03b509a PA:0x80025ca0 store:0xd03b509a load:0xffffffff
      701962000	     34996	800027ce	051ba223	sw	x17,68(x23)	 x23:0x80025c60 x17:0x00000001 PA:0x80025ca4 store:0x00000001 load:0xffffffff
      702282000	     35012	800027d2	052ba423	sw	x18,72(x23)	 x23:0x80025c60 x18:0x8483fbce PA:0x80025ca8 store:0x8483fbce load:0xffffffff
      703762000	     35086	800027d6	053ba623	sw	x19,76(x23)	 x23:0x80025c60 x19:0xffffffc0 PA:0x80025cac store:0xffffffc0 load:0xffffffff
      703822000	     35089	800027da	054ba823	sw	x20,80(x23)	 x23:0x80025c60 x20:0x00000000 PA:0x80025cb0 store:0x00000000 load:0xffffffff
      703862000	     35091	800027de	055baa23	sw	x21,84(x23)	 x23:0x80025c60 x21:0x0f0f0f0f PA:0x80025cb4 store:0x0f0f0f0f load:0xffffffff
      705062000	     35151	800027e2	056bac23	sw	x22,88(x23)	 x23:0x80025c60 x22:0x9ee5f000 PA:0x80025cb8 store:0x9ee5f000 load:0xffffffff
      706082000	     35202	800027e6	057bae23	sw	x23,92(x23)	 x23:0x80025c60 x23:0x80025c60 PA:0x80025cbc store:0x80025c60 load:0xffffffff
      706102000	     35203	800027ea	078ba023	sw	x24,96(x23)	 x23:0x80025c60 x24:0x00000010 PA:0x80025cc0 store:0x00000010 load:0xffffffff
      706242000	     35210	800027ee	079ba223	sw	x25,100(x23)	 x23:0x80025c60 x25:0x0f0f0f0f PA:0x80025cc4 store:0x0f0f0f0f load:0xffffffff
      707102000	     35253	800027f2	07aba423	sw	x26,104(x23)	 x23:0x80025c60 x26:0x00000000 PA:0x80025cc8 store:0x00000000 load:0xffffffff
      707142000	     35255	800027f6	07bba623	sw	x27,108(x23)	 x23:0x80025c60 x27:0x00000000 PA:0x80025ccc store:0x00000000 load:0xffffffff
      707322000	     35264	800027fa	07cba823	sw	x28,112(x23)	 x23:0x80025c60 x28:0x28001048 PA:0x80025cd0 store:0x28001048 load:0xffffffff
      707802000	     35288	800027fe	07dbaa23	sw	x29,116(x23)	 x23:0x80025c60 x29:0xffffffdf PA:0x80025cd4 store:0xffffffdf load:0xffffffff
      708202000	     35308	80002802	07ebac23	sw	x30,120(x23)	 x23:0x80025c60 x30:0x000005f6 PA:0x80025cd8 store:0x000005f6 load:0xffffffff
      708382000	     35317	80002806	07fbae23	sw	x31,124(x23)	 x23:0x80025c60 x31:0x0002120f PA:0x80025cdc store:0x0002120f load:0xffffffff
      708402000	     35318	8000280a	000b82b3	add	x5,x23,x0	 x23:0x80025c60  x0:0x00000000  x5=0x80025c60
      708422000	     35319	8000280e	90000c37	lui	x24,0x90000	 x24=0x90000000
      708462000	     35321	80002812	1c71	c.addi	x24,-4	 x24:0x90000000 x24=0x8ffffffc
      708482000	     35322	80002814	4f21	c.li	x30,8	 x30=0x00000008
      708502000	     35323	80002816	0f22	c.slli	x30,0x8	 x30:0x00000008 x30=0x00000800
      708542000	     35325	80002818	000f0f13	addi	x30,x30,0	 x30:0x00000800 x30=0x00000800
      708602000	     35328	8000281c	01ec2023	sw	x30,0(x24)	 x24:0x8ffffffc x30:0x00000800 PA:0x8ffffffc store:0x00000800 load:0xffffffff
      708762000	     35336	80002820	34102f73	csrrs	x30,mepc,x0	  x0:0x00000000 x30=0x8000ae70
      708822000	     35339	80002824	34202f73	csrrs	x30,mcause,x0	  x0:0x00000000 x30=0x00000002
      709242000	     35360	80002828	4c0d	c.li	x24,3	 x24=0x00000003
      709302000	     35363	8000282a	018f1463	bne	x30,x24,80002832	 x30:0x00000002 x24:0x00000003
      710002000	     35398	80002832	4c21	c.li	x24,8	 x24=0x00000008
      710062000	     35401	80002834	058f0d63	beq	x30,x24,8000288e	 x30:0x00000002 x24:0x00000008
      710902000	     35443	80002838	4c25	c.li	x24,9	 x24=0x00000009
      710982000	     35447	8000283a	058f0a63	beq	x30,x24,8000288e	 x30:0x00000002 x24:0x00000009
      711722000	     35484	8000283e	4c2d	c.li	x24,11	 x24=0x0000000b
      711762000	     35486	80002840	058f0763	beq	x30,x24,8000288e	 x30:0x00000002 x24:0x0000000b
      712082000	     35502	80002844	4c05	c.li	x24,1	 x24=0x00000001
      712122000	     35504	80002846	358f0363	beq	x30,x24,80002b8c	 x30:0x00000002 x24:0x00000001
      712202000	     35508	8000284a	4c15	c.li	x24,5	 x24=0x00000005
      712242000	     35510	8000284c	638f0a63	beq	x30,x24,80002e80	 x30:0x00000002 x24:0x00000005
      712682000	     35532	80002850	4c1d	c.li	x24,7	 x24=0x00000007
      713122000	     35554	80002852	158f0ce3	beq	x30,x24,800031aa	 x30:0x00000002 x24:0x00000007
      713782000	     35587	80002856	4c31	c.li	x24,12	 x24=0x0000000c
      713922000	     35594	80002858	018f1463	bne	x30,x24,80002860	 x30:0x00000002 x24:0x0000000c
      714962000	     35646	80002860	4c35	c.li	x24,13	 x24=0x0000000d
      715322000	     35664	80002862	018f1463	bne	x30,x24,8000286a	 x30:0x00000002 x24:0x0000000d
      715722000	     35684	8000286a	4c3d	c.li	x24,15	 x24=0x0000000f
      715762000	     35686	8000286c	018f1463	bne	x30,x24,80002874	 x30:0x00000002 x24:0x0000000f
      716742000	     35735	80002874	4c09	c.li	x24,2	 x24=0x00000002
      717522000	     35774	80002876	018f1463	bne	x30,x24,8000287e	 x30:0x00000002 x24:0x00000002
      717622000	     35779	8000287a	3740906f	jal	x0,8000bbee	  x0=0x00000000
      718002000	     35798	8000bbee	90000c37	lui	x24,0x90000	 x24=0x90000000
      718022000	     35799	8000bbf2	1c71	c.addi	x24,-4	 x24:0x90000000 x24=0x8ffffffc
      718062000	     35801	8000bbf4	4f29	c.li	x30,10	 x30=0x0000000a
      718082000	     35802	8000bbf6	0f22	c.slli	x30,0x8	 x30:0x0000000a x30=0x00000a00
      718862000	     35841	8000bbf8	000f0f13	addi	x30,x30,0	 x30:0x00000a00 x30=0x00000a00
      718942000	     35845	8000bbfc	01ec2023	sw	x30,0(x24)	 x24:0x8ffffffc x30:0x00000a00 PA:0x8ffffffc store:0x00000a00 load:0xffffffff
      718962000	     35846	8000bc00	90000c37	lui	x24,0x90000	 x24=0x90000000
      719002000	     35848	8000bc04	1c71	c.addi	x24,-4	 x24:0x90000000 x24=0x8ffffffc
      719042000	     35850	8000bc06	34200f13	addi	x30,x0,834	  x0:0x00000000 x30=0x00000342
      719082000	     35852	8000bc0a	0f22	c.slli	x30,0x8	 x30:0x00000342 x30=0x00034200
      719122000	     35854	8000bc0c	0f0d	c.addi	x30,3	 x30:0x00034200 x30=0x00034203
      719782000	     35887	8000bc0e	01ec2023	sw	x30,0(x24)	 x24:0x8ffffffc x30:0x00034203 PA:0x8ffffffc store:0x00034203 load:0xffffffff
      719802000	     35888	8000bc12	34202f73	csrrs	x30,mcause,x0	  x0:0x00000000 x30=0x00000002
      719882000	     35892	8000bc16	01ec2023	sw	x30,0(x24)	 x24:0x8ffffffc x30:0x00000002 PA:0x8ffffffc store:0x00000002 load:0xffffffff
      720642000	     35930	8000bc1a	34102f73	csrrs	x30,mepc,x0	  x0:0x00000000 x30=0x8000ae70
      720682000	     35932	8000bc1e	0f11	c.addi	x30,4	 x30:0x8000ae70 x30=0x8000ae74
      721462000	     35971	8000bc20	341f1073	csrrw	x0,mepc,x30	 x30:0x8000ae74  x0=0x00000000
      721482000	     35972	8000bc24	00028bb3	add	x23,x5,x0	  x5:0x80025c60  x0:0x00000000 x23=0x80025c60
      721862000	     35991	8000bc28	004ba083	lw	x1,4(x23)	 x23:0x80025c60  x1=0x00000020 PA:0x80025c64 load:0x00000020
      722342000	     36015	8000bc2c	008ba103	lw	x2,8(x23)	 x23:0x80025c60  x2=0x00000001 PA:0x80025c68 load:0x00000001
      722562000	     36026	8000bc30	00cba183	lw	x3,12(x23)	 x23:0x80025c60  x3=0xb448ab46 PA:0x80025c6c load:0xb448ab46
      722622000	     36029	8000bc34	010ba203	lw	x4,16(x23)	 x23:0x80025c60  x4=0x00000000 PA:0x80025c70 load:0x00000000
      722662000	     36031	8000bc38	014ba283	lw	x5,20(x23)	 x23:0x80025c60  x5=0x80025ce0 PA:0x80025c74 load:0x80025ce0
      722682000	     36032	8000bc3c	018ba303	lw	x6,24(x23)	 x23:0x80025c60  x6=0x00000000 PA:0x80025c78 load:0x00000000
      722882000	     36042	8000bc40	01cba383	lw	x7,28(x23)	 x23:0x80025c60  x7=0x00280010 PA:0x80025c7c load:0x00280010
      723462000	     36071	8000bc44	020ba403	lw	x8,32(x23)	 x23:0x80025c60  x8=0x450e1060 PA:0x80025c80 load:0x450e1060
      723522000	     36074	8000bc48	024ba483	lw	x9,36(x23)	 x23:0x80025c60  x9=0x3111237e PA:0x80025c84 load:0x3111237e
      724382000	     36117	8000bc4c	028ba503	lw	x10,40(x23)	 x23:0x80025c60 x10=0x3f75eb7e PA:0x80025c88 load:0x3f75eb7e
      724462000	     36121	8000bc50	02cba583	lw	x11,44(x23)	 x23:0x80025c60 x11=0x00000000 PA:0x80025c8c load:0x00000000
      724482000	     36122	8000bc54	030ba603	lw	x12,48(x23)	 x23:0x80025c60 x12=0xffffffff PA:0x80025c90 load:0xffffffff
      724502000	     36123	8000bc58	034ba683	lw	x13,52(x23)	 x23:0x80025c60 x13=0x2fc4af68 PA:0x80025c94 load:0x2fc4af68
      724642000	     36130	8000bc5c	038ba703	lw	x14,56(x23)	 x23:0x80025c60 x14=0x00000000 PA:0x80025c98 load:0x00000000
      725442000	     36170	8000bc60	03cba783	lw	x15,60(x23)	 x23:0x80025c60 x15=0x00000000 PA:0x80025c9c load:0x00000000
      726402000	     36218	8000bc64	040ba803	lw	x16,64(x23)	 x23:0x80025c60 x16=0xd03b509a PA:0x80025ca0 load:0xd03b509a
      726662000	     36231	8000bc68	044ba883	lw	x17,68(x23)	 x23:0x80025c60 x17=0x00000001 PA:0x80025ca4 load:0x00000001
      726882000	     36242	8000bc6c	048ba903	lw	x18,72(x23)	 x23:0x80025c60 x18=0x8483fbce PA:0x80025ca8 load:0x8483fbce
      726942000	     36245	8000bc70	04cba983	lw	x19,76(x23)	 x23:0x80025c60 x19=0xffffffc0 PA:0x80025cac load:0xffffffc0
      727282000	     36262	8000bc74	050baa03	lw	x20,80(x23)	 x23:0x80025c60 x20=0x00000000 PA:0x80025cb0 load:0x00000000
      727382000	     36267	8000bc78	054baa83	lw	x21,84(x23)	 x23:0x80025c60 x21=0x0f0f0f0f PA:0x80025cb4 load:0x0f0f0f0f
      727402000	     36268	8000bc7c	058bab03	lw	x22,88(x23)	 x23:0x80025c60 x22=0x9ee5f000 PA:0x80025cb8 load:0x9ee5f000
      727562000	     36276	8000bc80	05cbab83	lw	x23,92(x23)	 x23:0x80025c60 x23=0x80025c60 PA:0x80025cbc load:0x80025c60
      727642000	     36280	8000bc84	060bac03	lw	x24,96(x23)	 x23:0x80025c60 x24=0x00000010 PA:0x80025cc0 load:0x00000010
      727662000	     36281	8000bc88	064bac83	lw	x25,100(x23)	 x23:0x80025c60 x25=0x0f0f0f0f PA:0x80025cc4 load:0x0f0f0f0f
      727822000	     36289	8000bc8c	068bad03	lw	x26,104(x23)	 x23:0x80025c60 x26=0x00000000 PA:0x80025cc8 load:0x00000000
      727842000	     36290	8000bc90	06cbad83	lw	x27,108(x23)	 x23:0x80025c60 x27=0x00000000 PA:0x80025ccc load:0x00000000
      728102000	     36303	8000bc94	070bae03	lw	x28,112(x23)	 x23:0x80025c60 x28=0x28001048 PA:0x80025cd0 load:0x28001048
      728202000	     36308	8000bc98	074bae83	lw	x29,116(x23)	 x23:0x80025c60 x29=0xffffffdf PA:0x80025cd4 load:0xffffffdf
      728322000	     36314	8000bc9c	078baf03	lw	x30,120(x23)	 x23:0x80025c60 x30=0x000005f6 PA:0x80025cd8 load:0x000005f6
      728362000	     36316	8000bca0	07cbaf83	lw	x31,124(x23)	 x23:0x80025c60 x31=0x0002120f PA:0x80025cdc load:0x0002120f
      728382000	     36317	8000bca4	080b8b93	addi	x23,x23,128	 x23:0x80025c60 x23=0x80025ce0
      728402000	     36318	8000bca8	000b82b3	add	x5,x23,x0	 x23:0x80025ce0  x0:0x00000000  x5=0x80025ce0
      729002000	     36348	8000bcac	0002ab83	lw	x23,0(x5)	  x5:0x80025ce0 x23=0x80021df8 PA:0x80025ce0 load:0x80021df8
      729022000	     36349	8000bcb0	0291	c.addi	x5,4	  x5:0x80025ce0  x5=0x80025ce4
      729082000	     36352	8000bcb2	30200073	mret	
      729242000	     36360	8000ae74	4095d393	srai	x7,x11,0x9	 x11:0x00000000  x7=0x00000000
      729662000	     36381	8000ae78	0116fb33	and	x22,x13,x17	 x13:0x2fc4af68 x17:0x00000001 x22=0x00000000
      729682000	     36382	8000ae7c	717d	c.addi16sp	x2,-16	  x2:0x00000001  x2=0xfffffff1
      729742000	     36385	8000ae7e	8cb5	c.xor	x9,x13	  x9:0x3111237e x13:0x2fc4af68  x9=0x1ed58c16
      730522000	     36424	8000ae80	0135cc63	blt	x11,x19,8000ae98	 x11:0x00000000 x19:0xffffffc0
      730782000	     36437	8000ae84	0a7d	c.addi	x20,31	 x20:0x00000000 x20=0x0000001f
      730822000	     36439	8000ae86	84bd	c.srai	x9,0xf	  x9:0x1ed58c16  x9=0x00003dab
      731562000	     36476	8000ae88	03607c33	remu	x24,x0,x22	  x0:0x00000000 x22:0x00000000 x24=0x00000000
      731602000	     36478	8000ae8c	011cf0b3	and	x1,x25,x17	 x25:0x0f0f0f0f x17:0x00000001  x1=0x00000001
      732362000	     36516	8000ae90	1f18b917	auipc	x18,0x1f18b	 x18=0x9f195e90
      732402000	     36518	8000ae94	2afd7a13	andi	x20,x26,687	 x26:0x00000000 x20=0x00000000
      732422000	     36519	8000ae98	e7269d37	lui	x26,0xe7269	 x26=0xe7269000
      732462000	     36521	8000ae9c	9afd	c.andi	x13,-1	 x13:0x2fc4af68 x13=0x2fc4af68
      732482000	     36522	8000ae9e	001ab833	sltu	x16,x21,x1	 x21:0x0f0f0f0f  x1:0x00000001 x16=0x00000000
      732522000	     36524	8000aea2	8eea	c.mv	x29,x26	  x0:0x00000000 x26:0xe7269000 x29=0xe7269000
      733302000	     36563	8000aea4	03ed3cb3	mulhu	x25,x26,x30	 x26:0xe7269000 x30:0x000005f6 x25=0x00000561
      733342000	     36565	8000aea8	04328263	beq	x5,x3,8000aeec	  x5:0x80025ce4  x3:0xb448ab46
      734162000	     36606	8000aeac	717d	c.addi16sp	x2,-16	  x2:0xfffffff1  x2=0xffffffe1
      734182000	     36607	8000aeae	86c9	c.srai	x13,0x12	 x13:0x2fc4af68 x13=0x00000bf1
      734222000	     36609	8000aeb0	02e71a63	bne	x14,x14,8000aee4	 x14:0x00000000 x14:0x00000000
      734822000	     36639	8000aeb4	00a71093	slli	x1,x14,0xa	 x14:0x00000000  x1=0x00000000
      734842000	     36640	8000aeb8	01bf1713	slli	x14,x30,0x1b	 x30:0x000005f6 x14=0xb0000000
      735882000	     36692	8000aebc	03dbd633	divu	x12,x23,x29	 x23:0x80021df8 x29:0xe7269000 x12=0x00000000
      735922000	     36694	8000aec0	3a306c73	csrrsi	x24,pmpcfg3,0	 x24=0x0f0f0f0f
      735942000	     36695	8000aec4	c2521917	auipc	x18,0xc2521	 x18=0x4252bec4
      736002000	     36698	8000aec8	410f56b3	sra	x13,x30,x16	 x30:0x000005f6 x16:0x00000000 x13=0x000005f6
      736042000	     36700	8000aecc	b08939f3	csrrc	x19,mhpmcounter8,x18	 x18:0x4252bec4 x19=0x00000156
      736102000	     36703	8000aed0	98fa	c.add	x17,x30	 x17:0x00000001 x30:0x000005f6 x17=0x000005f7
      736122000	     36704	8000aed2	00aaa1b3	slt	x3,x21,x10	 x21:0x0f0f0f0f x10:0x3f75eb7e  x3=0x00000001
      736882000	     36742	8000aed6	8e69	c.and	x12,x10	 x12:0x00000000 x10:0x3f75eb7e x12=0x00000000
      736902000	     36743	8000aed8	8686	c.mv	x13,x1	  x0:0x00000000  x1:0x00000000 x13=0x00000000
      736922000	     36744	8000aeda	411a83b3	sub	x7,x21,x17	 x21:0x0f0f0f0f x17:0x000005f7  x7=0x0f0f0918
      736962000	     36746	8000aede	023e	c.slli	x4,0xf	  x4:0x00000000  x4=0x00000000
      737802000	     36788	8000aee0	03c859b3	divu	x19,x16,x28	 x16:0x00000000 x28:0x28001048 x19=0x00000000
      746322000	     37214	8000aee4	000d01b3	add	x3,x26,x0	 x26:0xe7269000  x0:0x00000000  x3=0xe7269000
      747062000	     37251	8000aee8	035cd033	divu	x0,x25,x21	 x25:0x00000561 x21:0x0f0f0f0f  x0=0x00000000
      747102000	     37253	8000aeec	8e61	c.and	x12,x8	 x12:0x00000000  x8:0x450e1060 x12=0x00000000
      747122000	     37254	8000aeee	8ac1	c.andi	x13,16	 x13:0x00000000 x13=0x00000000
      747142000	     37255	8000aef0	826d	c.srli	x12,0x1b	 x12:0x00000000 x12=0x00000000
      747942000	     37295	8000aef2	00655713	srli	x14,x10,0x6	 x10:0x3f75eb7e x14=0x00fdd7ad
      747982000	     37297	8000aef6	01a34763	blt	x6,x26,8000af04	  x6:0x00000000 x26:0xe7269000
      748362000	     37316	8000aefa	c499	c.beqz	x9,8000af08	  x9:0x00003dab
      748962000	     37346	8000aefc	cdb1ca37	lui	x20,0xcdb1c	 x20=0xcdb1c000
      749082000	     37352	8000af00	a451a393	slti	x7,x3,-1467	  x3:0xe7269000  x7=0x00000001
      750202000	     37408	8000af04	03586f33	rem	x30,x16,x21	 x16:0x00000000 x21:0x0f0f0f0f x30=0x00000000
      750242000	     37410	8000af08	0001	c.addi	x0,0	  x0:0x00000000  x0=0x00000000
      750262000	     37411	8000af0a	0001	c.addi	x0,0	  x0:0x00000000  x0=0x00000000
      750302000	     37413	8000af0c	0073d413	srli	x8,x7,0x7	  x7:0x00000001  x8=0x00000000
      750322000	     37414	8000af10	f7087393	andi	x7,x16,-144	 x16:0x00000000  x7=0x00000000
      750362000	     37416	8000af14	014d1213	slli	x4,x26,0x14	 x26:0xe7269000  x4=0x00000000
      751142000	     37455	8000af18	0141e563	bltu	x3,x20,8000af22	  x3:0xe7269000 x20:0xcdb1c000
      751502000	     37473	8000af1c	04ea	c.slli	x9,0x1a	  x9:0x00003dab  x9=0xac000000
      752262000	     37511	8000af1e	008ea033	slt	x0,x29,x8	 x29:0xe7269000  x8:0x00000000  x0=0x00000000
      752282000	     37512	8000af22	0001	c.addi	x0,0	  x0:0x00000000  x0=0x00000000
      752322000	     37514	8000af24	8cc5	c.or	x9,x9	  x9:0xac000000  x9:0xac000000  x9=0xac000000
      752342000	     37515	8000af26	9462	c.add	x8,x24	  x8:0x00000000 x24:0x0f0f0f0f  x8=0x0f0f0f0f
      752362000	     37516	8000af28	000fd193	srli	x3,x31,0x0	 x31:0x0002120f  x3=0x0002120f
      752422000	     37519	8000af2c	c1528597	auipc	x11,0xc1528	 x11=0x41532f2c
      753182000	     37557	8000af30	037e58b3	divu	x17,x28,x23	 x28:0x28001048 x23:0x80021df8 x17=0x00000000
      753222000	     37559	8000af34	024111b3	mulh	x3,x2,x4	  x2:0xffffffe1  x4:0x00000000  x3=0x00000000
      753302000	     37563	8000af38	c685	c.beqz	x13,8000af60	 x13:0x00000000
      753882000	     37592	8000af60	00f71fb3	sll	x31,x14,x15	 x14:0x00fdd7ad x15:0x00000000 x31=0x00fdd7ad
      754922000	     37644	8000af64	03105433	divu	x8,x0,x17	  x0:0x00000000 x17:0x00000000  x8=0xffffffff
      754962000	     37646	8000af68	0236a733	mulhsu	x14,x13,x3	 x13:0x00000000  x3:0x00000000 x14=0x00000000
      755002000	     37648	8000af6c	0215b533	mulhu	x10,x11,x1	 x11:0x41532f2c  x1:0x00000000 x10=0x00000000
      755042000	     37650	8000af70	0115ae33	slt	x28,x11,x17	 x11:0x41532f2c x17:0x00000000 x28=0x00000000
      755062000	     37651	8000af74	00ca14b3	sll	x9,x20,x12	 x20:0xcdb1c000 x12:0x00000000  x9=0xcdb1c000
      755802000	     37688	8000af78	02f6c533	div	x10,x13,x15	 x13:0x00000000 x15:0x00000000 x10=0xffffffff
      756582000	     37727	8000af7c	324d15f3	csrrw	x11,mhpmevent4,x26	 x26:0xe7269000 x11=0x00000002
      756642000	     37730	8000af80	14fd	c.addi	x9,-1	  x9:0xcdb1c000  x9=0xcdb1bfff
      757402000	     37768	8000af82	0001	c.addi	x0,0	  x0:0x00000000  x0=0x00000000
      757422000	     37769	8000af84	0ff0000f	fence	iorw,iorw	
      757462000	     37771	8000af88	8411	c.srai	x8,0x4	  x8:0xffffffff  x8=0xffffffff
      757482000	     37772	8000af8a	010c5eb3	srl	x29,x24,x16	 x24:0x0f0f0f0f x16:0x00000000 x29=0x0f0f0f0f
      757502000	     37773	8000af8e	50530813	addi	x16,x6,1285	  x6:0x00000000 x16=0x00000505
      757562000	     37776	8000af92	8341	c.srli	x14,0x10	 x14:0x00000000 x14=0x00000000
      758362000	     37816	8000af94	ef01	c.bnez	x14,8000afac	 x14:0x00000000
      758802000	     37838	8000af96	b89533f3	csrrc	x7,mhpmcounter9h,x10	 x10:0xffffffff  x7=0x00000000
      758862000	     37841	8000af9a	01e01613	slli	x12,x0,0x1e	  x0:0x00000000 x12=0x00000000
      759622000	     37879	8000af9e	325756f3	csrrwi	x13,mhpmevent5,14	 x13=0x00000004
      760422000	     37919	8000afa2	40150e33	sub	x28,x10,x1	 x10:0xffffffff  x1:0x00000000 x28=0xffffffff
      761162000	     37956	8000afa6	03affeb3	remu	x29,x31,x26	 x31:0x00fdd7ad x26:0xe7269000 x29=0x00fdd7ad
      761182000	     37957	8000afaa	936a	c.add	x6,x26	  x6:0x00000000 x26:0xe7269000  x6=0xe7269000
      761222000	     37959	8000afac	55df2893	slti	x17,x30,1373	 x30:0x00000000 x17=0x00000001
      761242000	     37960	8000afb0	01be5693	srli	x13,x28,0x1b	 x28:0xffffffff x13=0x0000001f
      761282000	     37962	8000afb4	010eda13	srli	x20,x29,0x10	 x29:0x00fdd7ad x20=0x000000fd
      761302000	     37963	8000afb8	1984	c.addi4spn	x9,x2,240	  x9=0x000000d1
      761342000	     37965	8000afba	871a	c.mv	x14,x6	  x0:0x00000000  x6:0xe7269000 x14=0xe7269000
      761422000	     37969	8000afbc	c0abec93	ori	x25,x23,-1014	 x23:0x80021df8 x25=0xfffffdfa
      761502000	     37973	8000afc0	730bc393	xori	x7,x23,1840	 x23:0x80021df8  x7=0x80021ac8
      761942000	     37995	8000afc4	03b37863	bgeu	x6,x27,8000aff4	  x6:0xe7269000 x27:0x00000000
      762402000	     38018	8000aff4	8d6d	c.and	x10,x11	 x10:0xffffffff x11:0x00000002 x10=0x00000002
      762422000	     38019	8000aff6	32002e73	csrrs	x28,mcountinhibit,x0	  x0:0x00000000 x28=0x00000000
      762442000	     38020	8000affa	40ef5393	srai	x7,x30,0xe	 x30:0x00000000  x7=0x00000000
      762482000	     38022	8000affe	6105	c.addi16sp	x2,32	  x2:0xffffffe1  x2=0x00000001
      762542000	     38025	8000b000	85b5	c.srai	x11,0xd	 x11:0x00000002 x11=0x00000000
      762562000	     38026	8000b002	01e51333	sll	x6,x10,x30	 x10:0x00000002 x30:0x00000000  x6=0x00000002
      762742000	     38035	8000b006	008a9e13	slli	x28,x21,0x8	 x21:0x0f0f0f0f x28=0x0f0f0f00
      763502000	     38073	8000b00a	41af01b3	sub	x3,x30,x26	 x30:0x00000000 x26:0xe7269000  x3=0x18d97000
      763522000	     38074	8000b00e	3246d073	csrrwi	x0,mhpmevent4,13	  x0=0x00000000
      764322000	     38114	8000b012	00bf1393	slli	x7,x30,0xb	 x30:0x00000000  x7=0x00000000
      764342000	     38115	8000b016	407c51b3	sra	x3,x24,x7	 x24:0x0f0f0f0f  x7:0x00000000  x3=0x0f0f0f0f
      764382000	     38117	8000b01a	03c3c863	blt	x7,x28,8000b04a	  x7:0x00000000 x28:0x0f0f0f00
      765062000	     38151	8000b04a	969e	c.add	x13,x7	 x13:0x0000001f  x7:0x00000000 x13=0x0000001f
      765102000	     38153	8000b04c	008d9b33	sll	x22,x27,x8	 x27:0x00000000  x8:0xffffffff x22=0x00000000
      765122000	     38154	8000b050	75febf93	sltiu	x31,x29,1887	 x29:0x00fdd7ad x31=0x00000000
      765542000	     38175	8000b054	03f7dd63	bge	x15,x31,8000b08e	 x15:0x00000000 x31:0x00000000
      766702000	     38233	8000b08e	0305bcb3	mulhu	x25,x11,x16	 x11:0x00000000 x16:0x00000505 x25=0x00000000
      766722000	     38234	8000b092	0086	c.slli	x1,0x1	  x1:0x00000000  x1=0x00000000
      766842000	     38240	8000b094	2a757393	andi	x7,x10,679	 x10:0x00000002  x7=0x00000002
      767262000	     38261	8000b098	015ac433	xor	x8,x21,x21	 x21:0x0f0f0f0f x21:0x0f0f0f0f  x8=0x00000000
      767282000	     38262	8000b09c	8145	c.srli	x10,0x11	 x10:0x00000002 x10=0x00000000
      767542000	     38275	8000b09e	7fe4ce93	xori	x29,x9,2046	  x9:0x000000d1 x29=0x0000072f
      768322000	     38314	8000b0a2	987d	c.andi	x8,-1	  x8:0x00000000  x8=0x00000000
      768342000	     38315	8000b0a4	15fd	c.addi	x11,-1	 x11:0x00000000 x11=0xffffffff
      768382000	     38317	8000b0a6	457ece93	xori	x29,x29,1111	 x29:0x0000072f x29=0x00000378
      768402000	     38318	8000b0aa	8eb9	c.xor	x13,x14	 x13:0x0000001f x14:0xe7269000 x13=0xe726901f
      768502000	     38323	8000b0ac	15fd	c.addi	x11,-1	 x11:0xffffffff x11=0xfffffffe
      769262000	     38361	8000b0ae	8f2d	c.xor	x14,x11	 x14:0xe7269000 x11:0xfffffffe x14=0x18d96ffe
      769282000	     38362	8000b0b0	011b7493	andi	x9,x22,17	 x22:0x00000000  x9=0x00000000
      769342000	     38365	8000b0b4	c595	c.beqz	x11,8000b0e0	 x11:0xfffffffe
      769642000	     38380	8000b0b6	01c3d963	bge	x7,x28,8000b0c8	  x7:0x00000002 x28:0x0f0f0f00
      769782000	     38387	8000b0ba	8cc5	c.or	x9,x9	  x9:0x00000000  x9:0x00000000  x9=0x00000000
      770662000	     38431	8000b0bc	0251ee33	rem	x28,x3,x5	  x3:0x0f0f0f0f  x5:0x80025ce4 x28=0x0f0f0f0f
      771422000	     38469	8000b0c0	02886fb3	rem	x31,x16,x8	 x16:0x00000505  x8:0x00000000 x31=0x00000505
      772162000	     38506	8000b0c4	034acfb3	div	x31,x21,x20	 x21:0x0f0f0f0f x20:0x000000fd x31=0x000f3cc5
      772182000	     38507	8000b0c8	00e5ec33	or	x24,x11,x14	 x11:0xfffffffe x14:0x18d96ffe x24=0xfffffffe
      772222000	     38509	8000b0cc	8e39	c.xor	x12,x14	 x12:0x00000000 x14:0x18d96ffe x12=0x18d96ffe
      772242000	     38510	8000b0ce	0000100f	fence.i	
      772322000	     38514	8000b0d2	8fda	c.mv	x31,x22	  x0:0x00000000 x22:0x00000000 x31=0x00000000
      772362000	     38516	8000b0d4	00f59c63	bne	x11,x15,8000b0ec	 x11:0xfffffffe x15:0x00000000
      772442000	     38520	8000b0ec	7a007a73	csrrci	x20,tselect,0	 x20=0x00000000
      773202000	     38558	8000b0f0	26af2f37	lui	x30,0x26af2	 x30=0x26af2000
      773222000	     38559	8000b0f4	0ff0000f	fence	iorw,iorw	
      773242000	     38560	8000b0f8	01761c33	sll	x24,x12,x23	 x12:0x18d96ffe x23:0x80021df8 x24=0xfe000000
      774042000	     38600	8000b0fc	f128d073	csrrwi	x0,marchid,17	  x0=0x00000000
      774142000	     38605	80002700	0800006f	jal	x0,80002780	  x0=0x00000000
      774582000	     38627	80002780	12f1	c.addi	x5,-4	  x5:0x80025ce4  x5=0x80025ce0
      775382000	     38667	80002782	0172a023	sw	x23,0(x5)	  x5:0x80025ce0 x23:0x80021df8 PA:0x80025ce0 store:0x80021df8 load:0xffffffff
      775402000	     38668	80002786	00028bb3	add	x23,x5,x0	  x5:0x80025ce0  x0:0x00000000 x23=0x80025ce0
      775442000	     38670	8000278a	f80b8b93	addi	x23,x23,-128	 x23:0x80025ce0 x23=0x80025c60
      775602000	     38678	8000278e	001ba223	sw	x1,4(x23)	 x23:0x80025c60  x1:0x00000000 PA:0x80025c64 store:0x00000000 load:0xffffffff
      776162000	     38706	80002792	002ba423	sw	x2,8(x23)	 x23:0x80025c60  x2:0x00000001 PA:0x80025c68 store:0x00000001 load:0xffffffff
      776542000	     38725	80002796	003ba623	sw	x3,12(x23)	 x23:0x80025c60  x3:0x0f0f0f0f PA:0x80025c6c store:0x0f0f0f0f load:0xffffffff
      776722000	     38734	8000279a	004ba823	sw	x4,16(x23)	 x23:0x80025c60  x4:0x00000000 PA:0x80025c70 store:0x00000000 load:0xffffffff
      776782000	     38737	8000279e	005baa23	sw	x5,20(x23)	 x23:0x80025c60  x5:0x80025ce0 PA:0x80025c74 store:0x80025ce0 load:0xffffffff
      777162000	     38756	800027a2	006bac23	sw	x6,24(x23)	 x23:0x80025c60  x6:0x00000002 PA:0x80025c78 store:0x00000002 load:0xffffffff
      777342000	     38765	800027a6	007bae23	sw	x7,28(x23)	 x23:0x80025c60  x7:0x00000002 PA:0x80025c7c store:0x00000002 load:0xffffffff
      777462000	     38771	800027aa	028ba023	sw	x8,32(x23)	 x23:0x80025c60  x8:0x00000000 PA:0x80025c80 store:0x00000000 load:0xffffffff
      777482000	     38772	800027ae	029ba223	sw	x9,36(x23)	 x23:0x80025c60  x9:0x00000000 PA:0x80025c84 store:0x00000000 load:0xffffffff
      778482000	     38822	800027b2	02aba423	sw	x10,40(x23)	 x23:0x80025c60 x10:0x00000000 PA:0x80025c88 store:0x00000000 load:0xffffffff
      779282000	     38862	800027b6	02bba623	sw	x11,44(x23)	 x23:0x80025c60 x11:0xfffffffe PA:0x80025c8c store:0xfffffffe load:0xffffffff
      779302000	     38863	800027ba	02cba823	sw	x12,48(x23)	 x23:0x80025c60 x12:0x18d96ffe PA:0x80025c90 store:0x18d96ffe load:0xffffffff
      779322000	     38864	800027be	02dbaa23	sw	x13,52(x23)	 x23:0x80025c60 x13:0xe726901f PA:0x80025c94 store:0xe726901f load:0xffffffff
      779702000	     38883	800027c2	02ebac23	sw	x14,56(x23)	 x23:0x80025c60 x14:0x18d96ffe PA:0x80025c98 store:0x18d96ffe load:0xffffffff
      787122000	     39254	800027c6	02fbae23	sw	x15,60(x23)	 x23:0x80025c60 x15:0x00000000 PA:0x80025c9c store:0x00000000 load:0xffffffff
      787402000	     39268	800027ca	050ba023	sw	x16,64(x23)	 x23:0x80025c60 x16:0x00000505 PA:0x80025ca0 store:0x00000505 load:0xffffffff
      787802000	     39288	800027ce	051ba223	sw	x17,68(x23)	 x23:0x80025c60 x17:0x00000001 PA:0x80025ca4 store:0x00000001 load:0xffffffff
      787982000	     39297	800027d2	052ba423	sw	x18,72(x23)	 x23:0x80025c60 x18:0x4252bec4 PA:0x80025ca8 store:0x4252bec4 load:0xffffffff
      788442000	     39320	800027d6	053ba623	sw	x19,76(x23)	 x23:0x80025c60 x19:0x00000000 PA:0x80025cac store:0x00000000 load:0xffffffff
      788502000	     39323	800027da	054ba823	sw	x20,80(x23)	 x23:0x80025c60 x20:0x00000000 PA:0x80025cb0 store:0x00000000 load:0xffffffff
      788542000	     39325	800027de	055baa23	sw	x21,84(x23)	 x23:0x80025c60 x21:0x0f0f0f0f PA:0x80025cb4 store:0x0f0f0f0f load:0xffffffff
      788582000	     39327	800027e2	056bac23	sw	x22,88(x23)	 x23:0x80025c60 x22:0x00000000 PA:0x80025cb8 store:0x00000000 load:0xffffffff
      789022000	     39349	800027e6	057bae23	sw	x23,92(x23)	 x23:0x80025c60 x23:0x80025c60 PA:0x80025cbc store:0x80025c60 load:0xffffffff
      789542000	     39375	800027ea	078ba023	sw	x24,96(x23)	 x23:0x80025c60 x24:0xfe000000 PA:0x80025cc0 store:0xfe000000 load:0xffffffff
      789602000	     39378	800027ee	079ba223	sw	x25,100(x23)	 x23:0x80025c60 x25:0x00000000 PA:0x80025cc4 store:0x00000000 load:0xffffffff
      790802000	     39438	800027f2	07aba423	sw	x26,104(x23)	 x23:0x80025c60 x26:0xe7269000 PA:0x80025cc8 store:0xe7269000 load:0xffffffff
      790862000	     39441	800027f6	07bba623	sw	x27,108(x23)	 x23:0x80025c60 x27:0x00000000 PA:0x80025ccc store:0x00000000 load:0xffffffff
      791062000	     39451	800027fa	07cba823	sw	x28,112(x23)	 x23:0x80025c60 x28:0x0f0f0f0f PA:0x80025cd0 store:0x0f0f0f0f load:0xffffffff
      791182000	     39457	800027fe	07dbaa23	sw	x29,116(x23)	 x23:0x80025c60 x29:0x00000378 PA:0x80025cd4 store:0x00000378 load:0xffffffff
      791642000	     39480	80002802	07ebac23	sw	x30,120(x23)	 x23:0x80025c60 x30:0x26af2000 PA:0x80025cd8 store:0x26af2000 load:0xffffffff
      791842000	     39490	80002806	07fbae23	sw	x31,124(x23)	 x23:0x80025c60 x31:0x00000000 PA:0x80025cdc store:0x00000000 load:0xffffffff
      791862000	     39491	8000280a	000b82b3	add	x5,x23,x0	 x23:0x80025c60  x0:0x00000000  x5=0x80025c60
      792622000	     39529	8000280e	90000c37	lui	x24,0x90000	 x24=0x90000000
      792642000	     39530	80002812	1c71	c.addi	x24,-4	 x24:0x90000000 x24=0x8ffffffc
      792662000	     39531	80002814	4f21	c.li	x30,8	 x30=0x00000008
      792702000	     39533	80002816	0f22	c.slli	x30,0x8	 x30:0x00000008 x30=0x00000800
      792742000	     39535	80002818	000f0f13	addi	x30,x30,0	 x30:0x00000800 x30=0x00000800
      792802000	     39538	8000281c	01ec2023	sw	x30,0(x24)	 x24:0x8ffffffc x30:0x00000800 PA:0x8ffffffc store:0x00000800 load:0xffffffff
      793562000	     39576	80002820	34102f73	csrrs	x30,mepc,x0	  x0:0x00000000 x30=0x8000b0fc
      793602000	     39578	80002824	34202f73	csrrs	x30,mcause,x0	  x0:0x00000000 x30=0x00000002
      793622000	     39579	80002828	4c0d	c.li	x24,3	 x24=0x00000003
      793662000	     39581	8000282a	018f1463	bne	x30,x24,80002832	 x30:0x00000002 x24:0x00000003
      794182000	     39607	80002832	4c21	c.li	x24,8	 x24=0x00000008
      794302000	     39613	80002834	058f0d63	beq	x30,x24,8000288e	 x30:0x00000002 x24:0x00000008
      794382000	     39617	80002838	4c25	c.li	x24,9	 x24=0x00000009
      794622000	     39629	8000283a	058f0a63	beq	x30,x24,8000288e	 x30:0x00000002 x24:0x00000009
      794982000	     39647	8000283e	4c2d	c.li	x24,11	 x24=0x0000000b
      795022000	     39649	80002840	058f0763	beq	x30,x24,8000288e	 x30:0x00000002 x24:0x0000000b
      795182000	     39657	80002844	4c05	c.li	x24,1	 x24=0x00000001
      795982000	     39697	80002846	358f0363	beq	x30,x24,80002b8c	 x30:0x00000002 x24:0x00000001
      796142000	     39705	8000284a	4c15	c.li	x24,5	 x24=0x00000005
      796202000	     39708	8000284c	638f0a63	beq	x30,x24,80002e80	 x30:0x00000002 x24:0x00000005
      797362000	     39766	80002850	4c1d	c.li	x24,7	 x24=0x00000007
      797442000	     39770	80002852	158f0ce3	beq	x30,x24,800031aa	 x30:0x00000002 x24:0x00000007
      798202000	     39808	80002856	4c31	c.li	x24,12	 x24=0x0000000c
      798282000	     39812	80002858	018f1463	bne	x30,x24,80002860	 x30:0x00000002 x24:0x0000000c
      798882000	     39842	80002860	4c35	c.li	x24,13	 x24=0x0000000d
      799662000	     39881	80002862	018f1463	bne	x30,x24,8000286a	 x30:0x00000002 x24:0x0000000d
      800142000	     39905	8000286a	4c3d	c.li	x24,15	 x24=0x0000000f
      800182000	     39907	8000286c	018f1463	bne	x30,x24,80002874	 x30:0x00000002 x24:0x0000000f
      800802000	     39938	80002874	4c09	c.li	x24,2	 x24=0x00000002
      801622000	     39979	80002876	018f1463	bne	x30,x24,8000287e	 x30:0x00000002 x24:0x00000002
      801942000	     39995	8000287a	3740906f	jal	x0,8000bbee	  x0=0x00000000
      802222000	     40009	8000bbee	90000c37	lui	x24,0x90000	 x24=0x90000000
      802242000	     40010	8000bbf2	1c71	c.addi	x24,-4	 x24:0x90000000 x24=0x8ffffffc
      802262000	     40011	8000bbf4	4f29	c.li	x30,10	 x30=0x0000000a
      803022000	     40049	8000bbf6	0f22	c.slli	x30,0x8	 x30:0x0000000a x30=0x00000a00
      803042000	     40050	8000bbf8	000f0f13	addi	x30,x30,0	 x30:0x00000a00 x30=0x00000a00
      803182000	     40057	8000bbfc	01ec2023	sw	x30,0(x24)	 x24:0x8ffffffc x30:0x00000a00 PA:0x8ffffffc store:0x00000a00 load:0xffffffff
      803202000	     40058	8000bc00	90000c37	lui	x24,0x90000	 x24=0x90000000
      803222000	     40059	8000bc04	1c71	c.addi	x24,-4	 x24:0x90000000 x24=0x8ffffffc
      803282000	     40062	8000bc06	34200f13	addi	x30,x0,834	  x0:0x00000000 x30=0x00000342
      803302000	     40063	8000bc0a	0f22	c.slli	x30,0x8	 x30:0x00000342 x30=0x00034200
      804062000	     40101	8000bc0c	0f0d	c.addi	x30,3	 x30:0x00034200 x30=0x00034203
      804542000	     40125	8000bc0e	01ec2023	sw	x30,0(x24)	 x24:0x8ffffffc x30:0x00034203 PA:0x8ffffffc store:0x00034203 load:0xffffffff
      806042000	     40200	8000bc12	34202f73	csrrs	x30,mcause,x0	  x0:0x00000000 x30=0x00000002
      806102000	     40203	8000bc16	01ec2023	sw	x30,0(x24)	 x24:0x8ffffffc x30:0x00000002 PA:0x8ffffffc store:0x00000002 load:0xffffffff
      806122000	     40204	8000bc1a	34102f73	csrrs	x30,mepc,x0	  x0:0x00000000 x30=0x8000b0fc
      806162000	     40206	8000bc1e	0f11	c.addi	x30,4	 x30:0x8000b0fc x30=0x8000b100
      806182000	     40207	8000bc20	341f1073	csrrw	x0,mepc,x30	 x30:0x8000b100  x0=0x00000000
      806222000	     40209	8000bc24	00028bb3	add	x23,x5,x0	  x5:0x80025c60  x0:0x00000000 x23=0x80025c60
      806422000	     40219	8000bc28	004ba083	lw	x1,4(x23)	 x23:0x80025c60  x1=0x00000000 PA:0x80025c64 load:0x00000000
      806542000	     40225	8000bc2c	008ba103	lw	x2,8(x23)	 x23:0x80025c60  x2=0x00000001 PA:0x80025c68 load:0x00000001
      806582000	     40227	8000bc30	00cba183	lw	x3,12(x23)	 x23:0x80025c60  x3=0x0f0f0f0f PA:0x80025c6c load:0x0f0f0f0f
      806702000	     40233	8000bc34	010ba203	lw	x4,16(x23)	 x23:0x80025c60  x4=0x00000000 PA:0x80025c70 load:0x00000000
      807062000	     40251	8000bc38	014ba283	lw	x5,20(x23)	 x23:0x80025c60  x5=0x80025ce0 PA:0x80025c74 load:0x80025ce0
      807122000	     40254	8000bc3c	018ba303	lw	x6,24(x23)	 x23:0x80025c60  x6=0x00000002 PA:0x80025c78 load:0x00000002
      807922000	     40294	8000bc40	01cba383	lw	x7,28(x23)	 x23:0x80025c60  x7=0x00000002 PA:0x80025c7c load:0x00000002
      808282000	     40312	8000bc44	020ba403	lw	x8,32(x23)	 x23:0x80025c60  x8=0x00000000 PA:0x80025c80 load:0x00000000
      808482000	     40322	8000bc48	024ba483	lw	x9,36(x23)	 x23:0x80025c60  x9=0x00000000 PA:0x80025c84 load:0x00000000
      808502000	     40323	8000bc4c	028ba503	lw	x10,40(x23)	 x23:0x80025c60 x10=0x00000000 PA:0x80025c88 load:0x00000000
      808642000	     40330	8000bc50	02cba583	lw	x11,44(x23)	 x23:0x80025c60 x11=0xfffffffe PA:0x80025c8c load:0xfffffffe
      808862000	     40341	8000bc54	030ba603	lw	x12,48(x23)	 x23:0x80025c60 x12=0x18d96ffe PA:0x80025c90 load:0x18d96ffe
      809082000	     40352	8000bc58	034ba683	lw	x13,52(x23)	 x23:0x80025c60 x13=0xe726901f PA:0x80025c94 load:0xe726901f
      810282000	     40412	8000bc5c	038ba703	lw	x14,56(x23)	 x23:0x80025c60 x14=0x18d96ffe PA:0x80025c98 load:0x18d96ffe
      810482000	     40422	8000bc60	03cba783	lw	x15,60(x23)	 x23:0x80025c60 x15=0x00000000 PA:0x80025c9c load:0x00000000
      810642000	     40430	8000bc64	040ba803	lw	x16,64(x23)	 x23:0x80025c60 x16=0x00000505 PA:0x80025ca0 load:0x00000505
      810802000	     40438	8000bc68	044ba883	lw	x17,68(x23)	 x23:0x80025c60 x17=0x00000001 PA:0x80025ca4 load:0x00000001
      811262000	     40461	8000bc6c	048ba903	lw	x18,72(x23)	 x23:0x80025c60 x18=0x4252bec4 PA:0x80025ca8 load:0x4252bec4
      811362000	     40466	8000bc70	04cba983	lw	x19,76(x23)	 x23:0x80025c60 x19=0x00000000 PA:0x80025cac load:0x00000000
      811382000	     40467	8000bc74	050baa03	lw	x20,80(x23)	 x23:0x80025c60 x20=0x00000000 PA:0x80025cb0 load:0x00000000
      811582000	     40477	8000bc78	054baa83	lw	x21,84(x23)	 x23:0x80025c60 x21=0x0f0f0f0f PA:0x80025cb4 load:0x0f0f0f0f
      811662000	     40481	8000bc7c	058bab03	lw	x22,88(x23)	 x23:0x80025c60 x22=0x00000000 PA:0x80025cb8 load:0x00000000
      811742000	     40485	8000bc80	05cbab83	lw	x23,92(x23)	 x23:0x80025c60 x23=0x80025c60 PA:0x80025cbc load:0x80025c60
      812182000	     40507	8000bc84	060bac03	lw	x24,96(x23)	 x23:0x80025c60 x24=0xfe000000 PA:0x80025cc0 load:0xfe000000
      812242000	     40510	8000bc88	064bac83	lw	x25,100(x23)	 x23:0x80025c60 x25=0x00000000 PA:0x80025cc4 load:0x00000000
      812722000	     40534	8000bc8c	068bad03	lw	x26,104(x23)	 x23:0x80025c60 x26=0xe7269000 PA:0x80025cc8 load:0xe7269000
      814682000	     40632	8000bc90	06cbad83	lw	x27,108(x23)	 x23:0x80025c60 x27=0x00000000 PA:0x80025ccc load:0x00000000
      814882000	     40642	8000bc94	070bae03	lw	x28,112(x23)	 x23:0x80025c60 x28=0x0f0f0f0f PA:0x80025cd0 load:0x0f0f0f0f
      815702000	     40683	8000bc98	074bae83	lw	x29,116(x23)	 x23:0x80025c60 x29=0x00000378 PA:0x80025cd4 load:0x00000378
      815722000	     40684	8000bc9c	078baf03	lw	x30,120(x23)	 x23:0x80025c60 x30=0x26af2000 PA:0x80025cd8 load:0x26af2000
      815862000	     40691	8000bca0	07cbaf83	lw	x31,124(x23)	 x23:0x80025c60 x31=0x00000000 PA:0x80025cdc load:0x00000000
      815902000	     40693	8000bca4	080b8b93	addi	x23,x23,128	 x23:0x80025c60 x23=0x80025ce0
      815922000	     40694	8000bca8	000b82b3	add	x5,x23,x0	 x23:0x80025ce0  x0:0x00000000  x5=0x80025ce0
      816002000	     40698	8000bcac	0002ab83	lw	x23,0(x5)	  x5:0x80025ce0 x23=0x80021df8 PA:0x80025ce0 load:0x80021df8
      816082000	     40702	8000bcb0	0291	c.addi	x5,4	  x5:0x80025ce0  x5=0x80025ce4
      816222000	     40709	8000bcb2	30200073	mret	
      817442000	     40770	8000b100	03c85633	divu	x12,x16,x28	 x16:0x00000505 x28:0x0f0f0f0f x12=0x00000000
      817942000	     40795	8000b104	403d5c33	sra	x24,x26,x3	 x26:0xe7269000  x3:0x0f0f0f0f x24=0xffffce4d
      817982000	     40797	8000b108	8e0d	c.sub	x12,x11	 x12:0x00000000 x11:0xfffffffe x12=0x00000002
      818002000	     40798	8000b10a	00172b33	slt	x22,x14,x1	 x14:0x18d96ffe  x1:0x00000000 x22=0x00000000
      818022000	     40799	8000b10e	01e8fb33	and	x22,x17,x30	 x17:0x00000001 x30:0x26af2000 x22=0x00000000
      818782000	     40837	8000b112	d130c093	xori	x1,x1,-749	  x1:0x00000000  x1=0xfffffd13
      818802000	     40838	8000b116	3244d473	csrrwi	x8,mhpmevent4,9	  x8=0x00000002
      818862000	     40841	8000b11a	0001	c.addi	x0,0	  x0:0x00000000  x0=0x00000000
      819622000	     40879	8000b11c	0001	c.addi	x0,0	  x0:0x00000000  x0=0x00000000
      819662000	     40881	8000b11e	02721833	mulh	x16,x4,x7	  x4:0x00000000  x7:0x00000002 x16=0x00000000
      819682000	     40882	8000b122	bb393a93	sltiu	x21,x18,-1101	 x18:0x4252bec4 x21=0x00000001
      819742000	     40885	8000b126	0372da63	bge	x5,x23,8000b15a	  x5:0x80025ce4 x23:0x80021df8
      820322000	     40914	8000b15a	7ba20537	lui	x10,0x7ba20	 x10=0x7ba20000
      820362000	     40916	8000b15e	01f6a9b3	slt	x19,x13,x31	 x13:0xe726901f x31:0x00000000 x19=0x00000001
      820382000	     40917	8000b162	6139	c.addi16sp	x2,448	  x2:0x00000001  x2=0x000001c1
      821122000	     40954	8000b164	03555d33	divu	x26,x10,x21	 x10:0x7ba20000 x21:0x00000001 x26=0x7ba20000
      821162000	     40956	8000b168	8962	c.mv	x18,x24	  x0:0x00000000 x24:0xffffce4d x18=0xffffce4d
      821182000	     40957	8000b16a	0001	c.addi	x0,0	  x0:0x00000000  x0=0x00000000
      821942000	     40995	8000b16c	b0a279f3	csrrci	x19,mhpmcounter10,4	 x19=0x000001e2
      822022000	     40999	8000b170	4163dc13	srai	x24,x7,0x16	  x7:0x00000002 x24=0x00000000
      822782000	     41037	8000b174	032b50b3	divu	x1,x22,x18	 x22:0x00000000 x18:0xffffce4d  x1=0x00000000
      822802000	     41038	8000b178	896d	c.andi	x10,27	 x10:0x7ba20000 x10=0x00000000
      822842000	     41040	8000b17a	88d6	c.mv	x17,x21	  x0:0x00000000 x21:0x00000001 x17=0x00000001
      822902000	     41043	8000b17c	e609	c.bnez	x12,8000b186	 x12:0x00000002
      822982000	     41047	8000b186	0001	c.addi	x0,0	  x0:0x00000000  x0=0x00000000
      823022000	     41049	8000b188	412650b3	sra	x1,x12,x18	 x12:0x00000002 x18:0xffffce4d  x1=0x00000000
      824002000	     41098	8000b18c	029056b3	divu	x13,x0,x9	  x0:0x00000000  x9:0x00000000 x13=0xffffffff
      824022000	     41099	8000b190	717d	c.addi16sp	x2,-16	  x2:0x000001c1  x2=0x000001b1
      824062000	     41101	8000b192	1834f213	andi	x4,x9,387	  x9:0x00000000  x4=0x00000000
      824082000	     41102	8000b196	3109fb73	csrrci	x22,0x310,19	 x22=0x00000000
      824142000	     41105	8000b19a	1899c493	xori	x9,x19,393	 x19:0x000001e2  x9=0x0000006b
      824902000	     41143	8000b19e	3436d3f3	csrrwi	x7,mtval,13	  x7=0xf128d073
      825002000	     41148	8000b1a2	02342cb3	mulhsu	x25,x8,x3	  x8:0x00000002  x3:0x0f0f0f0f x25=0x00000000
      825022000	     41149	8000b1a6	acc633b7	lui	x7,0xacc63	  x7=0xacc63000
      825802000	     41188	8000b1aa	6329	c.lui	x6,0xa	  x6=0x0000a000
      825822000	     41189	8000b1ac	987d	c.andi	x8,-1	  x8:0x00000002  x8=0x00000002
      825842000	     41190	8000b1ae	8e41	c.or	x12,x8	 x12:0x00000002  x8:0x00000002 x12=0x00000002
      826622000	     41229	8000b1b0	03f3a9b3	mulhsu	x19,x7,x31	  x7:0xacc63000 x31:0x00000000 x19=0x00000000
      826642000	     41230	8000b1b4	3b260db7	lui	x27,0x3b260	 x27=0x3b260000
      826702000	     41233	8000b1b8	04dac163	blt	x21,x13,8000b1fa	 x21:0x00000001 x13:0xffffffff
      826982000	     41247	8000b1bc	8e4d	c.or	x12,x11	 x12:0x00000002 x11:0xfffffffe x12=0xfffffffe
      827062000	     41251	8000b1be	028189b3	mul	x19,x3,x8	  x3:0x0f0f0f0f  x8:0x00000002 x19=0x1e1e1e1e
      827082000	     41252	8000b1c2	4201	c.li	x4,0	  x4=0x00000000
      827142000	     41255	8000b1c4	cc9d	c.beqz	x9,8000b202	  x9:0x0000006b
      827722000	     41284	8000b1c6	c509	c.beqz	x10,8000b1d0	 x10:0x00000000
      828282000	     41312	8000b1d0	b056d173	csrrwi	x2,mhpmcounter5,13	  x2=0x00000280
      828342000	     41315	8000b1d4	033f0fb3	mul	x31,x30,x19	 x30:0x26af2000 x19:0x1e1e1e1e x31=0xce45c000
      828382000	     41317	8000b1d8	41395333	sra	x6,x18,x19	 x18:0xffffce4d x19:0x1e1e1e1e  x6=0xffffffff
      829142000	     41355	8000b1dc	9af6	c.add	x21,x29	 x21:0x00000001 x29:0x00000378 x21=0x00000379
      829162000	     41356	8000b1de	3b903773	csrrc	x14,pmpaddr9,x0	  x0:0x00000000 x14=0x06667395
      829202000	     41358	8000b1e2	033f9a63	bne	x31,x19,8000b216	 x31:0xce45c000 x19:0x1e1e1e1e
      829622000	     41379	8000b216	02fcbfb3	mulhu	x31,x25,x15	 x25:0x00000000 x15:0x00000000 x31=0x00000000
      829802000	     41388	8000b21a	0253ee63	bltu	x7,x5,8000b256	  x7:0xacc63000  x5:0x80025ce4
      830802000	     41438	8000b21e	b8803af3	csrrc	x21,mhpmcounter8h,x0	  x0:0x00000000 x21=0x00000000
      831002000	     41448	8000b222	00a59663	bne	x11,x10,8000b22e	 x11:0xfffffffe x10:0x00000000
      831782000	     41487	8000b22e	04809163	bne	x1,x8,8000b270	  x1:0x00000000  x8:0x00000002
      832082000	     41502	8000b270	00127e63	bgeu	x4,x1,8000b28c	  x4:0x00000000  x1:0x00000000
      833342000	     41565	8000b28c	0856	c.slli	x16,0x15	 x16:0x00000000 x16=0x00000000
      833382000	     41567	8000b28e	862d	c.srai	x12,0xb	 x12:0xfffffffe x12=0xffffffff
      834142000	     41605	8000b290	029ccfb3	div	x31,x25,x9	 x25:0x00000000  x9:0x0000006b x31=0x00000000
      834162000	     41606	8000b294	00b6c433	xor	x8,x13,x11	 x13:0xffffffff x11:0xfffffffe  x8=0x00000001
      834222000	     41609	8000b298	8629	c.srai	x12,0xa	 x12:0xffffffff x12=0xffffffff
      834262000	     41611	8000b29a	0001	c.addi	x0,0	  x0:0x00000000  x0=0x00000000
      834282000	     41612	8000b29c	01be3eb3	sltu	x29,x28,x27	 x28:0x0f0f0f0f x27:0x3b260000 x29=0x00000001
      834322000	     41614	8000b2a0	c685	c.beqz	x13,8000b2c8	 x13:0xffffffff
      834742000	     41635	8000b2a2	717d	c.addi16sp	x2,-16	  x2:0x00000280  x2=0x00000270
      835162000	     41656	8000b2a4	0ff0000f	fence	iorw,iorw	
      835202000	     41658	8000b2a8	01b4da63	bge	x9,x27,8000b2bc	  x9:0x0000006b x27:0x3b260000
      836282000	     41712	8000b2ac	03aa7433	remu	x8,x20,x26	 x20:0x00000000 x26:0x7ba20000  x8=0x00000000
      836322000	     41714	8000b2b0	035924b3	mulhsu	x9,x18,x21	 x18:0xffffce4d x21:0x00000000  x9=0x00000000
      837082000	     41752	8000b2b4	01b99233	sll	x4,x19,x27	 x19:0x1e1e1e1e x27:0x3b260000  x4=0x1e1e1e1e
      837102000	     41753	8000b2b8	32307d73	csrrci	x26,mhpmevent3,0	 x26=0x00000001
      837122000	     41754	8000b2bc	674d	c.lui	x14,0x13	 x14=0x00013000
      837162000	     41756	8000b2be	c896b697	auipc	x13,0xc896b	 x13=0x489762be
      837222000	     41759	8000b2c2	01b52733	slt	x14,x10,x27	 x10:0x00000000 x27:0x3b260000 x14=0x00000001
      837262000	     41761	8000b2c6	0d2e	c.slli	x26,0xb	 x26:0x00000001 x26=0x00000800
      837282000	     41762	8000b2c8	8b61	c.andi	x14,24	 x14:0x00000001 x14=0x00000000
      837302000	     41763	8000b2ca	997a	c.add	x18,x30	 x18:0xffffce4d x30:0x26af2000 x18=0x26aeee4d
      838062000	     41801	8000b2cc	039beab3	rem	x21,x23,x25	 x23:0x80021df8 x25:0x00000000 x21=0x80021df8
      838082000	     41802	8000b2d0	619b2513	slti	x10,x22,1561	 x22:0x00000000 x10=0x00000001
      838102000	     41803	8000b2d4	40e85eb3	sra	x29,x16,x14	 x16:0x00000000 x14:0x00000000 x29=0x00000000
      838862000	     41841	8000b2d8	00c8c733	xor	x14,x17,x12	 x17:0x00000001 x12:0xffffffff x14=0xfffffffe
      838882000	     41842	8000b2dc	01358db3	add	x27,x11,x19	 x11:0xfffffffe x19:0x1e1e1e1e x27=0x1e1e1e1c
      838922000	     41844	8000b2e0	015fdf93	srli	x31,x31,0x15	 x31:0x00000000 x31=0x00000000
      838942000	     41845	8000b2e4	11f70e13	addi	x28,x14,287	 x14:0xfffffffe x28=0x0000011d
      838962000	     41846	8000b2e8	8ef9	c.and	x13,x14	 x13:0x489762be x14:0xfffffffe x13=0x489762be
      839002000	     41848	8000b2ea	8a29	c.andi	x12,10	 x12:0xffffffff x12=0x0000000a
      839022000	     41849	8000b2ec	99fd	c.andi	x11,-1	 x11:0xfffffffe x11=0xfffffffe
      839122000	     41854	8000b2ee	3f1cad93	slti	x27,x25,1009	 x25:0x00000000 x27=0x00000001
      839162000	     41856	8000b2f2	b0802d73	csrrs	x26,mhpmcounter8,x0	  x0:0x00000000 x26=0x00000134
      839222000	     41859	8000b2f6	8765	c.srai	x14,0x19	 x14:0xfffffffe x14=0xffffffff
      839282000	     41862	8000b2f8	cc9d	c.beqz	x9,8000b336	  x9:0x00000000
      839562000	     41876	8000b336	8555	c.srai	x10,0x15	 x10:0x00000001 x10=0x00000000
      839582000	     41877	8000b338	41ed5213	srai	x4,x26,0x1e	 x26:0x00000134  x4=0x00000000
      839622000	     41879	8000b33c	01b7f863	bgeu	x15,x27,8000b34c	 x15:0x00000000 x27:0x00000001
      840522000	     41924	8000b340	e04d7913	andi	x18,x26,-508	 x26:0x00000134 x18=0x00000004
      840842000	     41940	8000b344	025f5963	bge	x30,x5,8000b376	 x30:0x26af2000  x5:0x80025ce4
      841342000	     41965	8000b376	3280dd73	csrrwi	x26,mhpmevent8,1	 x26=0x00000020
      841522000	     41974	8000b37a	0ff0000f	fence	iorw,iorw	
      841822000	     41989	8000b37e	02ee4763	blt	x28,x14,8000b3ac	 x28:0x0000011d x14:0xffffffff
      842722000	     42034	8000b382	4ee1	c.li	x29,24	 x29=0x00000018
      842782000	     42037	8000b384	c98d	c.beqz	x11,8000b3b6	 x11:0xfffffffe
      843442000	     42070	8000b386	03416863	bltu	x2,x20,8000b3b6	  x2:0x00000270 x20:0x00000000
      843902000	     42093	8000b38a	9e84f693	andi	x13,x9,-1560	  x9:0x00000000 x13=0x00000000
      844662000	     42131	8000b38e	0d31	c.addi	x26,12	 x26:0x00000020 x26=0x0000002c
      844702000	     42133	8000b390	0571e163	bltu	x3,x23,8000b3d2	  x3:0x0f0f0f0f x23:0x80021df8
      844862000	     42141	8000b3d2	6b21	c.lui	x22,0x8	 x22=0x00008000
      859342000	     42865	8000b3d4	40c05e93	srai	x29,x0,0xc	  x0:0x00000000 x29=0x00000000
      859382000	     42867	8000b3d8	0001	c.addi	x0,0	  x0:0x00000000  x0=0x00000000
      859402000	     42868	8000b3da	23c5c393	xori	x7,x11,572	 x11:0xfffffffe  x7=0xfffffdc2
      860162000	     42906	8000b3de	4551	c.li	x10,20	 x10=0x00000014
      860942000	     42945	8000b3e0	1984	c.addi4spn	x9,x2,240	  x9=0x00000360
      860962000	     42946	8000b3e2	006580b3	add	x1,x11,x6	 x11:0xfffffffe  x6:0xffffffff  x1=0xfffffffd
      861742000	     42985	8000b3e6	8d6b4993	xori	x19,x22,-1834	 x22:0x00008000 x19=0xffff78d6
      861762000	     42986	8000b3ea	0033aeb3	slt	x29,x7,x3	  x7:0xfffffdc2  x3:0x0f0f0f0f x29=0x00000001
      861782000	     42987	8000b3ee	03110433	mul	x8,x2,x17	  x2:0x00000270 x17:0x00000001  x8=0x00000270
      861862000	     42991	8000b3f2	03651ab3	mulh	x21,x10,x22	 x10:0x00000014 x22:0x00008000 x21=0x00000000
      861882000	     42992	8000b3f6	823619b7	lui	x19,0x82361	 x19=0x82361000
      861922000	     42994	8000b3fa	004b0633	add	x12,x22,x4	 x22:0x00008000  x4:0x00000000 x12=0x00008000
      861982000	     42997	8000b3fe	00600e63	beq	x0,x6,8000b41a	  x0:0x00000000  x6:0xffffffff
      863262000	     43061	8000b402	032dcab3	div	x21,x27,x18	 x27:0x00000001 x18:0x00000004 x21=0x00000000
      863302000	     43063	8000b406	0000100f	fence.i	
      864082000	     43102	8000b40a	81d8e693	ori	x13,x17,-2019	 x17:0x00000001 x13=0xfffff81d
      864502000	     43123	8000b40e	b08c9073	csrrw	x0,mhpmcounter8,x25	 x25:0x00000000  x0=0x00000000
      864562000	     43126	8000b412	b8507273	csrrci	x4,mhpmcounter5h,0	  x4=0x00000000
      865662000	     43181	8000b416	03177533	remu	x10,x14,x17	 x14:0xffffffff x17:0x00000001 x10=0x00000000
      865702000	     43183	8000b41a	0480c063	blt	x1,x8,8000b45a	  x1:0xfffffffd  x8:0x00000270
      865922000	     43194	8000b45a	3276e873	csrrsi	x16,mhpmevent7,13	 x16=0x00000010
      866742000	     43235	8000b45e	93be	c.add	x7,x15	  x7:0xfffffdc2 x15:0x00000000  x7=0xfffffdc2
      866782000	     43237	8000b460	039c6b63	bltu	x24,x25,8000b496	 x24:0x00000000 x25:0x00000000
      866922000	     43244	8000b464	c0f72a93	slti	x21,x14,-1009	 x14:0xffffffff x21=0x00000000
      866942000	     43245	8000b468	0001	c.addi	x0,0	  x0:0x00000000  x0=0x00000000
      867142000	     43255	8000b46a	051f1363	bne	x30,x17,8000b4b0	 x30:0x26af2000 x17:0x00000001
      867702000	     43283	8000b4b0	0ff0000f	fence	iorw,iorw	
      867742000	     43285	8000b4b4	00fe35b3	sltu	x11,x28,x15	 x28:0x0000011d x15:0x00000000 x11=0x00000000
      868482000	     43322	8000b4b8	02c5e733	rem	x14,x11,x12	 x11:0x00000000 x12:0x00008000 x14=0x00000000
      868542000	     43325	8000b4bc	0441	c.addi	x8,16	  x8:0x00000270  x8=0x00000280
      868562000	     43326	8000b4be	0001	c.addi	x0,0	  x0:0x00000000  x0=0x00000000
      869322000	     43364	8000b4c0	e32eb593	sltiu	x11,x29,-462	 x29:0x00000001 x11=0x00000001
      869342000	     43365	8000b4c4	8035	c.srli	x8,0xd	  x8:0x00000280  x8=0x00000000
      869362000	     43366	8000b4c6	3a02b413	sltiu	x8,x5,928	  x5:0x80025ce4  x8=0x00000000
      870122000	     43404	8000b4ca	01b969b3	or	x19,x18,x27	 x18:0x00000004 x27:0x00000001 x19=0x00000005
      870142000	     43405	8000b4ce	01e7a333	slt	x6,x15,x30	 x15:0x00000000 x30:0x26af2000  x6=0x00000001
      870162000	     43406	8000b4d2	9974a917	auipc	x18,0x9974a	 x18=0x197554d2
      870222000	     43409	8000b4d6	63ce0e93	addi	x29,x28,1596	 x28:0x0000011d x29=0x00000759
      870242000	     43410	8000b4da	914e	c.add	x2,x19	  x2:0x00000270 x19:0x00000005  x2=0x00000275
      870302000	     43413	8000b4dc	00d09913	slli	x18,x1,0xd	  x1:0xfffffffd x18=0xffffa000
      871062000	     43451	8000b4e0	02847a33	remu	x20,x8,x8	  x8:0x00000000  x8:0x00000000 x20=0x00000000
      871102000	     43453	8000b4e4	036b3233	mulhu	x4,x22,x22	 x22:0x00008000 x22:0x00008000  x4=0x00000000
      871142000	     43455	8000b4e8	01d9deb3	srl	x29,x19,x29	 x19:0x00000005 x29:0x00000759 x29=0x00000000
      871182000	     43457	8000b4ec	004d89b3	add	x19,x27,x4	 x27:0x00000001  x4:0x00000000 x19=0x00000001
      871922000	     43494	8000b4f0	03d3f6b3	remu	x13,x7,x29	  x7:0xfffffdc2 x29:0x00000000 x13=0xfffffdc2
      871942000	     43495	8000b4f4	9320ca93	xori	x21,x1,-1742	  x1:0xfffffffd x21=0x000006cf
      872722000	     43534	8000b4f8	00120663	beq	x4,x1,8000b504	  x4:0x00000000  x1:0xfffffffd
      873762000	     43586	8000b4fc	0246e3b3	rem	x7,x13,x4	 x13:0xfffffdc2  x4:0x00000000  x7=0xfffffdc2
      873802000	     43588	8000b500	0dea	c.slli	x27,0x1a	 x27:0x00000001 x27=0x04000000
      873822000	     43589	8000b502	997d	c.andi	x10,-1	 x10:0x00000000 x10=0x00000000
      873882000	     43592	8000b504	02d6f363	bgeu	x13,x13,8000b52a	 x13:0xfffffdc2 x13:0xfffffdc2
      874502000	     43623	8000b52a	0ff0000f	fence	iorw,iorw	
      874662000	     43631	8000b52e	02348c63	beq	x9,x3,8000b566	  x9:0x00000360  x3:0x0f0f0f0f
      876262000	     43711	8000b532	02b44633	div	x12,x8,x11	  x8:0x00000000 x11:0x00000001 x12=0x00000000
      877782000	     43787	8000b536	81bd	c.srli	x11,0xf	 x11:0x00000001 x11=0x00000000
      877842000	     43790	8000b538	8e11	c.sub	x12,x12	 x12:0x00000000 x12:0x00000000 x12=0x00000000
      877862000	     43791	8000b53a	01d163b3	or	x7,x2,x29	  x2:0x00000275 x29:0x00000000  x7=0x00000275
      877902000	     43793	8000b53e	8f01	c.sub	x14,x8	 x14:0x00000000  x8:0x00000000 x14=0x00000000
      877922000	     43794	8000b540	24b77f93	andi	x31,x14,587	 x14:0x00000000 x31=0x00000000
      877982000	     43797	8000b544	0001	c.addi	x0,0	  x0:0x00000000  x0=0x00000000
      878002000	     43798	8000b546	8f15	c.sub	x14,x13	 x14:0x00000000 x13:0xfffffdc2 x14=0x0000023e
      878042000	     43800	8000b548	3b0029f3	csrrs	x19,pmpaddr0,x0	  x0:0x00000000 x19=0x20000d2f
      878802000	     43838	8000b54c	613d	c.addi16sp	x2,480	  x2:0x00000275  x2=0x00000455
      880342000	     43915	8000b54e	5efea513	slti	x10,x29,1519	 x29:0x00000000 x10=0x00000001
      880382000	     43917	8000b552	03c93433	mulhu	x8,x18,x28	 x18:0xffffa000 x28:0x0000011d  x8=0x0000011c
      880402000	     43918	8000b556	006dcab3	xor	x21,x27,x6	 x27:0x04000000  x6:0x00000001 x21=0x04000001
      880442000	     43920	8000b55a	0000100f	fence.i	
      881742000	     43985	8000b55e	02dbc833	div	x16,x23,x13	 x23:0x80021df8 x13:0xfffffdc2 x16=0x0039155a
      881762000	     43986	8000b562	547d	c.li	x8,-1	  x8=0xffffffff
      881802000	     43988	8000b564	0001	c.addi	x0,0	  x0:0x00000000  x0=0x00000000
      881822000	     43989	8000b566	8745	c.srai	x14,0x11	 x14:0x0000023e x14=0x00000000
      881842000	     43990	8000b568	7c1023f3	csrrs	x7,0x7c1,x0	  x0:0x00000000  x7=0x00000000
      882602000	     44028	8000b56c	9ed4b093	sltiu	x1,x9,-1555	  x9:0x00000360  x1=0x00000001
      882682000	     44032	8000b570	d15bd037	lui	x0,0xd15bd	  x0=0x00000000
      882702000	     44033	8000b574	418a0633	sub	x12,x20,x24	 x20:0x00000000 x24:0x00000000 x12=0x00000000
      882742000	     44035	8000b578	03023eb3	mulhu	x29,x4,x16	  x4:0x00000000 x16:0x0039155a x29=0x00000000
      883582000	     44077	8000b57c	02c2de33	divu	x28,x5,x12	  x5:0x80025ce4 x12:0x00000000 x28=0xffffffff
      883602000	     44078	8000b580	015b1093	slli	x1,x22,0x15	 x22:0x00008000  x1=0x00000000
      883642000	     44080	8000b584	03a5a233	mulhsu	x4,x11,x26	 x11:0x00000000 x26:0x0000002c  x4=0x00000000
      883702000	     44083	8000b588	144c6717	auipc	x14,0x144c6	 x14=0x944d1588
      883722000	     44084	8000b58c	41fa5b33	sra	x22,x20,x31	 x20:0x00000000 x31:0x00000000 x22=0x00000000
      883762000	     44086	8000b590	01231213	slli	x4,x6,0x12	  x6:0x00000001  x4=0x00040000
      883802000	     44088	8000b594	01bc9233	sll	x4,x25,x27	 x25:0x00000000 x27:0x04000000  x4=0x00000000
      883822000	     44089	8000b598	b86439f3	csrrc	x19,mhpmcounter6h,x8	  x8:0xffffffff x19=0x00000000
      883942000	     44095	8000b59c	b0902ef3	csrrs	x29,mhpmcounter9,x0	  x0:0x00000000 x29=0xd03b50dd
      883982000	     44097	8000b5a0	cd9d	c.beqz	x11,8000b5de	 x11:0x00000000
      884042000	     44100	8000b5de	8c51	c.or	x8,x12	  x8:0xffffffff x12:0x00000000  x8=0xffffffff
      884162000	     44106	8000b5e0	02071933	mulh	x18,x14,x0	 x14:0x944d1588  x0:0x00000000 x18=0x00000000
      884562000	     44126	8000b5e4	7a0073f3	csrrci	x7,tselect,0	  x7=0x00000000
      888302000	     44313	8000b5e8	340ed073	csrrwi	x0,mscratch,29	  x0=0x00000000
      888342000	     44315	8000b5ec	0454c263	blt	x9,x5,8000b630	  x9:0x00000360  x5:0x80025ce4
      888422000	     44319	8000b5f0	66911497	auipc	x9,0x66911	  x9=0xe691c5f0
      889342000	     44365	8000b5f4	03b3e5b3	rem	x11,x7,x27	  x7:0x00000000 x27:0x04000000 x11=0x00000000
      890102000	     44403	8000b5f8	009586b3	add	x13,x11,x9	 x11:0x00000000  x9:0xe691c5f0 x13=0xe691c5f0
      890122000	     44404	8000b5fc	0026fd33	and	x26,x13,x2	 x13:0xe691c5f0  x2:0x00000455 x26=0x00000450
      890902000	     44443	8000b600	40b68cb3	sub	x25,x13,x11	 x13:0xe691c5f0 x11:0x00000000 x25=0xe691c5f0
      890922000	     44444	8000b604	01e17433	and	x8,x2,x30	  x2:0x00000455 x30:0x26af2000  x8=0x00000000
      890962000	     44446	8000b608	408ad213	srai	x4,x21,0x8	 x21:0x04000001  x4=0x00040000
      891702000	     44483	8000b60c	0213c9b3	div	x19,x7,x1	  x7:0x00000000  x1:0x00000000 x19=0xffffffff
      891722000	     44484	8000b610	0008d913	srli	x18,x17,0x0	 x17:0x00000001 x18=0x00000001
      891762000	     44486	8000b614	8d21	c.xor	x10,x8	 x10:0x00000001  x8:0x00000000 x10=0x00000001
      891782000	     44487	8000b616	b8802d73	csrrs	x26,mhpmcounter8h,x0	  x0:0x00000000 x26=0x00000000
      891822000	     44489	8000b61a	0ff0000f	fence	iorw,iorw	
      891862000	     44491	8000b61e	0001	c.addi	x0,0	  x0:0x00000000  x0=0x00000000
      891882000	     44492	8000b620	4074d033	sra	x0,x9,x7	  x9:0xe691c5f0  x7:0x00000000  x0=0x00000000
      891902000	     44493	8000b624	fa9fea17	auipc	x20,0xfa9fe	 x20=0x7aa09624
      891962000	     44496	8000b628	03f79763	bne	x15,x31,8000b656	 x15:0x00000000 x31:0x00000000
      893442000	     44570	8000b62c	03f55ab3	divu	x21,x10,x31	 x10:0x00000001 x31:0x00000000 x21=0xffffffff
      893502000	     44573	8000b630	02a9df63	bge	x19,x10,8000b66e	 x19:0xffffffff x10:0x00000001
      893822000	     44589	8000b634	41c6d933	sra	x18,x13,x28	 x13:0xe691c5f0 x28:0xffffffff x18=0xffffffff
      893922000	     44594	8000b638	8d79	c.and	x10,x14	 x10:0x00000001 x14:0x944d1588 x10=0x00000000
      894082000	     44602	8000b63a	0000100f	fence.i	
      894702000	     44633	8000b63e	977e	c.add	x14,x31	 x14:0x944d1588 x31:0x00000000 x14=0x944d1588
      894742000	     44635	8000b640	00eec133	xor	x2,x29,x14	 x29:0xd03b50dd x14:0x944d1588  x2=0x44764555
      895142000	     44655	8000b644	013816b3	sll	x13,x16,x19	 x16:0x0039155a x19:0xffffffff x13=0x00000000
      895182000	     44657	8000b648	8f1d	c.sub	x14,x15	 x14:0x944d1588 x15:0x00000000 x14=0x944d1588
      895202000	     44658	8000b64a	018e5e33	srl	x28,x28,x24	 x28:0xffffffff x24:0x00000000 x28=0xffffffff
      895242000	     44660	8000b64e	0001	c.addi	x0,0	  x0:0x00000000  x0=0x00000000
      895462000	     44671	8000b650	037434b3	mulhu	x9,x8,x23	  x8:0x00000000 x23:0x80021df8  x9=0x00000000
      895482000	     44672	8000b654	0001	c.addi	x0,0	  x0:0x00000000  x0=0x00000000
      895522000	     44674	8000b656	45c8b517	auipc	x10,0x45c8b	 x10=0xc5c96656
      895582000	     44677	8000b65a	31006273	csrrsi	x4,0x310,0	  x4=0x00000000
      895702000	     44683	8000b65e	00fbdb33	srl	x22,x23,x15	 x23:0x80021df8 x15:0x00000000 x22=0x80021df8
      895722000	     44684	8000b662	a7a56393	ori	x7,x10,-1414	 x10:0xc5c96656  x7=0xfffffe7e
      895762000	     44686	8000b666	000ddd93	srli	x27,x27,0x0	 x27:0x04000000 x27=0x04000000
      895782000	     44687	8000b66a	3e72ac13	slti	x24,x5,999	  x5:0x80025ce4 x24=0x00000001
      895802000	     44688	8000b66e	0001	c.addi	x0,0	  x0:0x00000000  x0=0x00000000
      895842000	     44690	8000b670	34b3f593	andi	x11,x7,843	  x7:0xfffffe7e x11=0x0000024a
      895862000	     44691	8000b674	00441813	slli	x16,x8,0x4	  x8:0x00000000 x16=0x00000000
      896162000	     44706	8000b678	64b1	c.lui	x9,0xc	  x9=0x0000c000
      896242000	     44710	8000b67a	3b102373	csrrs	x6,pmpaddr1,x0	  x0:0x00000000  x6=0x24445173
      896262000	     44711	8000b67e	015f9733	sll	x14,x31,x21	 x31:0x00000000 x21:0xffffffff x14=0x00000000
      896282000	     44712	8000b682	6ced	c.lui	x25,0x1b	 x25=0x0001b000
      896382000	     44717	8000b684	030a3033	mulhu	x0,x20,x16	 x20:0x7aa09624 x16:0x00000000  x0=0x00000000
      896542000	     44725	8000b688	02d2a633	mulhsu	x12,x5,x13	  x5:0x80025ce4 x13:0x00000000 x12=0x00000000
      896562000	     44726	8000b68c	03918233	mul	x4,x3,x25	  x3:0x0f0f0f0f x25:0x0001b000  x4=0x69695000
      896602000	     44728	8000b690	03631863	bne	x6,x22,8000b6c0	  x6:0x24445173 x22:0x80021df8
      897502000	     44773	8000b6c0	7b2063f3	csrrsi	x0,dscratch,0	  x0=0x00000000
      898002000	     44798	80002700	0800006f	jal	x0,80002780	  x0=0x00000000
      899542000	     44875	80002780	12f1	c.addi	x5,-4	  x5:0x80025ce4  x5=0x80025ce0
      900362000	     44916	80002782	0172a023	sw	x23,0(x5)	  x5:0x80025ce0 x23:0x80021df8 PA:0x80025ce0 store:0x80021df8 load:0xffffffff
      900422000	     44919	80002786	00028bb3	add	x23,x5,x0	  x5:0x80025ce0  x0:0x00000000 x23=0x80025ce0
      900442000	     44920	8000278a	f80b8b93	addi	x23,x23,-128	 x23:0x80025ce0 x23=0x80025c60
      901642000	     44980	8000278e	001ba223	sw	x1,4(x23)	 x23:0x80025c60  x1:0x00000000 PA:0x80025c64 store:0x00000000 load:0xffffffff
      902442000	     45020	80002792	002ba423	sw	x2,8(x23)	 x23:0x80025c60  x2:0x44764555 PA:0x80025c68 store:0x44764555 load:0xffffffff
      902482000	     45022	80002796	003ba623	sw	x3,12(x23)	 x23:0x80025c60  x3:0x0f0f0f0f PA:0x80025c6c store:0x0f0f0f0f load:0xffffffff
      902762000	     45036	8000279a	004ba823	sw	x4,16(x23)	 x23:0x80025c60  x4:0x69695000 PA:0x80025c70 store:0x69695000 load:0xffffffff
      904462000	     45121	8000279e	005baa23	sw	x5,20(x23)	 x23:0x80025c60  x5:0x80025ce0 PA:0x80025c74 store:0x80025ce0 load:0xffffffff
      904602000	     45128	800027a2	006bac23	sw	x6,24(x23)	 x23:0x80025c60  x6:0x24445173 PA:0x80025c78 store:0x24445173 load:0xffffffff
      904982000	     45147	800027a6	007bae23	sw	x7,28(x23)	 x23:0x80025c60  x7:0xfffffe7e PA:0x80025c7c store:0xfffffe7e load:0xffffffff
      905902000	     45193	800027aa	028ba023	sw	x8,32(x23)	 x23:0x80025c60  x8:0x00000000 PA:0x80025c80 store:0x00000000 load:0xffffffff
      905962000	     45196	800027ae	029ba223	sw	x9,36(x23)	 x23:0x80025c60  x9:0x0000c000 PA:0x80025c84 store:0x0000c000 load:0xffffffff
      906182000	     45207	800027b2	02aba423	sw	x10,40(x23)	 x23:0x80025c60 x10:0xc5c96656 PA:0x80025c88 store:0xc5c96656 load:0xffffffff
      906462000	     45221	800027b6	02bba623	sw	x11,44(x23)	 x23:0x80025c60 x11:0x0000024a PA:0x80025c8c store:0x0000024a load:0xffffffff
      906722000	     45234	800027ba	02cba823	sw	x12,48(x23)	 x23:0x80025c60 x12:0x00000000 PA:0x80025c90 store:0x00000000 load:0xffffffff
      906742000	     45235	800027be	02dbaa23	sw	x13,52(x23)	 x23:0x80025c60 x13:0x00000000 PA:0x80025c94 store:0x00000000 load:0xffffffff
      906802000	     45238	800027c2	02ebac23	sw	x14,56(x23)	 x23:0x80025c60 x14:0x00000000 PA:0x80025c98 store:0x00000000 load:0xffffffff
      906822000	     45239	800027c6	02fbae23	sw	x15,60(x23)	 x23:0x80025c60 x15:0x00000000 PA:0x80025c9c store:0x00000000 load:0xffffffff
      907622000	     45279	800027ca	050ba023	sw	x16,64(x23)	 x23:0x80025c60 x16:0x00000000 PA:0x80025ca0 store:0x00000000 load:0xffffffff
      907642000	     45280	800027ce	051ba223	sw	x17,68(x23)	 x23:0x80025c60 x17:0x00000001 PA:0x80025ca4 store:0x00000001 load:0xffffffff
      908062000	     45301	800027d2	052ba423	sw	x18,72(x23)	 x23:0x80025c60 x18:0xffffffff PA:0x80025ca8 store:0xffffffff load:0xffffffff
      908142000	     45305	800027d6	053ba623	sw	x19,76(x23)	 x23:0x80025c60 x19:0xffffffff PA:0x80025cac store:0xffffffff load:0xffffffff
      908362000	     45316	800027da	054ba823	sw	x20,80(x23)	 x23:0x80025c60 x20:0x7aa09624 PA:0x80025cb0 store:0x7aa09624 load:0xffffffff
      908382000	     45317	800027de	055baa23	sw	x21,84(x23)	 x23:0x80025c60 x21:0xffffffff PA:0x80025cb4 store:0xffffffff load:0xffffffff
      908682000	     45332	800027e2	056bac23	sw	x22,88(x23)	 x23:0x80025c60 x22:0x80021df8 PA:0x80025cb8 store:0x80021df8 load:0xffffffff
      908922000	     45344	800027e6	057bae23	sw	x23,92(x23)	 x23:0x80025c60 x23:0x80025c60 PA:0x80025cbc store:0x80025c60 load:0xffffffff
      909002000	     45348	800027ea	078ba023	sw	x24,96(x23)	 x23:0x80025c60 x24:0x00000001 PA:0x80025cc0 store:0x00000001 load:0xffffffff
      909042000	     45350	800027ee	079ba223	sw	x25,100(x23)	 x23:0x80025c60 x25:0x0001b000 PA:0x80025cc4 store:0x0001b000 load:0xffffffff
      909062000	     45351	800027f2	07aba423	sw	x26,104(x23)	 x23:0x80025c60 x26:0x00000000 PA:0x80025cc8 store:0x00000000 load:0xffffffff
      909702000	     45383	800027f6	07bba623	sw	x27,108(x23)	 x23:0x80025c60 x27:0x04000000 PA:0x80025ccc store:0x04000000 load:0xffffffff
      909982000	     45397	800027fa	07cba823	sw	x28,112(x23)	 x23:0x80025c60 x28:0xffffffff PA:0x80025cd0 store:0xffffffff load:0xffffffff
      910402000	     45418	800027fe	07dbaa23	sw	x29,116(x23)	 x23:0x80025c60 x29:0xd03b50dd PA:0x80025cd4 store:0xd03b50dd load:0xffffffff
      910522000	     45424	80002802	07ebac23	sw	x30,120(x23)	 x23:0x80025c60 x30:0x26af2000 PA:0x80025cd8 store:0x26af2000 load:0xffffffff
      910662000	     45431	80002806	07fbae23	sw	x31,124(x23)	 x23:0x80025c60 x31:0x00000000 PA:0x80025cdc store:0x00000000 load:0xffffffff
      910702000	     45433	8000280a	000b82b3	add	x5,x23,x0	 x23:0x80025c60  x0:0x00000000  x5=0x80025c60
      910722000	     45434	8000280e	90000c37	lui	x24,0x90000	 x24=0x90000000
      910742000	     45435	80002812	1c71	c.addi	x24,-4	 x24:0x90000000 x24=0x8ffffffc
      910782000	     45437	80002814	4f21	c.li	x30,8	 x30=0x00000008
      911542000	     45475	80002816	0f22	c.slli	x30,0x8	 x30:0x00000008 x30=0x00000800
      911582000	     45477	80002818	000f0f13	addi	x30,x30,0	 x30:0x00000800 x30=0x00000800
      911642000	     45480	8000281c	01ec2023	sw	x30,0(x24)	 x24:0x8ffffffc x30:0x00000800 PA:0x8ffffffc store:0x00000800 load:0xffffffff
      911682000	     45482	80002820	34102f73	csrrs	x30,mepc,x0	  x0:0x00000000 x30=0x8000b6c0
      911702000	     45483	80002824	34202f73	csrrs	x30,mcause,x0	  x0:0x00000000 x30=0x00000002
      911742000	     45485	80002828	4c0d	c.li	x24,3	 x24=0x00000003
      911802000	     45488	8000282a	018f1463	bne	x30,x24,80002832	 x30:0x00000002 x24:0x00000003
      911862000	     45491	80002832	4c21	c.li	x24,8	 x24=0x00000008
      911922000	     45494	80002834	058f0d63	beq	x30,x24,8000288e	 x30:0x00000002 x24:0x00000008
      911962000	     45496	80002838	4c25	c.li	x24,9	 x24=0x00000009
      912162000	     45506	8000283a	058f0a63	beq	x30,x24,8000288e	 x30:0x00000002 x24:0x00000009
      912502000	     45523	8000283e	4c2d	c.li	x24,11	 x24=0x0000000b
      912642000	     45530	80002840	058f0763	beq	x30,x24,8000288e	 x30:0x00000002 x24:0x0000000b
      913162000	     45556	80002844	4c05	c.li	x24,1	 x24=0x00000001
      913322000	     45564	80002846	358f0363	beq	x30,x24,80002b8c	 x30:0x00000002 x24:0x00000001
      914002000	     45598	8000284a	4c15	c.li	x24,5	 x24=0x00000005
      914442000	     45620	8000284c	638f0a63	beq	x30,x24,80002e80	 x30:0x00000002 x24:0x00000005
      915102000	     45653	80002850	4c1d	c.li	x24,7	 x24=0x00000007
      915182000	     45657	80002852	158f0ce3	beq	x30,x24,800031aa	 x30:0x00000002 x24:0x00000007
      915662000	     45681	80002856	4c31	c.li	x24,12	 x24=0x0000000c
      916102000	     45703	80002858	018f1463	bne	x30,x24,80002860	 x30:0x00000002 x24:0x0000000c
      916462000	     45721	80002860	4c35	c.li	x24,13	 x24=0x0000000d
      916542000	     45725	80002862	018f1463	bne	x30,x24,8000286a	 x30:0x00000002 x24:0x0000000d
      917202000	     45758	8000286a	4c3d	c.li	x24,15	 x24=0x0000000f
      917242000	     45760	8000286c	018f1463	bne	x30,x24,80002874	 x30:0x00000002 x24:0x0000000f
      917682000	     45782	80002874	4c09	c.li	x24,2	 x24=0x00000002
      918462000	     45821	80002876	018f1463	bne	x30,x24,8000287e	 x30:0x00000002 x24:0x00000002
      918602000	     45828	8000287a	3740906f	jal	x0,8000bbee	  x0=0x00000000
      919282000	     45862	8000bbee	90000c37	lui	x24,0x90000	 x24=0x90000000
      919302000	     45863	8000bbf2	1c71	c.addi	x24,-4	 x24:0x90000000 x24=0x8ffffffc
      919482000	     45872	8000bbf4	4f29	c.li	x30,10	 x30=0x0000000a
      919502000	     45873	8000bbf6	0f22	c.slli	x30,0x8	 x30:0x0000000a x30=0x00000a00
      919902000	     45893	8000bbf8	000f0f13	addi	x30,x30,0	 x30:0x00000a00 x30=0x00000a00
      920342000	     45915	8000bbfc	01ec2023	sw	x30,0(x24)	 x24:0x8ffffffc x30:0x00000a00 PA:0x8ffffffc store:0x00000a00 load:0xffffffff
      920362000	     45916	8000bc00	90000c37	lui	x24,0x90000	 x24=0x90000000
      920422000	     45919	8000bc04	1c71	c.addi	x24,-4	 x24:0x90000000 x24=0x8ffffffc
      920682000	     45932	8000bc06	34200f13	addi	x30,x0,834	  x0:0x00000000 x30=0x00000342
      920702000	     45933	8000bc0a	0f22	c.slli	x30,0x8	 x30:0x00000342 x30=0x00034200
      921102000	     45953	8000bc0c	0f0d	c.addi	x30,3	 x30:0x00034200 x30=0x00034203
      921202000	     45958	8000bc0e	01ec2023	sw	x30,0(x24)	 x24:0x8ffffffc x30:0x00034203 PA:0x8ffffffc store:0x00034203 load:0xffffffff
      921342000	     45965	8000bc12	34202f73	csrrs	x30,mcause,x0	  x0:0x00000000 x30=0x00000002
      921522000	     45974	8000bc16	01ec2023	sw	x30,0(x24)	 x24:0x8ffffffc x30:0x00000002 PA:0x8ffffffc store:0x00000002 load:0xffffffff
      921562000	     45976	8000bc1a	34102f73	csrrs	x30,mepc,x0	  x0:0x00000000 x30=0x8000b6c0
      922322000	     46014	8000bc1e	0f11	c.addi	x30,4	 x30:0x8000b6c0 x30=0x8000b6c4
      922342000	     46015	8000bc20	341f1073	csrrw	x0,mepc,x30	 x30:0x8000b6c4  x0=0x00000000
      923142000	     46055	8000bc24	00028bb3	add	x23,x5,x0	  x5:0x80025c60  x0:0x00000000 x23=0x80025c60
      924042000	     46100	8000bc28	004ba083	lw	x1,4(x23)	 x23:0x80025c60  x1=0x00000000 PA:0x80025c64 load:0x00000000
      924162000	     46106	8000bc2c	008ba103	lw	x2,8(x23)	 x23:0x80025c60  x2=0x44764555 PA:0x80025c68 load:0x44764555
      933082000	     46552	8000bc30	00cba183	lw	x3,12(x23)	 x23:0x80025c60  x3=0x0f0f0f0f PA:0x80025c6c load:0x0f0f0f0f
      933882000	     46592	8000bc34	010ba203	lw	x4,16(x23)	 x23:0x80025c60  x4=0x69695000 PA:0x80025c70 load:0x69695000
      933902000	     46593	8000bc38	014ba283	lw	x5,20(x23)	 x23:0x80025c60  x5=0x80025ce0 PA:0x80025c74 load:0x80025ce0
      933942000	     46595	8000bc3c	018ba303	lw	x6,24(x23)	 x23:0x80025c60  x6=0x24445173 PA:0x80025c78 load:0x24445173
      933982000	     46597	8000bc40	01cba383	lw	x7,28(x23)	 x23:0x80025c60  x7=0xfffffe7e PA:0x80025c7c load:0xfffffe7e
      934082000	     46602	8000bc44	020ba403	lw	x8,32(x23)	 x23:0x80025c60  x8=0x00000000 PA:0x80025c80 load:0x00000000
      934402000	     46618	8000bc48	024ba483	lw	x9,36(x23)	 x23:0x80025c60  x9=0x0000c000 PA:0x80025c84 load:0x0000c000
      934822000	     46639	8000bc4c	028ba503	lw	x10,40(x23)	 x23:0x80025c60 x10=0xc5c96656 PA:0x80025c88 load:0xc5c96656
      935162000	     46656	8000bc50	02cba583	lw	x11,44(x23)	 x23:0x80025c60 x11=0x0000024a PA:0x80025c8c load:0x0000024a
      935382000	     46667	8000bc54	030ba603	lw	x12,48(x23)	 x23:0x80025c60 x12=0x00000000 PA:0x80025c90 load:0x00000000
      935442000	     46670	8000bc58	034ba683	lw	x13,52(x23)	 x23:0x80025c60 x13=0x00000000 PA:0x80025c94 load:0x00000000
      936542000	     46725	8000bc5c	038ba703	lw	x14,56(x23)	 x23:0x80025c60 x14=0x00000000 PA:0x80025c98 load:0x00000000
      936702000	     46733	8000bc60	03cba783	lw	x15,60(x23)	 x23:0x80025c60 x15=0x00000000 PA:0x80025c9c load:0x00000000
      936922000	     46744	8000bc64	040ba803	lw	x16,64(x23)	 x23:0x80025c60 x16=0x00000000 PA:0x80025ca0 load:0x00000000
      937722000	     46784	8000bc68	044ba883	lw	x17,68(x23)	 x23:0x80025c60 x17=0x00000001 PA:0x80025ca4 load:0x00000001
      938142000	     46805	8000bc6c	048ba903	lw	x18,72(x23)	 x23:0x80025c60 x18=0xffffffff PA:0x80025ca8 load:0xffffffff
      938402000	     46818	8000bc70	04cba983	lw	x19,76(x23)	 x23:0x80025c60 x19=0xffffffff PA:0x80025cac load:0xffffffff
      938462000	     46821	8000bc74	050baa03	lw	x20,80(x23)	 x23:0x80025c60 x20=0x7aa09624 PA:0x80025cb0 load:0x7aa09624
      938682000	     46832	8000bc78	054baa83	lw	x21,84(x23)	 x23:0x80025c60 x21=0xffffffff PA:0x80025cb4 load:0xffffffff
      938842000	     46840	8000bc7c	058bab03	lw	x22,88(x23)	 x23:0x80025c60 x22=0x80021df8 PA:0x80025cb8 load:0x80021df8
      939202000	     46858	8000bc80	05cbab83	lw	x23,92(x23)	 x23:0x80025c60 x23=0x80025c60 PA:0x80025cbc load:0x80025c60
      939282000	     46862	8000bc84	060bac03	lw	x24,96(x23)	 x23:0x80025c60 x24=0x00000001 PA:0x80025cc0 load:0x00000001
      940202000	     46908	8000bc88	064bac83	lw	x25,100(x23)	 x23:0x80025c60 x25=0x0001b000 PA:0x80025cc4 load:0x0001b000
      940282000	     46912	8000bc8c	068bad03	lw	x26,104(x23)	 x23:0x80025c60 x26=0x00000000 PA:0x80025cc8 load:0x00000000
      940322000	     46914	8000bc90	06cbad83	lw	x27,108(x23)	 x23:0x80025c60 x27=0x04000000 PA:0x80025ccc load:0x04000000
      940362000	     46916	8000bc94	070bae03	lw	x28,112(x23)	 x23:0x80025c60 x28=0xffffffff PA:0x80025cd0 load:0xffffffff
      940402000	     46918	8000bc98	074bae83	lw	x29,116(x23)	 x23:0x80025c60 x29=0xd03b50dd PA:0x80025cd4 load:0xd03b50dd
      940582000	     46927	8000bc9c	078baf03	lw	x30,120(x23)	 x23:0x80025c60 x30=0x26af2000 PA:0x80025cd8 load:0x26af2000
      940642000	     46930	8000bca0	07cbaf83	lw	x31,124(x23)	 x23:0x80025c60 x31=0x00000000 PA:0x80025cdc load:0x00000000
      940662000	     46931	8000bca4	080b8b93	addi	x23,x23,128	 x23:0x80025c60 x23=0x80025ce0
      940702000	     46933	8000bca8	000b82b3	add	x5,x23,x0	 x23:0x80025ce0  x0:0x00000000  x5=0x80025ce0
      940762000	     46936	8000bcac	0002ab83	lw	x23,0(x5)	  x5:0x80025ce0 x23=0x80021df8 PA:0x80025ce0 load:0x80021df8
      940962000	     46946	8000bcb0	0291	c.addi	x5,4	  x5:0x80025ce0  x5=0x80025ce4
      941042000	     46950	8000bcb2	30200073	mret	
      941302000	     46963	8000b6c4	03ecbe33	mulhu	x28,x25,x30	 x25:0x0001b000 x30:0x26af2000 x28=0x00004147
      941422000	     46969	8000b6c8	32b03673	csrrc	x12,mhpmevent11,x0	  x0:0x00000000 x12=0x00000100
      941442000	     46970	8000b6cc	0ff0000f	fence	iorw,iorw	
      941482000	     46972	8000b6d0	02aa9a63	bne	x21,x10,8000b704	 x21:0xffffffff x10:0xc5c96656
      942282000	     47012	8000b704	016f0333	add	x6,x30,x22	 x30:0x26af2000 x22:0x80021df8  x6=0xa6b13df8
      942302000	     47013	8000b708	01b6f4b3	and	x9,x13,x27	 x13:0x00000000 x27:0x04000000  x9=0x00000000
      942502000	     47023	8000b70c	6d69	c.lui	x26,0x1a	 x26=0x0001a000
      942562000	     47026	8000b70e	35156f93	ori	x31,x10,849	 x10:0xc5c96656 x31=0xc5c96757
      942982000	     47047	8000b712	833ad5b7	lui	x11,0x833ad	 x11=0x833ad000
      943742000	     47085	8000b716	8f61	c.and	x14,x8	 x14:0x00000000  x8:0x00000000 x14=0x00000000
      944502000	     47123	8000b718	035bf4b3	remu	x9,x23,x21	 x23:0x80021df8 x21:0xffffffff  x9=0x80021df8
      944562000	     47126	8000b71c	c7352e13	slti	x28,x10,-909	 x10:0xc5c96656 x28=0x00000001
      944582000	     47127	8000b720	01494d33	xor	x26,x18,x20	 x18:0xffffffff x20:0x7aa09624 x26=0x855f69db
      944602000	     47128	8000b724	00341333	sll	x6,x8,x3	  x8:0x00000000  x3:0x0f0f0f0f  x6=0x00000000
      944642000	     47130	8000b728	00433d33	sltu	x26,x6,x4	  x6:0x00000000  x4:0x69695000 x26=0x00000001
      944662000	     47131	8000b72c	02ad0433	mul	x8,x26,x10	 x26:0x00000001 x10:0xc5c96656  x8=0xc5c96656
      944802000	     47138	8000b730	0016da33	srl	x20,x13,x1	 x13:0x00000000  x1:0x00000000 x20=0x00000000
      945242000	     47160	8000b734	03192233	mulhsu	x4,x18,x17	 x18:0xffffffff x17:0x00000001  x4=0xffffffff
      945642000	     47180	8000b738	8952	c.mv	x18,x20	  x0:0x00000000 x20:0x00000000 x18=0x00000000
      945662000	     47181	8000b73a	66b9	c.lui	x13,0xe	 x13=0x0000e000
      946062000	     47201	8000b73c	00021c93	slli	x25,x4,0x0	  x4:0xffffffff x25=0xffffffff
      946102000	     47203	8000b740	9e8eae37	lui	x28,0x9e8ea	 x28=0x9e8ea000
      946122000	     47204	8000b744	4181d313	srai	x6,x3,0x18	  x3:0x0f0f0f0f  x6=0x0000000f
      946542000	     47225	8000b748	03f42097	auipc	x1,0x3f42	  x1=0x83f4d748
      946662000	     47231	8000b74c	0762	c.slli	x14,0x18	 x14:0x00000000 x14=0x00000000
      946682000	     47232	8000b74e	000da533	slt	x10,x27,x0	 x27:0x04000000  x0:0x00000000 x10=0x00000000
      947102000	     47253	8000b752	00975233	srl	x4,x14,x9	 x14:0x00000000  x9:0x80021df8  x4=0x00000000
      947182000	     47257	8000b756	0000100f	fence.i	
      947982000	     47297	8000b75a	02451363	bne	x10,x4,8000b780	 x10:0x00000000  x4:0x00000000
      948602000	     47328	8000b75e	85c5	c.srai	x11,0x11	 x11:0x833ad000 x11=0xffffc19d
      949382000	     47367	8000b760	00c29e63	bne	x5,x12,8000b77c	  x5:0x80025ce4 x12:0x00000100
      949462000	     47371	8000b77c	f5637b13	andi	x22,x6,-170	  x6:0x0000000f x22=0x00000006
      949542000	     47375	8000b780	850e	c.mv	x10,x3	  x0:0x00000000  x3:0x0f0f0f0f x10=0x0f0f0f0f
      949962000	     47396	8000b782	01ded233	srl	x4,x29,x29	 x29:0xd03b50dd x29:0xd03b50dd  x4=0x00000006
      950762000	     47436	8000b786	01029863	bne	x5,x16,8000b796	  x5:0x80025ce4 x16:0x00000000
      951902000	     47493	8000b796	03aa59b3	divu	x19,x20,x26	 x20:0x00000000 x26:0x00000001 x19=0x00000000
      951922000	     47494	8000b79a	0001	c.addi	x0,0	  x0:0x00000000  x0=0x00000000
      951942000	     47495	8000b79c	f15e5c73	csrrwi	x0,0xf15,28	  x0=0x00000000
      952342000	     47515	80002700	0800006f	jal	x0,80002780	  x0=0x00000000
      953122000	     47554	80002780	12f1	c.addi	x5,-4	  x5:0x80025ce4  x5=0x80025ce0
      953342000	     47565	80002782	0172a023	sw	x23,0(x5)	  x5:0x80025ce0 x23:0x80021df8 PA:0x80025ce0 store:0x80021df8 load:0xffffffff
      953722000	     47584	80002786	00028bb3	add	x23,x5,x0	  x5:0x80025ce0  x0:0x00000000 x23=0x80025ce0
      953782000	     47587	8000278a	f80b8b93	addi	x23,x23,-128	 x23:0x80025ce0 x23=0x80025c60
      953942000	     47595	8000278e	001ba223	sw	x1,4(x23)	 x23:0x80025c60  x1:0x83f4d748 PA:0x80025c64 store:0x83f4d748 load:0xffffffff
      954002000	     47598	80002792	002ba423	sw	x2,8(x23)	 x23:0x80025c60  x2:0x44764555 PA:0x80025c68 store:0x44764555 load:0xffffffff
      954282000	     47612	80002796	003ba623	sw	x3,12(x23)	 x23:0x80025c60  x3:0x0f0f0f0f PA:0x80025c6c store:0x0f0f0f0f load:0xffffffff
      954582000	     47627	8000279a	004ba823	sw	x4,16(x23)	 x23:0x80025c60  x4:0x00000006 PA:0x80025c70 store:0x00000006 load:0xffffffff
      954642000	     47630	8000279e	005baa23	sw	x5,20(x23)	 x23:0x80025c60  x5:0x80025ce0 PA:0x80025c74 store:0x80025ce0 load:0xffffffff
      954802000	     47638	800027a2	006bac23	sw	x6,24(x23)	 x23:0x80025c60  x6:0x0000000f PA:0x80025c78 store:0x0000000f load:0xffffffff
      955622000	     47679	800027a6	007bae23	sw	x7,28(x23)	 x23:0x80025c60  x7:0xfffffe7e PA:0x80025c7c store:0xfffffe7e load:0xffffffff
      956422000	     47719	800027aa	028ba023	sw	x8,32(x23)	 x23:0x80025c60  x8:0xc5c96656 PA:0x80025c80 store:0xc5c96656 load:0xffffffff
      956582000	     47727	800027ae	029ba223	sw	x9,36(x23)	 x23:0x80025c60  x9:0x80021df8 PA:0x80025c84 store:0x80021df8 load:0xffffffff
      956862000	     47741	800027b2	02aba423	sw	x10,40(x23)	 x23:0x80025c60 x10:0x0f0f0f0f PA:0x80025c88 store:0x0f0f0f0f load:0xffffffff
      973542000	     48575	800027b6	02bba623	sw	x11,44(x23)	 x23:0x80025c60 x11:0xffffc19d PA:0x80025c8c store:0xffffc19d load:0xffffffff
      973582000	     48577	800027ba	02cba823	sw	x12,48(x23)	 x23:0x80025c60 x12:0x00000100 PA:0x80025c90 store:0x00000100 load:0xffffffff
      973662000	     48581	800027be	02dbaa23	sw	x13,52(x23)	 x23:0x80025c60 x13:0x0000e000 PA:0x80025c94 store:0x0000e000 load:0xffffffff
      974022000	     48599	800027c2	02ebac23	sw	x14,56(x23)	 x23:0x80025c60 x14:0x00000000 PA:0x80025c98 store:0x00000000 load:0xffffffff
      974302000	     48613	800027c6	02fbae23	sw	x15,60(x23)	 x23:0x80025c60 x15:0x00000000 PA:0x80025c9c store:0x00000000 load:0xffffffff
      974482000	     48622	800027ca	050ba023	sw	x16,64(x23)	 x23:0x80025c60 x16:0x00000000 PA:0x80025ca0 store:0x00000000 load:0xffffffff
      974782000	     48637	800027ce	051ba223	sw	x17,68(x23)	 x23:0x80025c60 x17:0x00000001 PA:0x80025ca4 store:0x00000001 load:0xffffffff
      975062000	     48651	800027d2	052ba423	sw	x18,72(x23)	 x23:0x80025c60 x18:0x00000000 PA:0x80025ca8 store:0x00000000 load:0xffffffff
      975862000	     48691	800027d6	053ba623	sw	x19,76(x23)	 x23:0x80025c60 x19:0x00000000 PA:0x80025cac store:0x00000000 load:0xffffffff
      975922000	     48694	800027da	054ba823	sw	x20,80(x23)	 x23:0x80025c60 x20:0x00000000 PA:0x80025cb0 store:0x00000000 load:0xffffffff
      975942000	     48695	800027de	055baa23	sw	x21,84(x23)	 x23:0x80025c60 x21:0xffffffff PA:0x80025cb4 store:0xffffffff load:0xffffffff
      976922000	     48744	800027e2	056bac23	sw	x22,88(x23)	 x23:0x80025c60 x22:0x00000006 PA:0x80025cb8 store:0x00000006 load:0xffffffff
      977082000	     48752	800027e6	057bae23	sw	x23,92(x23)	 x23:0x80025c60 x23:0x80025c60 PA:0x80025cbc store:0x80025c60 load:0xffffffff
      977142000	     48755	800027ea	078ba023	sw	x24,96(x23)	 x23:0x80025c60 x24:0x00000001 PA:0x80025cc0 store:0x00000001 load:0xffffffff
      977242000	     48760	800027ee	079ba223	sw	x25,100(x23)	 x23:0x80025c60 x25:0xffffffff PA:0x80025cc4 store:0xffffffff load:0xffffffff
      977342000	     48765	800027f2	07aba423	sw	x26,104(x23)	 x23:0x80025c60 x26:0x00000001 PA:0x80025cc8 store:0x00000001 load:0xffffffff
      978142000	     48805	800027f6	07bba623	sw	x27,108(x23)	 x23:0x80025c60 x27:0x04000000 PA:0x80025ccc store:0x04000000 load:0xffffffff
      978342000	     48815	800027fa	07cba823	sw	x28,112(x23)	 x23:0x80025c60 x28:0x9e8ea000 PA:0x80025cd0 store:0x9e8ea000 load:0xffffffff
      978402000	     48818	800027fe	07dbaa23	sw	x29,116(x23)	 x23:0x80025c60 x29:0xd03b50dd PA:0x80025cd4 store:0xd03b50dd load:0xffffffff
      978442000	     48820	80002802	07ebac23	sw	x30,120(x23)	 x23:0x80025c60 x30:0x26af2000 PA:0x80025cd8 store:0x26af2000 load:0xffffffff
      978482000	     48822	80002806	07fbae23	sw	x31,124(x23)	 x23:0x80025c60 x31:0xc5c96757 PA:0x80025cdc store:0xc5c96757 load:0xffffffff
      978502000	     48823	8000280a	000b82b3	add	x5,x23,x0	 x23:0x80025c60  x0:0x00000000  x5=0x80025c60
      978542000	     48825	8000280e	90000c37	lui	x24,0x90000	 x24=0x90000000
      978582000	     48827	80002812	1c71	c.addi	x24,-4	 x24:0x90000000 x24=0x8ffffffc
      978602000	     48828	80002814	4f21	c.li	x30,8	 x30=0x00000008
      978622000	     48829	80002816	0f22	c.slli	x30,0x8	 x30:0x00000008 x30=0x00000800
      979402000	     48868	80002818	000f0f13	addi	x30,x30,0	 x30:0x00000800 x30=0x00000800
      979462000	     48871	8000281c	01ec2023	sw	x30,0(x24)	 x24:0x8ffffffc x30:0x00000800 PA:0x8ffffffc store:0x00000800 load:0xffffffff
      979502000	     48873	80002820	34102f73	csrrs	x30,mepc,x0	  x0:0x00000000 x30=0x8000b79c
      981002000	     48948	80002824	34202f73	csrrs	x30,mcause,x0	  x0:0x00000000 x30=0x00000002
      981042000	     48950	80002828	4c0d	c.li	x24,3	 x24=0x00000003
      981082000	     48952	8000282a	018f1463	bne	x30,x24,80002832	 x30:0x00000002 x24:0x00000003
      981242000	     48960	80002832	4c21	c.li	x24,8	 x24=0x00000008
      981362000	     48966	80002834	058f0d63	beq	x30,x24,8000288e	 x30:0x00000002 x24:0x00000008
      981642000	     48980	80002838	4c25	c.li	x24,9	 x24=0x00000009
      982082000	     49002	8000283a	058f0a63	beq	x30,x24,8000288e	 x30:0x00000002 x24:0x00000009
      982602000	     49028	8000283e	4c2d	c.li	x24,11	 x24=0x0000000b
      982802000	     49038	80002840	058f0763	beq	x30,x24,8000288e	 x30:0x00000002 x24:0x0000000b
      983482000	     49072	80002844	4c05	c.li	x24,1	 x24=0x00000001
      983522000	     49074	80002846	358f0363	beq	x30,x24,80002b8c	 x30:0x00000002 x24:0x00000001
      983982000	     49097	8000284a	4c15	c.li	x24,5	 x24=0x00000005
      984782000	     49137	8000284c	638f0a63	beq	x30,x24,80002e80	 x30:0x00000002 x24:0x00000005
      984922000	     49144	80002850	4c1d	c.li	x24,7	 x24=0x00000007
      985182000	     49157	80002852	158f0ce3	beq	x30,x24,800031aa	 x30:0x00000002 x24:0x00000007
      985762000	     49186	80002856	4c31	c.li	x24,12	 x24=0x0000000c
      986202000	     49208	80002858	018f1463	bne	x30,x24,80002860	 x30:0x00000002 x24:0x0000000c
      986422000	     49219	80002860	4c35	c.li	x24,13	 x24=0x0000000d
      986822000	     49239	80002862	018f1463	bne	x30,x24,8000286a	 x30:0x00000002 x24:0x0000000d
      987682000	     49282	8000286a	4c3d	c.li	x24,15	 x24=0x0000000f
      987722000	     49284	8000286c	018f1463	bne	x30,x24,80002874	 x30:0x00000002 x24:0x0000000f
      988002000	     49298	80002874	4c09	c.li	x24,2	 x24=0x00000002
      988122000	     49304	80002876	018f1463	bne	x30,x24,8000287e	 x30:0x00000002 x24:0x00000002
      989402000	     49368	8000287a	3740906f	jal	x0,8000bbee	  x0=0x00000000
      990122000	     49404	8000bbee	90000c37	lui	x24,0x90000	 x24=0x90000000
      990882000	     49442	8000bbf2	1c71	c.addi	x24,-4	 x24:0x90000000 x24=0x8ffffffc
      990902000	     49443	8000bbf4	4f29	c.li	x30,10	 x30=0x0000000a
      990922000	     49444	8000bbf6	0f22	c.slli	x30,0x8	 x30:0x0000000a x30=0x00000a00
      990962000	     49446	8000bbf8	000f0f13	addi	x30,x30,0	 x30:0x00000a00 x30=0x00000a00
      991902000	     49493	8000bbfc	01ec2023	sw	x30,0(x24)	 x24:0x8ffffffc x30:0x00000a00 PA:0x8ffffffc store:0x00000a00 load:0xffffffff
      991942000	     49495	8000bc00	90000c37	lui	x24,0x90000	 x24=0x90000000
      991962000	     49496	8000bc04	1c71	c.addi	x24,-4	 x24:0x90000000 x24=0x8ffffffc
      992002000	     49498	8000bc06	34200f13	addi	x30,x0,834	  x0:0x00000000 x30=0x00000342
      992022000	     49499	8000bc0a	0f22	c.slli	x30,0x8	 x30:0x00000342 x30=0x00034200
      992062000	     49501	8000bc0c	0f0d	c.addi	x30,3	 x30:0x00034200 x30=0x00034203
      992382000	     49517	8000bc0e	01ec2023	sw	x30,0(x24)	 x24:0x8ffffffc x30:0x00034203 PA:0x8ffffffc store:0x00034203 load:0xffffffff
      992402000	     49518	8000bc12	34202f73	csrrs	x30,mcause,x0	  x0:0x00000000 x30=0x00000002
      992462000	     49521	8000bc16	01ec2023	sw	x30,0(x24)	 x24:0x8ffffffc x30:0x00000002 PA:0x8ffffffc store:0x00000002 load:0xffffffff
      993242000	     49560	8000bc1a	34102f73	csrrs	x30,mepc,x0	  x0:0x00000000 x30=0x8000b79c
      993282000	     49562	8000bc1e	0f11	c.addi	x30,4	 x30:0x8000b79c x30=0x8000b7a0
      993302000	     49563	8000bc20	341f1073	csrrw	x0,mepc,x30	 x30:0x8000b7a0  x0=0x00000000
      994802000	     49638	8000bc24	00028bb3	add	x23,x5,x0	  x5:0x80025c60  x0:0x00000000 x23=0x80025c60
      994942000	     49645	8000bc28	004ba083	lw	x1,4(x23)	 x23:0x80025c60  x1=0x83f4d748 PA:0x80025c64 load:0x83f4d748
      994962000	     49646	8000bc2c	008ba103	lw	x2,8(x23)	 x23:0x80025c60  x2=0x44764555 PA:0x80025c68 load:0x44764555
      995062000	     49651	8000bc30	00cba183	lw	x3,12(x23)	 x23:0x80025c60  x3=0x0f0f0f0f PA:0x80025c6c load:0x0f0f0f0f
      995262000	     49661	8000bc34	010ba203	lw	x4,16(x23)	 x23:0x80025c60  x4=0x00000006 PA:0x80025c70 load:0x00000006
      995342000	     49665	8000bc38	014ba283	lw	x5,20(x23)	 x23:0x80025c60  x5=0x80025ce0 PA:0x80025c74 load:0x80025ce0
      995362000	     49666	8000bc3c	018ba303	lw	x6,24(x23)	 x23:0x80025c60  x6=0x0000000f PA:0x80025c78 load:0x0000000f
      995582000	     49677	8000bc40	01cba383	lw	x7,28(x23)	 x23:0x80025c60  x7=0xfffffe7e PA:0x80025c7c load:0xfffffe7e
      995602000	     49678	8000bc44	020ba403	lw	x8,32(x23)	 x23:0x80025c60  x8=0xc5c96656 PA:0x80025c80 load:0xc5c96656
      995622000	     49679	8000bc48	024ba483	lw	x9,36(x23)	 x23:0x80025c60  x9=0x80021df8 PA:0x80025c84 load:0x80021df8
      996102000	     49703	8000bc4c	028ba503	lw	x10,40(x23)	 x23:0x80025c60 x10=0x0f0f0f0f PA:0x80025c88 load:0x0f0f0f0f
      996982000	     49747	8000bc50	02cba583	lw	x11,44(x23)	 x23:0x80025c60 x11=0xffffc19d PA:0x80025c8c load:0xffffc19d
      997082000	     49752	8000bc54	030ba603	lw	x12,48(x23)	 x23:0x80025c60 x12=0x00000100 PA:0x80025c90 load:0x00000100
      997142000	     49755	8000bc58	034ba683	lw	x13,52(x23)	 x23:0x80025c60 x13=0x0000e000 PA:0x80025c94 load:0x0000e000
      997222000	     49759	8000bc5c	038ba703	lw	x14,56(x23)	 x23:0x80025c60 x14=0x00000000 PA:0x80025c98 load:0x00000000
      997242000	     49760	8000bc60	03cba783	lw	x15,60(x23)	 x23:0x80025c60 x15=0x00000000 PA:0x80025c9c load:0x00000000
      997662000	     49781	8000bc64	040ba803	lw	x16,64(x23)	 x23:0x80025c60 x16=0x00000000 PA:0x80025ca0 load:0x00000000
      997742000	     49785	8000bc68	044ba883	lw	x17,68(x23)	 x23:0x80025c60 x17=0x00000001 PA:0x80025ca4 load:0x00000001
      997762000	     49786	8000bc6c	048ba903	lw	x18,72(x23)	 x23:0x80025c60 x18=0x00000000 PA:0x80025ca8 load:0x00000000
      998002000	     49798	8000bc70	04cba983	lw	x19,76(x23)	 x23:0x80025c60 x19=0x00000000 PA:0x80025cac load:0x00000000
      998022000	     49799	8000bc74	050baa03	lw	x20,80(x23)	 x23:0x80025c60 x20=0x00000000 PA:0x80025cb0 load:0x00000000
      998042000	     49800	8000bc78	054baa83	lw	x21,84(x23)	 x23:0x80025c60 x21=0xffffffff PA:0x80025cb4 load:0xffffffff
      998082000	     49802	8000bc7c	058bab03	lw	x22,88(x23)	 x23:0x80025c60 x22=0x00000006 PA:0x80025cb8 load:0x00000006
      998622000	     49829	8000bc80	05cbab83	lw	x23,92(x23)	 x23:0x80025c60 x23=0x80025c60 PA:0x80025cbc load:0x80025c60
      998842000	     49840	8000bc84	060bac03	lw	x24,96(x23)	 x23:0x80025c60 x24=0x00000001 PA:0x80025cc0 load:0x00000001
      998862000	     49841	8000bc88	064bac83	lw	x25,100(x23)	 x23:0x80025c60 x25=0xffffffff PA:0x80025cc4 load:0xffffffff
      998882000	     49842	8000bc8c	068bad03	lw	x26,104(x23)	 x23:0x80025c60 x26=0x00000001 PA:0x80025cc8 load:0x00000001
      998942000	     49845	8000bc90	06cbad83	lw	x27,108(x23)	 x23:0x80025c60 x27=0x04000000 PA:0x80025ccc load:0x04000000
      999242000	     49860	8000bc94	070bae03	lw	x28,112(x23)	 x23:0x80025c60 x28=0x9e8ea000 PA:0x80025cd0 load:0x9e8ea000
      999722000	     49884	8000bc98	074bae83	lw	x29,116(x23)	 x23:0x80025c60 x29=0xd03b50dd PA:0x80025cd4 load:0xd03b50dd
     1000322000	     49914	8000bc9c	078baf03	lw	x30,120(x23)	 x23:0x80025c60 x30=0x26af2000 PA:0x80025cd8 load:0x26af2000
     1000382000	     49917	8000bca0	07cbaf83	lw	x31,124(x23)	 x23:0x80025c60 x31=0xc5c96757 PA:0x80025cdc load:0xc5c96757
     1000422000	     49919	8000bca4	080b8b93	addi	x23,x23,128	 x23:0x80025c60 x23=0x80025ce0
     1001182000	     49957	8000bca8	000b82b3	add	x5,x23,x0	 x23:0x80025ce0  x0:0x00000000  x5=0x80025ce0
     1001402000	     49968	8000bcac	0002ab83	lw	x23,0(x5)	  x5:0x80025ce0 x23=0x80021df8 PA:0x80025ce0 load:0x80021df8
     1001442000	     49970	8000bcb0	0291	c.addi	x5,4	  x5:0x80025ce0  x5=0x80025ce4
     1001482000	     49972	8000bcb2	30200073	mret	
     1001802000	     49988	8000b7a0	00c8ecb3	or	x25,x17,x12	 x17:0x00000001 x12:0x00000100 x25=0x00000101
     1001842000	     49990	8000b7a4	8df1	c.and	x11,x12	 x11:0xffffc19d x12:0x00000100 x11=0x00000100
     1002042000	     50000	8000b7a6	9066c993	xori	x19,x13,-1786	 x13:0x0000e000 x19=0xffff1906
     1002082000	     50002	8000b7aa	07fbf093	andi	x1,x23,127	 x23:0x80021df8  x1=0x00000078
     1002102000	     50003	8000b7ae	040e	c.slli	x8,0x3	  x8:0xc5c96656  x8=0x2e4b32b0
     1002122000	     50004	8000b7b0	717d	c.addi16sp	x2,-16	  x2:0x44764555  x2=0x44764545
     1002902000	     50043	8000b7b2	0b69	c.addi	x22,26	 x22:0x00000006 x22=0x00000020
     1002922000	     50044	8000b7b4	003dca33	xor	x20,x27,x3	 x27:0x04000000  x3:0x0f0f0f0f x20=0x0b0f0f0f
     1002942000	     50045	8000b7b8	0ff0000f	fence	iorw,iorw	
     1002982000	     50047	8000b7bc	f1455973	csrrwi	x0,mhartid,10	  x0=0x00000000
     1003402000	     50068	80002700	0800006f	jal	x0,80002780	  x0=0x00000000
     1004282000	     50112	80002780	12f1	c.addi	x5,-4	  x5:0x80025ce4  x5=0x80025ce0
     1005742000	     50185	80002782	0172a023	sw	x23,0(x5)	  x5:0x80025ce0 x23:0x80021df8 PA:0x80025ce0 store:0x80021df8 load:0xffffffff
     1005762000	     50186	80002786	00028bb3	add	x23,x5,x0	  x5:0x80025ce0  x0:0x00000000 x23=0x80025ce0
     1005802000	     50188	8000278a	f80b8b93	addi	x23,x23,-128	 x23:0x80025ce0 x23=0x80025c60
     1005862000	     50191	8000278e	001ba223	sw	x1,4(x23)	 x23:0x80025c60  x1:0x00000078 PA:0x80025c64 store:0x00000078 load:0xffffffff
     1006082000	     50202	80002792	002ba423	sw	x2,8(x23)	 x23:0x80025c60  x2:0x44764545 PA:0x80025c68 store:0x44764545 load:0xffffffff
     1006322000	     50214	80002796	003ba623	sw	x3,12(x23)	 x23:0x80025c60  x3:0x0f0f0f0f PA:0x80025c6c store:0x0f0f0f0f load:0xffffffff
     1006742000	     50235	8000279a	004ba823	sw	x4,16(x23)	 x23:0x80025c60  x4:0x00000006 PA:0x80025c70 store:0x00000006 load:0xffffffff
     1006862000	     50241	8000279e	005baa23	sw	x5,20(x23)	 x23:0x80025c60  x5:0x80025ce0 PA:0x80025c74 store:0x80025ce0 load:0xffffffff
     1007322000	     50264	800027a2	006bac23	sw	x6,24(x23)	 x23:0x80025c60  x6:0x0000000f PA:0x80025c78 store:0x0000000f load:0xffffffff
     1007462000	     50271	800027a6	007bae23	sw	x7,28(x23)	 x23:0x80025c60  x7:0xfffffe7e PA:0x80025c7c store:0xfffffe7e load:0xffffffff
     1007542000	     50275	800027aa	028ba023	sw	x8,32(x23)	 x23:0x80025c60  x8:0x2e4b32b0 PA:0x80025c80 store:0x2e4b32b0 load:0xffffffff
     1007782000	     50287	800027ae	029ba223	sw	x9,36(x23)	 x23:0x80025c60  x9:0x80021df8 PA:0x80025c84 store:0x80021df8 load:0xffffffff
     1007962000	     50296	800027b2	02aba423	sw	x10,40(x23)	 x23:0x80025c60 x10:0x0f0f0f0f PA:0x80025c88 store:0x0f0f0f0f load:0xffffffff
     1008062000	     50301	800027b6	02bba623	sw	x11,44(x23)	 x23:0x80025c60 x11:0x00000100 PA:0x80025c8c store:0x00000100 load:0xffffffff
     1008362000	     50316	800027ba	02cba823	sw	x12,48(x23)	 x23:0x80025c60 x12:0x00000100 PA:0x80025c90 store:0x00000100 load:0xffffffff
     1008442000	     50320	800027be	02dbaa23	sw	x13,52(x23)	 x23:0x80025c60 x13:0x0000e000 PA:0x80025c94 store:0x0000e000 load:0xffffffff
     1009402000	     50368	800027c2	02ebac23	sw	x14,56(x23)	 x23:0x80025c60 x14:0x00000000 PA:0x80025c98 store:0x00000000 load:0xffffffff
     1010362000	     50416	800027c6	02fbae23	sw	x15,60(x23)	 x23:0x80025c60 x15:0x00000000 PA:0x80025c9c store:0x00000000 load:0xffffffff
     1010442000	     50420	800027ca	050ba023	sw	x16,64(x23)	 x23:0x80025c60 x16:0x00000000 PA:0x80025ca0 store:0x00000000 load:0xffffffff
     1010642000	     50430	800027ce	051ba223	sw	x17,68(x23)	 x23:0x80025c60 x17:0x00000001 PA:0x80025ca4 store:0x00000001 load:0xffffffff
     1010722000	     50434	800027d2	052ba423	sw	x18,72(x23)	 x23:0x80025c60 x18:0x00000000 PA:0x80025ca8 store:0x00000000 load:0xffffffff
     1010782000	     50437	800027d6	053ba623	sw	x19,76(x23)	 x23:0x80025c60 x19:0xffff1906 PA:0x80025cac store:0xffff1906 load:0xffffffff
     1010862000	     50441	800027da	054ba823	sw	x20,80(x23)	 x23:0x80025c60 x20:0x0b0f0f0f PA:0x80025cb0 store:0x0b0f0f0f load:0xffffffff
     1011102000	     50453	800027de	055baa23	sw	x21,84(x23)	 x23:0x80025c60 x21:0xffffffff PA:0x80025cb4 store:0xffffffff load:0xffffffff
     1011422000	     50469	800027e2	056bac23	sw	x22,88(x23)	 x23:0x80025c60 x22:0x00000020 PA:0x80025cb8 store:0x00000020 load:0xffffffff
     1011482000	     50472	800027e6	057bae23	sw	x23,92(x23)	 x23:0x80025c60 x23:0x80025c60 PA:0x80025cbc store:0x80025c60 load:0xffffffff
     1011622000	     50479	800027ea	078ba023	sw	x24,96(x23)	 x23:0x80025c60 x24:0x00000001 PA:0x80025cc0 store:0x00000001 load:0xffffffff
     1011782000	     50487	800027ee	079ba223	sw	x25,100(x23)	 x23:0x80025c60 x25:0x00000101 PA:0x80025cc4 store:0x00000101 load:0xffffffff
     1011962000	     50496	800027f2	07aba423	sw	x26,104(x23)	 x23:0x80025c60 x26:0x00000001 PA:0x80025cc8 store:0x00000001 load:0xffffffff
     1012042000	     50500	800027f6	07bba623	sw	x27,108(x23)	 x23:0x80025c60 x27:0x04000000 PA:0x80025ccc store:0x04000000 load:0xffffffff
     1012842000	     50540	800027fa	07cba823	sw	x28,112(x23)	 x23:0x80025c60 x28:0x9e8ea000 PA:0x80025cd0 store:0x9e8ea000 load:0xffffffff
     1013742000	     50585	800027fe	07dbaa23	sw	x29,116(x23)	 x23:0x80025c60 x29:0xd03b50dd PA:0x80025cd4 store:0xd03b50dd load:0xffffffff
     1014202000	     50608	80002802	07ebac23	sw	x30,120(x23)	 x23:0x80025c60 x30:0x26af2000 PA:0x80025cd8 store:0x26af2000 load:0xffffffff
     1014302000	     50613	80002806	07fbae23	sw	x31,124(x23)	 x23:0x80025c60 x31:0xc5c96757 PA:0x80025cdc store:0xc5c96757 load:0xffffffff
     1014342000	     50615	8000280a	000b82b3	add	x5,x23,x0	 x23:0x80025c60  x0:0x00000000  x5=0x80025c60
     1014362000	     50616	8000280e	90000c37	lui	x24,0x90000	 x24=0x90000000
     1014382000	     50617	80002812	1c71	c.addi	x24,-4	 x24:0x90000000 x24=0x8ffffffc
     1014442000	     50620	80002814	4f21	c.li	x30,8	 x30=0x00000008
     1014462000	     50621	80002816	0f22	c.slli	x30,0x8	 x30:0x00000008 x30=0x00000800
     1014482000	     50622	80002818	000f0f13	addi	x30,x30,0	 x30:0x00000800 x30=0x00000800
     1014562000	     50626	8000281c	01ec2023	sw	x30,0(x24)	 x24:0x8ffffffc x30:0x00000800 PA:0x8ffffffc store:0x00000800 load:0xffffffff
     1015322000	     50664	80002820	34102f73	csrrs	x30,mepc,x0	  x0:0x00000000 x30=0x8000b7bc
     1015362000	     50666	80002824	34202f73	csrrs	x30,mcause,x0	  x0:0x00000000 x30=0x00000002
     1015382000	     50667	80002828	4c0d	c.li	x24,3	 x24=0x00000003
     1015422000	     50669	8000282a	018f1463	bne	x30,x24,80002832	 x30:0x00000002 x24:0x00000003
     1015802000	     50688	80002832	4c21	c.li	x24,8	 x24=0x00000008
     1015842000	     50690	80002834	058f0d63	beq	x30,x24,8000288e	 x30:0x00000002 x24:0x00000008
     1016542000	     50725	80002838	4c25	c.li	x24,9	 x24=0x00000009
     1016782000	     50737	8000283a	058f0a63	beq	x30,x24,8000288e	 x30:0x00000002 x24:0x00000009
     1017222000	     50759	8000283e	4c2d	c.li	x24,11	 x24=0x0000000b
     1017502000	     50773	80002840	058f0763	beq	x30,x24,8000288e	 x30:0x00000002 x24:0x0000000b
     1018122000	     50804	80002844	4c05	c.li	x24,1	 x24=0x00000001
     1018562000	     50826	80002846	358f0363	beq	x30,x24,80002b8c	 x30:0x00000002 x24:0x00000001
     1019842000	     50890	8000284a	4c15	c.li	x24,5	 x24=0x00000005
     1020282000	     50912	8000284c	638f0a63	beq	x30,x24,80002e80	 x30:0x00000002 x24:0x00000005
     1021122000	     50954	80002850	4c1d	c.li	x24,7	 x24=0x00000007
     1021342000	     50965	80002852	158f0ce3	beq	x30,x24,800031aa	 x30:0x00000002 x24:0x00000007
     1022022000	     50999	80002856	4c31	c.li	x24,12	 x24=0x0000000c
     1022102000	     51003	80002858	018f1463	bne	x30,x24,80002860	 x30:0x00000002 x24:0x0000000c
     1022462000	     51021	80002860	4c35	c.li	x24,13	 x24=0x0000000d
     1022542000	     51025	80002862	018f1463	bne	x30,x24,8000286a	 x30:0x00000002 x24:0x0000000d
     1022842000	     51040	8000286a	4c3d	c.li	x24,15	 x24=0x0000000f
     1022882000	     51042	8000286c	018f1463	bne	x30,x24,80002874	 x30:0x00000002 x24:0x0000000f
     1023242000	     51060	80002874	4c09	c.li	x24,2	 x24=0x00000002
     1024022000	     51099	80002876	018f1463	bne	x30,x24,8000287e	 x30:0x00000002 x24:0x00000002
     1024302000	     51113	8000287a	3740906f	jal	x0,8000bbee	  x0=0x00000000
     1024522000	     51124	8000bbee	90000c37	lui	x24,0x90000	 x24=0x90000000
     1024542000	     51125	8000bbf2	1c71	c.addi	x24,-4	 x24:0x90000000 x24=0x8ffffffc
     1024582000	     51127	8000bbf4	4f29	c.li	x30,10	 x30=0x0000000a
     1024602000	     51128	8000bbf6	0f22	c.slli	x30,0x8	 x30:0x0000000a x30=0x00000a00
     1024962000	     51146	8000bbf8	000f0f13	addi	x30,x30,0	 x30:0x00000a00 x30=0x00000a00
     1025022000	     51149	8000bbfc	01ec2023	sw	x30,0(x24)	 x24:0x8ffffffc x30:0x00000a00 PA:0x8ffffffc store:0x00000a00 load:0xffffffff
     1025042000	     51150	8000bc00	90000c37	lui	x24,0x90000	 x24=0x90000000
     1025362000	     51166	8000bc04	1c71	c.addi	x24,-4	 x24:0x90000000 x24=0x8ffffffc
     1025562000	     51176	8000bc06	34200f13	addi	x30,x0,834	  x0:0x00000000 x30=0x00000342
     1025582000	     51177	8000bc0a	0f22	c.slli	x30,0x8	 x30:0x00000342 x30=0x00034200
     1025622000	     51179	8000bc0c	0f0d	c.addi	x30,3	 x30:0x00034200 x30=0x00034203
     1025922000	     51194	8000bc0e	01ec2023	sw	x30,0(x24)	 x24:0x8ffffffc x30:0x00034203 PA:0x8ffffffc store:0x00034203 load:0xffffffff
     1025942000	     51195	8000bc12	34202f73	csrrs	x30,mcause,x0	  x0:0x00000000 x30=0x00000002
     1026142000	     51205	8000bc16	01ec2023	sw	x30,0(x24)	 x24:0x8ffffffc x30:0x00000002 PA:0x8ffffffc store:0x00000002 load:0xffffffff
     1026162000	     51206	8000bc1a	34102f73	csrrs	x30,mepc,x0	  x0:0x00000000 x30=0x8000b7bc
     1026202000	     51208	8000bc1e	0f11	c.addi	x30,4	 x30:0x8000b7bc x30=0x8000b7c0
     1026502000	     51223	8000bc20	341f1073	csrrw	x0,mepc,x30	 x30:0x8000b7c0  x0=0x00000000
     1026922000	     51244	8000bc24	00028bb3	add	x23,x5,x0	  x5:0x80025c60  x0:0x00000000 x23=0x80025c60
     1027302000	     51263	8000bc28	004ba083	lw	x1,4(x23)	 x23:0x80025c60  x1=0x00000078 PA:0x80025c64 load:0x00000078
     1027342000	     51265	8000bc2c	008ba103	lw	x2,8(x23)	 x23:0x80025c60  x2=0x44764545 PA:0x80025c68 load:0x44764545
     1027362000	     51266	8000bc30	00cba183	lw	x3,12(x23)	 x23:0x80025c60  x3=0x0f0f0f0f PA:0x80025c6c load:0x0f0f0f0f
     1028362000	     51316	8000bc34	010ba203	lw	x4,16(x23)	 x23:0x80025c60  x4=0x00000006 PA:0x80025c70 load:0x00000006
     1028422000	     51319	8000bc38	014ba283	lw	x5,20(x23)	 x23:0x80025c60  x5=0x80025ce0 PA:0x80025c74 load:0x80025ce0
     1028462000	     51321	8000bc3c	018ba303	lw	x6,24(x23)	 x23:0x80025c60  x6=0x0000000f PA:0x80025c78 load:0x0000000f
     1029262000	     51361	8000bc40	01cba383	lw	x7,28(x23)	 x23:0x80025c60  x7=0xfffffe7e PA:0x80025c7c load:0xfffffe7e
     1029282000	     51362	8000bc44	020ba403	lw	x8,32(x23)	 x23:0x80025c60  x8=0x2e4b32b0 PA:0x80025c80 load:0x2e4b32b0
     1029322000	     51364	8000bc48	024ba483	lw	x9,36(x23)	 x23:0x80025c60  x9=0x80021df8 PA:0x80025c84 load:0x80021df8
     1029642000	     51380	8000bc4c	028ba503	lw	x10,40(x23)	 x23:0x80025c60 x10=0x0f0f0f0f PA:0x80025c88 load:0x0f0f0f0f
     1029942000	     51395	8000bc50	02cba583	lw	x11,44(x23)	 x23:0x80025c60 x11=0x00000100 PA:0x80025c8c load:0x00000100
     1030082000	     51402	8000bc54	030ba603	lw	x12,48(x23)	 x23:0x80025c60 x12=0x00000100 PA:0x80025c90 load:0x00000100
     1030302000	     51413	8000bc58	034ba683	lw	x13,52(x23)	 x23:0x80025c60 x13=0x0000e000 PA:0x80025c94 load:0x0000e000
     1030382000	     51417	8000bc5c	038ba703	lw	x14,56(x23)	 x23:0x80025c60 x14=0x00000000 PA:0x80025c98 load:0x00000000
     1031182000	     51457	8000bc60	03cba783	lw	x15,60(x23)	 x23:0x80025c60 x15=0x00000000 PA:0x80025c9c load:0x00000000
     1031302000	     51463	8000bc64	040ba803	lw	x16,64(x23)	 x23:0x80025c60 x16=0x00000000 PA:0x80025ca0 load:0x00000000
     1031362000	     51466	8000bc68	044ba883	lw	x17,68(x23)	 x23:0x80025c60 x17=0x00000001 PA:0x80025ca4 load:0x00000001
     1031402000	     51468	8000bc6c	048ba903	lw	x18,72(x23)	 x23:0x80025c60 x18=0x00000000 PA:0x80025ca8 load:0x00000000
     1032222000	     51509	8000bc70	04cba983	lw	x19,76(x23)	 x23:0x80025c60 x19=0xffff1906 PA:0x80025cac load:0xffff1906
     1033442000	     51570	8000bc74	050baa03	lw	x20,80(x23)	 x23:0x80025c60 x20=0x0b0f0f0f PA:0x80025cb0 load:0x0b0f0f0f
     1033502000	     51573	8000bc78	054baa83	lw	x21,84(x23)	 x23:0x80025c60 x21=0xffffffff PA:0x80025cb4 load:0xffffffff
     1033602000	     51578	8000bc7c	058bab03	lw	x22,88(x23)	 x23:0x80025c60 x22=0x00000020 PA:0x80025cb8 load:0x00000020
     1033802000	     51588	8000bc80	05cbab83	lw	x23,92(x23)	 x23:0x80025c60 x23=0x80025c60 PA:0x80025cbc load:0x80025c60
     1033882000	     51592	8000bc84	060bac03	lw	x24,96(x23)	 x23:0x80025c60 x24=0x00000001 PA:0x80025cc0 load:0x00000001
     1034082000	     51602	8000bc88	064bac83	lw	x25,100(x23)	 x23:0x80025c60 x25=0x00000101 PA:0x80025cc4 load:0x00000101
     1034922000	     51644	8000bc8c	068bad03	lw	x26,104(x23)	 x23:0x80025c60 x26=0x00000001 PA:0x80025cc8 load:0x00000001
     1034962000	     51646	8000bc90	06cbad83	lw	x27,108(x23)	 x23:0x80025c60 x27=0x04000000 PA:0x80025ccc load:0x04000000
     1035122000	     51654	8000bc94	070bae03	lw	x28,112(x23)	 x23:0x80025c60 x28=0x9e8ea000 PA:0x80025cd0 load:0x9e8ea000
     1035382000	     51667	8000bc98	074bae83	lw	x29,116(x23)	 x23:0x80025c60 x29=0xd03b50dd PA:0x80025cd4 load:0xd03b50dd
     1035842000	     51690	8000bc9c	078baf03	lw	x30,120(x23)	 x23:0x80025c60 x30=0x26af2000 PA:0x80025cd8 load:0x26af2000
     1035902000	     51693	8000bca0	07cbaf83	lw	x31,124(x23)	 x23:0x80025c60 x31=0xc5c96757 PA:0x80025cdc load:0xc5c96757
     1036702000	     51733	8000bca4	080b8b93	addi	x23,x23,128	 x23:0x80025c60 x23=0x80025ce0
     1036742000	     51735	8000bca8	000b82b3	add	x5,x23,x0	 x23:0x80025ce0  x0:0x00000000  x5=0x80025ce0
     1036802000	     51738	8000bcac	0002ab83	lw	x23,0(x5)	  x5:0x80025ce0 x23=0x80021df8 PA:0x80025ce0 load:0x80021df8
     1036822000	     51739	8000bcb0	0291	c.addi	x5,4	  x5:0x80025ce0  x5=0x80025ce4
     1036862000	     51741	8000bcb2	30200073	mret	
     1038342000	     51815	8000b7c0	0210f8b3	remu	x17,x1,x1	  x1:0x00000078  x1:0x00000078 x17=0x00000000
     1039102000	     51853	8000b7c4	b0309df3	csrrw	x27,mhpmcounter3,x1	  x1:0x00000078 x27=0x0000065e
     1039162000	     51856	8000b7c8	8122	c.mv	x2,x8	  x0:0x00000000  x8:0x2e4b32b0  x2=0x2e4b32b0
     1039182000	     51857	8000b7ca	1efd	c.addi	x29,-1	 x29:0xd03b50dd x29=0xd03b50dc
     1039282000	     51862	8000b7cc	0321d163	bge	x3,x18,8000b7ee	  x3:0x0f0f0f0f x18:0x00000000
     1039502000	     51873	8000b7ee	b85075f3	csrrci	x11,mhpmcounter5h,0	 x11=0x00000000
     1047162000	     52256	8000b7f2	03a13cb3	mulhu	x25,x2,x26	  x2:0x2e4b32b0 x26:0x00000001 x25=0x00000000
     1047182000	     52257	8000b7f6	8f6d	c.and	x14,x11	 x14:0x00000000 x11:0x00000000 x14=0x00000000
     1047202000	     52258	8000b7f8	01c118b3	sll	x17,x2,x28	  x2:0x2e4b32b0 x28:0x9e8ea000 x17=0x2e4b32b0
     1047982000	     52297	8000b7fc	029d7463	bgeu	x26,x9,8000b824	 x26:0x00000001  x9:0x80021df8
     1048062000	     52301	8000b800	0190d133	srl	x2,x1,x25	  x1:0x00000078 x25:0x00000000  x2=0x00000078
     1048162000	     52306	8000b804	03a1c763	blt	x3,x26,8000b832	  x3:0x0f0f0f0f x26:0x00000001
     1048882000	     52342	8000b808	177d	c.addi	x14,-1	 x14:0x00000000 x14=0xffffffff
     1048962000	     52346	8000b80a	c489	c.beqz	x9,8000b814	  x9:0x80021df8
     1049322000	     52364	8000b80c	01fe8933	add	x18,x29,x31	 x29:0xd03b50dc x31:0xc5c96757 x18=0x9604b833
     1049742000	     52385	8000b810	8561	c.srai	x10,0x18	 x10:0x0f0f0f0f x10=0x0000000f
     1049782000	     52387	8000b812	1e98	c.addi4spn	x14,x2,880	 x14=0x000003e8
     1049802000	     52388	8000b814	8d9d	c.sub	x11,x15	 x11:0x00000000 x15:0x00000000 x11=0x00000000
     1050182000	     52407	8000b816	01c99013	slli	x0,x19,0x1c	 x19:0xffff1906  x0=0x00000000
     1050222000	     52409	8000b81a	00dd0563	beq	x26,x13,8000b824	 x26:0x00000001 x13:0x0000e000
     1050502000	     52423	8000b81e	850d	c.srai	x10,0x3	 x10:0x0000000f x10=0x00000001
     1050542000	     52425	8000b820	c711	c.beqz	x14,8000b82c	 x14:0x000003e8
     1051042000	     52450	8000b822	8a75	c.andi	x12,29	 x12:0x00000100 x12=0x00000000
     1051242000	     52460	8000b824	00291333	sll	x6,x18,x2	 x18:0x9604b833  x2:0x00000078  x6=0x33000000
     1051402000	     52468	8000b828	7f6ace13	xori	x28,x21,2038	 x21:0xffffffff x28=0xfffff809
     1051822000	     52489	8000b82c	8f45	c.or	x14,x9	 x14:0x000003e8  x9:0x80021df8 x14=0x80021ff8
     1051962000	     52496	8000b82e	fc666513	ori	x10,x12,-58	 x12:0x00000000 x10=0xffffffc6
     1051982000	     52497	8000b832	40e803b3	sub	x7,x16,x14	 x16:0x00000000 x14:0x80021ff8  x7=0x7ffde008
     1053482000	     52572	8000b836	00f89b33	sll	x22,x17,x15	 x17:0x2e4b32b0 x15:0x00000000 x22=0x2e4b32b0
     1053562000	     52576	8000b83a	0281b233	mulhu	x4,x3,x8	  x3:0x0f0f0f0f  x8:0x2e4b32b0  x4=0x02b92119
     1053582000	     52577	8000b83e	7c102273	csrrs	x4,0x7c1,x0	  x0:0x00000000  x4=0x00000000
     1053622000	     52579	8000b842	552d3f13	sltiu	x30,x26,1362	 x26:0x00000001 x30=0x00000001
     1053642000	     52580	8000b846	0001	c.addi	x0,0	  x0:0x00000000  x0=0x00000000
     1054402000	     52618	8000b848	02fe43b3	div	x7,x28,x15	 x28:0xfffff809 x15:0x00000000  x7=0xffffffff
     1054442000	     52620	8000b84c	d86aad93	slti	x27,x21,-634	 x21:0xffffffff x27=0x00000000
     1054462000	     52621	8000b850	0001	c.addi	x0,0	  x0:0x00000000  x0=0x00000000
     1055222000	     52659	8000b852	8d95	c.sub	x11,x13	 x11:0x00000000 x13:0x0000e000 x11=0xffff2000
     1055262000	     52661	8000b854	1f00	c.addi4spn	x8,x2,944	  x8=0x00000428
     1055282000	     52662	8000b856	0001	c.addi	x0,0	  x0:0x00000000  x0=0x00000000
     1055302000	     52663	8000b858	0000100f	fence.i	
     1055722000	     52684	8000b85c	8d95	c.sub	x11,x13	 x11:0xffff2000 x13:0x0000e000 x11=0xfffe4000
     1055762000	     52686	8000b85e	05ef0063	beq	x30,x30,8000b89e	 x30:0x00000001 x30:0x00000001
     1056342000	     52715	8000b89e	17291897	auipc	x17,0x17291	 x17=0x9729c89e
     1056362000	     52716	8000b8a2	0001	c.addi	x0,0	  x0:0x00000000  x0=0x00000000
     1056382000	     52717	8000b8a4	66bd	c.lui	x13,0xf	 x13=0x0000f000
     1056462000	     52721	8000b8a6	41f4d193	srai	x3,x9,0x1f	  x9:0x80021df8  x3=0xffffffff
     1056522000	     52724	8000b8aa	02f7b6b3	mulhu	x13,x15,x15	 x15:0x00000000 x15:0x00000000 x13=0x00000000
     1056622000	     52729	8000b8ae	02d11463	bne	x2,x13,8000b8d6	  x2:0x00000078 x13:0x00000000
     1057462000	     52771	8000b8d6	8c19	c.sub	x8,x14	  x8:0x00000428 x14:0x80021ff8  x8=0x7ffde430
     1057882000	     52792	8000b8d8	411486b3	sub	x13,x9,x17	  x9:0x80021df8 x17:0x9729c89e x13=0xe8d8555a
     1058022000	     52799	8000b8dc	390e1c17	auipc	x24,0x390e1	 x24=0xb90ec8dc
     1058782000	     52837	8000b8e0	b0a26c73	csrrsi	x24,mhpmcounter10,4	 x24=0x00000289
     1058862000	     52841	8000b8e4	00721563	bne	x4,x7,8000b8ee	  x4:0x00000000  x7:0xffffffff
     1059222000	     52859	8000b8ee	8e45	c.or	x12,x9	 x12:0x00000000  x9:0x80021df8 x12=0x80021df8
     1059262000	     52861	8000b8f0	053ff563	bgeu	x31,x19,8000b93a	 x31:0xc5c96757 x19:0xffff1906
     1059722000	     52884	8000b8f4	9ad6dab7	lui	x21,0x9ad6d	 x21=0x9ad6d000
     1059742000	     52885	8000b8f8	15ff3513	sltiu	x10,x30,351	 x30:0x00000001 x10=0x00000001
     1059882000	     52892	8000b8fc	0000100f	fence.i	
     1060382000	     52917	8000b900	01186cb3	or	x25,x16,x17	 x16:0x00000000 x17:0x9729c89e x25=0x9729c89e
     1060682000	     52932	8000b904	8d01	c.sub	x10,x8	 x10:0x00000001  x8:0x7ffde430 x10=0x80021bd1
     1060842000	     52940	8000b906	40060b33	sub	x22,x12,x0	 x12:0x80021df8  x0:0x00000000 x22=0x80021df8
     1061642000	     52980	8000b90a	ef11	c.bnez	x14,8000b926	 x14:0x80021ff8
     1061942000	     52995	8000b926	974afd93	andi	x27,x21,-1676	 x21:0x9ad6d000 x27=0x9ad6d000
     1062862000	     53041	8000b92a	02bfd1b3	divu	x3,x31,x11	 x31:0xc5c96757 x11:0xfffe4000  x3=0x00000000
     1062902000	     53043	8000b92e	03519733	mulh	x14,x3,x21	  x3:0x00000000 x21:0x9ad6d000 x14=0x00000000
     1063662000	     53081	8000b932	0208cf33	div	x30,x17,x0	 x17:0x9729c89e  x0:0x00000000 x30=0xffffffff
     1063702000	     53083	8000b936	00928f33	add	x30,x5,x9	  x5:0x80025ce4  x9:0x80021df8 x30=0x00047adc
     1063742000	     53085	8000b93a	cb462c93	slti	x25,x12,-844	 x12:0x80021df8 x25=0x00000001
     1063802000	     53088	8000b93e	03f67c63	bgeu	x12,x31,8000b976	 x12:0x80021df8 x31:0xc5c96757
     1064282000	     53112	8000b942	0181d8b3	srl	x17,x3,x24	  x3:0x00000000 x24:0x00000289 x17=0x00000000
     1064322000	     53114	8000b946	3421d9f3	csrrwi	x19,mcause,3	 x19=0x00000002
     1064382000	     53117	8000b94a	416ed533	sra	x10,x29,x22	 x29:0xd03b50dc x22:0x80021df8 x10=0xffffffd0
     1064402000	     53118	8000b94e	40bdd633	sra	x12,x27,x11	 x27:0x9ad6d000 x11:0xfffe4000 x12=0x9ad6d000
     1064762000	     53136	8000b952	b9dd8913	addi	x18,x27,-1123	 x27:0x9ad6d000 x18=0x9ad6cb9d
     1064822000	     53139	8000b956	02ce90b3	mulh	x1,x29,x12	 x29:0xd03b50dc x12:0x9ad6d000  x1=0x12e0488e
     1064862000	     53141	8000b95a	004444b3	xor	x9,x8,x4	  x8:0x7ffde430  x4:0x00000000  x9=0x7ffde430
     1065022000	     53149	8000b95e	011ad693	srli	x13,x21,0x11	 x21:0x9ad6d000 x13=0x00004d6b
     1065062000	     53151	8000b962	297e2013	slti	x0,x28,663	 x28:0xfffff809  x0=0x00000000
     1065082000	     53152	8000b966	9332	c.add	x6,x12	  x6:0x33000000 x12:0x9ad6d000  x6=0xcdd6d000
     1065122000	     53154	8000b968	6435	c.lui	x8,0xd	  x8=0x0000d000
     1065142000	     53155	8000b96a	00938cb3	add	x25,x7,x9	  x7:0xffffffff  x9:0x7ffde430 x25=0x7ffde42f
     1065922000	     53194	8000b96e	0171ec63	bltu	x3,x23,8000b986	  x3:0x00000000 x23:0x80021df8
     1066262000	     53211	8000b986	8f2d	c.xor	x14,x11	 x14:0x00000000 x11:0xfffe4000 x14=0xfffe4000
     1066302000	     53213	8000b988	30402cf3	csrrs	x25,mie,x0	  x0:0x00000000 x25=0x00000000
     1066402000	     53218	8000b98c	b183fc13	andi	x24,x7,-1256	  x7:0xffffffff x24=0xfffffb18
     1066422000	     53219	8000b990	41178233	sub	x4,x15,x17	 x15:0x00000000 x17:0x00000000  x4=0x00000000
     1066482000	     53222	8000b994	0100b133	sltu	x2,x1,x16	  x1:0x12e0488e x16:0x00000000  x2=0x00000000
     1067282000	     53262	8000b998	05fac163	blt	x21,x31,8000b9da	 x21:0x9ad6d000 x31:0xc5c96757
     1067562000	     53276	8000b9da	02df7d63	bgeu	x30,x13,8000ba14	 x30:0x00047adc x13:0x00004d6b
     1067702000	     53283	8000ba14	8e4d	c.or	x12,x11	 x12:0x9ad6d000 x11:0xfffe4000 x12=0xfffed000
     1067722000	     53284	8000ba16	009a2233	slt	x4,x20,x9	 x20:0x0b0f0f0f  x9:0x7ffde430  x4=0x00000001
     1068482000	     53322	8000ba1a	03faf3b3	remu	x7,x21,x31	 x21:0x9ad6d000 x31:0xc5c96757  x7=0x9ad6d000
     1068522000	     53324	8000ba1e	03fc4d63	blt	x24,x31,8000ba58	 x24:0xfffffb18 x31:0xc5c96757
     1068662000	     53331	8000ba22	9e190d13	addi	x26,x18,-1567	 x18:0x9ad6cb9d x26=0x9ad6c57e
     1068682000	     53332	8000ba26	1a8c	c.addi4spn	x11,x2,368	 x11=0x00000170
     1068742000	     53335	8000ba28	071a	c.slli	x14,0x6	 x14:0xfffe4000 x14=0xff900000
     1069522000	     53374	8000ba2a	547d	c.li	x8,-1	  x8=0xffffffff
     1069562000	     53376	8000ba2c	00638563	beq	x7,x6,8000ba36	  x7:0x9ad6d000  x6:0xcdd6d000
     1069642000	     53380	8000ba30	50fd	c.li	x1,-1	  x1=0xffffffff
     1069702000	     53383	8000ba32	3060c593	xori	x11,x1,774	  x1:0xffffffff x11=0xfffffcf9
     1069722000	     53384	8000ba36	7a106c73	csrrsi	x24,tdata1,0	 x24=0x28001048
     1070522000	     53424	8000ba3a	fdb97c93	andi	x25,x18,-37	 x18:0x9ad6cb9d x25=0x9ad6cb99
     1070542000	     53425	8000ba3e	8cb5	c.xor	x9,x13	  x9:0x7ffde430 x13:0x00004d6b  x9=0x7ffda95b
     1071302000	     53463	8000ba40	0350e133	rem	x2,x1,x21	  x1:0xffffffff x21:0x9ad6d000  x2=0xffffffff
     1071342000	     53465	8000ba44	f1331473	csrrw	x0,mimpid,x0	  x0:0x00000000  x0=0x00000000
     1071442000	     53470	80002700	0800006f	jal	x0,80002780	  x0=0x00000000
     1071602000	     53478	80002780	12f1	c.addi	x5,-4	  x5:0x80025ce4  x5=0x80025ce0
     1088542000	     54325	80002782	0172a023	sw	x23,0(x5)	  x5:0x80025ce0 x23:0x80021df8 PA:0x80025ce0 store:0x80021df8 load:0xffffffff
     1088562000	     54326	80002786	00028bb3	add	x23,x5,x0	  x5:0x80025ce0  x0:0x00000000 x23=0x80025ce0
     1089322000	     54364	8000278a	f80b8b93	addi	x23,x23,-128	 x23:0x80025ce0 x23=0x80025c60
     1089382000	     54367	8000278e	001ba223	sw	x1,4(x23)	 x23:0x80025c60  x1:0xffffffff PA:0x80025c64 store:0xffffffff load:0xffffffff
     1089402000	     54368	80002792	002ba423	sw	x2,8(x23)	 x23:0x80025c60  x2:0xffffffff PA:0x80025c68 store:0xffffffff load:0xffffffff
     1089502000	     54373	80002796	003ba623	sw	x3,12(x23)	 x23:0x80025c60  x3:0x00000000 PA:0x80025c6c store:0x00000000 load:0xffffffff
     1089562000	     54376	8000279a	004ba823	sw	x4,16(x23)	 x23:0x80025c60  x4:0x00000001 PA:0x80025c70 store:0x00000001 load:0xffffffff
     1090162000	     54406	8000279e	005baa23	sw	x5,20(x23)	 x23:0x80025c60  x5:0x80025ce0 PA:0x80025c74 store:0x80025ce0 load:0xffffffff
     1090262000	     54411	800027a2	006bac23	sw	x6,24(x23)	 x23:0x80025c60  x6:0xcdd6d000 PA:0x80025c78 store:0xcdd6d000 load:0xffffffff
     1090482000	     54422	800027a6	007bae23	sw	x7,28(x23)	 x23:0x80025c60  x7:0x9ad6d000 PA:0x80025c7c store:0x9ad6d000 load:0xffffffff
     1090882000	     54442	800027aa	028ba023	sw	x8,32(x23)	 x23:0x80025c60  x8:0xffffffff PA:0x80025c80 store:0xffffffff load:0xffffffff
     1090962000	     54446	800027ae	029ba223	sw	x9,36(x23)	 x23:0x80025c60  x9:0x7ffda95b PA:0x80025c84 store:0x7ffda95b load:0xffffffff
     1091002000	     54448	800027b2	02aba423	sw	x10,40(x23)	 x23:0x80025c60 x10:0xffffffd0 PA:0x80025c88 store:0xffffffd0 load:0xffffffff
     1091162000	     54456	800027b6	02bba623	sw	x11,44(x23)	 x23:0x80025c60 x11:0xfffffcf9 PA:0x80025c8c store:0xfffffcf9 load:0xffffffff
     1091182000	     54457	800027ba	02cba823	sw	x12,48(x23)	 x23:0x80025c60 x12:0xfffed000 PA:0x80025c90 store:0xfffed000 load:0xffffffff
     1091502000	     54473	800027be	02dbaa23	sw	x13,52(x23)	 x23:0x80025c60 x13:0x00004d6b PA:0x80025c94 store:0x00004d6b load:0xffffffff
     1091682000	     54482	800027c2	02ebac23	sw	x14,56(x23)	 x23:0x80025c60 x14:0xff900000 PA:0x80025c98 store:0xff900000 load:0xffffffff
     1091842000	     54490	800027c6	02fbae23	sw	x15,60(x23)	 x23:0x80025c60 x15:0x00000000 PA:0x80025c9c store:0x00000000 load:0xffffffff
     1091902000	     54493	800027ca	050ba023	sw	x16,64(x23)	 x23:0x80025c60 x16:0x00000000 PA:0x80025ca0 store:0x00000000 load:0xffffffff
     1092982000	     54547	800027ce	051ba223	sw	x17,68(x23)	 x23:0x80025c60 x17:0x00000000 PA:0x80025ca4 store:0x00000000 load:0xffffffff
     1093042000	     54550	800027d2	052ba423	sw	x18,72(x23)	 x23:0x80025c60 x18:0x9ad6cb9d PA:0x80025ca8 store:0x9ad6cb9d load:0xffffffff
     1094042000	     54600	800027d6	053ba623	sw	x19,76(x23)	 x23:0x80025c60 x19:0x00000002 PA:0x80025cac store:0x00000002 load:0xffffffff
     1094442000	     54620	800027da	054ba823	sw	x20,80(x23)	 x23:0x80025c60 x20:0x0b0f0f0f PA:0x80025cb0 store:0x0b0f0f0f load:0xffffffff
     1096422000	     54719	800027de	055baa23	sw	x21,84(x23)	 x23:0x80025c60 x21:0x9ad6d000 PA:0x80025cb4 store:0x9ad6d000 load:0xffffffff
     1096802000	     54738	800027e2	056bac23	sw	x22,88(x23)	 x23:0x80025c60 x22:0x80021df8 PA:0x80025cb8 store:0x80021df8 load:0xffffffff
     1096882000	     54742	800027e6	057bae23	sw	x23,92(x23)	 x23:0x80025c60 x23:0x80025c60 PA:0x80025cbc store:0x80025c60 load:0xffffffff
     1096902000	     54743	800027ea	078ba023	sw	x24,96(x23)	 x23:0x80025c60 x24:0x28001048 PA:0x80025cc0 store:0x28001048 load:0xffffffff
     1096962000	     54746	800027ee	079ba223	sw	x25,100(x23)	 x23:0x80025c60 x25:0x9ad6cb99 PA:0x80025cc4 store:0x9ad6cb99 load:0xffffffff
     1097262000	     54761	800027f2	07aba423	sw	x26,104(x23)	 x23:0x80025c60 x26:0x9ad6c57e PA:0x80025cc8 store:0x9ad6c57e load:0xffffffff
     1097782000	     54787	800027f6	07bba623	sw	x27,108(x23)	 x23:0x80025c60 x27:0x9ad6d000 PA:0x80025ccc store:0x9ad6d000 load:0xffffffff
     1097842000	     54790	800027fa	07cba823	sw	x28,112(x23)	 x23:0x80025c60 x28:0xfffff809 PA:0x80025cd0 store:0xfffff809 load:0xffffffff
     1097922000	     54794	800027fe	07dbaa23	sw	x29,116(x23)	 x23:0x80025c60 x29:0xd03b50dc PA:0x80025cd4 store:0xd03b50dc load:0xffffffff
     1098982000	     54847	80002802	07ebac23	sw	x30,120(x23)	 x23:0x80025c60 x30:0x00047adc PA:0x80025cd8 store:0x00047adc load:0xffffffff
     1099242000	     54860	80002806	07fbae23	sw	x31,124(x23)	 x23:0x80025c60 x31:0xc5c96757 PA:0x80025cdc store:0xc5c96757 load:0xffffffff
     1100002000	     54898	8000280a	000b82b3	add	x5,x23,x0	 x23:0x80025c60  x0:0x00000000  x5=0x80025c60
     1100822000	     54939	8000280e	90000c37	lui	x24,0x90000	 x24=0x90000000
     1100842000	     54940	80002812	1c71	c.addi	x24,-4	 x24:0x90000000 x24=0x8ffffffc
     1100882000	     54942	80002814	4f21	c.li	x30,8	 x30=0x00000008
     1100902000	     54943	80002816	0f22	c.slli	x30,0x8	 x30:0x00000008 x30=0x00000800
     1101662000	     54981	80002818	000f0f13	addi	x30,x30,0	 x30:0x00000800 x30=0x00000800
     1101802000	     54988	8000281c	01ec2023	sw	x30,0(x24)	 x24:0x8ffffffc x30:0x00000800 PA:0x8ffffffc store:0x00000800 load:0xffffffff
     1101822000	     54989	80002820	34102f73	csrrs	x30,mepc,x0	  x0:0x00000000 x30=0x8000ba44
     1102582000	     55027	80002824	34202f73	csrrs	x30,mcause,x0	  x0:0x00000000 x30=0x00000002
     1102642000	     55030	80002828	4c0d	c.li	x24,3	 x24=0x00000003
     1102682000	     55032	8000282a	018f1463	bne	x30,x24,80002832	 x30:0x00000002 x24:0x00000003
     1102942000	     55045	80002832	4c21	c.li	x24,8	 x24=0x00000008
     1103022000	     55049	80002834	058f0d63	beq	x30,x24,8000288e	 x30:0x00000002 x24:0x00000008
     1103202000	     55058	80002838	4c25	c.li	x24,9	 x24=0x00000009
     1103282000	     55062	8000283a	058f0a63	beq	x30,x24,8000288e	 x30:0x00000002 x24:0x00000009
     1103762000	     55086	8000283e	4c2d	c.li	x24,11	 x24=0x0000000b
     1103942000	     55095	80002840	058f0763	beq	x30,x24,8000288e	 x30:0x00000002 x24:0x0000000b
     1104682000	     55132	80002844	4c05	c.li	x24,1	 x24=0x00000001
     1105462000	     55171	80002846	358f0363	beq	x30,x24,80002b8c	 x30:0x00000002 x24:0x00000001
     1105982000	     55197	8000284a	4c15	c.li	x24,5	 x24=0x00000005
     1106022000	     55199	8000284c	638f0a63	beq	x30,x24,80002e80	 x30:0x00000002 x24:0x00000005
     1106522000	     55224	80002850	4c1d	c.li	x24,7	 x24=0x00000007
     1106562000	     55226	80002852	158f0ce3	beq	x30,x24,800031aa	 x30:0x00000002 x24:0x00000007
     1107222000	     55259	80002856	4c31	c.li	x24,12	 x24=0x0000000c
     1107262000	     55261	80002858	018f1463	bne	x30,x24,80002860	 x30:0x00000002 x24:0x0000000c
     1107542000	     55275	80002860	4c35	c.li	x24,13	 x24=0x0000000d
     1107842000	     55290	80002862	018f1463	bne	x30,x24,8000286a	 x30:0x00000002 x24:0x0000000d
     1109462000	     55371	8000286a	4c3d	c.li	x24,15	 x24=0x0000000f
     1109502000	     55373	8000286c	018f1463	bne	x30,x24,80002874	 x30:0x00000002 x24:0x0000000f
     1110142000	     55405	80002874	4c09	c.li	x24,2	 x24=0x00000002
     1110222000	     55409	80002876	018f1463	bne	x30,x24,8000287e	 x30:0x00000002 x24:0x00000002
     1110562000	     55426	8000287a	3740906f	jal	x0,8000bbee	  x0=0x00000000
     1111462000	     55471	8000bbee	90000c37	lui	x24,0x90000	 x24=0x90000000
     1111502000	     55473	8000bbf2	1c71	c.addi	x24,-4	 x24:0x90000000 x24=0x8ffffffc
     1111802000	     55488	8000bbf4	4f29	c.li	x30,10	 x30=0x0000000a
     1111822000	     55489	8000bbf6	0f22	c.slli	x30,0x8	 x30:0x0000000a x30=0x00000a00
     1112582000	     55527	8000bbf8	000f0f13	addi	x30,x30,0	 x30:0x00000a00 x30=0x00000a00
     1112642000	     55530	8000bbfc	01ec2023	sw	x30,0(x24)	 x24:0x8ffffffc x30:0x00000a00 PA:0x8ffffffc store:0x00000a00 load:0xffffffff
     1112662000	     55531	8000bc00	90000c37	lui	x24,0x90000	 x24=0x90000000
     1112702000	     55533	8000bc04	1c71	c.addi	x24,-4	 x24:0x90000000 x24=0x8ffffffc
     1112722000	     55534	8000bc06	34200f13	addi	x30,x0,834	  x0:0x00000000 x30=0x00000342
     1112742000	     55535	8000bc0a	0f22	c.slli	x30,0x8	 x30:0x00000342 x30=0x00034200
     1112782000	     55537	8000bc0c	0f0d	c.addi	x30,3	 x30:0x00034200 x30=0x00034203
     1112982000	     55547	8000bc0e	01ec2023	sw	x30,0(x24)	 x24:0x8ffffffc x30:0x00034203 PA:0x8ffffffc store:0x00034203 load:0xffffffff
     1113042000	     55550	8000bc12	34202f73	csrrs	x30,mcause,x0	  x0:0x00000000 x30=0x00000002
     1113362000	     55566	8000bc16	01ec2023	sw	x30,0(x24)	 x24:0x8ffffffc x30:0x00000002 PA:0x8ffffffc store:0x00000002 load:0xffffffff
     1113482000	     55572	8000bc1a	34102f73	csrrs	x30,mepc,x0	  x0:0x00000000 x30=0x8000ba44
     1113502000	     55573	8000bc1e	0f11	c.addi	x30,4	 x30:0x8000ba44 x30=0x8000ba48
     1113602000	     55578	8000bc20	341f1073	csrrw	x0,mepc,x30	 x30:0x8000ba48  x0=0x00000000
     1113662000	     55581	8000bc24	00028bb3	add	x23,x5,x0	  x5:0x80025c60  x0:0x00000000 x23=0x80025c60
     1113722000	     55584	8000bc28	004ba083	lw	x1,4(x23)	 x23:0x80025c60  x1=0xffffffff PA:0x80025c64 load:0xffffffff
     1114362000	     55616	8000bc2c	008ba103	lw	x2,8(x23)	 x23:0x80025c60  x2=0xffffffff PA:0x80025c68 load:0xffffffff
     1114802000	     55638	8000bc30	00cba183	lw	x3,12(x23)	 x23:0x80025c60  x3=0x00000000 PA:0x80025c6c load:0x00000000
     1114882000	     55642	8000bc34	010ba203	lw	x4,16(x23)	 x23:0x80025c60  x4=0x00000001 PA:0x80025c70 load:0x00000001
     1115322000	     55664	8000bc38	014ba283	lw	x5,20(x23)	 x23:0x80025c60  x5=0x80025ce0 PA:0x80025c74 load:0x80025ce0
     1115382000	     55667	8000bc3c	018ba303	lw	x6,24(x23)	 x23:0x80025c60  x6=0xcdd6d000 PA:0x80025c78 load:0xcdd6d000
     1116182000	     55707	8000bc40	01cba383	lw	x7,28(x23)	 x23:0x80025c60  x7=0x9ad6d000 PA:0x80025c7c load:0x9ad6d000
     1116202000	     55708	8000bc44	020ba403	lw	x8,32(x23)	 x23:0x80025c60  x8=0xffffffff PA:0x80025c80 load:0xffffffff
     1116222000	     55709	8000bc48	024ba483	lw	x9,36(x23)	 x23:0x80025c60  x9=0x7ffda95b PA:0x80025c84 load:0x7ffda95b
     1116602000	     55728	8000bc4c	028ba503	lw	x10,40(x23)	 x23:0x80025c60 x10=0xffffffd0 PA:0x80025c88 load:0xffffffd0
     1116702000	     55733	8000bc50	02cba583	lw	x11,44(x23)	 x23:0x80025c60 x11=0xfffffcf9 PA:0x80025c8c load:0xfffffcf9
     1116722000	     55734	8000bc54	030ba603	lw	x12,48(x23)	 x23:0x80025c60 x12=0xfffed000 PA:0x80025c90 load:0xfffed000
     1116822000	     55739	8000bc58	034ba683	lw	x13,52(x23)	 x23:0x80025c60 x13=0x00004d6b PA:0x80025c94 load:0x00004d6b
     1117242000	     55760	8000bc5c	038ba703	lw	x14,56(x23)	 x23:0x80025c60 x14=0xff900000 PA:0x80025c98 load:0xff900000
     1117482000	     55772	8000bc60	03cba783	lw	x15,60(x23)	 x23:0x80025c60 x15=0x00000000 PA:0x80025c9c load:0x00000000
     1148482000	     57322	8000bc64	040ba803	lw	x16,64(x23)	 x23:0x80025c60 x16=0x00000000 PA:0x80025ca0 load:0x00000000
     1149282000	     57362	8000bc68	044ba883	lw	x17,68(x23)	 x23:0x80025c60 x17=0x00000000 PA:0x80025ca4 load:0x00000000
     1149382000	     57367	8000bc6c	048ba903	lw	x18,72(x23)	 x23:0x80025c60 x18=0x9ad6cb9d PA:0x80025ca8 load:0x9ad6cb9d
     1149402000	     57368	8000bc70	04cba983	lw	x19,76(x23)	 x23:0x80025c60 x19=0x00000002 PA:0x80025cac load:0x00000002
     1149522000	     57374	8000bc74	050baa03	lw	x20,80(x23)	 x23:0x80025c60 x20=0x0b0f0f0f PA:0x80025cb0 load:0x0b0f0f0f
     1149602000	     57378	8000bc78	054baa83	lw	x21,84(x23)	 x23:0x80025c60 x21=0x9ad6d000 PA:0x80025cb4 load:0x9ad6d000
     1149902000	     57393	8000bc7c	058bab03	lw	x22,88(x23)	 x23:0x80025c60 x22=0x80021df8 PA:0x80025cb8 load:0x80021df8
     1149962000	     57396	8000bc80	05cbab83	lw	x23,92(x23)	 x23:0x80025c60 x23=0x80025c60 PA:0x80025cbc load:0x80025c60
     1150002000	     57398	8000bc84	060bac03	lw	x24,96(x23)	 x23:0x80025c60 x24=0x28001048 PA:0x80025cc0 load:0x28001048
     1150342000	     57415	8000bc88	064bac83	lw	x25,100(x23)	 x23:0x80025c60 x25=0x9ad6cb99 PA:0x80025cc4 load:0x9ad6cb99
     1150482000	     57422	8000bc8c	068bad03	lw	x26,104(x23)	 x23:0x80025c60 x26=0x9ad6c57e PA:0x80025cc8 load:0x9ad6c57e
     1151282000	     57462	8000bc90	06cbad83	lw	x27,108(x23)	 x23:0x80025c60 x27=0x9ad6d000 PA:0x80025ccc load:0x9ad6d000
     1151322000	     57464	8000bc94	070bae03	lw	x28,112(x23)	 x23:0x80025c60 x28=0xfffff809 PA:0x80025cd0 load:0xfffff809
     1151362000	     57466	8000bc98	074bae83	lw	x29,116(x23)	 x23:0x80025c60 x29=0xd03b50dc PA:0x80025cd4 load:0xd03b50dc
     1151442000	     57470	8000bc9c	078baf03	lw	x30,120(x23)	 x23:0x80025c60 x30=0x00047adc PA:0x80025cd8 load:0x00047adc
     1152362000	     57516	8000bca0	07cbaf83	lw	x31,124(x23)	 x23:0x80025c60 x31=0xc5c96757 PA:0x80025cdc load:0xc5c96757
     1152382000	     57517	8000bca4	080b8b93	addi	x23,x23,128	 x23:0x80025c60 x23=0x80025ce0
     1152422000	     57519	8000bca8	000b82b3	add	x5,x23,x0	 x23:0x80025ce0  x0:0x00000000  x5=0x80025ce0
     1152522000	     57524	8000bcac	0002ab83	lw	x23,0(x5)	  x5:0x80025ce0 x23=0x80021df8 PA:0x80025ce0 load:0x80021df8
     1152542000	     57525	8000bcb0	0291	c.addi	x5,4	  x5:0x80025ce0  x5=0x80025ce4
     1152602000	     57528	8000bcb2	30200073	mret	
     1153102000	     57553	8000ba48	3a302ef3	csrrs	x29,pmpcfg3,x0	  x0:0x00000000 x29=0x0f0f0f0f
     1153122000	     57554	8000ba4c	81bd	c.srli	x11,0xf	 x11:0xfffffcf9 x11=0x0001ffff
     1153162000	     57556	8000ba4e	8e31	c.xor	x12,x12	 x12:0xfffed000 x12:0xfffed000 x12=0x00000000
     1153182000	     57557	8000ba50	031b0233	mul	x4,x22,x17	 x22:0x80021df8 x17:0x00000000  x4=0x00000000
     1153222000	     57559	8000ba54	0000100f	fence.i	
     1153602000	     57578	8000ba58	01a89c63	bne	x17,x26,8000ba70	 x17:0x00000000 x26:0x9ad6c57e
     1154242000	     57610	8000ba70	01812433	slt	x8,x2,x24	  x2:0xffffffff x24:0x28001048  x8=0x00000001
     1154282000	     57612	8000ba74	414f0d33	sub	x26,x30,x20	 x30:0x00047adc x20:0x0b0f0f0f x26=0xf4f56bcd
     1154482000	     57622	8000ba78	8c59	c.or	x8,x14	  x8:0x00000001 x14:0xff900000  x8=0xff900001
     1154542000	     57625	8000ba7a	03152033	mulhsu	x0,x10,x17	 x10:0xffffffd0 x17:0x00000000  x0=0x00000000
     1154582000	     57627	8000ba7e	46ec6593	ori	x11,x24,1134	 x24:0x28001048 x11=0x2800146e
     1155722000	     57684	8000ba82	02cc5633	divu	x12,x24,x12	 x24:0x28001048 x12:0x00000000 x12=0xffffffff
     1155782000	     57687	8000ba86	03a0ee63	bltu	x1,x26,8000bac2	  x1:0xffffffff x26:0xf4f56bcd
     1156202000	     57708	8000ba8a	018cf863	bgeu	x25,x24,8000ba9a	 x25:0x9ad6cb99 x24:0x28001048
     1157642000	     57780	8000ba9a	035ded33	rem	x26,x27,x21	 x27:0x9ad6d000 x21:0x9ad6d000 x26=0x00000000
     1158382000	     57817	8000ba9e	02bc43b3	div	x7,x24,x11	 x24:0x28001048 x11:0x2800146e  x7=0x00000000
     1159162000	     57856	8000baa2	00cbe133	or	x2,x23,x12	 x23:0x80021df8 x12:0xffffffff  x2=0xffffffff
     1159202000	     57858	8000baa6	717d	c.addi16sp	x2,-16	  x2:0xffffffff  x2=0xffffffef
     1159222000	     57859	8000baa8	8d2ebc13	sltiu	x24,x29,-1838	 x29:0x0f0f0f0f x24=0x00000001
     1159982000	     57897	8000baac	000bfeb3	and	x29,x23,x0	 x23:0x80021df8  x0:0x00000000 x29=0x00000000
     1160002000	     57898	8000bab0	00b571b3	and	x3,x10,x11	 x10:0xffffffd0 x11:0x2800146e  x3=0x28001440
     1161522000	     57974	8000bab4	8ce9	c.and	x9,x10	  x9:0x7ffda95b x10:0xffffffd0  x9=0x7ffda950
     1161562000	     57976	8000bab6	01011863	bne	x2,x16,8000bac6	  x2:0xffffffef x16:0x00000000
     1161962000	     57996	8000bac6	5e7d	c.li	x28,-1	 x28=0xffffffff
     1162022000	     57999	8000bac8	0001	c.addi	x0,0	  x0:0x00000000  x0=0x00000000
     1162762000	     58036	8000baca	0222f3b3	remu	x7,x5,x2	  x5:0x80025ce4  x2:0xffffffef  x7=0x80025ce4
     1162802000	     58038	8000bace	00c49f93	slli	x31,x9,0xc	  x9:0x7ffda950 x31=0xda950000
     1163542000	     58075	8000bad2	02c9c8b3	div	x17,x19,x12	 x19:0x00000002 x12:0xffffffff x17=0xfffffffe
     1163562000	     58076	8000bad6	997d	c.andi	x10,-1	 x10:0xffffffd0 x10=0xffffffd0
     1163602000	     58078	8000bad8	00f19113	slli	x2,x3,0xf	  x3:0x28001440  x2=0x0a200000
     1163642000	     58080	8000badc	02019063	bne	x3,x0,8000bafc	  x3:0x28001440  x0:0x00000000
     1164442000	     58120	8000bafc	02834133	div	x2,x6,x8	  x6:0xcdd6d000  x8:0xff900001  x2=0x00000072
     1164482000	     58122	8000bb00	8dc9	c.or	x11,x10	 x11:0x2800146e x10:0xffffffd0 x11=0xfffffffe
     1165262000	     58161	8000bb02	8c49	c.or	x8,x10	  x8:0xff900001 x10:0xffffffd0  x8=0xffffffd1
     1165322000	     58164	8000bb04	004ba203	lw	x4,4(x23)	 x23:0x80021df8  x4=0x800038ee PA:0x80021dfc load:0x800038ee
     1165342000	     58165	8000bb08	0bf1	c.addi	x23,28	 x23:0x80021df8 x23=0x80021e14
     1165382000	     58167	8000bb0a	09ae	c.slli	x19,0xb	 x19:0x00000002 x19=0x00001000
     1166162000	     58206	8000bb0c	00120f93	addi	x31,x4,1	  x4:0x800038ee x31=0x800038ef
     1166182000	     58207	8000bb10	8f82	c.jr	x31	 x31:0x800038ef
     1166322000	     58214	800038ee	7c03d973	csrrwi	x18,0x7c0,7	 x18=0x00000106
     1166382000	     58217	800038f2	f14aec73	csrrsi	x0,mhartid,21	  x0=0x00000000
     1166842000	     58240	80002700	0800006f	jal	x0,80002780	  x0=0x00000000
     1167422000	     58269	80002780	12f1	c.addi	x5,-4	  x5:0x80025ce4  x5=0x80025ce0
     1167562000	     58276	80002782	0172a023	sw	x23,0(x5)	  x5:0x80025ce0 x23:0x80021e14 PA:0x80025ce0 store:0x80021e14 load:0xffffffff
     1167582000	     58277	80002786	00028bb3	add	x23,x5,x0	  x5:0x80025ce0  x0:0x00000000 x23=0x80025ce0
     1167602000	     58278	8000278a	f80b8b93	addi	x23,x23,-128	 x23:0x80025ce0 x23=0x80025c60
     1167662000	     58281	8000278e	001ba223	sw	x1,4(x23)	 x23:0x80025c60  x1:0xffffffff PA:0x80025c64 store:0xffffffff load:0xffffffff
     1169282000	     58362	80002792	002ba423	sw	x2,8(x23)	 x23:0x80025c60  x2:0x00000072 PA:0x80025c68 store:0x00000072 load:0xffffffff
     1169602000	     58378	80002796	003ba623	sw	x3,12(x23)	 x23:0x80025c60  x3:0x28001440 PA:0x80025c6c store:0x28001440 load:0xffffffff
     1169662000	     58381	8000279a	004ba823	sw	x4,16(x23)	 x23:0x80025c60  x4:0x800038ee PA:0x80025c70 store:0x800038ee load:0xffffffff
     1169882000	     58392	8000279e	005baa23	sw	x5,20(x23)	 x23:0x80025c60  x5:0x80025ce0 PA:0x80025c74 store:0x80025ce0 load:0xffffffff
     1170042000	     58400	800027a2	006bac23	sw	x6,24(x23)	 x23:0x80025c60  x6:0xcdd6d000 PA:0x80025c78 store:0xcdd6d000 load:0xffffffff
     1170142000	     58405	800027a6	007bae23	sw	x7,28(x23)	 x23:0x80025c60  x7:0x80025ce4 PA:0x80025c7c store:0x80025ce4 load:0xffffffff
     1170162000	     58406	800027aa	028ba023	sw	x8,32(x23)	 x23:0x80025c60  x8:0xffffffd1 PA:0x80025c80 store:0xffffffd1 load:0xffffffff
     1170362000	     58416	800027ae	029ba223	sw	x9,36(x23)	 x23:0x80025c60  x9:0x7ffda950 PA:0x80025c84 store:0x7ffda950 load:0xffffffff
     1170562000	     58426	800027b2	02aba423	sw	x10,40(x23)	 x23:0x80025c60 x10:0xffffffd0 PA:0x80025c88 store:0xffffffd0 load:0xffffffff
     1170882000	     58442	800027b6	02bba623	sw	x11,44(x23)	 x23:0x80025c60 x11:0xfffffffe PA:0x80025c8c store:0xfffffffe load:0xffffffff
     1170982000	     58447	800027ba	02cba823	sw	x12,48(x23)	 x23:0x80025c60 x12:0xffffffff PA:0x80025c90 store:0xffffffff load:0xffffffff
     1171262000	     58461	800027be	02dbaa23	sw	x13,52(x23)	 x23:0x80025c60 x13:0x00004d6b PA:0x80025c94 store:0x00004d6b load:0xffffffff
     1171342000	     58465	800027c2	02ebac23	sw	x14,56(x23)	 x23:0x80025c60 x14:0xff900000 PA:0x80025c98 store:0xff900000 load:0xffffffff
     1172142000	     58505	800027c6	02fbae23	sw	x15,60(x23)	 x23:0x80025c60 x15:0x00000000 PA:0x80025c9c store:0x00000000 load:0xffffffff
     1172342000	     58515	800027ca	050ba023	sw	x16,64(x23)	 x23:0x80025c60 x16:0x00000000 PA:0x80025ca0 store:0x00000000 load:0xffffffff
     1172602000	     58528	800027ce	051ba223	sw	x17,68(x23)	 x23:0x80025c60 x17:0xfffffffe PA:0x80025ca4 store:0xfffffffe load:0xffffffff
     1173402000	     58568	800027d2	052ba423	sw	x18,72(x23)	 x23:0x80025c60 x18:0x00000106 PA:0x80025ca8 store:0x00000106 load:0xffffffff
     1173682000	     58582	800027d6	053ba623	sw	x19,76(x23)	 x23:0x80025c60 x19:0x00001000 PA:0x80025cac store:0x00001000 load:0xffffffff
     1174142000	     58605	800027da	054ba823	sw	x20,80(x23)	 x23:0x80025c60 x20:0x0b0f0f0f PA:0x80025cb0 store:0x0b0f0f0f load:0xffffffff
     1174322000	     58614	800027de	055baa23	sw	x21,84(x23)	 x23:0x80025c60 x21:0x9ad6d000 PA:0x80025cb4 store:0x9ad6d000 load:0xffffffff
     1174402000	     58618	800027e2	056bac23	sw	x22,88(x23)	 x23:0x80025c60 x22:0x80021df8 PA:0x80025cb8 store:0x80021df8 load:0xffffffff
     1174702000	     58633	800027e6	057bae23	sw	x23,92(x23)	 x23:0x80025c60 x23:0x80025c60 PA:0x80025cbc store:0x80025c60 load:0xffffffff
     1174862000	     58641	800027ea	078ba023	sw	x24,96(x23)	 x23:0x80025c60 x24:0x00000001 PA:0x80025cc0 store:0x00000001 load:0xffffffff
     1174942000	     58645	800027ee	079ba223	sw	x25,100(x23)	 x23:0x80025c60 x25:0x9ad6cb99 PA:0x80025cc4 store:0x9ad6cb99 load:0xffffffff
     1174982000	     58647	800027f2	07aba423	sw	x26,104(x23)	 x23:0x80025c60 x26:0x00000000 PA:0x80025cc8 store:0x00000000 load:0xffffffff
     1175022000	     58649	800027f6	07bba623	sw	x27,108(x23)	 x23:0x80025c60 x27:0x9ad6d000 PA:0x80025ccc store:0x9ad6d000 load:0xffffffff
     1175242000	     58660	800027fa	07cba823	sw	x28,112(x23)	 x23:0x80025c60 x28:0xffffffff PA:0x80025cd0 store:0xffffffff load:0xffffffff
     1175302000	     58663	800027fe	07dbaa23	sw	x29,116(x23)	 x23:0x80025c60 x29:0x00000000 PA:0x80025cd4 store:0x00000000 load:0xffffffff
     1175462000	     58671	80002802	07ebac23	sw	x30,120(x23)	 x23:0x80025c60 x30:0x00047adc PA:0x80025cd8 store:0x00047adc load:0xffffffff
     1176262000	     58711	80002806	07fbae23	sw	x31,124(x23)	 x23:0x80025c60 x31:0x800038ef PA:0x80025cdc store:0x800038ef load:0xffffffff
     1176282000	     58712	8000280a	000b82b3	add	x5,x23,x0	 x23:0x80025c60  x0:0x00000000  x5=0x80025c60
     1176362000	     58716	8000280e	90000c37	lui	x24,0x90000	 x24=0x90000000
     1176382000	     58717	80002812	1c71	c.addi	x24,-4	 x24:0x90000000 x24=0x8ffffffc
     1183342000	     59065	80002814	4f21	c.li	x30,8	 x30=0x00000008
     1183362000	     59066	80002816	0f22	c.slli	x30,0x8	 x30:0x00000008 x30=0x00000800
     1183382000	     59067	80002818	000f0f13	addi	x30,x30,0	 x30:0x00000800 x30=0x00000800
     1183462000	     59071	8000281c	01ec2023	sw	x30,0(x24)	 x24:0x8ffffffc x30:0x00000800 PA:0x8ffffffc store:0x00000800 load:0xffffffff
     1183482000	     59072	80002820	34102f73	csrrs	x30,mepc,x0	  x0:0x00000000 x30=0x800038f2
     1184262000	     59111	80002824	34202f73	csrrs	x30,mcause,x0	  x0:0x00000000 x30=0x00000002
     1184282000	     59112	80002828	4c0d	c.li	x24,3	 x24=0x00000003
     1184322000	     59114	8000282a	018f1463	bne	x30,x24,80002832	 x30:0x00000002 x24:0x00000003
     1184382000	     59117	80002832	4c21	c.li	x24,8	 x24=0x00000008
     1184422000	     59119	80002834	058f0d63	beq	x30,x24,8000288e	 x30:0x00000002 x24:0x00000008
     1184462000	     59121	80002838	4c25	c.li	x24,9	 x24=0x00000009
     1184502000	     59123	8000283a	058f0a63	beq	x30,x24,8000288e	 x30:0x00000002 x24:0x00000009
     1184542000	     59125	8000283e	4c2d	c.li	x24,11	 x24=0x0000000b
     1185202000	     59158	80002840	058f0763	beq	x30,x24,8000288e	 x30:0x00000002 x24:0x0000000b
     1185262000	     59161	80002844	4c05	c.li	x24,1	 x24=0x00000001
     1185322000	     59164	80002846	358f0363	beq	x30,x24,80002b8c	 x30:0x00000002 x24:0x00000001
     1185382000	     59167	8000284a	4c15	c.li	x24,5	 x24=0x00000005
     1185422000	     59169	8000284c	638f0a63	beq	x30,x24,80002e80	 x30:0x00000002 x24:0x00000005
     1186422000	     59219	80002850	4c1d	c.li	x24,7	 x24=0x00000007
     1186522000	     59224	80002852	158f0ce3	beq	x30,x24,800031aa	 x30:0x00000002 x24:0x00000007
     1186602000	     59228	80002856	4c31	c.li	x24,12	 x24=0x0000000c
     1186662000	     59231	80002858	018f1463	bne	x30,x24,80002860	 x30:0x00000002 x24:0x0000000c
     1187742000	     59285	80002860	4c35	c.li	x24,13	 x24=0x0000000d
     1187962000	     59296	80002862	018f1463	bne	x30,x24,8000286a	 x30:0x00000002 x24:0x0000000d
     1188422000	     59319	8000286a	4c3d	c.li	x24,15	 x24=0x0000000f
     1188482000	     59322	8000286c	018f1463	bne	x30,x24,80002874	 x30:0x00000002 x24:0x0000000f
     1188542000	     59325	80002874	4c09	c.li	x24,2	 x24=0x00000002
     1189262000	     59361	80002876	018f1463	bne	x30,x24,8000287e	 x30:0x00000002 x24:0x00000002
     1189322000	     59364	8000287a	3740906f	jal	x0,8000bbee	  x0=0x00000000
     1190902000	     59443	8000bbee	90000c37	lui	x24,0x90000	 x24=0x90000000
     1190922000	     59444	8000bbf2	1c71	c.addi	x24,-4	 x24:0x90000000 x24=0x8ffffffc
     1190942000	     59445	8000bbf4	4f29	c.li	x30,10	 x30=0x0000000a
     1191702000	     59483	8000bbf6	0f22	c.slli	x30,0x8	 x30:0x0000000a x30=0x00000a00
     1191722000	     59484	8000bbf8	000f0f13	addi	x30,x30,0	 x30:0x00000a00 x30=0x00000a00
     1191802000	     59488	8000bbfc	01ec2023	sw	x30,0(x24)	 x24:0x8ffffffc x30:0x00000a00 PA:0x8ffffffc store:0x00000a00 load:0xffffffff
     1191822000	     59489	8000bc00	90000c37	lui	x24,0x90000	 x24=0x90000000
     1191842000	     59490	8000bc04	1c71	c.addi	x24,-4	 x24:0x90000000 x24=0x8ffffffc
     1191902000	     59493	8000bc06	34200f13	addi	x30,x0,834	  x0:0x00000000 x30=0x00000342
     1191922000	     59494	8000bc0a	0f22	c.slli	x30,0x8	 x30:0x00000342 x30=0x00034200
     1191982000	     59497	8000bc0c	0f0d	c.addi	x30,3	 x30:0x00034200 x30=0x00034203
     1192262000	     59511	8000bc0e	01ec2023	sw	x30,0(x24)	 x24:0x8ffffffc x30:0x00034203 PA:0x8ffffffc store:0x00034203 load:0xffffffff
     1192482000	     59522	8000bc12	34202f73	csrrs	x30,mcause,x0	  x0:0x00000000 x30=0x00000002
     1193002000	     59548	8000bc16	01ec2023	sw	x30,0(x24)	 x24:0x8ffffffc x30:0x00000002 PA:0x8ffffffc store:0x00000002 load:0xffffffff
     1193022000	     59549	8000bc1a	34102f73	csrrs	x30,mepc,x0	  x0:0x00000000 x30=0x800038f2
     1193062000	     59551	8000bc1e	0f11	c.addi	x30,4	 x30:0x800038f2 x30=0x800038f6
     1193842000	     59590	8000bc20	341f1073	csrrw	x0,mepc,x30	 x30:0x800038f6  x0=0x00000000
     1193862000	     59591	8000bc24	00028bb3	add	x23,x5,x0	  x5:0x80025c60  x0:0x00000000 x23=0x80025c60
     1194062000	     59601	8000bc28	004ba083	lw	x1,4(x23)	 x23:0x80025c60  x1=0xffffffff PA:0x80025c64 load:0xffffffff
     1194282000	     59612	8000bc2c	008ba103	lw	x2,8(x23)	 x23:0x80025c60  x2=0x00000072 PA:0x80025c68 load:0x00000072
     1195182000	     59657	8000bc30	00cba183	lw	x3,12(x23)	 x23:0x80025c60  x3=0x28001440 PA:0x80025c6c load:0x28001440
     1195242000	     59660	8000bc34	010ba203	lw	x4,16(x23)	 x23:0x80025c60  x4=0x800038ee PA:0x80025c70 load:0x800038ee
     1195342000	     59665	8000bc38	014ba283	lw	x5,20(x23)	 x23:0x80025c60  x5=0x80025ce0 PA:0x80025c74 load:0x80025ce0
     1195482000	     59672	8000bc3c	018ba303	lw	x6,24(x23)	 x23:0x80025c60  x6=0xcdd6d000 PA:0x80025c78 load:0xcdd6d000
     1195582000	     59677	8000bc40	01cba383	lw	x7,28(x23)	 x23:0x80025c60  x7=0x80025ce4 PA:0x80025c7c load:0x80025ce4
     1195622000	     59679	8000bc44	020ba403	lw	x8,32(x23)	 x23:0x80025c60  x8=0xffffffd1 PA:0x80025c80 load:0xffffffd1
     1195662000	     59681	8000bc48	024ba483	lw	x9,36(x23)	 x23:0x80025c60  x9=0x7ffda950 PA:0x80025c84 load:0x7ffda950
     1195862000	     59691	8000bc4c	028ba503	lw	x10,40(x23)	 x23:0x80025c60 x10=0xffffffd0 PA:0x80025c88 load:0xffffffd0
     1196322000	     59714	8000bc50	02cba583	lw	x11,44(x23)	 x23:0x80025c60 x11=0xfffffffe PA:0x80025c8c load:0xfffffffe
     1196542000	     59725	8000bc54	030ba603	lw	x12,48(x23)	 x23:0x80025c60 x12=0xffffffff PA:0x80025c90 load:0xffffffff
     1197342000	     59765	8000bc58	034ba683	lw	x13,52(x23)	 x23:0x80025c60 x13=0x00004d6b PA:0x80025c94 load:0x00004d6b
     1197502000	     59773	8000bc5c	038ba703	lw	x14,56(x23)	 x23:0x80025c60 x14=0xff900000 PA:0x80025c98 load:0xff900000
     1198322000	     59814	8000bc60	03cba783	lw	x15,60(x23)	 x23:0x80025c60 x15=0x00000000 PA:0x80025c9c load:0x00000000
     1198402000	     59818	8000bc64	040ba803	lw	x16,64(x23)	 x23:0x80025c60 x16=0x00000000 PA:0x80025ca0 load:0x00000000
     1198482000	     59822	8000bc68	044ba883	lw	x17,68(x23)	 x23:0x80025c60 x17=0xfffffffe PA:0x80025ca4 load:0xfffffffe
     1198502000	     59823	8000bc6c	048ba903	lw	x18,72(x23)	 x23:0x80025c60 x18=0x00000106 PA:0x80025ca8 load:0x00000106
     1199322000	     59864	8000bc70	04cba983	lw	x19,76(x23)	 x23:0x80025c60 x19=0x00001000 PA:0x80025cac load:0x00001000
     1199822000	     59889	8000bc74	050baa03	lw	x20,80(x23)	 x23:0x80025c60 x20=0x0b0f0f0f PA:0x80025cb0 load:0x0b0f0f0f
     1200622000	     59929	8000bc78	054baa83	lw	x21,84(x23)	 x23:0x80025c60 x21=0x9ad6d000 PA:0x80025cb4 load:0x9ad6d000
     1200642000	     59930	8000bc7c	058bab03	lw	x22,88(x23)	 x23:0x80025c60 x22=0x80021df8 PA:0x80025cb8 load:0x80021df8
     1201062000	     59951	8000bc80	05cbab83	lw	x23,92(x23)	 x23:0x80025c60 x23=0x80025c60 PA:0x80025cbc load:0x80025c60
     1201202000	     59958	8000bc84	060bac03	lw	x24,96(x23)	 x23:0x80025c60 x24=0x00000001 PA:0x80025cc0 load:0x00000001
     1201262000	     59961	8000bc88	064bac83	lw	x25,100(x23)	 x23:0x80025c60 x25=0x9ad6cb99 PA:0x80025cc4 load:0x9ad6cb99
     1201522000	     59974	8000bc8c	068bad03	lw	x26,104(x23)	 x23:0x80025c60 x26=0x00000000 PA:0x80025cc8 load:0x00000000
     1201702000	     59983	8000bc90	06cbad83	lw	x27,108(x23)	 x23:0x80025c60 x27=0x9ad6d000 PA:0x80025ccc load:0x9ad6d000
     1201822000	     59989	8000bc94	070bae03	lw	x28,112(x23)	 x23:0x80025c60 x28=0xffffffff PA:0x80025cd0 load:0xffffffff
     1203022000	     60049	8000bc98	074bae83	lw	x29,116(x23)	 x23:0x80025c60 x29=0x00000000 PA:0x80025cd4 load:0x00000000
     1203082000	     60052	8000bc9c	078baf03	lw	x30,120(x23)	 x23:0x80025c60 x30=0x00047adc PA:0x80025cd8 load:0x00047adc
     1203122000	     60054	8000bca0	07cbaf83	lw	x31,124(x23)	 x23:0x80025c60 x31=0x800038ef PA:0x80025cdc load:0x800038ef
     1203142000	     60055	8000bca4	080b8b93	addi	x23,x23,128	 x23:0x80025c60 x23=0x80025ce0
     1203162000	     60056	8000bca8	000b82b3	add	x5,x23,x0	 x23:0x80025ce0  x0:0x00000000  x5=0x80025ce0
     1203462000	     60071	8000bcac	0002ab83	lw	x23,0(x5)	  x5:0x80025ce0 x23=0x80021e14 PA:0x80025ce0 load:0x80021e14
     1203482000	     60072	8000bcb0	0291	c.addi	x5,4	  x5:0x80025ce0  x5=0x80025ce4
     1203502000	     60073	8000bcb2	30200073	mret	
     1204402000	     60118	800038f6	004f5313	srli	x6,x30,0x4	 x30:0x00047adc  x6=0x000047ad
     1204442000	     60120	800038fa	ea81	c.bnez	x13,8000390a	 x13:0x00004d6b
     1205522000	     60174	8000390a	0001	c.addi	x0,0	  x0:0x00000000  x0=0x00000000
     1205942000	     60195	8000390c	826d	c.srli	x12,0x1b	 x12:0xffffffff x12=0x0000001f
     1206002000	     60198	8000390e	02213433	mulhu	x8,x2,x2	  x2:0x00000072  x2:0x00000072  x8=0x00000000
     1206042000	     60200	80003912	6dad	c.lui	x27,0xb	 x27=0x0000b000
     1206082000	     60202	80003914	01c17263	bgeu	x2,x28,80003918	  x2:0x00000072 x28:0xffffffff
     1206982000	     60247	80003918	32c024f3	csrrs	x9,mhpmevent12,x0	  x0:0x00000000  x9=0x00000200
     1207002000	     60248	8000391c	3b606573	csrrsi	x10,pmpaddr6,0	 x10=0x3999a6c8
     1207042000	     60250	80003920	0116d4b3	srl	x9,x13,x17	 x13:0x00004d6b x17:0xfffffffe  x9=0x00000000
     1207802000	     60288	80003924	408e0eb3	sub	x29,x28,x8	 x28:0xffffffff  x8:0x00000000 x29=0xffffffff
     1207822000	     60289	80003928	8ec1	c.or	x13,x8	 x13:0x00004d6b  x8:0x00000000 x13=0x00004d6b
     1207842000	     60290	8000392a	4855	c.li	x16,21	 x16=0x00000015
     1208602000	     60328	8000392c	8ca1	c.xor	x9,x8	  x9:0x00000000  x8:0x00000000  x9=0x00000000
     1208622000	     60329	8000392e	f1507ff3	csrrci	x31,0xf15,0	 x31=0x00000000
     1208662000	     60331	80003932	01019c93	slli	x25,x3,0x10	  x3:0x28001440 x25=0x14400000
     1208722000	     60334	80003936	004ba203	lw	x4,4(x23)	 x23:0x80021e14  x4=0x80003812 PA:0x80021e18 load:0x80003812
     1208782000	     60337	8000393a	7c149373	csrrw	x6,0x7c1,x9	  x9:0x00000000  x6=0x00000000
     1208842000	     60340	8000393e	987d	c.andi	x8,-1	  x8:0x00000000  x8=0x00000000
     1208862000	     60341	80003940	024b8b93	addi	x23,x23,36	 x23:0x80021e14 x23=0x80021e38
     1209602000	     60378	80003944	03f45433	divu	x8,x8,x31	  x8:0x00000000 x31:0x00000000  x8=0xffffffff
     1209622000	     60379	80003948	00020613	addi	x12,x4,0	  x4:0x80003812 x12=0x80003812
     1209642000	     60380	8000394c	00060667	jalr	x12,0(x12)	 x12:0x80003812 x12=0x80003950
     1209782000	     60387	80003812	898e	c.mv	x19,x3	  x0:0x00000000  x3:0x28001440 x19=0x28001440
     1209802000	     60388	80003814	3005b693	sltiu	x13,x11,768	 x11:0xfffffffe x13=0x00000000
     1209902000	     60393	80003818	00000f97	auipc	x31,0x0	 x31=0x80003818
     1209922000	     60394	8000381c	0a8f8f93	addi	x31,x31,168	 x31:0x80003818 x31=0x800038c0
     1209942000	     60395	80003820	f2df8f93	addi	x31,x31,-211	 x31:0x800038c0 x31=0x800037ed
     1209962000	     60396	80003824	32502e73	csrrs	x28,mhpmevent5,x0	  x0:0x00000000 x28=0x00000004
     1210382000	     60417	80003828	94f2	c.add	x9,x28	  x9:0x00000000 x28:0x00000004  x9=0x00000004
     1210402000	     60418	8000382a	45cd	c.li	x11,19	 x11=0x00000013
     1210422000	     60419	8000382c	0d3f8267	jalr	x4,211(x31)	 x31:0x800037ed  x4=0x80003830
     1211042000	     60450	800038c0	0083e463	bltu	x7,x8,800038c8	  x7:0x80025ce4  x8:0xffffffff
     1211942000	     60495	800038c8	fdcb8b93	addi	x23,x23,-36	 x23:0x80021e38 x23=0x80021e14
     1212002000	     60498	800038cc	004ba223	sw	x4,4(x23)	 x23:0x80021e14  x4:0x80003830 PA:0x80021e18 store:0x80003830 load:0xffffffff
     1212022000	     60499	800038d0	070a	c.slli	x14,0x2	 x14:0xff900000 x14=0xfe400000
     1212762000	     60536	800038d2	03f8f633	remu	x12,x17,x31	 x17:0xfffffffe x31:0x800037ed x12=0x7fffc811
     1212782000	     60537	800038d6	fe554c13	xori	x24,x10,-27	 x10:0x3999a6c8 x24=0xc666592d
     1212822000	     60539	800038da	01815863	bge	x2,x24,800038ea	  x2:0x00000072 x24:0xc666592d
     1213122000	     60554	800038ea	1e00626f	jal	x4,80009aca	  x4=0x800038ee
     1213322000	     60564	80009aca	7a1073f3	csrrci	x7,tdata1,0	  x7=0x28001048
     1213462000	     60571	80009ace	9644ae37	lui	x28,0x9644a	 x28=0x9644a000
     1213782000	     60587	80009ad2	14282193	slti	x3,x16,322	 x16:0x00000015  x3=0x00000001
     1213802000	     60588	80009ad6	1b91	c.addi	x23,-28	 x23:0x80021e14 x23=0x80021df8
     1215462000	     60671	80009ad8	038b3f33	mulhu	x30,x22,x24	 x22:0x80021df8 x24:0xc666592d x30=0x6334d09c
     1215482000	     60672	80009adc	6829	c.lui	x16,0xa	 x16=0x0000a000
     1215542000	     60675	80009ade	004ba223	sw	x4,4(x23)	 x23:0x80021df8  x4:0x800038ee PA:0x80021dfc store:0x800038ee load:0xffffffff
     1215622000	     60679	80009ae2	0001	c.addi	x0,0	  x0:0x00000000  x0=0x00000000
     1215642000	     60680	80009ae4	0166d493	srli	x9,x13,0x16	 x13:0x00000000  x9=0x00000000
     1215662000	     60681	80009ae8	0001	c.addi	x0,0	  x0:0x00000000  x0=0x00000000
     1215702000	     60683	80009aea	02a48733	mul	x14,x9,x10	  x9:0x00000000 x10:0x3999a6c8 x14=0x00000000
     1215742000	     60685	80009aee	e619	c.bnez	x12,80009afc	 x12:0x7fffc811
     1216362000	     60716	80009afc	0001	c.addi	x0,0	  x0:0x00000000  x0=0x00000000
     1216582000	     60727	80009afe	0596d263	bge	x13,x25,80009b42	 x13:0x00000000 x25:0x14400000
     1216662000	     60731	80009b02	024fef63	bltu	x31,x4,80009b40	 x31:0x800037ed  x4:0x800038ee
     1217342000	     60765	80009b40	987d	c.andi	x8,-1	  x8:0xffffffff  x8=0xffffffff
     1217362000	     60766	80009b42	b6d33813	sltiu	x16,x6,-1171	  x6:0x00000000 x16=0x00000001
     1217382000	     60767	80009b46	413a5eb3	sra	x29,x20,x19	 x20:0x0b0f0f0f x19:0x28001440 x29=0x0b0f0f0f
     1217442000	     60770	80009b4a	03fd01b3	mul	x3,x26,x31	 x26:0x00000000 x31:0x800037ed  x3=0x00000000
     1217842000	     60790	80009b4e	01751093	slli	x1,x10,0x17	 x10:0x3999a6c8  x1=0x64000000
     1217862000	     60791	80009b52	1210	c.addi4spn	x12,x2,288	 x12=0x00000192
     1217902000	     60793	80009b54	8ad80013	addi	x0,x16,-1875	 x16:0x00000001  x0=0x00000000
     1218042000	     60800	80009b58	32a01f73	csrrw	x30,mhpmevent10,x0	  x0:0x00000000 x30=0x00000080
     1218142000	     60805	80009b5c	409d03b3	sub	x7,x26,x9	 x26:0x00000000  x9:0x00000000  x7=0x00000000
     1218882000	     60842	80009b60	02a578b3	remu	x17,x10,x10	 x10:0x3999a6c8 x10:0x3999a6c8 x17=0x00000000
     1218902000	     60843	80009b64	987d	c.andi	x8,-1	  x8:0xffffffff  x8=0xffffffff
     1218962000	     60846	80009b66	038a8c63	beq	x21,x24,80009b9e	 x21:0x9ad6d000 x24:0xc666592d
     1219022000	     60849	80009b6a	01c0b4b3	sltu	x9,x1,x28	  x1:0x64000000 x28:0x9644a000  x9=0x00000001
     1219642000	     60880	80009b6e	0169d113	srli	x2,x19,0x16	 x19:0x28001440  x2=0x000000a0
     1219662000	     60881	80009b72	618d	c.lui	x3,0x3	  x3=0x00003000
     1220502000	     60923	80009b74	02a4d0b3	divu	x1,x9,x10	  x9:0x00000001 x10:0x3999a6c8  x1=0x00000000
     1220542000	     60925	80009b78	01bffb33	and	x22,x31,x27	 x31:0x800037ed x27:0x0000b000 x22=0x00003000
     1220562000	     60926	80009b7c	8d0d	c.sub	x10,x11	 x10:0x3999a6c8 x11:0x00000013 x10=0x3999a6b5
     1229922000	     61394	80009b7e	01dc91b3	sll	x3,x25,x29	 x25:0x14400000 x29:0x0b0f0f0f  x3=0x00000000
     1229962000	     61396	80009b82	8e3e	c.mv	x28,x15	  x0:0x00000000 x15:0x00000000 x28=0x00000000
     1229982000	     61397	80009b84	9db6	c.add	x27,x13	 x27:0x0000b000 x13:0x00000000 x27=0x0000b000
     1230002000	     61398	80009b86	8039	c.srli	x8,0xe	  x8:0xffffffff  x8=0x0003ffff
     1230042000	     61400	80009b88	7b3063f3	csrrsi	x0,0x7b3,0	  x0=0x00000000
     1230102000	     61403	80002700	0800006f	jal	x0,80002780	  x0=0x00000000
     1230142000	     61405	80002780	12f1	c.addi	x5,-4	  x5:0x80025ce4  x5=0x80025ce0
     1231342000	     61465	80002782	0172a023	sw	x23,0(x5)	  x5:0x80025ce0 x23:0x80021df8 PA:0x80025ce0 store:0x80021df8 load:0xffffffff
     1231362000	     61466	80002786	00028bb3	add	x23,x5,x0	  x5:0x80025ce0  x0:0x00000000 x23=0x80025ce0
     1231382000	     61467	8000278a	f80b8b93	addi	x23,x23,-128	 x23:0x80025ce0 x23=0x80025c60
     1231462000	     61471	8000278e	001ba223	sw	x1,4(x23)	 x23:0x80025c60  x1:0x00000000 PA:0x80025c64 store:0x00000000 load:0xffffffff
     1232422000	     61519	80002792	002ba423	sw	x2,8(x23)	 x23:0x80025c60  x2:0x000000a0 PA:0x80025c68 store:0x000000a0 load:0xffffffff
     1232502000	     61523	80002796	003ba623	sw	x3,12(x23)	 x23:0x80025c60  x3:0x00000000 PA:0x80025c6c store:0x00000000 load:0xffffffff
     1232562000	     61526	8000279a	004ba823	sw	x4,16(x23)	 x23:0x80025c60  x4:0x800038ee PA:0x80025c70 store:0x800038ee load:0xffffffff
     1232962000	     61546	8000279e	005baa23	sw	x5,20(x23)	 x23:0x80025c60  x5:0x80025ce0 PA:0x80025c74 store:0x80025ce0 load:0xffffffff
     1233062000	     61551	800027a2	006bac23	sw	x6,24(x23)	 x23:0x80025c60  x6:0x00000000 PA:0x80025c78 store:0x00000000 load:0xffffffff
     1233542000	     61575	800027a6	007bae23	sw	x7,28(x23)	 x23:0x80025c60  x7:0x00000000 PA:0x80025c7c store:0x00000000 load:0xffffffff
     1233982000	     61597	800027aa	028ba023	sw	x8,32(x23)	 x23:0x80025c60  x8:0x0003ffff PA:0x80025c80 store:0x0003ffff load:0xffffffff
     1234662000	     61631	800027ae	029ba223	sw	x9,36(x23)	 x23:0x80025c60  x9:0x00000001 PA:0x80025c84 store:0x00000001 load:0xffffffff
     1234982000	     61647	800027b2	02aba423	sw	x10,40(x23)	 x23:0x80025c60 x10:0x3999a6b5 PA:0x80025c88 store:0x3999a6b5 load:0xffffffff
     1236202000	     61708	800027b6	02bba623	sw	x11,44(x23)	 x23:0x80025c60 x11:0x00000013 PA:0x80025c8c store:0x00000013 load:0xffffffff
     1237002000	     61748	800027ba	02cba823	sw	x12,48(x23)	 x23:0x80025c60 x12:0x00000192 PA:0x80025c90 store:0x00000192 load:0xffffffff
     1237222000	     61759	800027be	02dbaa23	sw	x13,52(x23)	 x23:0x80025c60 x13:0x00000000 PA:0x80025c94 store:0x00000000 load:0xffffffff
     1237442000	     61770	800027c2	02ebac23	sw	x14,56(x23)	 x23:0x80025c60 x14:0x00000000 PA:0x80025c98 store:0x00000000 load:0xffffffff
     1237702000	     61783	800027c6	02fbae23	sw	x15,60(x23)	 x23:0x80025c60 x15:0x00000000 PA:0x80025c9c store:0x00000000 load:0xffffffff
     1238122000	     61804	800027ca	050ba023	sw	x16,64(x23)	 x23:0x80025c60 x16:0x00000001 PA:0x80025ca0 store:0x00000001 load:0xffffffff
     1238202000	     61808	800027ce	051ba223	sw	x17,68(x23)	 x23:0x80025c60 x17:0x00000000 PA:0x80025ca4 store:0x00000000 load:0xffffffff
     1238422000	     61819	800027d2	052ba423	sw	x18,72(x23)	 x23:0x80025c60 x18:0x00000106 PA:0x80025ca8 store:0x00000106 load:0xffffffff
     1239462000	     61871	800027d6	053ba623	sw	x19,76(x23)	 x23:0x80025c60 x19:0x28001440 PA:0x80025cac store:0x28001440 load:0xffffffff
     1239522000	     61874	800027da	054ba823	sw	x20,80(x23)	 x23:0x80025c60 x20:0x0b0f0f0f PA:0x80025cb0 store:0x0b0f0f0f load:0xffffffff
     1239742000	     61885	800027de	055baa23	sw	x21,84(x23)	 x23:0x80025c60 x21:0x9ad6d000 PA:0x80025cb4 store:0x9ad6d000 load:0xffffffff
     1239862000	     61891	800027e2	056bac23	sw	x22,88(x23)	 x23:0x80025c60 x22:0x00003000 PA:0x80025cb8 store:0x00003000 load:0xffffffff
     1239982000	     61897	800027e6	057bae23	sw	x23,92(x23)	 x23:0x80025c60 x23:0x80025c60 PA:0x80025cbc store:0x80025c60 load:0xffffffff
     1240782000	     61937	800027ea	078ba023	sw	x24,96(x23)	 x23:0x80025c60 x24:0xc666592d PA:0x80025cc0 store:0xc666592d load:0xffffffff
     1242342000	     62015	800027ee	079ba223	sw	x25,100(x23)	 x23:0x80025c60 x25:0x14400000 PA:0x80025cc4 store:0x14400000 load:0xffffffff
     1242362000	     62016	800027f2	07aba423	sw	x26,104(x23)	 x23:0x80025c60 x26:0x00000000 PA:0x80025cc8 store:0x00000000 load:0xffffffff
     1242742000	     62035	800027f6	07bba623	sw	x27,108(x23)	 x23:0x80025c60 x27:0x0000b000 PA:0x80025ccc store:0x0000b000 load:0xffffffff
     1242862000	     62041	800027fa	07cba823	sw	x28,112(x23)	 x23:0x80025c60 x28:0x00000000 PA:0x80025cd0 store:0x00000000 load:0xffffffff
     1243262000	     62061	800027fe	07dbaa23	sw	x29,116(x23)	 x23:0x80025c60 x29:0x0b0f0f0f PA:0x80025cd4 store:0x0b0f0f0f load:0xffffffff
     1244382000	     62117	80002802	07ebac23	sw	x30,120(x23)	 x23:0x80025c60 x30:0x00000080 PA:0x80025cd8 store:0x00000080 load:0xffffffff
     1244602000	     62128	80002806	07fbae23	sw	x31,124(x23)	 x23:0x80025c60 x31:0x800037ed PA:0x80025cdc store:0x800037ed load:0xffffffff
     1244622000	     62129	8000280a	000b82b3	add	x5,x23,x0	 x23:0x80025c60  x0:0x00000000  x5=0x80025c60
     1244642000	     62130	8000280e	90000c37	lui	x24,0x90000	 x24=0x90000000
     1244682000	     62132	80002812	1c71	c.addi	x24,-4	 x24:0x90000000 x24=0x8ffffffc
     1244702000	     62133	80002814	4f21	c.li	x30,8	 x30=0x00000008
     1244742000	     62135	80002816	0f22	c.slli	x30,0x8	 x30:0x00000008 x30=0x00000800
     1244762000	     62136	80002818	000f0f13	addi	x30,x30,0	 x30:0x00000800 x30=0x00000800
     1245382000	     62167	8000281c	01ec2023	sw	x30,0(x24)	 x24:0x8ffffffc x30:0x00000800 PA:0x8ffffffc store:0x00000800 load:0xffffffff
     1246162000	     62206	80002820	34102f73	csrrs	x30,mepc,x0	  x0:0x00000000 x30=0x80009b88
     1246182000	     62207	80002824	34202f73	csrrs	x30,mcause,x0	  x0:0x00000000 x30=0x00000002
     1246202000	     62208	80002828	4c0d	c.li	x24,3	 x24=0x00000003
     1246262000	     62211	8000282a	018f1463	bne	x30,x24,80002832	 x30:0x00000002 x24:0x00000003
     1247042000	     62250	80002832	4c21	c.li	x24,8	 x24=0x00000008
     1247082000	     62252	80002834	058f0d63	beq	x30,x24,8000288e	 x30:0x00000002 x24:0x00000008
     1247142000	     62255	80002838	4c25	c.li	x24,9	 x24=0x00000009
     1247962000	     62296	8000283a	058f0a63	beq	x30,x24,8000288e	 x30:0x00000002 x24:0x00000009
     1248002000	     62298	8000283e	4c2d	c.li	x24,11	 x24=0x0000000b
     1248062000	     62301	80002840	058f0763	beq	x30,x24,8000288e	 x30:0x00000002 x24:0x0000000b
     1248122000	     62304	80002844	4c05	c.li	x24,1	 x24=0x00000001
     1248162000	     62306	80002846	358f0363	beq	x30,x24,80002b8c	 x30:0x00000002 x24:0x00000001
     1248222000	     62309	8000284a	4c15	c.li	x24,5	 x24=0x00000005
     1248262000	     62311	8000284c	638f0a63	beq	x30,x24,80002e80	 x30:0x00000002 x24:0x00000005
     1248302000	     62313	80002850	4c1d	c.li	x24,7	 x24=0x00000007
     1248362000	     62316	80002852	158f0ce3	beq	x30,x24,800031aa	 x30:0x00000002 x24:0x00000007
     1248422000	     62319	80002856	4c31	c.li	x24,12	 x24=0x0000000c
     1248462000	     62321	80002858	018f1463	bne	x30,x24,80002860	 x30:0x00000002 x24:0x0000000c
     1248522000	     62324	80002860	4c35	c.li	x24,13	 x24=0x0000000d
     1248562000	     62326	80002862	018f1463	bne	x30,x24,8000286a	 x30:0x00000002 x24:0x0000000d
     1248642000	     62330	8000286a	4c3d	c.li	x24,15	 x24=0x0000000f
     1248682000	     62332	8000286c	018f1463	bne	x30,x24,80002874	 x30:0x00000002 x24:0x0000000f
     1249482000	     62372	80002874	4c09	c.li	x24,2	 x24=0x00000002
     1249542000	     62375	80002876	018f1463	bne	x30,x24,8000287e	 x30:0x00000002 x24:0x00000002
     1249602000	     62378	8000287a	3740906f	jal	x0,8000bbee	  x0=0x00000000
     1249662000	     62381	8000bbee	90000c37	lui	x24,0x90000	 x24=0x90000000
     1249682000	     62382	8000bbf2	1c71	c.addi	x24,-4	 x24:0x90000000 x24=0x8ffffffc
     1249702000	     62383	8000bbf4	4f29	c.li	x30,10	 x30=0x0000000a
     1249742000	     62385	8000bbf6	0f22	c.slli	x30,0x8	 x30:0x0000000a x30=0x00000a00
     1249762000	     62386	8000bbf8	000f0f13	addi	x30,x30,0	 x30:0x00000a00 x30=0x00000a00
     1249942000	     62395	8000bbfc	01ec2023	sw	x30,0(x24)	 x24:0x8ffffffc x30:0x00000a00 PA:0x8ffffffc store:0x00000a00 load:0xffffffff
     1249982000	     62397	8000bc00	90000c37	lui	x24,0x90000	 x24=0x90000000
     1250742000	     62435	8000bc04	1c71	c.addi	x24,-4	 x24:0x90000000 x24=0x8ffffffc
     1250762000	     62436	8000bc06	34200f13	addi	x30,x0,834	  x0:0x00000000 x30=0x00000342
     1250782000	     62437	8000bc0a	0f22	c.slli	x30,0x8	 x30:0x00000342 x30=0x00034200
     1250822000	     62439	8000bc0c	0f0d	c.addi	x30,3	 x30:0x00034200 x30=0x00034203
     1251282000	     62462	8000bc0e	01ec2023	sw	x30,0(x24)	 x24:0x8ffffffc x30:0x00034203 PA:0x8ffffffc store:0x00034203 load:0xffffffff
     1252082000	     62502	8000bc12	34202f73	csrrs	x30,mcause,x0	  x0:0x00000000 x30=0x00000002
     1252542000	     62525	8000bc16	01ec2023	sw	x30,0(x24)	 x24:0x8ffffffc x30:0x00000002 PA:0x8ffffffc store:0x00000002 load:0xffffffff
     1252562000	     62526	8000bc1a	34102f73	csrrs	x30,mepc,x0	  x0:0x00000000 x30=0x80009b88
     1252602000	     62528	8000bc1e	0f11	c.addi	x30,4	 x30:0x80009b88 x30=0x80009b8c
     1252622000	     62529	8000bc20	341f1073	csrrw	x0,mepc,x30	 x30:0x80009b8c  x0=0x00000000
     1252662000	     62531	8000bc24	00028bb3	add	x23,x5,x0	  x5:0x80025c60  x0:0x00000000 x23=0x80025c60
     1253082000	     62552	8000bc28	004ba083	lw	x1,4(x23)	 x23:0x80025c60  x1=0x00000000 PA:0x80025c64 load:0x00000000
     1253162000	     62556	8000bc2c	008ba103	lw	x2,8(x23)	 x23:0x80025c60  x2=0x000000a0 PA:0x80025c68 load:0x000000a0
     1254422000	     62619	8000bc30	00cba183	lw	x3,12(x23)	 x23:0x80025c60  x3=0x00000000 PA:0x80025c6c load:0x00000000
     1254562000	     62626	8000bc34	010ba203	lw	x4,16(x23)	 x23:0x80025c60  x4=0x800038ee PA:0x80025c70 load:0x800038ee
     1255442000	     62670	8000bc38	014ba283	lw	x5,20(x23)	 x23:0x80025c60  x5=0x80025ce0 PA:0x80025c74 load:0x80025ce0
     1256642000	     62730	8000bc3c	018ba303	lw	x6,24(x23)	 x23:0x80025c60  x6=0x00000000 PA:0x80025c78 load:0x00000000
     1256742000	     62735	8000bc40	01cba383	lw	x7,28(x23)	 x23:0x80025c60  x7=0x00000000 PA:0x80025c7c load:0x00000000
     1256822000	     62739	8000bc44	020ba403	lw	x8,32(x23)	 x23:0x80025c60  x8=0x0003ffff PA:0x80025c80 load:0x0003ffff
     1256922000	     62744	8000bc48	024ba483	lw	x9,36(x23)	 x23:0x80025c60  x9=0x00000001 PA:0x80025c84 load:0x00000001
     1257002000	     62748	8000bc4c	028ba503	lw	x10,40(x23)	 x23:0x80025c60 x10=0x3999a6b5 PA:0x80025c88 load:0x3999a6b5
     1257162000	     62756	8000bc50	02cba583	lw	x11,44(x23)	 x23:0x80025c60 x11=0x00000013 PA:0x80025c8c load:0x00000013
     1257202000	     62758	8000bc54	030ba603	lw	x12,48(x23)	 x23:0x80025c60 x12=0x00000192 PA:0x80025c90 load:0x00000192
     1258022000	     62799	8000bc58	034ba683	lw	x13,52(x23)	 x23:0x80025c60 x13=0x00000000 PA:0x80025c94 load:0x00000000
     1258042000	     62800	8000bc5c	038ba703	lw	x14,56(x23)	 x23:0x80025c60 x14=0x00000000 PA:0x80025c98 load:0x00000000
     1258062000	     62801	8000bc60	03cba783	lw	x15,60(x23)	 x23:0x80025c60 x15=0x00000000 PA:0x80025c9c load:0x00000000
     1258442000	     62820	8000bc64	040ba803	lw	x16,64(x23)	 x23:0x80025c60 x16=0x00000001 PA:0x80025ca0 load:0x00000001
     1258502000	     62823	8000bc68	044ba883	lw	x17,68(x23)	 x23:0x80025c60 x17=0x00000000 PA:0x80025ca4 load:0x00000000
     1258522000	     62824	8000bc6c	048ba903	lw	x18,72(x23)	 x23:0x80025c60 x18=0x00000106 PA:0x80025ca8 load:0x00000106
     1258682000	     62832	8000bc70	04cba983	lw	x19,76(x23)	 x23:0x80025c60 x19=0x28001440 PA:0x80025cac load:0x28001440
     1259062000	     62851	8000bc74	050baa03	lw	x20,80(x23)	 x23:0x80025c60 x20=0x0b0f0f0f PA:0x80025cb0 load:0x0b0f0f0f
     1259362000	     62866	8000bc78	054baa83	lw	x21,84(x23)	 x23:0x80025c60 x21=0x9ad6d000 PA:0x80025cb4 load:0x9ad6d000
     1259542000	     62875	8000bc7c	058bab03	lw	x22,88(x23)	 x23:0x80025c60 x22=0x00003000 PA:0x80025cb8 load:0x00003000
     1259602000	     62878	8000bc80	05cbab83	lw	x23,92(x23)	 x23:0x80025c60 x23=0x80025c60 PA:0x80025cbc load:0x80025c60
     1260582000	     62927	8000bc84	060bac03	lw	x24,96(x23)	 x23:0x80025c60 x24=0xc666592d PA:0x80025cc0 load:0xc666592d
     1260642000	     62930	8000bc88	064bac83	lw	x25,100(x23)	 x23:0x80025c60 x25=0x14400000 PA:0x80025cc4 load:0x14400000
     1260742000	     62935	8000bc8c	068bad03	lw	x26,104(x23)	 x23:0x80025c60 x26=0x00000000 PA:0x80025cc8 load:0x00000000
     1260762000	     62936	8000bc90	06cbad83	lw	x27,108(x23)	 x23:0x80025c60 x27=0x0000b000 PA:0x80025ccc load:0x0000b000
     1263442000	     63070	8000bc94	070bae03	lw	x28,112(x23)	 x23:0x80025c60 x28=0x00000000 PA:0x80025cd0 load:0x00000000
     1263802000	     63088	8000bc98	074bae83	lw	x29,116(x23)	 x23:0x80025c60 x29=0x0b0f0f0f PA:0x80025cd4 load:0x0b0f0f0f
     1264162000	     63106	8000bc9c	078baf03	lw	x30,120(x23)	 x23:0x80025c60 x30=0x00000080 PA:0x80025cd8 load:0x00000080
     1264642000	     63130	8000bca0	07cbaf83	lw	x31,124(x23)	 x23:0x80025c60 x31=0x800037ed PA:0x80025cdc load:0x800037ed
     1264662000	     63131	8000bca4	080b8b93	addi	x23,x23,128	 x23:0x80025c60 x23=0x80025ce0
     1264682000	     63132	8000bca8	000b82b3	add	x5,x23,x0	 x23:0x80025ce0  x0:0x00000000  x5=0x80025ce0
     1264782000	     63137	8000bcac	0002ab83	lw	x23,0(x5)	  x5:0x80025ce0 x23=0x80021df8 PA:0x80025ce0 load:0x80021df8
     1264802000	     63138	8000bcb0	0291	c.addi	x5,4	  x5:0x80025ce0  x5=0x80025ce4
     1265562000	     63176	8000bcb2	30200073	mret	
     1265642000	     63180	80009b8c	68695637	lui	x12,0x68695	 x12=0x68695000
     1265682000	     63182	80009b90	c611	c.beqz	x12,80009b9c	 x12:0x68695000
     1265762000	     63186	80009b92	036a4c63	blt	x20,x22,80009bca	 x20:0x0b0f0f0f x22:0x00003000
     1265822000	     63189	80009b96	3248dd73	csrrwi	x26,mhpmevent4,17	 x26=0x00000002
     1265922000	     63194	80009b9a	0588	c.addi4spn	x10,x2,704	 x10=0x00000360
     1265942000	     63195	80009b9c	8ea1	c.xor	x13,x8	 x13:0x00000000  x8:0x0003ffff x13=0x0003ffff
     1266002000	     63198	80009b9e	ce81	c.beqz	x13,80009bb6	 x13:0x0003ffff
     1266062000	     63201	80009ba0	8d61	c.and	x10,x8	 x10:0x00000360  x8:0x0003ffff x10=0x00000360
     1266842000	     63240	80009ba2	4439f613	andi	x12,x19,1091	 x19:0x28001440 x12=0x00000440
     1266862000	     63241	80009ba6	013a5893	srli	x17,x20,0x13	 x20:0x0b0f0f0f x17=0x00000161
     1266902000	     63243	80009baa	41fa01b3	sub	x3,x20,x31	 x20:0x0b0f0f0f x31:0x800037ed  x3=0x8b0ed722
     1266922000	     63244	80009bae	0001	c.addi	x0,0	  x0:0x00000000  x0=0x00000000
     1266942000	     63245	80009bb0	7c09b173	csrrc	x2,0x7c0,x19	 x19:0x28001440  x2=0x00000107
     1267742000	     63285	80009bb4	8e5d	c.or	x12,x15	 x12:0x00000440 x15:0x00000000 x12=0x00000440
     1267762000	     63286	80009bb6	006ee833	or	x16,x29,x6	 x29:0x0b0f0f0f  x6:0x00000000 x16=0x0b0f0f0f
     1268542000	     63325	80009bba	034a3333	mulhu	x6,x20,x20	 x20:0x0b0f0f0f x20:0x0b0f0f0f  x6=0x007a4c2e
     1268562000	     63326	80009bbe	02fe8433	mul	x8,x29,x15	 x29:0x0b0f0f0f x15:0x00000000  x8=0x00000000
     1268642000	     63330	80009bc2	8c51	c.or	x8,x12	  x8:0x00000000 x12:0x00000440  x8=0x00000440
     1268682000	     63332	80009bc4	015f2a33	slt	x20,x30,x21	 x30:0x00000080 x21:0x9ad6d000 x20=0x00000000
     1268742000	     63335	80009bc8	84d5	c.srai	x9,0x15	  x9:0x00000001  x9=0x00000000
     1268762000	     63336	80009bca	01fc6133	or	x2,x24,x31	 x24:0xc666592d x31:0x800037ed  x2=0xc6667fed
     1268782000	     63337	80009bce	9b1e	c.add	x22,x7	 x22:0x00003000  x7:0x00000000 x22=0x00003000
     1268822000	     63339	80009bd0	621dc393	xori	x7,x27,1569	 x27:0x0000b000  x7=0x0000b621
     1268862000	     63341	80009bd4	019ea8b3	slt	x17,x29,x25	 x29:0x0b0f0f0f x25:0x14400000 x17=0x00000001
     1269282000	     63362	80009bd8	32521473	csrrw	x8,mhpmevent5,x4	  x4:0x800038ee  x8=0x00000004
     1269382000	     63367	80009bdc	7cdb7993	andi	x19,x22,1997	 x22:0x00003000 x19=0x00000000
     1269642000	     63380	80009be0	09d5	c.addi	x19,21	 x19:0x00000000 x19=0x00000015
     1269922000	     63394	80009be2	003b6033	or	x0,x22,x3	 x22:0x00003000  x3:0x8b0ed722  x0=0x00000000
     1269942000	     63395	80009be6	4309	c.li	x6,2	  x6=0x00000002
     1270742000	     63435	80009be8	02852233	mulhsu	x4,x10,x8	 x10:0x00000360  x8:0x00000004  x4=0x00000000
     1271482000	     63472	80009bec	0390cf33	div	x30,x1,x25	  x1:0x00000000 x25:0x14400000 x30=0x00000000
     1271502000	     63473	80009bf0	85bebe17	auipc	x28,0x85beb	 x28=0x05bf4bf0
     1271562000	     63476	80009bf4	6afea513	slti	x10,x29,1711	 x29:0x0b0f0f0f x10=0x00000000
     1271582000	     63477	80009bf8	40a95913	srai	x18,x18,0xa	 x18:0x00000106 x18=0x00000000
     1271602000	     63478	80009bfc	d8acc613	xori	x12,x25,-630	 x25:0x14400000 x12=0xebbffd8a
     1272362000	     63516	80009c00	017feb33	or	x22,x31,x23	 x31:0x800037ed x23:0x80021df8 x22=0x80023ffd
     1272382000	     63517	80009c04	0001	c.addi	x0,0	  x0:0x00000000  x0=0x00000000
     1272402000	     63518	80009c06	016a25b3	slt	x11,x20,x22	 x20:0x00000000 x22:0x80023ffd x11=0x00000000
     1272442000	     63520	80009c0a	41ce5633	sra	x12,x28,x28	 x28:0x05bf4bf0 x28:0x05bf4bf0 x12=0x000005bf
     1272522000	     63524	80009c0e	c09d	c.beqz	x9,80009c34	  x9:0x00000000
     1273242000	     63560	80009c34	edbb0413	addi	x8,x22,-293	 x22:0x80023ffd  x8=0x80023ed8
     1273282000	     63562	80009c38	8da9	c.xor	x11,x10	 x11:0x00000000 x10:0x00000000 x11=0x00000000
     1273362000	     63566	80009c3a	019849b3	xor	x19,x16,x25	 x16:0x0b0f0f0f x25:0x14400000 x19=0x1f4f0f0f
     1273782000	     63587	80009c3e	b0b06673	csrrsi	x12,mhpmcounter11,0	 x12=0x000001e2
     1273802000	     63588	80009c42	00c6afb3	slt	x31,x13,x12	 x13:0x0003ffff x12:0x000001e2 x31=0x00000000
     1274062000	     63601	80009c46	b0602573	csrrs	x10,mhpmcounter6,x0	  x0:0x00000000 x10=0x000002d7
     1274962000	     63646	80009c4a	02e94f33	div	x30,x18,x14	 x18:0x00000000 x14:0x00000000 x30=0xffffffff
     1275002000	     63648	80009c4e	323f50f3	csrrwi	x1,mhpmevent3,30	  x1=0x00000001
     1275082000	     63652	80009c52	ca81	c.beqz	x13,80009c62	 x13:0x0003ffff
     1275142000	     63655	80009c54	b0a065f3	csrrsi	x11,mhpmcounter10,0	 x11=0x00000315
     1275182000	     63657	80009c58	c519	c.beqz	x10,80009c66	 x10:0x000002d7
     1275242000	     63660	80009c5a	41c7dd33	sra	x26,x15,x28	 x15:0x00000000 x28:0x05bf4bf0 x26=0x00000000
     1275282000	     63662	80009c5e	03af0963	beq	x30,x26,80009c90	 x30:0xffffffff x26:0x00000000
     1275342000	     63665	80009c62	013f1c13	slli	x24,x30,0x13	 x30:0xffffffff x24=0xfff80000
     1275782000	     63687	80009c66	056b0163	beq	x22,x22,80009ca8	 x22:0x80023ffd x22:0x80023ffd
     1276682000	     63732	80009ca8	0077ddb3	srl	x27,x15,x7	 x15:0x00000000  x7:0x0000b621 x27=0x00000000
     1277482000	     63772	80009cac	41c90e33	sub	x28,x18,x28	 x18:0x00000000 x28:0x05bf4bf0 x28=0xfa40b410
     1277502000	     63773	80009cb0	3b7073f3	csrrci	x7,pmpaddr7,0	  x7=0x3dddeb0c
     1278242000	     63810	80009cb4	02f7e5b3	rem	x11,x15,x15	 x15:0x00000000 x15:0x00000000 x11=0x00000000
     1278282000	     63812	80009cb8	0ebd	c.addi	x29,15	 x29:0x0b0f0f0f x29=0x0b0f0f1e
     1278302000	     63813	80009cba	f15f9e73	csrrw	x0,0xf15,x0	  x0:0x00000000  x0=0x00000000
     1278382000	     63817	80002700	0800006f	jal	x0,80002780	  x0=0x00000000
     1278442000	     63820	80002780	12f1	c.addi	x5,-4	  x5:0x80025ce4  x5=0x80025ce0
     1278502000	     63823	80002782	0172a023	sw	x23,0(x5)	  x5:0x80025ce0 x23:0x80021df8 PA:0x80025ce0 store:0x80021df8 load:0xffffffff
     1278522000	     63824	80002786	00028bb3	add	x23,x5,x0	  x5:0x80025ce0  x0:0x00000000 x23=0x80025ce0
     1278562000	     63826	8000278a	f80b8b93	addi	x23,x23,-128	 x23:0x80025ce0 x23=0x80025c60
     1279022000	     63849	8000278e	001ba223	sw	x1,4(x23)	 x23:0x80025c60  x1:0x00000001 PA:0x80025c64 store:0x00000001 load:0xffffffff
     1279102000	     63853	80002792	002ba423	sw	x2,8(x23)	 x23:0x80025c60  x2:0xc6667fed PA:0x80025c68 store:0xc6667fed load:0xffffffff
     1279302000	     63863	80002796	003ba623	sw	x3,12(x23)	 x23:0x80025c60  x3:0x8b0ed722 PA:0x80025c6c store:0x8b0ed722 load:0xffffffff
     1279362000	     63866	8000279a	004ba823	sw	x4,16(x23)	 x23:0x80025c60  x4:0x00000000 PA:0x80025c70 store:0x00000000 load:0xffffffff
     1279642000	     63880	8000279e	005baa23	sw	x5,20(x23)	 x23:0x80025c60  x5:0x80025ce0 PA:0x80025c74 store:0x80025ce0 load:0xffffffff
     1281042000	     63950	800027a2	006bac23	sw	x6,24(x23)	 x23:0x80025c60  x6:0x00000002 PA:0x80025c78 store:0x00000002 load:0xffffffff
     1281502000	     63973	800027a6	007bae23	sw	x7,28(x23)	 x23:0x80025c60  x7:0x3dddeb0c PA:0x80025c7c store:0x3dddeb0c load:0xffffffff
     1281562000	     63976	800027aa	028ba023	sw	x8,32(x23)	 x23:0x80025c60  x8:0x80023ed8 PA:0x80025c80 store:0x80023ed8 load:0xffffffff
     1281842000	     63990	800027ae	029ba223	sw	x9,36(x23)	 x23:0x80025c60  x9:0x00000000 PA:0x80025c84 store:0x00000000 load:0xffffffff
     1281902000	     63993	800027b2	02aba423	sw	x10,40(x23)	 x23:0x80025c60 x10:0x000002d7 PA:0x80025c88 store:0x000002d7 load:0xffffffff
     1282022000	     63999	800027b6	02bba623	sw	x11,44(x23)	 x23:0x80025c60 x11:0x00000000 PA:0x80025c8c store:0x00000000 load:0xffffffff
     1283162000	     64056	800027ba	02cba823	sw	x12,48(x23)	 x23:0x80025c60 x12:0x000001e2 PA:0x80025c90 store:0x000001e2 load:0xffffffff
     1283262000	     64061	800027be	02dbaa23	sw	x13,52(x23)	 x23:0x80025c60 x13:0x0003ffff PA:0x80025c94 store:0x0003ffff load:0xffffffff
     1283682000	     64082	800027c2	02ebac23	sw	x14,56(x23)	 x23:0x80025c60 x14:0x00000000 PA:0x80025c98 store:0x00000000 load:0xffffffff
     1310062000	     65401	800027c6	02fbae23	sw	x15,60(x23)	 x23:0x80025c60 x15:0x00000000 PA:0x80025c9c store:0x00000000 load:0xffffffff
     1310182000	     65407	800027ca	050ba023	sw	x16,64(x23)	 x23:0x80025c60 x16:0x0b0f0f0f PA:0x80025ca0 store:0x0b0f0f0f load:0xffffffff
     1311282000	     65462	800027ce	051ba223	sw	x17,68(x23)	 x23:0x80025c60 x17:0x00000001 PA:0x80025ca4 store:0x00000001 load:0xffffffff
     1311342000	     65465	800027d2	052ba423	sw	x18,72(x23)	 x23:0x80025c60 x18:0x00000000 PA:0x80025ca8 store:0x00000000 load:0xffffffff
     1311562000	     65476	800027d6	053ba623	sw	x19,76(x23)	 x23:0x80025c60 x19:0x1f4f0f0f PA:0x80025cac store:0x1f4f0f0f load:0xffffffff
     1312362000	     65516	800027da	054ba823	sw	x20,80(x23)	 x23:0x80025c60 x20:0x00000000 PA:0x80025cb0 store:0x00000000 load:0xffffffff
     1312522000	     65524	800027de	055baa23	sw	x21,84(x23)	 x23:0x80025c60 x21:0x9ad6d000 PA:0x80025cb4 store:0x9ad6d000 load:0xffffffff
     1313702000	     65583	800027e2	056bac23	sw	x22,88(x23)	 x23:0x80025c60 x22:0x80023ffd PA:0x80025cb8 store:0x80023ffd load:0xffffffff
     1313762000	     65586	800027e6	057bae23	sw	x23,92(x23)	 x23:0x80025c60 x23:0x80025c60 PA:0x80025cbc store:0x80025c60 load:0xffffffff
     1313982000	     65597	800027ea	078ba023	sw	x24,96(x23)	 x23:0x80025c60 x24:0xfff80000 PA:0x80025cc0 store:0xfff80000 load:0xffffffff
     1314262000	     65611	800027ee	079ba223	sw	x25,100(x23)	 x23:0x80025c60 x25:0x14400000 PA:0x80025cc4 store:0x14400000 load:0xffffffff
     1314322000	     65614	800027f2	07aba423	sw	x26,104(x23)	 x23:0x80025c60 x26:0x00000000 PA:0x80025cc8 store:0x00000000 load:0xffffffff
     1314762000	     65636	800027f6	07bba623	sw	x27,108(x23)	 x23:0x80025c60 x27:0x00000000 PA:0x80025ccc store:0x00000000 load:0xffffffff
     1314822000	     65639	800027fa	07cba823	sw	x28,112(x23)	 x23:0x80025c60 x28:0xfa40b410 PA:0x80025cd0 store:0xfa40b410 load:0xffffffff
     1315122000	     65654	800027fe	07dbaa23	sw	x29,116(x23)	 x23:0x80025c60 x29:0x0b0f0f1e PA:0x80025cd4 store:0x0b0f0f1e load:0xffffffff
     1315602000	     65678	80002802	07ebac23	sw	x30,120(x23)	 x23:0x80025c60 x30:0xffffffff PA:0x80025cd8 store:0xffffffff load:0xffffffff
     1315842000	     65690	80002806	07fbae23	sw	x31,124(x23)	 x23:0x80025c60 x31:0x00000000 PA:0x80025cdc store:0x00000000 load:0xffffffff
     1315862000	     65691	8000280a	000b82b3	add	x5,x23,x0	 x23:0x80025c60  x0:0x00000000  x5=0x80025c60
     1315902000	     65693	8000280e	90000c37	lui	x24,0x90000	 x24=0x90000000
     1315922000	     65694	80002812	1c71	c.addi	x24,-4	 x24:0x90000000 x24=0x8ffffffc
     1315962000	     65696	80002814	4f21	c.li	x30,8	 x30=0x00000008
     1315982000	     65697	80002816	0f22	c.slli	x30,0x8	 x30:0x00000008 x30=0x00000800
     1316042000	     65700	80002818	000f0f13	addi	x30,x30,0	 x30:0x00000800 x30=0x00000800
     1316102000	     65703	8000281c	01ec2023	sw	x30,0(x24)	 x24:0x8ffffffc x30:0x00000800 PA:0x8ffffffc store:0x00000800 load:0xffffffff
     1316122000	     65704	80002820	34102f73	csrrs	x30,mepc,x0	  x0:0x00000000 x30=0x80009cba
     1316902000	     65743	80002824	34202f73	csrrs	x30,mcause,x0	  x0:0x00000000 x30=0x00000002
     1316922000	     65744	80002828	4c0d	c.li	x24,3	 x24=0x00000003
     1317722000	     65784	8000282a	018f1463	bne	x30,x24,80002832	 x30:0x00000002 x24:0x00000003
     1317782000	     65787	80002832	4c21	c.li	x24,8	 x24=0x00000008
     1317842000	     65790	80002834	058f0d63	beq	x30,x24,8000288e	 x30:0x00000002 x24:0x00000008
     1317902000	     65793	80002838	4c25	c.li	x24,9	 x24=0x00000009
     1317942000	     65795	8000283a	058f0a63	beq	x30,x24,8000288e	 x30:0x00000002 x24:0x00000009
     1318002000	     65798	8000283e	4c2d	c.li	x24,11	 x24=0x0000000b
     1318042000	     65800	80002840	058f0763	beq	x30,x24,8000288e	 x30:0x00000002 x24:0x0000000b
     1318102000	     65803	80002844	4c05	c.li	x24,1	 x24=0x00000001
     1318142000	     65805	80002846	358f0363	beq	x30,x24,80002b8c	 x30:0x00000002 x24:0x00000001
     1318202000	     65808	8000284a	4c15	c.li	x24,5	 x24=0x00000005
     1318262000	     65811	8000284c	638f0a63	beq	x30,x24,80002e80	 x30:0x00000002 x24:0x00000005
     1318302000	     65813	80002850	4c1d	c.li	x24,7	 x24=0x00000007
     1319082000	     65852	80002852	158f0ce3	beq	x30,x24,800031aa	 x30:0x00000002 x24:0x00000007
     1319162000	     65856	80002856	4c31	c.li	x24,12	 x24=0x0000000c
     1319202000	     65858	80002858	018f1463	bne	x30,x24,80002860	 x30:0x00000002 x24:0x0000000c
     1319242000	     65860	80002860	4c35	c.li	x24,13	 x24=0x0000000d
     1319282000	     65862	80002862	018f1463	bne	x30,x24,8000286a	 x30:0x00000002 x24:0x0000000d
     1319342000	     65865	8000286a	4c3d	c.li	x24,15	 x24=0x0000000f
     1319382000	     65867	8000286c	018f1463	bne	x30,x24,80002874	 x30:0x00000002 x24:0x0000000f
     1319422000	     65869	80002874	4c09	c.li	x24,2	 x24=0x00000002
     1319462000	     65871	80002876	018f1463	bne	x30,x24,8000287e	 x30:0x00000002 x24:0x00000002
     1319522000	     65874	8000287a	3740906f	jal	x0,8000bbee	  x0=0x00000000
     1319602000	     65878	8000bbee	90000c37	lui	x24,0x90000	 x24=0x90000000
     1320362000	     65916	8000bbf2	1c71	c.addi	x24,-4	 x24:0x90000000 x24=0x8ffffffc
     1320382000	     65917	8000bbf4	4f29	c.li	x30,10	 x30=0x0000000a
     1320402000	     65918	8000bbf6	0f22	c.slli	x30,0x8	 x30:0x0000000a x30=0x00000a00
     1321162000	     65956	8000bbf8	000f0f13	addi	x30,x30,0	 x30:0x00000a00 x30=0x00000a00
     1321542000	     65975	8000bbfc	01ec2023	sw	x30,0(x24)	 x24:0x8ffffffc x30:0x00000a00 PA:0x8ffffffc store:0x00000a00 load:0xffffffff
     1321582000	     65977	8000bc00	90000c37	lui	x24,0x90000	 x24=0x90000000
     1321602000	     65978	8000bc04	1c71	c.addi	x24,-4	 x24:0x90000000 x24=0x8ffffffc
     1322382000	     66017	8000bc06	34200f13	addi	x30,x0,834	  x0:0x00000000 x30=0x00000342
     1322402000	     66018	8000bc0a	0f22	c.slli	x30,0x8	 x30:0x00000342 x30=0x00034200
     1322442000	     66020	8000bc0c	0f0d	c.addi	x30,3	 x30:0x00034200 x30=0x00034203
     1322502000	     66023	8000bc0e	01ec2023	sw	x30,0(x24)	 x24:0x8ffffffc x30:0x00034203 PA:0x8ffffffc store:0x00034203 load:0xffffffff
     1322542000	     66025	8000bc12	34202f73	csrrs	x30,mcause,x0	  x0:0x00000000 x30=0x00000002
     1323642000	     66080	8000bc16	01ec2023	sw	x30,0(x24)	 x24:0x8ffffffc x30:0x00000002 PA:0x8ffffffc store:0x00000002 load:0xffffffff
     1323682000	     66082	8000bc1a	34102f73	csrrs	x30,mepc,x0	  x0:0x00000000 x30=0x80009cba
     1323742000	     66085	8000bc1e	0f11	c.addi	x30,4	 x30:0x80009cba x30=0x80009cbe
     1324502000	     66123	8000bc20	341f1073	csrrw	x0,mepc,x30	 x30:0x80009cbe  x0=0x00000000
     1324522000	     66124	8000bc24	00028bb3	add	x23,x5,x0	  x5:0x80025c60  x0:0x00000000 x23=0x80025c60
     1324622000	     66129	8000bc28	004ba083	lw	x1,4(x23)	 x23:0x80025c60  x1=0x00000001 PA:0x80025c64 load:0x00000001
     1325442000	     66170	8000bc2c	008ba103	lw	x2,8(x23)	 x23:0x80025c60  x2=0xc6667fed PA:0x80025c68 load:0xc6667fed
     1325782000	     66187	8000bc30	00cba183	lw	x3,12(x23)	 x23:0x80025c60  x3=0x8b0ed722 PA:0x80025c6c load:0x8b0ed722
     1325922000	     66194	8000bc34	010ba203	lw	x4,16(x23)	 x23:0x80025c60  x4=0x00000000 PA:0x80025c70 load:0x00000000
     1325982000	     66197	8000bc38	014ba283	lw	x5,20(x23)	 x23:0x80025c60  x5=0x80025ce0 PA:0x80025c74 load:0x80025ce0
     1326102000	     66203	8000bc3c	018ba303	lw	x6,24(x23)	 x23:0x80025c60  x6=0x00000002 PA:0x80025c78 load:0x00000002
     1326482000	     66222	8000bc40	01cba383	lw	x7,28(x23)	 x23:0x80025c60  x7=0x3dddeb0c PA:0x80025c7c load:0x3dddeb0c
     1326602000	     66228	8000bc44	020ba403	lw	x8,32(x23)	 x23:0x80025c60  x8=0x80023ed8 PA:0x80025c80 load:0x80023ed8
     1326702000	     66233	8000bc48	024ba483	lw	x9,36(x23)	 x23:0x80025c60  x9=0x00000000 PA:0x80025c84 load:0x00000000
     1327622000	     66279	8000bc4c	028ba503	lw	x10,40(x23)	 x23:0x80025c60 x10=0x000002d7 PA:0x80025c88 load:0x000002d7
     1327762000	     66286	8000bc50	02cba583	lw	x11,44(x23)	 x23:0x80025c60 x11=0x00000000 PA:0x80025c8c load:0x00000000
     1327862000	     66291	8000bc54	030ba603	lw	x12,48(x23)	 x23:0x80025c60 x12=0x000001e2 PA:0x80025c90 load:0x000001e2
     1327962000	     66296	8000bc58	034ba683	lw	x13,52(x23)	 x23:0x80025c60 x13=0x0003ffff PA:0x80025c94 load:0x0003ffff
     1330502000	     66423	8000bc5c	038ba703	lw	x14,56(x23)	 x23:0x80025c60 x14=0x00000000 PA:0x80025c98 load:0x00000000
     1330582000	     66427	8000bc60	03cba783	lw	x15,60(x23)	 x23:0x80025c60 x15=0x00000000 PA:0x80025c9c load:0x00000000
     1330742000	     66435	8000bc64	040ba803	lw	x16,64(x23)	 x23:0x80025c60 x16=0x0b0f0f0f PA:0x80025ca0 load:0x0b0f0f0f
     1331102000	     66453	8000bc68	044ba883	lw	x17,68(x23)	 x23:0x80025c60 x17=0x00000001 PA:0x80025ca4 load:0x00000001
     1331202000	     66458	8000bc6c	048ba903	lw	x18,72(x23)	 x23:0x80025c60 x18=0x00000000 PA:0x80025ca8 load:0x00000000
     1331402000	     66468	8000bc70	04cba983	lw	x19,76(x23)	 x23:0x80025c60 x19=0x1f4f0f0f PA:0x80025cac load:0x1f4f0f0f
     1331462000	     66471	8000bc74	050baa03	lw	x20,80(x23)	 x23:0x80025c60 x20=0x00000000 PA:0x80025cb0 load:0x00000000
     1332642000	     66530	8000bc78	054baa83	lw	x21,84(x23)	 x23:0x80025c60 x21=0x9ad6d000 PA:0x80025cb4 load:0x9ad6d000
     1332702000	     66533	8000bc7c	058bab03	lw	x22,88(x23)	 x23:0x80025c60 x22=0x80023ffd PA:0x80025cb8 load:0x80023ffd
     1332722000	     66534	8000bc80	05cbab83	lw	x23,92(x23)	 x23:0x80025c60 x23=0x80025c60 PA:0x80025cbc load:0x80025c60
     1332862000	     66541	8000bc84	060bac03	lw	x24,96(x23)	 x23:0x80025c60 x24=0xfff80000 PA:0x80025cc0 load:0xfff80000
     1332982000	     66547	8000bc88	064bac83	lw	x25,100(x23)	 x23:0x80025c60 x25=0x14400000 PA:0x80025cc4 load:0x14400000
     1333022000	     66549	8000bc8c	068bad03	lw	x26,104(x23)	 x23:0x80025c60 x26=0x00000000 PA:0x80025cc8 load:0x00000000
     1333462000	     66571	8000bc90	06cbad83	lw	x27,108(x23)	 x23:0x80025c60 x27=0x00000000 PA:0x80025ccc load:0x00000000
     1333722000	     66584	8000bc94	070bae03	lw	x28,112(x23)	 x23:0x80025c60 x28=0xfa40b410 PA:0x80025cd0 load:0xfa40b410
     1333742000	     66585	8000bc98	074bae83	lw	x29,116(x23)	 x23:0x80025c60 x29=0x0b0f0f1e PA:0x80025cd4 load:0x0b0f0f1e
     1333782000	     66587	8000bc9c	078baf03	lw	x30,120(x23)	 x23:0x80025c60 x30=0xffffffff PA:0x80025cd8 load:0xffffffff
     1334202000	     66608	8000bca0	07cbaf83	lw	x31,124(x23)	 x23:0x80025c60 x31=0x00000000 PA:0x80025cdc load:0x00000000
     1334962000	     66646	8000bca4	080b8b93	addi	x23,x23,128	 x23:0x80025c60 x23=0x80025ce0
     1334982000	     66647	8000bca8	000b82b3	add	x5,x23,x0	 x23:0x80025ce0  x0:0x00000000  x5=0x80025ce0
     1335042000	     66650	8000bcac	0002ab83	lw	x23,0(x5)	  x5:0x80025ce0 x23=0x80021df8 PA:0x80025ce0 load:0x80021df8
     1335082000	     66652	8000bcb0	0291	c.addi	x5,4	  x5:0x80025ce0  x5=0x80025ce4
     1335102000	     66653	8000bcb2	30200073	mret	
     1335162000	     66656	80009cbe	9316	c.add	x6,x5	  x6:0x00000002  x5:0x80025ce4  x6=0x80025ce6
     1336662000	     66731	80009cc0	40add633	sra	x12,x27,x10	 x27:0x00000000 x10:0x000002d7 x12=0x00000000
     1337422000	     66769	80009cc4	0ff0000f	fence	iorw,iorw	
     1337462000	     66771	80009cc8	ed81	c.bnez	x11,80009ce0	 x11:0x00000000
     1337522000	     66774	80009cca	01061233	sll	x4,x12,x16	 x12:0x00000000 x16:0x0b0f0f0f  x4=0x00000000
     1337542000	     66775	80009cce	705a6893	ori	x17,x20,1797	 x20:0x00000000 x17=0x00000705
     1338322000	     66814	80009cd2	0625	c.addi	x12,9	 x12:0x00000000 x12=0x00000009
     1338342000	     66815	80009cd4	01605c33	srl	x24,x0,x22	  x0:0x00000000 x22:0x80023ffd x24=0x00000000
     1338362000	     66816	80009cd8	00949993	slli	x19,x9,0x9	  x9:0x00000000 x19=0x00000000
     1339122000	     66854	80009cdc	029a4d33	div	x26,x20,x9	 x20:0x00000000  x9:0x00000000 x26=0xffffffff
     1339142000	     66855	80009ce0	6e87b0b7	lui	x1,0x6e87b	  x1=0x6e87b000
     1339182000	     66857	80009ce4	006bdf13	srli	x30,x23,0x6	 x23:0x80021df8 x30=0x02000877
     1339222000	     66859	80009ce8	01c3df93	srli	x31,x7,0x1c	  x7:0x3dddeb0c x31=0x00000003
     1339262000	     66861	80009cec	64d9	c.lui	x9,0x16	  x9=0x00016000
     1340062000	     66901	80009cee	0120e663	bltu	x1,x18,80009cfa	  x1:0x6e87b000 x18:0x00000000
     1340142000	     66905	80009cf2	029f21b3	mulhsu	x3,x30,x9	 x30:0x02000877  x9:0x00016000  x3=0x000002c0
     1340202000	     66908	80009cf6	0320cb63	blt	x1,x18,80009d2c	  x1:0x6e87b000 x18:0x00000000
     1340262000	     66911	80009cfa	b7f07713	andi	x14,x0,-1153	  x0:0x00000000 x14=0x00000000
     1340282000	     66912	80009cfe	00109f93	slli	x31,x1,0x1	  x1:0x6e87b000 x31=0xdd0f6000
     1340322000	     66914	80009d02	01b5dab3	srl	x21,x11,x27	 x11:0x00000000 x27:0x00000000 x21=0x00000000
     1340722000	     66934	80009d06	00624133	xor	x2,x4,x6	  x4:0x00000000  x6:0x80025ce6  x2=0x80025ce6
     1340902000	     66943	80009d0a	40675533	sra	x10,x14,x6	 x14:0x00000000  x6:0x80025ce6 x10=0x00000000
     1341322000	     66964	80009d0e	02bec963	blt	x29,x11,80009d40	 x29:0x0b0f0f1e x11:0x00000000
     1341682000	     66982	80009d12	00f38663	beq	x7,x15,80009d1e	  x7:0x3dddeb0c x15:0x00000000
     1341722000	     66984	80009d16	0001	c.addi	x0,0	  x0:0x00000000  x0=0x00000000
     1341762000	     66986	80009d18	0001	c.addi	x0,0	  x0:0x00000000  x0=0x00000000
     1341782000	     66987	80009d1a	008b5db3	srl	x27,x22,x8	 x22:0x80023ffd  x8:0x80023ed8 x27=0x00000080
     1341802000	     66988	80009d1e	6e79	c.lui	x28,0x1e	 x28=0x0001e000
     1348922000	     67344	80009d20	00f03d33	sltu	x26,x0,x15	  x0:0x00000000 x15:0x00000000 x26=0x00000000
     1348942000	     67345	80009d24	7b0071f3	csrrci	x0,dcsr,0	  x0=0x00000000
     1349002000	     67348	80002700	0800006f	jal	x0,80002780	  x0=0x00000000
     1349782000	     67387	80002780	12f1	c.addi	x5,-4	  x5:0x80025ce4  x5=0x80025ce0
     1350922000	     67444	80002782	0172a023	sw	x23,0(x5)	  x5:0x80025ce0 x23:0x80021df8 PA:0x80025ce0 store:0x80021df8 load:0xffffffff
     1350962000	     67446	80002786	00028bb3	add	x23,x5,x0	  x5:0x80025ce0  x0:0x00000000 x23=0x80025ce0
     1350982000	     67447	8000278a	f80b8b93	addi	x23,x23,-128	 x23:0x80025ce0 x23=0x80025c60
     1351062000	     67451	8000278e	001ba223	sw	x1,4(x23)	 x23:0x80025c60  x1:0x6e87b000 PA:0x80025c64 store:0x6e87b000 load:0xffffffff
     1351482000	     67472	80002792	002ba423	sw	x2,8(x23)	 x23:0x80025c60  x2:0x80025ce6 PA:0x80025c68 store:0x80025ce6 load:0xffffffff
     1351702000	     67483	80002796	003ba623	sw	x3,12(x23)	 x23:0x80025c60  x3:0x000002c0 PA:0x80025c6c store:0x000002c0 load:0xffffffff
     1351882000	     67492	8000279a	004ba823	sw	x4,16(x23)	 x23:0x80025c60  x4:0x00000000 PA:0x80025c70 store:0x00000000 load:0xffffffff
     1352302000	     67513	8000279e	005baa23	sw	x5,20(x23)	 x23:0x80025c60  x5:0x80025ce0 PA:0x80025c74 store:0x80025ce0 load:0xffffffff
     1352362000	     67516	800027a2	006bac23	sw	x6,24(x23)	 x23:0x80025c60  x6:0x80025ce6 PA:0x80025c78 store:0x80025ce6 load:0xffffffff
     1352402000	     67518	800027a6	007bae23	sw	x7,28(x23)	 x23:0x80025c60  x7:0x3dddeb0c PA:0x80025c7c store:0x3dddeb0c load:0xffffffff
     1353602000	     67578	800027aa	028ba023	sw	x8,32(x23)	 x23:0x80025c60  x8:0x80023ed8 PA:0x80025c80 store:0x80023ed8 load:0xffffffff
     1353702000	     67583	800027ae	029ba223	sw	x9,36(x23)	 x23:0x80025c60  x9:0x00016000 PA:0x80025c84 store:0x00016000 load:0xffffffff
     1353742000	     67585	800027b2	02aba423	sw	x10,40(x23)	 x23:0x80025c60 x10:0x00000000 PA:0x80025c88 store:0x00000000 load:0xffffffff
     1353822000	     67589	800027b6	02bba623	sw	x11,44(x23)	 x23:0x80025c60 x11:0x00000000 PA:0x80025c8c store:0x00000000 load:0xffffffff
     1354782000	     67637	800027ba	02cba823	sw	x12,48(x23)	 x23:0x80025c60 x12:0x00000009 PA:0x80025c90 store:0x00000009 load:0xffffffff
     1354842000	     67640	800027be	02dbaa23	sw	x13,52(x23)	 x23:0x80025c60 x13:0x0003ffff PA:0x80025c94 store:0x0003ffff load:0xffffffff
     1355022000	     67649	800027c2	02ebac23	sw	x14,56(x23)	 x23:0x80025c60 x14:0x00000000 PA:0x80025c98 store:0x00000000 load:0xffffffff
     1355102000	     67653	800027c6	02fbae23	sw	x15,60(x23)	 x23:0x80025c60 x15:0x00000000 PA:0x80025c9c store:0x00000000 load:0xffffffff
     1355522000	     67674	800027ca	050ba023	sw	x16,64(x23)	 x23:0x80025c60 x16:0x0b0f0f0f PA:0x80025ca0 store:0x0b0f0f0f load:0xffffffff
     1355582000	     67677	800027ce	051ba223	sw	x17,68(x23)	 x23:0x80025c60 x17:0x00000705 PA:0x80025ca4 store:0x00000705 load:0xffffffff
     1355902000	     67693	800027d2	052ba423	sw	x18,72(x23)	 x23:0x80025c60 x18:0x00000000 PA:0x80025ca8 store:0x00000000 load:0xffffffff
     1356362000	     67716	800027d6	053ba623	sw	x19,76(x23)	 x23:0x80025c60 x19:0x00000000 PA:0x80025cac store:0x00000000 load:0xffffffff
     1356522000	     67724	800027da	054ba823	sw	x20,80(x23)	 x23:0x80025c60 x20:0x00000000 PA:0x80025cb0 store:0x00000000 load:0xffffffff
     1357062000	     67751	800027de	055baa23	sw	x21,84(x23)	 x23:0x80025c60 x21:0x00000000 PA:0x80025cb4 store:0x00000000 load:0xffffffff
     1357202000	     67758	800027e2	056bac23	sw	x22,88(x23)	 x23:0x80025c60 x22:0x80023ffd PA:0x80025cb8 store:0x80023ffd load:0xffffffff
     1357222000	     67759	800027e6	057bae23	sw	x23,92(x23)	 x23:0x80025c60 x23:0x80025c60 PA:0x80025cbc store:0x80025c60 load:0xffffffff
     1357342000	     67765	800027ea	078ba023	sw	x24,96(x23)	 x23:0x80025c60 x24:0x00000000 PA:0x80025cc0 store:0x00000000 load:0xffffffff
     1358542000	     67825	800027ee	079ba223	sw	x25,100(x23)	 x23:0x80025c60 x25:0x14400000 PA:0x80025cc4 store:0x14400000 load:0xffffffff
     1358722000	     67834	800027f2	07aba423	sw	x26,104(x23)	 x23:0x80025c60 x26:0x00000000 PA:0x80025cc8 store:0x00000000 load:0xffffffff
     1358782000	     67837	800027f6	07bba623	sw	x27,108(x23)	 x23:0x80025c60 x27:0x00000080 PA:0x80025ccc store:0x00000080 load:0xffffffff
     1359582000	     67877	800027fa	07cba823	sw	x28,112(x23)	 x23:0x80025c60 x28:0x0001e000 PA:0x80025cd0 store:0x0001e000 load:0xffffffff
     1361142000	     67955	800027fe	07dbaa23	sw	x29,116(x23)	 x23:0x80025c60 x29:0x0b0f0f1e PA:0x80025cd4 store:0x0b0f0f1e load:0xffffffff
     1361362000	     67966	80002802	07ebac23	sw	x30,120(x23)	 x23:0x80025c60 x30:0x02000877 PA:0x80025cd8 store:0x02000877 load:0xffffffff
     1361402000	     67968	80002806	07fbae23	sw	x31,124(x23)	 x23:0x80025c60 x31:0xdd0f6000 PA:0x80025cdc store:0xdd0f6000 load:0xffffffff
     1361422000	     67969	8000280a	000b82b3	add	x5,x23,x0	 x23:0x80025c60  x0:0x00000000  x5=0x80025c60
     1361462000	     67971	8000280e	90000c37	lui	x24,0x90000	 x24=0x90000000
     1361482000	     67972	80002812	1c71	c.addi	x24,-4	 x24:0x90000000 x24=0x8ffffffc
     1361522000	     67974	80002814	4f21	c.li	x30,8	 x30=0x00000008
     1361542000	     67975	80002816	0f22	c.slli	x30,0x8	 x30:0x00000008 x30=0x00000800
     1361562000	     67976	80002818	000f0f13	addi	x30,x30,0	 x30:0x00000800 x30=0x00000800
     1361642000	     67980	8000281c	01ec2023	sw	x30,0(x24)	 x24:0x8ffffffc x30:0x00000800 PA:0x8ffffffc store:0x00000800 load:0xffffffff
     1361682000	     67982	80002820	34102f73	csrrs	x30,mepc,x0	  x0:0x00000000 x30=0x80009d24
     1361702000	     67983	80002824	34202f73	csrrs	x30,mcause,x0	  x0:0x00000000 x30=0x00000002
     1361722000	     67984	80002828	4c0d	c.li	x24,3	 x24=0x00000003
     1361782000	     67987	8000282a	018f1463	bne	x30,x24,80002832	 x30:0x00000002 x24:0x00000003
     1361842000	     67990	80002832	4c21	c.li	x24,8	 x24=0x00000008
     1361882000	     67992	80002834	058f0d63	beq	x30,x24,8000288e	 x30:0x00000002 x24:0x00000008
     1362682000	     68032	80002838	4c25	c.li	x24,9	 x24=0x00000009
     1362742000	     68035	8000283a	058f0a63	beq	x30,x24,8000288e	 x30:0x00000002 x24:0x00000009
     1362782000	     68037	8000283e	4c2d	c.li	x24,11	 x24=0x0000000b
     1362822000	     68039	80002840	058f0763	beq	x30,x24,8000288e	 x30:0x00000002 x24:0x0000000b
     1362862000	     68041	80002844	4c05	c.li	x24,1	 x24=0x00000001
     1362922000	     68044	80002846	358f0363	beq	x30,x24,80002b8c	 x30:0x00000002 x24:0x00000001
     1362962000	     68046	8000284a	4c15	c.li	x24,5	 x24=0x00000005
     1363022000	     68049	8000284c	638f0a63	beq	x30,x24,80002e80	 x30:0x00000002 x24:0x00000005
     1363082000	     68052	80002850	4c1d	c.li	x24,7	 x24=0x00000007
     1363122000	     68054	80002852	158f0ce3	beq	x30,x24,800031aa	 x30:0x00000002 x24:0x00000007
     1363902000	     68093	80002856	4c31	c.li	x24,12	 x24=0x0000000c
     1364742000	     68135	80002858	018f1463	bne	x30,x24,80002860	 x30:0x00000002 x24:0x0000000c
     1364802000	     68138	80002860	4c35	c.li	x24,13	 x24=0x0000000d
     1364862000	     68141	80002862	018f1463	bne	x30,x24,8000286a	 x30:0x00000002 x24:0x0000000d
     1364902000	     68143	8000286a	4c3d	c.li	x24,15	 x24=0x0000000f
     1364982000	     68147	8000286c	018f1463	bne	x30,x24,80002874	 x30:0x00000002 x24:0x0000000f
     1365022000	     68149	80002874	4c09	c.li	x24,2	 x24=0x00000002
     1365062000	     68151	80002876	018f1463	bne	x30,x24,8000287e	 x30:0x00000002 x24:0x00000002
     1365122000	     68154	8000287a	3740906f	jal	x0,8000bbee	  x0=0x00000000
     1365202000	     68158	8000bbee	90000c37	lui	x24,0x90000	 x24=0x90000000
     1365962000	     68196	8000bbf2	1c71	c.addi	x24,-4	 x24:0x90000000 x24=0x8ffffffc
     1365982000	     68197	8000bbf4	4f29	c.li	x30,10	 x30=0x0000000a
     1366002000	     68198	8000bbf6	0f22	c.slli	x30,0x8	 x30:0x0000000a x30=0x00000a00
     1366082000	     68202	8000bbf8	000f0f13	addi	x30,x30,0	 x30:0x00000a00 x30=0x00000a00
     1366302000	     68213	8000bbfc	01ec2023	sw	x30,0(x24)	 x24:0x8ffffffc x30:0x00000a00 PA:0x8ffffffc store:0x00000a00 load:0xffffffff
     1366322000	     68214	8000bc00	90000c37	lui	x24,0x90000	 x24=0x90000000
     1366362000	     68216	8000bc04	1c71	c.addi	x24,-4	 x24:0x90000000 x24=0x8ffffffc
     1366382000	     68217	8000bc06	34200f13	addi	x30,x0,834	  x0:0x00000000 x30=0x00000342
     1366402000	     68218	8000bc0a	0f22	c.slli	x30,0x8	 x30:0x00000342 x30=0x00034200
     1366442000	     68220	8000bc0c	0f0d	c.addi	x30,3	 x30:0x00034200 x30=0x00034203
     1366502000	     68223	8000bc0e	01ec2023	sw	x30,0(x24)	 x24:0x8ffffffc x30:0x00034203 PA:0x8ffffffc store:0x00034203 load:0xffffffff
     1366542000	     68225	8000bc12	34202f73	csrrs	x30,mcause,x0	  x0:0x00000000 x30=0x00000002
     1366882000	     68242	8000bc16	01ec2023	sw	x30,0(x24)	 x24:0x8ffffffc x30:0x00000002 PA:0x8ffffffc store:0x00000002 load:0xffffffff
     1366902000	     68243	8000bc1a	34102f73	csrrs	x30,mepc,x0	  x0:0x00000000 x30=0x80009d24
     1366942000	     68245	8000bc1e	0f11	c.addi	x30,4	 x30:0x80009d24 x30=0x80009d28
     1366962000	     68246	8000bc20	341f1073	csrrw	x0,mepc,x30	 x30:0x80009d28  x0=0x00000000
     1366982000	     68247	8000bc24	00028bb3	add	x23,x5,x0	  x5:0x80025c60  x0:0x00000000 x23=0x80025c60
     1367462000	     68271	8000bc28	004ba083	lw	x1,4(x23)	 x23:0x80025c60  x1=0x6e87b000 PA:0x80025c64 load:0x6e87b000
     1367742000	     68285	8000bc2c	008ba103	lw	x2,8(x23)	 x23:0x80025c60  x2=0x80025ce6 PA:0x80025c68 load:0x80025ce6
     1368542000	     68325	8000bc30	00cba183	lw	x3,12(x23)	 x23:0x80025c60  x3=0x000002c0 PA:0x80025c6c load:0x000002c0
     1368742000	     68335	8000bc34	010ba203	lw	x4,16(x23)	 x23:0x80025c60  x4=0x00000000 PA:0x80025c70 load:0x00000000
     1369222000	     68359	8000bc38	014ba283	lw	x5,20(x23)	 x23:0x80025c60  x5=0x80025ce0 PA:0x80025c74 load:0x80025ce0
     1369282000	     68362	8000bc3c	018ba303	lw	x6,24(x23)	 x23:0x80025c60  x6=0x80025ce6 PA:0x80025c78 load:0x80025ce6
     1369682000	     68382	8000bc40	01cba383	lw	x7,28(x23)	 x23:0x80025c60  x7=0x3dddeb0c PA:0x80025c7c load:0x3dddeb0c
     1370502000	     68423	8000bc44	020ba403	lw	x8,32(x23)	 x23:0x80025c60  x8=0x80023ed8 PA:0x80025c80 load:0x80023ed8
     1370722000	     68434	8000bc48	024ba483	lw	x9,36(x23)	 x23:0x80025c60  x9=0x00016000 PA:0x80025c84 load:0x00016000
     1370802000	     68438	8000bc4c	028ba503	lw	x10,40(x23)	 x23:0x80025c60 x10=0x00000000 PA:0x80025c88 load:0x00000000
     1370842000	     68440	8000bc50	02cba583	lw	x11,44(x23)	 x23:0x80025c60 x11=0x00000000 PA:0x80025c8c load:0x00000000
     1370982000	     68447	8000bc54	030ba603	lw	x12,48(x23)	 x23:0x80025c60 x12=0x00000009 PA:0x80025c90 load:0x00000009
     1371182000	     68457	8000bc58	034ba683	lw	x13,52(x23)	 x23:0x80025c60 x13=0x0003ffff PA:0x80025c94 load:0x0003ffff
     1371442000	     68470	8000bc5c	038ba703	lw	x14,56(x23)	 x23:0x80025c60 x14=0x00000000 PA:0x80025c98 load:0x00000000
     1371882000	     68492	8000bc60	03cba783	lw	x15,60(x23)	 x23:0x80025c60 x15=0x00000000 PA:0x80025c9c load:0x00000000
     1371942000	     68495	8000bc64	040ba803	lw	x16,64(x23)	 x23:0x80025c60 x16=0x0b0f0f0f PA:0x80025ca0 load:0x0b0f0f0f
     1371962000	     68496	8000bc68	044ba883	lw	x17,68(x23)	 x23:0x80025c60 x17=0x00000705 PA:0x80025ca4 load:0x00000705
     1372282000	     68512	8000bc6c	048ba903	lw	x18,72(x23)	 x23:0x80025c60 x18=0x00000000 PA:0x80025ca8 load:0x00000000
     1373182000	     68557	8000bc70	04cba983	lw	x19,76(x23)	 x23:0x80025c60 x19=0x00000000 PA:0x80025cac load:0x00000000
     1373602000	     68578	8000bc74	050baa03	lw	x20,80(x23)	 x23:0x80025c60 x20=0x00000000 PA:0x80025cb0 load:0x00000000
     1373922000	     68594	8000bc78	054baa83	lw	x21,84(x23)	 x23:0x80025c60 x21=0x00000000 PA:0x80025cb4 load:0x00000000
     1374182000	     68607	8000bc7c	058bab03	lw	x22,88(x23)	 x23:0x80025c60 x22=0x80023ffd PA:0x80025cb8 load:0x80023ffd
     1374222000	     68609	8000bc80	05cbab83	lw	x23,92(x23)	 x23:0x80025c60 x23=0x80025c60 PA:0x80025cbc load:0x80025c60
     1374262000	     68611	8000bc84	060bac03	lw	x24,96(x23)	 x23:0x80025c60 x24=0x00000000 PA:0x80025cc0 load:0x00000000
     1374442000	     68620	8000bc88	064bac83	lw	x25,100(x23)	 x23:0x80025c60 x25=0x14400000 PA:0x80025cc4 load:0x14400000
     1374542000	     68625	8000bc8c	068bad03	lw	x26,104(x23)	 x23:0x80025c60 x26=0x00000000 PA:0x80025cc8 load:0x00000000
     1374602000	     68628	8000bc90	06cbad83	lw	x27,108(x23)	 x23:0x80025c60 x27=0x00000080 PA:0x80025ccc load:0x00000080
     1374742000	     68635	8000bc94	070bae03	lw	x28,112(x23)	 x23:0x80025c60 x28=0x0001e000 PA:0x80025cd0 load:0x0001e000
     1375422000	     68669	8000bc98	074bae83	lw	x29,116(x23)	 x23:0x80025c60 x29=0x0b0f0f1e PA:0x80025cd4 load:0x0b0f0f1e
     1375482000	     68672	8000bc9c	078baf03	lw	x30,120(x23)	 x23:0x80025c60 x30=0x02000877 PA:0x80025cd8 load:0x02000877
     1375502000	     68673	8000bca0	07cbaf83	lw	x31,124(x23)	 x23:0x80025c60 x31=0xdd0f6000 PA:0x80025cdc load:0xdd0f6000
     1375542000	     68675	8000bca4	080b8b93	addi	x23,x23,128	 x23:0x80025c60 x23=0x80025ce0
     1375562000	     68676	8000bca8	000b82b3	add	x5,x23,x0	 x23:0x80025ce0  x0:0x00000000  x5=0x80025ce0
     1375622000	     68679	8000bcac	0002ab83	lw	x23,0(x5)	  x5:0x80025ce0 x23=0x80021df8 PA:0x80025ce0 load:0x80021df8
     1375662000	     68681	8000bcb0	0291	c.addi	x5,4	  x5:0x80025ce0  x5=0x80025ce4
     1375682000	     68682	8000bcb2	30200073	mret	
     1375762000	     68686	80009d28	00087433	and	x8,x16,x0	 x16:0x0b0f0f0f  x0:0x00000000  x8=0x00000000
     1375782000	     68687	80009d2c	8885	c.andi	x9,1	  x9:0x00016000  x9=0x00000000
     1375822000	     68689	80009d2e	02fb0c63	beq	x22,x15,80009d66	 x22:0x80023ffd x15:0x00000000
     1375862000	     68691	80009d32	6f91	c.lui	x31,0x4	 x31=0x00004000
     1375882000	     68692	80009d34	8739	c.srai	x14,0xe	 x14:0x00000000 x14=0x00000000
     1376182000	     68707	80009d36	01b69ab3	sll	x21,x13,x27	 x13:0x0003ffff x27:0x00000080 x21=0x0003ffff
     1376242000	     68710	80009d3a	007be263	bltu	x23,x7,80009d3e	 x23:0x80021df8  x7:0x3dddeb0c
     1376282000	     68712	80009d3e	8de5	c.and	x11,x9	 x11:0x00000000  x9:0x00000000 x11=0x00000000
     1376742000	     68735	80009d40	0d36	c.slli	x26,0xd	 x26:0x00000000 x26=0x00000000
     1376762000	     68736	80009d42	00fe5433	srl	x8,x28,x15	 x28:0x0001e000 x15:0x00000000  x8=0x0001e000
     1376802000	     68738	80009d46	4219	c.li	x4,6	  x4=0x00000006
     1377182000	     68757	80009d48	b062def3	csrrwi	x29,mhpmcounter6,5	 x29=0x0000031f
     1377262000	     68761	80009d4c	0a3d	c.addi	x20,15	 x20:0x00000000 x20=0x0000000f
     1377462000	     68771	80009d4e	005835b3	sltu	x11,x16,x5	 x16:0x0b0f0f0f  x5:0x80025ce4 x11=0x00000001
     1377502000	     68773	80009d52	0001	c.addi	x0,0	  x0:0x00000000  x0=0x00000000
     1377562000	     68776	80009d54	2a033593	sltiu	x11,x6,672	  x6:0x80025ce6 x11=0x00000000
     1377822000	     68789	80009d58	01ec5b13	srli	x22,x24,0x1e	 x24:0x00000000 x22=0x00000000
     1377982000	     68797	80009d5c	99fbe8b7	lui	x17,0x99fbe	 x17=0x99fbe000
     1378742000	     68835	80009d60	5addfe97	auipc	x29,0x5addf	 x29=0xdade8d60
     1378762000	     68836	80009d64	8909	c.andi	x10,2	 x10:0x00000000 x10=0x00000000
     1378802000	     68838	80009d66	01c78563	beq	x15,x28,80009d70	 x15:0x00000000 x28:0x0001e000
     1378902000	     68843	80009d6a	01e31d93	slli	x27,x6,0x1e	  x6:0x80025ce6 x27=0x80000000
     1378942000	     68845	80009d6e	8b19	c.andi	x14,6	 x14:0x00000000 x14=0x00000000
     1379922000	     68894	80009d70	8cb1	c.xor	x9,x12	  x9:0x00000000 x12:0x00000009  x9=0x00000009
     1379982000	     68897	80009d72	01cb7963	bgeu	x22,x28,80009d84	 x22:0x00000000 x28:0x0001e000
     1380022000	     68899	80009d76	9dda	c.add	x27,x22	 x27:0x80000000 x22:0x00000000 x27=0x80000000
     1380062000	     68901	80009d78	f14f2c73	csrrs	x0,mhartid,x0	  x0:0x00000000  x0=0x00000000
     1380142000	     68905	80002700	0800006f	jal	x0,80002780	  x0=0x00000000
     1380202000	     68908	80002780	12f1	c.addi	x5,-4	  x5:0x80025ce4  x5=0x80025ce0
     1380262000	     68911	80002782	0172a023	sw	x23,0(x5)	  x5:0x80025ce0 x23:0x80021df8 PA:0x80025ce0 store:0x80021df8 load:0xffffffff
     1380282000	     68912	80002786	00028bb3	add	x23,x5,x0	  x5:0x80025ce0  x0:0x00000000 x23=0x80025ce0
     1380322000	     68914	8000278a	f80b8b93	addi	x23,x23,-128	 x23:0x80025ce0 x23=0x80025c60
     1380382000	     68917	8000278e	001ba223	sw	x1,4(x23)	 x23:0x80025c60  x1:0x6e87b000 PA:0x80025c64 store:0x6e87b000 load:0xffffffff
     1380682000	     68932	80002792	002ba423	sw	x2,8(x23)	 x23:0x80025c60  x2:0x80025ce6 PA:0x80025c68 store:0x80025ce6 load:0xffffffff
     1380742000	     68935	80002796	003ba623	sw	x3,12(x23)	 x23:0x80025c60  x3:0x000002c0 PA:0x80025c6c store:0x000002c0 load:0xffffffff
     1385462000	     69171	8000279a	004ba823	sw	x4,16(x23)	 x23:0x80025c60  x4:0x00000006 PA:0x80025c70 store:0x00000006 load:0xffffffff
     1385702000	     69183	8000279e	005baa23	sw	x5,20(x23)	 x23:0x80025c60  x5:0x80025ce0 PA:0x80025c74 store:0x80025ce0 load:0xffffffff
     1385762000	     69186	800027a2	006bac23	sw	x6,24(x23)	 x23:0x80025c60  x6:0x80025ce6 PA:0x80025c78 store:0x80025ce6 load:0xffffffff
     1385782000	     69187	800027a6	007bae23	sw	x7,28(x23)	 x23:0x80025c60  x7:0x3dddeb0c PA:0x80025c7c store:0x3dddeb0c load:0xffffffff
     1386202000	     69208	800027aa	028ba023	sw	x8,32(x23)	 x23:0x80025c60  x8:0x0001e000 PA:0x80025c80 store:0x0001e000 load:0xffffffff
     1386262000	     69211	800027ae	029ba223	sw	x9,36(x23)	 x23:0x80025c60  x9:0x00000009 PA:0x80025c84 store:0x00000009 load:0xffffffff
     1386282000	     69212	800027b2	02aba423	sw	x10,40(x23)	 x23:0x80025c60 x10:0x00000000 PA:0x80025c88 store:0x00000000 load:0xffffffff
     1386922000	     69244	800027b6	02bba623	sw	x11,44(x23)	 x23:0x80025c60 x11:0x00000000 PA:0x80025c8c store:0x00000000 load:0xffffffff
     1387282000	     69262	800027ba	02cba823	sw	x12,48(x23)	 x23:0x80025c60 x12:0x00000009 PA:0x80025c90 store:0x00000009 load:0xffffffff
     1388482000	     69322	800027be	02dbaa23	sw	x13,52(x23)	 x23:0x80025c60 x13:0x0003ffff PA:0x80025c94 store:0x0003ffff load:0xffffffff
     1388542000	     69325	800027c2	02ebac23	sw	x14,56(x23)	 x23:0x80025c60 x14:0x00000000 PA:0x80025c98 store:0x00000000 load:0xffffffff
     1388562000	     69326	800027c6	02fbae23	sw	x15,60(x23)	 x23:0x80025c60 x15:0x00000000 PA:0x80025c9c store:0x00000000 load:0xffffffff
     1389522000	     69374	800027ca	050ba023	sw	x16,64(x23)	 x23:0x80025c60 x16:0x0b0f0f0f PA:0x80025ca0 store:0x0b0f0f0f load:0xffffffff
     1389622000	     69379	800027ce	051ba223	sw	x17,68(x23)	 x23:0x80025c60 x17:0x99fbe000 PA:0x80025ca4 store:0x99fbe000 load:0xffffffff
     1389822000	     69389	800027d2	052ba423	sw	x18,72(x23)	 x23:0x80025c60 x18:0x00000000 PA:0x80025ca8 store:0x00000000 load:0xffffffff
     1389922000	     69394	800027d6	053ba623	sw	x19,76(x23)	 x23:0x80025c60 x19:0x00000000 PA:0x80025cac store:0x00000000 load:0xffffffff
     1390002000	     69398	800027da	054ba823	sw	x20,80(x23)	 x23:0x80025c60 x20:0x0000000f PA:0x80025cb0 store:0x0000000f load:0xffffffff
     1390022000	     69399	800027de	055baa23	sw	x21,84(x23)	 x23:0x80025c60 x21:0x0003ffff PA:0x80025cb4 store:0x0003ffff load:0xffffffff
     1390122000	     69404	800027e2	056bac23	sw	x22,88(x23)	 x23:0x80025c60 x22:0x00000000 PA:0x80025cb8 store:0x00000000 load:0xffffffff
     1390182000	     69407	800027e6	057bae23	sw	x23,92(x23)	 x23:0x80025c60 x23:0x80025c60 PA:0x80025cbc store:0x80025c60 load:0xffffffff
     1390262000	     69411	800027ea	078ba023	sw	x24,96(x23)	 x23:0x80025c60 x24:0x00000000 PA:0x80025cc0 store:0x00000000 load:0xffffffff
     1390322000	     69414	800027ee	079ba223	sw	x25,100(x23)	 x23:0x80025c60 x25:0x14400000 PA:0x80025cc4 store:0x14400000 load:0xffffffff
     1391322000	     69464	800027f2	07aba423	sw	x26,104(x23)	 x23:0x80025c60 x26:0x00000000 PA:0x80025cc8 store:0x00000000 load:0xffffffff
     1392122000	     69504	800027f6	07bba623	sw	x27,108(x23)	 x23:0x80025c60 x27:0x80000000 PA:0x80025ccc store:0x80000000 load:0xffffffff
     1392542000	     69525	800027fa	07cba823	sw	x28,112(x23)	 x23:0x80025c60 x28:0x0001e000 PA:0x80025cd0 store:0x0001e000 load:0xffffffff
     1392602000	     69528	800027fe	07dbaa23	sw	x29,116(x23)	 x23:0x80025c60 x29:0xdade8d60 PA:0x80025cd4 store:0xdade8d60 load:0xffffffff
     1393402000	     69568	80002802	07ebac23	sw	x30,120(x23)	 x23:0x80025c60 x30:0x02000877 PA:0x80025cd8 store:0x02000877 load:0xffffffff
     1393462000	     69571	80002806	07fbae23	sw	x31,124(x23)	 x23:0x80025c60 x31:0x00004000 PA:0x80025cdc store:0x00004000 load:0xffffffff
     1393502000	     69573	8000280a	000b82b3	add	x5,x23,x0	 x23:0x80025c60  x0:0x00000000  x5=0x80025c60
     1393522000	     69574	8000280e	90000c37	lui	x24,0x90000	 x24=0x90000000
     1394302000	     69613	80002812	1c71	c.addi	x24,-4	 x24:0x90000000 x24=0x8ffffffc
     1394342000	     69615	80002814	4f21	c.li	x30,8	 x30=0x00000008
     1394362000	     69616	80002816	0f22	c.slli	x30,0x8	 x30:0x00000008 x30=0x00000800
     1394402000	     69618	80002818	000f0f13	addi	x30,x30,0	 x30:0x00000800 x30=0x00000800
     1394482000	     69622	8000281c	01ec2023	sw	x30,0(x24)	 x24:0x8ffffffc x30:0x00000800 PA:0x8ffffffc store:0x00000800 load:0xffffffff
     1394522000	     69624	80002820	34102f73	csrrs	x30,mepc,x0	  x0:0x00000000 x30=0x80009d78
     1394562000	     69626	80002824	34202f73	csrrs	x30,mcause,x0	  x0:0x00000000 x30=0x00000002
     1394582000	     69627	80002828	4c0d	c.li	x24,3	 x24=0x00000003
     1394622000	     69629	8000282a	018f1463	bne	x30,x24,80002832	 x30:0x00000002 x24:0x00000003
     1394662000	     69631	80002832	4c21	c.li	x24,8	 x24=0x00000008
     1395442000	     69670	80002834	058f0d63	beq	x30,x24,8000288e	 x30:0x00000002 x24:0x00000008
     1395482000	     69672	80002838	4c25	c.li	x24,9	 x24=0x00000009
     1396282000	     69712	8000283a	058f0a63	beq	x30,x24,8000288e	 x30:0x00000002 x24:0x00000009
     1396322000	     69714	8000283e	4c2d	c.li	x24,11	 x24=0x0000000b
     1396382000	     69717	80002840	058f0763	beq	x30,x24,8000288e	 x30:0x00000002 x24:0x0000000b
     1396462000	     69721	80002844	4c05	c.li	x24,1	 x24=0x00000001
     1396502000	     69723	80002846	358f0363	beq	x30,x24,80002b8c	 x30:0x00000002 x24:0x00000001
     1396562000	     69726	8000284a	4c15	c.li	x24,5	 x24=0x00000005
     1396602000	     69728	8000284c	638f0a63	beq	x30,x24,80002e80	 x30:0x00000002 x24:0x00000005
     1397382000	     69767	80002850	4c1d	c.li	x24,7	 x24=0x00000007
     1397442000	     69770	80002852	158f0ce3	beq	x30,x24,800031aa	 x30:0x00000002 x24:0x00000007
     1397482000	     69772	80002856	4c31	c.li	x24,12	 x24=0x0000000c
     1397602000	     69778	80002858	018f1463	bne	x30,x24,80002860	 x30:0x00000002 x24:0x0000000c
     1397642000	     69780	80002860	4c35	c.li	x24,13	 x24=0x0000000d
     1398422000	     69819	80002862	018f1463	bne	x30,x24,8000286a	 x30:0x00000002 x24:0x0000000d
     1398462000	     69821	8000286a	4c3d	c.li	x24,15	 x24=0x0000000f
     1398522000	     69824	8000286c	018f1463	bne	x30,x24,80002874	 x30:0x00000002 x24:0x0000000f
     1398582000	     69827	80002874	4c09	c.li	x24,2	 x24=0x00000002
     1398622000	     69829	80002876	018f1463	bne	x30,x24,8000287e	 x30:0x00000002 x24:0x00000002
     1398682000	     69832	8000287a	3740906f	jal	x0,8000bbee	  x0=0x00000000
     1398762000	     69836	8000bbee	90000c37	lui	x24,0x90000	 x24=0x90000000
     1398802000	     69838	8000bbf2	1c71	c.addi	x24,-4	 x24:0x90000000 x24=0x8ffffffc
     1398822000	     69839	8000bbf4	4f29	c.li	x30,10	 x30=0x0000000a
     1398862000	     69841	8000bbf6	0f22	c.slli	x30,0x8	 x30:0x0000000a x30=0x00000a00
     1398882000	     69842	8000bbf8	000f0f13	addi	x30,x30,0	 x30:0x00000a00 x30=0x00000a00
     1398942000	     69845	8000bbfc	01ec2023	sw	x30,0(x24)	 x24:0x8ffffffc x30:0x00000a00 PA:0x8ffffffc store:0x00000a00 load:0xffffffff
     1398982000	     69847	8000bc00	90000c37	lui	x24,0x90000	 x24=0x90000000
     1399002000	     69848	8000bc04	1c71	c.addi	x24,-4	 x24:0x90000000 x24=0x8ffffffc
     1399022000	     69849	8000bc06	34200f13	addi	x30,x0,834	  x0:0x00000000 x30=0x00000342
     1399782000	     69887	8000bc0a	0f22	c.slli	x30,0x8	 x30:0x00000342 x30=0x00034200
     1399802000	     69888	8000bc0c	0f0d	c.addi	x30,3	 x30:0x00034200 x30=0x00034203
     1400062000	     69901	8000bc0e	01ec2023	sw	x30,0(x24)	 x24:0x8ffffffc x30:0x00034203 PA:0x8ffffffc store:0x00034203 load:0xffffffff
     1400102000	     69903	8000bc12	34202f73	csrrs	x30,mcause,x0	  x0:0x00000000 x30=0x00000002
     1400162000	     69906	8000bc16	01ec2023	sw	x30,0(x24)	 x24:0x8ffffffc x30:0x00000002 PA:0x8ffffffc store:0x00000002 load:0xffffffff
     1400182000	     69907	8000bc1a	34102f73	csrrs	x30,mepc,x0	  x0:0x00000000 x30=0x80009d78
     1400242000	     69910	8000bc1e	0f11	c.addi	x30,4	 x30:0x80009d78 x30=0x80009d7c
     1401002000	     69948	8000bc20	341f1073	csrrw	x0,mepc,x30	 x30:0x80009d7c  x0=0x00000000
     1401042000	     69950	8000bc24	00028bb3	add	x23,x5,x0	  x5:0x80025c60  x0:0x00000000 x23=0x80025c60
     1401262000	     69961	8000bc28	004ba083	lw	x1,4(x23)	 x23:0x80025c60  x1=0x6e87b000 PA:0x80025c64 load:0x6e87b000
     1401402000	     69968	8000bc2c	008ba103	lw	x2,8(x23)	 x23:0x80025c60  x2=0x80025ce6 PA:0x80025c68 load:0x80025ce6
     1401482000	     69972	8000bc30	00cba183	lw	x3,12(x23)	 x23:0x80025c60  x3=0x000002c0 PA:0x80025c6c load:0x000002c0
     1402402000	     70018	8000bc34	010ba203	lw	x4,16(x23)	 x23:0x80025c60  x4=0x00000006 PA:0x80025c70 load:0x00000006
     1402582000	     70027	8000bc38	014ba283	lw	x5,20(x23)	 x23:0x80025c60  x5=0x80025ce0 PA:0x80025c74 load:0x80025ce0
     1402602000	     70028	8000bc3c	018ba303	lw	x6,24(x23)	 x23:0x80025c60  x6=0x80025ce6 PA:0x80025c78 load:0x80025ce6
     1402902000	     70043	8000bc40	01cba383	lw	x7,28(x23)	 x23:0x80025c60  x7=0x3dddeb0c PA:0x80025c7c load:0x3dddeb0c
     1402962000	     70046	8000bc44	020ba403	lw	x8,32(x23)	 x23:0x80025c60  x8=0x0001e000 PA:0x80025c80 load:0x0001e000
     1403142000	     70055	8000bc48	024ba483	lw	x9,36(x23)	 x23:0x80025c60  x9=0x00000009 PA:0x80025c84 load:0x00000009
     1403942000	     70095	8000bc4c	028ba503	lw	x10,40(x23)	 x23:0x80025c60 x10=0x00000000 PA:0x80025c88 load:0x00000000
     1403962000	     70096	8000bc50	02cba583	lw	x11,44(x23)	 x23:0x80025c60 x11=0x00000000 PA:0x80025c8c load:0x00000000
     1404062000	     70101	8000bc54	030ba603	lw	x12,48(x23)	 x23:0x80025c60 x12=0x00000009 PA:0x80025c90 load:0x00000009
     1405002000	     70148	8000bc58	034ba683	lw	x13,52(x23)	 x23:0x80025c60 x13=0x0003ffff PA:0x80025c94 load:0x0003ffff
     1405122000	     70154	8000bc5c	038ba703	lw	x14,56(x23)	 x23:0x80025c60 x14=0x00000000 PA:0x80025c98 load:0x00000000
     1405142000	     70155	8000bc60	03cba783	lw	x15,60(x23)	 x23:0x80025c60 x15=0x00000000 PA:0x80025c9c load:0x00000000
     1405962000	     70196	8000bc64	040ba803	lw	x16,64(x23)	 x23:0x80025c60 x16=0x0b0f0f0f PA:0x80025ca0 load:0x0b0f0f0f
     1406362000	     70216	8000bc68	044ba883	lw	x17,68(x23)	 x23:0x80025c60 x17=0x99fbe000 PA:0x80025ca4 load:0x99fbe000
     1406482000	     70222	8000bc6c	048ba903	lw	x18,72(x23)	 x23:0x80025c60 x18=0x00000000 PA:0x80025ca8 load:0x00000000
     1406622000	     70229	8000bc70	04cba983	lw	x19,76(x23)	 x23:0x80025c60 x19=0x00000000 PA:0x80025cac load:0x00000000
     1406682000	     70232	8000bc74	050baa03	lw	x20,80(x23)	 x23:0x80025c60 x20=0x0000000f PA:0x80025cb0 load:0x0000000f
     1406842000	     70240	8000bc78	054baa83	lw	x21,84(x23)	 x23:0x80025c60 x21=0x0003ffff PA:0x80025cb4 load:0x0003ffff
     1406922000	     70244	8000bc7c	058bab03	lw	x22,88(x23)	 x23:0x80025c60 x22=0x00000000 PA:0x80025cb8 load:0x00000000
     1407462000	     70271	8000bc80	05cbab83	lw	x23,92(x23)	 x23:0x80025c60 x23=0x80025c60 PA:0x80025cbc load:0x80025c60
     1407702000	     70283	8000bc84	060bac03	lw	x24,96(x23)	 x23:0x80025c60 x24=0x00000000 PA:0x80025cc0 load:0x00000000
     1408502000	     70323	8000bc88	064bac83	lw	x25,100(x23)	 x23:0x80025c60 x25=0x14400000 PA:0x80025cc4 load:0x14400000
     1408522000	     70324	8000bc8c	068bad03	lw	x26,104(x23)	 x23:0x80025c60 x26=0x00000000 PA:0x80025cc8 load:0x00000000
     1408942000	     70345	8000bc90	06cbad83	lw	x27,108(x23)	 x23:0x80025c60 x27=0x80000000 PA:0x80025ccc load:0x80000000
     1409022000	     70349	8000bc94	070bae03	lw	x28,112(x23)	 x23:0x80025c60 x28=0x0001e000 PA:0x80025cd0 load:0x0001e000
     1409402000	     70368	8000bc98	074bae83	lw	x29,116(x23)	 x23:0x80025c60 x29=0xdade8d60 PA:0x80025cd4 load:0xdade8d60
     1410202000	     70408	8000bc9c	078baf03	lw	x30,120(x23)	 x23:0x80025c60 x30=0x02000877 PA:0x80025cd8 load:0x02000877
     1410402000	     70418	8000bca0	07cbaf83	lw	x31,124(x23)	 x23:0x80025c60 x31=0x00004000 PA:0x80025cdc load:0x00004000
     1410442000	     70420	8000bca4	080b8b93	addi	x23,x23,128	 x23:0x80025c60 x23=0x80025ce0
     1410462000	     70421	8000bca8	000b82b3	add	x5,x23,x0	 x23:0x80025ce0  x0:0x00000000  x5=0x80025ce0
     1410522000	     70424	8000bcac	0002ab83	lw	x23,0(x5)	  x5:0x80025ce0 x23=0x80021df8 PA:0x80025ce0 load:0x80021df8
     1411322000	     70464	8000bcb0	0291	c.addi	x5,4	  x5:0x80025ce0  x5=0x80025ce4
     1411342000	     70465	8000bcb2	30200073	mret	
     1411422000	     70469	80009d7c	8dbd	c.xor	x11,x15	 x11:0x00000000 x15:0x00000000 x11=0x00000000
     1411442000	     70470	80009d7e	030a	c.slli	x6,0x2	  x6:0x80025ce6  x6=0x00097398
     1411462000	     70471	80009d80	8c46	c.mv	x24,x17	  x0:0x00000000 x17:0x99fbe000 x24=0x99fbe000
     1412242000	     70510	80009d82	0001	c.addi	x0,0	  x0:0x00000000  x0=0x00000000
     1412282000	     70512	80009d84	40e80eb3	sub	x29,x16,x14	 x16:0x0b0f0f0f x14:0x00000000 x29=0x0b0f0f0f
     1413022000	     70549	80009d88	03f8e333	rem	x6,x17,x31	 x17:0x99fbe000 x31:0x00004000  x6=0xffffe000
     1413062000	     70551	80009d8c	a2cb8313	addi	x6,x23,-1492	 x23:0x80021df8  x6=0x80021824
     1413082000	     70552	80009d90	0dc2	c.slli	x27,0x10	 x27:0x80000000 x27=0x00000000
     1413122000	     70554	80009d92	8c1d	c.sub	x8,x15	  x8:0x0001e000 x15:0x00000000  x8=0x0001e000
     1413882000	     70592	80009d94	8d6d	c.and	x10,x11	 x10:0x00000000 x11:0x00000000 x10=0x00000000
     1413962000	     70596	80009d96	84d5	c.srai	x9,0x15	  x9:0x00000009  x9=0x00000000
     1414722000	     70634	80009d98	00211693	slli	x13,x2,0x2	  x2:0x80025ce6 x13=0x00097398
     1414742000	     70635	80009d9c	000c5593	srli	x11,x24,0x0	 x24:0x99fbe000 x11=0x99fbe000
     1414782000	     70637	80009da0	01734b33	xor	x22,x6,x23	  x6:0x80021824 x23:0x80021df8 x22=0x000005dc
     1414822000	     70639	80009da4	03356263	bltu	x10,x19,80009dc8	 x10:0x00000000 x19:0x00000000
     1414902000	     70643	80009da8	000fea33	or	x20,x31,x0	 x31:0x00004000  x0:0x00000000 x20=0x00004000
     1414942000	     70645	80009dac	01189cb3	sll	x25,x17,x17	 x17:0x99fbe000 x17:0x99fbe000 x25=0x99fbe000
     1414982000	     70647	80009db0	3b1033f3	csrrc	x7,pmpaddr1,x0	  x0:0x00000000  x7=0x24445173
     1415362000	     70666	80009db4	01eb5a63	bge	x22,x30,80009dc8	 x22:0x000005dc x30:0x02000877
     1415442000	     70670	80009db8	01e786b3	add	x13,x15,x30	 x15:0x00000000 x30:0x02000877 x13=0x02000877
     1416202000	     70708	80009dbc	8dd9	c.or	x11,x14	 x11:0x99fbe000 x14:0x00000000 x11=0x99fbe000
     1416222000	     70709	80009dbe	0001	c.addi	x0,0	  x0:0x00000000  x0=0x00000000
     1416262000	     70711	80009dc0	ed81	c.bnez	x11,80009dd8	 x11:0x99fbe000
     1416502000	     70723	80009dd8	0001	c.addi	x0,0	  x0:0x00000000  x0=0x00000000
     1416602000	     70728	80009dda	036065b7	lui	x11,0x3606	 x11=0x03606000
     1416622000	     70729	80009dde	018fc3b3	xor	x7,x31,x24	 x31:0x00004000 x24:0x99fbe000  x7=0x99fba000
     1417402000	     70768	80009de2	10fc03b7	lui	x7,0x10fc0	  x7=0x10fc0000
     1417422000	     70769	80009de6	051f3f93	sltiu	x31,x30,81	 x30:0x02000877 x31=0x00000000
     1418182000	     70807	80009dea	6145	c.addi16sp	x2,48	  x2:0x80025ce6  x2=0x80025d16
     1418202000	     70808	80009dec	002768b3	or	x17,x14,x2	 x14:0x00000000  x2:0x80025d16 x17=0x80025d16
     1418242000	     70810	80009df0	0001	c.addi	x0,0	  x0:0x00000000  x0=0x00000000
     1418262000	     70811	80009df2	02118eb3	mul	x29,x3,x1	  x3:0x000002c0  x1:0x6e87b000 x29=0xf5240000
     1418302000	     70813	80009df6	0335cc63	blt	x11,x19,80009e2e	 x11:0x03606000 x19:0x00000000
     1419082000	     70852	80009dfa	0309f133	remu	x2,x19,x16	 x19:0x00000000 x16:0x0b0f0f0f  x2=0x00000000
     1419862000	     70891	80009dfe	08d73e93	sltiu	x29,x14,141	 x14:0x00000000 x29=0x00000001
     1419902000	     70893	80009e02	406bd4b3	sra	x9,x23,x6	 x23:0x80021df8  x6:0x80021824  x9=0xf80021df
     1419922000	     70894	80009e06	8609	c.srai	x12,0x2	 x12:0x00000009 x12=0x00000002
     1420682000	     70932	80009e08	f1407573	csrrci	x10,mhartid,0	 x10=0x00000000
     1421442000	     70970	80009e0c	00341093	slli	x1,x8,0x3	  x8:0x0001e000  x1=0x000f0000
     1421482000	     70972	80009e10	03612333	mulhsu	x6,x2,x22	  x2:0x00000000 x22:0x000005dc  x6=0x00000000
     1421502000	     70973	80009e14	03c28a33	mul	x20,x5,x28	  x5:0x80025ce4 x28:0x0001e000 x20=0x6e2b8000
     1421542000	     70975	80009e18	23beae93	slti	x29,x29,571	 x29:0x00000001 x29=0x00000001
     1421562000	     70976	80009e1c	7a102e73	csrrs	x28,tdata1,x0	  x0:0x00000000 x28=0x28001048
     1421602000	     70978	80009e20	0652	c.slli	x12,0x14	 x12:0x00000002 x12=0x00200000
     1421622000	     70979	80009e22	41250f33	sub	x30,x10,x18	 x10:0x00000000 x18:0x00000000 x30=0x00000000
     1422722000	     71034	80009e26	02ed7f33	remu	x30,x26,x14	 x26:0x00000000 x14:0x00000000 x30=0x00000000
     1422802000	     71038	80009e2a	0001	c.addi	x0,0	  x0:0x00000000  x0=0x00000000
     1422822000	     71039	80009e2c	0001	c.addi	x0,0	  x0:0x00000000  x0=0x00000000
     1422862000	     71041	80009e2e	030d91b3	mulh	x3,x27,x16	 x27:0x00000000 x16:0x0b0f0f0f  x3=0x00000000
     1423622000	     71079	80009e32	03985f33	divu	x30,x16,x25	 x16:0x0b0f0f0f x25:0x99fbe000 x30=0x00000000
     1428802000	     71338	80009e36	01921913	slli	x18,x4,0x19	  x4:0x00000006 x18=0x0c000000
     1428822000	     71339	80009e3a	8d2d	c.xor	x10,x11	 x10:0x00000000 x11:0x03606000 x10=0x03606000
     1428862000	     71341	80009e3c	8f385037	lui	x0,0x8f385	  x0=0x00000000
     1428942000	     71345	80009e40	0555c063	blt	x11,x21,80009e80	 x11:0x03606000 x21:0x0003ffff
     1429002000	     71348	80009e44	0182e5b3	or	x11,x5,x24	  x5:0x80025ce4 x24:0x99fbe000 x11=0x99fbfce4
     1429762000	     71386	80009e48	00d9df33	srl	x30,x19,x13	 x19:0x00000000 x13:0x02000877 x30=0x00000000
     1429782000	     71387	80009e4c	01db8333	add	x6,x23,x29	 x23:0x80021df8 x29:0x00000001  x6=0x80021df9
     1430542000	     71425	80009e50	0d002113	slti	x2,x0,208	  x0:0x00000000  x2=0x00000001
     1430562000	     71426	80009e54	09c50d93	addi	x27,x10,156	 x10:0x03606000 x27=0x0360609c
     1430582000	     71427	80009e58	00fa6c33	or	x24,x20,x15	 x20:0x6e2b8000 x15:0x00000000 x24=0x6e2b8000
     1430662000	     71431	80009e5c	8eb1	c.xor	x13,x12	 x13:0x02000877 x12:0x00200000 x13=0x02200877
     1430702000	     71433	80009e5e	14fd	c.addi	x9,-1	  x9:0xf80021df  x9=0xf80021de
     1430722000	     71434	80009e60	007114b3	sll	x9,x2,x7	  x2:0x00000001  x7:0x10fc0000  x9=0x00000001
     1430762000	     71436	80009e64	80c1	c.srli	x9,0x10	  x9:0x00000001  x9=0x00000000
     1430862000	     71441	80009e66	00082fb3	slt	x31,x16,x0	 x16:0x0b0f0f0f  x0:0x00000000 x31=0x00000000
     1430882000	     71442	80009e6a	41e25a13	srai	x20,x4,0x1e	  x4:0x00000006 x20=0x00000000
     1430962000	     71446	80009e6e	41108d33	sub	x26,x1,x17	  x1:0x000f0000 x17:0x80025d16 x26=0x800ca2ea
     1430982000	     71447	80009e72	846d	c.srai	x8,0x1b	  x8:0x0001e000  x8=0x00000000
     1431002000	     71448	80009e74	a7be3d93	sltiu	x27,x28,-1413	 x28:0x28001048 x27=0x00000001
     1431162000	     71456	80009e78	406c5693	srai	x13,x24,0x6	 x24:0x6e2b8000 x13=0x01b8ae00
     1431302000	     71463	80009e7c	0000100f	fence.i	
     1431682000	     71482	80009e80	b8a9bef3	csrrc	x29,mhpmcounter10h,x19	 x19:0x00000000 x29=0x00000000
     1432102000	     71503	80009e84	8c59	c.or	x8,x14	  x8:0x00000000 x14:0x00000000  x8=0x00000000
     1432142000	     71505	80009e86	06bd4463	blt	x26,x11,80009eee	 x26:0x800ca2ea x11:0x99fbfce4
     1432982000	     71547	80009eee	40ff8833	sub	x16,x31,x15	 x31:0x00000000 x15:0x00000000 x16=0x00000000
     1433742000	     71585	80009ef2	0a10	c.addi4spn	x12,x2,272	 x12=0x00000111
     1433762000	     71586	80009ef4	b8671473	csrrw	x8,mhpmcounter6h,x14	 x14:0x00000000  x8=0x00000000
     1433842000	     71590	80009ef8	def0b193	sltiu	x3,x1,-529	  x1:0x000f0000  x3=0x00000001
     1434642000	     71630	80009efc	0c08	c.addi4spn	x10,x2,528	 x10=0x00000211
     1434682000	     71632	80009efe	402b0633	sub	x12,x22,x2	 x22:0x000005dc  x2:0x00000001 x12=0x000005db
     1434702000	     71633	80009f02	4b2d	c.li	x22,11	 x22=0x0000000b
     1435462000	     71671	80009f04	023bf9b3	remu	x19,x23,x3	 x23:0x80021df8  x3:0x00000001 x19=0x00000000
     1435482000	     71672	80009f08	9db6	c.add	x27,x13	 x27:0x00000001 x13:0x01b8ae00 x27=0x01b8ae01
     1435502000	     71673	80009f0a	01d4dcb3	srl	x25,x9,x29	  x9:0x00000000 x29:0x00000000 x25=0x00000000
     1435562000	     71676	80009f0e	0347e763	bltu	x15,x20,80009f3c	 x15:0x00000000 x20:0x00000000
     1436042000	     71700	80009f12	0001	c.addi	x0,0	  x0:0x00000000  x0=0x00000000
     1436102000	     71703	80009f14	0001	c.addi	x0,0	  x0:0x00000000  x0=0x00000000
     1436122000	     71704	80009f16	40e25d13	srai	x26,x4,0xe	  x4:0x00000006 x26=0x00000000
     1436382000	     71717	80009f1a	3bf02573	csrrs	x10,pmpaddr15,x0	  x0:0x00000000 x10=0x20000d2e
     1436422000	     71719	80009f1e	00a25fb3	srl	x31,x4,x10	  x4:0x00000006 x10:0x20000d2e x31=0x00000000
     1437182000	     71757	80009f22	4130d613	srai	x12,x1,0x13	  x1:0x000f0000 x12=0x00000001
     1437922000	     71794	80009f26	0383cc33	div	x24,x7,x24	  x7:0x10fc0000 x24:0x6e2b8000 x24=0x00000000
     1437942000	     71795	80009f2a	01dccc33	xor	x24,x25,x29	 x25:0x00000000 x29:0x00000000 x24=0x00000000
     1439462000	     71871	80009f2e	02fb5433	divu	x8,x22,x15	 x22:0x0000000b x15:0x00000000  x8=0xffffffff
     1439482000	     71872	80009f32	b0603a73	csrrc	x20,mhpmcounter6,x0	  x0:0x00000000 x20=0x00000029
     1439502000	     71873	80009f36	0001	c.addi	x0,0	  x0:0x00000000  x0=0x00000000
     1440282000	     71912	80009f38	c59d	c.beqz	x11,80009f66	 x11:0x99fbfce4
     1440342000	     71915	80009f3a	8f71	c.and	x14,x12	 x14:0x00000000 x12:0x00000001 x14=0x00000000
     1440402000	     71918	80009f3c	01d40d63	beq	x8,x29,80009f56	  x8:0xffffffff x29:0x00000000
     1440462000	     71921	80009f40	55830113	addi	x2,x6,1368	  x6:0x80021df9  x2=0x80022351
     1440482000	     71922	80009f44	0159c0b3	xor	x1,x19,x21	 x19:0x00000000 x21:0x0003ffff  x1=0x0003ffff
     1440502000	     71923	80009f48	1490	c.addi4spn	x12,x2,608	 x12=0x800225b1
     1440542000	     71925	80009f4a	0d36	c.slli	x26,0xd	 x26:0x00000000 x26=0x00000000
     1440582000	     71927	80009f4c	41ba8ab3	sub	x21,x21,x27	 x21:0x0003ffff x27:0x01b8ae01 x21=0xfe4b51fe
     1440622000	     71929	80009f50	407fd013	srai	x0,x31,0x7	 x31:0x00000000  x0=0x00000000
     1440662000	     71931	80009f54	c2a1	c.beqz	x13,80009f94	 x13:0x01b8ae00
     1441602000	     71978	80009f56	02b158b3	divu	x17,x2,x11	  x2:0x80022351 x11:0x99fbfce4 x17=0x00000000
     1442362000	     72016	80009f5a	003f49b3	xor	x19,x30,x3	 x30:0x00000000  x3:0x00000001 x19=0x00000001
     1442382000	     72017	80009f5e	8d0d	c.sub	x10,x11	 x10:0x20000d2e x11:0x99fbfce4 x10=0x8604104a
     1442402000	     72018	80009f60	81d6	c.mv	x3,x21	  x0:0x00000000 x21:0xfe4b51fe  x3=0xfe4b51fe
     1442462000	     72021	80009f62	8f46	c.mv	x30,x17	  x0:0x00000000 x17:0x00000000 x30=0x00000000
     1442482000	     72022	80009f64	834d	c.srli	x14,0x13	 x14:0x00000000 x14=0x00000000
     1442542000	     72025	80009f66	014f1d63	bne	x30,x20,80009f80	 x30:0x00000000 x20:0x00000029
     1443002000	     72048	80009f80	00d29263	bne	x5,x13,80009f84	  x5:0x80025ce4 x13:0x01b8ae00
     1443582000	     72077	80009f84	00c6d613	srli	x12,x13,0xc	 x13:0x01b8ae00 x12=0x00001b8a
     1444162000	     72106	80009f88	717d	c.addi16sp	x2,-16	  x2:0x80022351  x2=0x80022341
     1444362000	     72116	80009f8a	f1402773	csrrs	x14,mhartid,x0	  x0:0x00000000 x14=0x00000000
     1444402000	     72118	80009f8e	8e5d	c.or	x12,x15	 x12:0x00001b8a x15:0x00000000 x12=0x00001b8a
     1444462000	     72121	80009f90	0287c463	blt	x15,x8,80009fb8	 x15:0x00000000  x8:0xffffffff
     1444522000	     72124	80009f94	025b91b3	mulh	x3,x23,x5	 x23:0x80021df8  x5:0x80025ce4  x3=0x3ffdc297
     1446122000	     72204	80009f98	033b7133	remu	x2,x22,x19	 x22:0x0000000b x19:0x00000001  x2=0x00000000
     1446142000	     72205	80009f9c	117d	c.addi	x2,-1	  x2:0x00000000  x2=0xffffffff
     1446182000	     72207	80009f9e	01b01093	slli	x1,x0,0x1b	  x0:0x00000000  x1=0x00000000
     1446222000	     72209	80009fa2	00175863	bge	x14,x1,80009fb2	 x14:0x00000000  x1:0x00000000
     1446742000	     72235	80009fb2	2c85ae13	slti	x28,x11,712	 x11:0x99fbfce4 x28=0x00000001
     1446762000	     72236	80009fb6	1c00	c.addi4spn	x8,x2,560	  x8=0x0000022f
     1447522000	     72274	80009fb8	8d59	c.or	x10,x14	 x10:0x8604104a x14:0x00000000 x10=0x8604104a
     1447562000	     72276	80009fba	0079c963	blt	x19,x7,80009fcc	 x19:0x00000001  x7:0x10fc0000
     1447662000	     72281	80009fcc	02624d63	blt	x4,x6,8000a006	  x4:0x00000006  x6:0x80021df9
     1448462000	     72321	80009fd0	99fd	c.andi	x11,-1	 x11:0x99fbfce4 x11=0x99fbfce4
     1448482000	     72322	80009fd2	8ee1	c.and	x13,x8	 x13:0x01b8ae00  x8:0x0000022f x13=0x00000200
     1448542000	     72325	80009fd4	02f89863	bne	x17,x15,8000a004	 x17:0x00000000 x15:0x00000000
     1448582000	     72327	80009fd8	01fbe533	or	x10,x23,x31	 x23:0x80021df8 x31:0x00000000 x10=0x80021df8
     1448602000	     72328	80009fdc	326021f3	csrrs	x3,mhpmevent6,x0	  x0:0x00000000  x3=0x00000008
     1449342000	     72365	80009fe0	63b1	c.lui	x7,0xc	  x7=0x0000c000
     1449402000	     72368	80009fe2	717d	c.addi16sp	x2,-16	  x2:0xffffffff  x2=0xffffffef
     1449462000	     72371	80009fe4	3a0061f3	csrrsi	x3,pmpcfg0,0	  x3=0x0f0f0f0f
     1450222000	     72409	80009fe8	f15e56f3	csrrwi	x0,0xf15,28	  x0=0x00000000
     1450322000	     72414	80002700	0800006f	jal	x0,80002780	  x0=0x00000000
     1451022000	     72449	80002780	12f1	c.addi	x5,-4	  x5:0x80025ce4  x5=0x80025ce0
     1451082000	     72452	80002782	0172a023	sw	x23,0(x5)	  x5:0x80025ce0 x23:0x80021df8 PA:0x80025ce0 store:0x80021df8 load:0xffffffff
     1451302000	     72463	80002786	00028bb3	add	x23,x5,x0	  x5:0x80025ce0  x0:0x00000000 x23=0x80025ce0
     1451682000	     72482	8000278a	f80b8b93	addi	x23,x23,-128	 x23:0x80025ce0 x23=0x80025c60
     1452142000	     72505	8000278e	001ba223	sw	x1,4(x23)	 x23:0x80025c60  x1:0x00000000 PA:0x80025c64 store:0x00000000 load:0xffffffff
     1452182000	     72507	80002792	002ba423	sw	x2,8(x23)	 x23:0x80025c60  x2:0xffffffef PA:0x80025c68 store:0xffffffef load:0xffffffff
     1452222000	     72509	80002796	003ba623	sw	x3,12(x23)	 x23:0x80025c60  x3:0x0f0f0f0f PA:0x80025c6c store:0x0f0f0f0f load:0xffffffff
     1452302000	     72513	8000279a	004ba823	sw	x4,16(x23)	 x23:0x80025c60  x4:0x00000006 PA:0x80025c70 store:0x00000006 load:0xffffffff
     1452342000	     72515	8000279e	005baa23	sw	x5,20(x23)	 x23:0x80025c60  x5:0x80025ce0 PA:0x80025c74 store:0x80025ce0 load:0xffffffff
     1452702000	     72533	800027a2	006bac23	sw	x6,24(x23)	 x23:0x80025c60  x6:0x80021df9 PA:0x80025c78 store:0x80021df9 load:0xffffffff
     1453122000	     72554	800027a6	007bae23	sw	x7,28(x23)	 x23:0x80025c60  x7:0x0000c000 PA:0x80025c7c store:0x0000c000 load:0xffffffff
     1453182000	     72557	800027aa	028ba023	sw	x8,32(x23)	 x23:0x80025c60  x8:0x0000022f PA:0x80025c80 store:0x0000022f load:0xffffffff
     1453982000	     72597	800027ae	029ba223	sw	x9,36(x23)	 x23:0x80025c60  x9:0x00000000 PA:0x80025c84 store:0x00000000 load:0xffffffff
     1454402000	     72618	800027b2	02aba423	sw	x10,40(x23)	 x23:0x80025c60 x10:0x80021df8 PA:0x80025c88 store:0x80021df8 load:0xffffffff
     1454682000	     72632	800027b6	02bba623	sw	x11,44(x23)	 x23:0x80025c60 x11:0x99fbfce4 PA:0x80025c8c store:0x99fbfce4 load:0xffffffff
     1455142000	     72655	800027ba	02cba823	sw	x12,48(x23)	 x23:0x80025c60 x12:0x00001b8a PA:0x80025c90 store:0x00001b8a load:0xffffffff
     1455202000	     72658	800027be	02dbaa23	sw	x13,52(x23)	 x23:0x80025c60 x13:0x00000200 PA:0x80025c94 store:0x00000200 load:0xffffffff
     1456222000	     72709	800027c2	02ebac23	sw	x14,56(x23)	 x23:0x80025c60 x14:0x00000000 PA:0x80025c98 store:0x00000000 load:0xffffffff
     1456382000	     72717	800027c6	02fbae23	sw	x15,60(x23)	 x23:0x80025c60 x15:0x00000000 PA:0x80025c9c store:0x00000000 load:0xffffffff
     1456842000	     72740	800027ca	050ba023	sw	x16,64(x23)	 x23:0x80025c60 x16:0x00000000 PA:0x80025ca0 store:0x00000000 load:0xffffffff
     1457282000	     72762	800027ce	051ba223	sw	x17,68(x23)	 x23:0x80025c60 x17:0x00000000 PA:0x80025ca4 store:0x00000000 load:0xffffffff
     1457342000	     72765	800027d2	052ba423	sw	x18,72(x23)	 x23:0x80025c60 x18:0x0c000000 PA:0x80025ca8 store:0x0c000000 load:0xffffffff
     1457542000	     72775	800027d6	053ba623	sw	x19,76(x23)	 x23:0x80025c60 x19:0x00000001 PA:0x80025cac store:0x00000001 load:0xffffffff
     1458522000	     72824	800027da	054ba823	sw	x20,80(x23)	 x23:0x80025c60 x20:0x00000029 PA:0x80025cb0 store:0x00000029 load:0xffffffff
     1458542000	     72825	800027de	055baa23	sw	x21,84(x23)	 x23:0x80025c60 x21:0xfe4b51fe PA:0x80025cb4 store:0xfe4b51fe load:0xffffffff
     1458582000	     72827	800027e2	056bac23	sw	x22,88(x23)	 x23:0x80025c60 x22:0x0000000b PA:0x80025cb8 store:0x0000000b load:0xffffffff
     1458622000	     72829	800027e6	057bae23	sw	x23,92(x23)	 x23:0x80025c60 x23:0x80025c60 PA:0x80025cbc store:0x80025c60 load:0xffffffff
     1458882000	     72842	800027ea	078ba023	sw	x24,96(x23)	 x23:0x80025c60 x24:0x00000000 PA:0x80025cc0 store:0x00000000 load:0xffffffff
     1458982000	     72847	800027ee	079ba223	sw	x25,100(x23)	 x23:0x80025c60 x25:0x00000000 PA:0x80025cc4 store:0x00000000 load:0xffffffff
     1459382000	     72867	800027f2	07aba423	sw	x26,104(x23)	 x23:0x80025c60 x26:0x00000000 PA:0x80025cc8 store:0x00000000 load:0xffffffff
     1460182000	     72907	800027f6	07bba623	sw	x27,108(x23)	 x23:0x80025c60 x27:0x01b8ae01 PA:0x80025ccc store:0x01b8ae01 load:0xffffffff
     1460402000	     72918	800027fa	07cba823	sw	x28,112(x23)	 x23:0x80025c60 x28:0x00000001 PA:0x80025cd0 store:0x00000001 load:0xffffffff
     1462342000	     73015	800027fe	07dbaa23	sw	x29,116(x23)	 x23:0x80025c60 x29:0x00000000 PA:0x80025cd4 store:0x00000000 load:0xffffffff
     1462802000	     73038	80002802	07ebac23	sw	x30,120(x23)	 x23:0x80025c60 x30:0x00000000 PA:0x80025cd8 store:0x00000000 load:0xffffffff
     1463042000	     73050	80002806	07fbae23	sw	x31,124(x23)	 x23:0x80025c60 x31:0x00000000 PA:0x80025cdc store:0x00000000 load:0xffffffff
     1463082000	     73052	8000280a	000b82b3	add	x5,x23,x0	 x23:0x80025c60  x0:0x00000000  x5=0x80025c60
     1463102000	     73053	8000280e	90000c37	lui	x24,0x90000	 x24=0x90000000
     1463142000	     73055	80002812	1c71	c.addi	x24,-4	 x24:0x90000000 x24=0x8ffffffc
     1463162000	     73056	80002814	4f21	c.li	x30,8	 x30=0x00000008
     1463202000	     73058	80002816	0f22	c.slli	x30,0x8	 x30:0x00000008 x30=0x00000800
     1463242000	     73060	80002818	000f0f13	addi	x30,x30,0	 x30:0x00000800 x30=0x00000800
     1463402000	     73068	8000281c	01ec2023	sw	x30,0(x24)	 x24:0x8ffffffc x30:0x00000800 PA:0x8ffffffc store:0x00000800 load:0xffffffff
     1463422000	     73069	80002820	34102f73	csrrs	x30,mepc,x0	  x0:0x00000000 x30=0x80009fe8
     1463442000	     73070	80002824	34202f73	csrrs	x30,mcause,x0	  x0:0x00000000 x30=0x00000002
     1464202000	     73108	80002828	4c0d	c.li	x24,3	 x24=0x00000003
     1464262000	     73111	8000282a	018f1463	bne	x30,x24,80002832	 x30:0x00000002 x24:0x00000003
     1464462000	     73121	80002832	4c21	c.li	x24,8	 x24=0x00000008
     1464802000	     73138	80002834	058f0d63	beq	x30,x24,8000288e	 x30:0x00000002 x24:0x00000008
     1464842000	     73140	80002838	4c25	c.li	x24,9	 x24=0x00000009
     1464882000	     73142	8000283a	058f0a63	beq	x30,x24,8000288e	 x30:0x00000002 x24:0x00000009
     1465302000	     73163	8000283e	4c2d	c.li	x24,11	 x24=0x0000000b
     1465602000	     73178	80002840	058f0763	beq	x30,x24,8000288e	 x30:0x00000002 x24:0x0000000b
     1465642000	     73180	80002844	4c05	c.li	x24,1	 x24=0x00000001
     1478582000	     73827	80002846	358f0363	beq	x30,x24,80002b8c	 x30:0x00000002 x24:0x00000001
     1478642000	     73830	8000284a	4c15	c.li	x24,5	 x24=0x00000005
     1478682000	     73832	8000284c	638f0a63	beq	x30,x24,80002e80	 x30:0x00000002 x24:0x00000005
     1478742000	     73835	80002850	4c1d	c.li	x24,7	 x24=0x00000007
     1478782000	     73837	80002852	158f0ce3	beq	x30,x24,800031aa	 x30:0x00000002 x24:0x00000007
     1478842000	     73840	80002856	4c31	c.li	x24,12	 x24=0x0000000c
     1478922000	     73844	80002858	018f1463	bne	x30,x24,80002860	 x30:0x00000002 x24:0x0000000c
     1479362000	     73866	80002860	4c35	c.li	x24,13	 x24=0x0000000d
     1479422000	     73869	80002862	018f1463	bne	x30,x24,8000286a	 x30:0x00000002 x24:0x0000000d
     1480422000	     73919	8000286a	4c3d	c.li	x24,15	 x24=0x0000000f
     1480462000	     73921	8000286c	018f1463	bne	x30,x24,80002874	 x30:0x00000002 x24:0x0000000f
     1480502000	     73923	80002874	4c09	c.li	x24,2	 x24=0x00000002
     1481182000	     73957	80002876	018f1463	bne	x30,x24,8000287e	 x30:0x00000002 x24:0x00000002
     1481242000	     73960	8000287a	3740906f	jal	x0,8000bbee	  x0=0x00000000
     1482582000	     74027	8000bbee	90000c37	lui	x24,0x90000	 x24=0x90000000
     1482622000	     74029	8000bbf2	1c71	c.addi	x24,-4	 x24:0x90000000 x24=0x8ffffffc
     1482642000	     74030	8000bbf4	4f29	c.li	x30,10	 x30=0x0000000a
     1482662000	     74031	8000bbf6	0f22	c.slli	x30,0x8	 x30:0x0000000a x30=0x00000a00
     1482702000	     74033	8000bbf8	000f0f13	addi	x30,x30,0	 x30:0x00000a00 x30=0x00000a00
     1482922000	     74044	8000bbfc	01ec2023	sw	x30,0(x24)	 x24:0x8ffffffc x30:0x00000a00 PA:0x8ffffffc store:0x00000a00 load:0xffffffff
     1482942000	     74045	8000bc00	90000c37	lui	x24,0x90000	 x24=0x90000000
     1482982000	     74047	8000bc04	1c71	c.addi	x24,-4	 x24:0x90000000 x24=0x8ffffffc
     1483002000	     74048	8000bc06	34200f13	addi	x30,x0,834	  x0:0x00000000 x30=0x00000342
     1483022000	     74049	8000bc0a	0f22	c.slli	x30,0x8	 x30:0x00000342 x30=0x00034200
     1483782000	     74087	8000bc0c	0f0d	c.addi	x30,3	 x30:0x00034200 x30=0x00034203
     1483922000	     74094	8000bc0e	01ec2023	sw	x30,0(x24)	 x24:0x8ffffffc x30:0x00034203 PA:0x8ffffffc store:0x00034203 load:0xffffffff
     1483942000	     74095	8000bc12	34202f73	csrrs	x30,mcause,x0	  x0:0x00000000 x30=0x00000002
     1484022000	     74099	8000bc16	01ec2023	sw	x30,0(x24)	 x24:0x8ffffffc x30:0x00000002 PA:0x8ffffffc store:0x00000002 load:0xffffffff
     1484042000	     74100	8000bc1a	34102f73	csrrs	x30,mepc,x0	  x0:0x00000000 x30=0x80009fe8
     1484102000	     74103	8000bc1e	0f11	c.addi	x30,4	 x30:0x80009fe8 x30=0x80009fec
     1484142000	     74105	8000bc20	341f1073	csrrw	x0,mepc,x30	 x30:0x80009fec  x0=0x00000000
     1484302000	     74113	8000bc24	00028bb3	add	x23,x5,x0	  x5:0x80025c60  x0:0x00000000 x23=0x80025c60
     1484682000	     74132	8000bc28	004ba083	lw	x1,4(x23)	 x23:0x80025c60  x1=0x00000000 PA:0x80025c64 load:0x00000000
     1484822000	     74139	8000bc2c	008ba103	lw	x2,8(x23)	 x23:0x80025c60  x2=0xffffffef PA:0x80025c68 load:0xffffffef
     1485062000	     74151	8000bc30	00cba183	lw	x3,12(x23)	 x23:0x80025c60  x3=0x0f0f0f0f PA:0x80025c6c load:0x0f0f0f0f
     1485982000	     74197	8000bc34	010ba203	lw	x4,16(x23)	 x23:0x80025c60  x4=0x00000006 PA:0x80025c70 load:0x00000006
     1486462000	     74221	8000bc38	014ba283	lw	x5,20(x23)	 x23:0x80025c60  x5=0x80025ce0 PA:0x80025c74 load:0x80025ce0
     1486622000	     74229	8000bc3c	018ba303	lw	x6,24(x23)	 x23:0x80025c60  x6=0x80021df9 PA:0x80025c78 load:0x80021df9
     1486942000	     74245	8000bc40	01cba383	lw	x7,28(x23)	 x23:0x80025c60  x7=0x0000c000 PA:0x80025c7c load:0x0000c000
     1487082000	     74252	8000bc44	020ba403	lw	x8,32(x23)	 x23:0x80025c60  x8=0x0000022f PA:0x80025c80 load:0x0000022f
     1487162000	     74256	8000bc48	024ba483	lw	x9,36(x23)	 x23:0x80025c60  x9=0x00000000 PA:0x80025c84 load:0x00000000
     1487182000	     74257	8000bc4c	028ba503	lw	x10,40(x23)	 x23:0x80025c60 x10=0x80021df8 PA:0x80025c88 load:0x80021df8
     1487282000	     74262	8000bc50	02cba583	lw	x11,44(x23)	 x23:0x80025c60 x11=0x99fbfce4 PA:0x80025c8c load:0x99fbfce4
     1487362000	     74266	8000bc54	030ba603	lw	x12,48(x23)	 x23:0x80025c60 x12=0x00001b8a PA:0x80025c90 load:0x00001b8a
     1487382000	     74267	8000bc58	034ba683	lw	x13,52(x23)	 x23:0x80025c60 x13=0x00000200 PA:0x80025c94 load:0x00000200
     1487802000	     74288	8000bc5c	038ba703	lw	x14,56(x23)	 x23:0x80025c60 x14=0x00000000 PA:0x80025c98 load:0x00000000
     1487882000	     74292	8000bc60	03cba783	lw	x15,60(x23)	 x23:0x80025c60 x15=0x00000000 PA:0x80025c9c load:0x00000000
     1488202000	     74308	8000bc64	040ba803	lw	x16,64(x23)	 x23:0x80025c60 x16=0x00000000 PA:0x80025ca0 load:0x00000000
     1488482000	     74322	8000bc68	044ba883	lw	x17,68(x23)	 x23:0x80025c60 x17=0x00000000 PA:0x80025ca4 load:0x00000000
     1489282000	     74362	8000bc6c	048ba903	lw	x18,72(x23)	 x23:0x80025c60 x18=0x0c000000 PA:0x80025ca8 load:0x0c000000
     1489702000	     74383	8000bc70	04cba983	lw	x19,76(x23)	 x23:0x80025c60 x19=0x00000001 PA:0x80025cac load:0x00000001
     1489762000	     74386	8000bc74	050baa03	lw	x20,80(x23)	 x23:0x80025c60 x20=0x00000029 PA:0x80025cb0 load:0x00000029
     1490582000	     74427	8000bc78	054baa83	lw	x21,84(x23)	 x23:0x80025c60 x21=0xfe4b51fe PA:0x80025cb4 load:0xfe4b51fe
     1490722000	     74434	8000bc7c	058bab03	lw	x22,88(x23)	 x23:0x80025c60 x22=0x0000000b PA:0x80025cb8 load:0x0000000b
     1491362000	     74466	8000bc80	05cbab83	lw	x23,92(x23)	 x23:0x80025c60 x23=0x80025c60 PA:0x80025cbc load:0x80025c60
     1492162000	     74506	8000bc84	060bac03	lw	x24,96(x23)	 x23:0x80025c60 x24=0x00000000 PA:0x80025cc0 load:0x00000000
     1492442000	     74520	8000bc88	064bac83	lw	x25,100(x23)	 x23:0x80025c60 x25=0x00000000 PA:0x80025cc4 load:0x00000000
     1492522000	     74524	8000bc8c	068bad03	lw	x26,104(x23)	 x23:0x80025c60 x26=0x00000000 PA:0x80025cc8 load:0x00000000
     1492602000	     74528	8000bc90	06cbad83	lw	x27,108(x23)	 x23:0x80025c60 x27=0x01b8ae01 PA:0x80025ccc load:0x01b8ae01
     1492802000	     74538	8000bc94	070bae03	lw	x28,112(x23)	 x23:0x80025c60 x28=0x00000001 PA:0x80025cd0 load:0x00000001
     1493602000	     74578	8000bc98	074bae83	lw	x29,116(x23)	 x23:0x80025c60 x29=0x00000000 PA:0x80025cd4 load:0x00000000
     1493622000	     74579	8000bc9c	078baf03	lw	x30,120(x23)	 x23:0x80025c60 x30=0x00000000 PA:0x80025cd8 load:0x00000000
     1493662000	     74581	8000bca0	07cbaf83	lw	x31,124(x23)	 x23:0x80025c60 x31=0x00000000 PA:0x80025cdc load:0x00000000
     1493682000	     74582	8000bca4	080b8b93	addi	x23,x23,128	 x23:0x80025c60 x23=0x80025ce0
     1493702000	     74583	8000bca8	000b82b3	add	x5,x23,x0	 x23:0x80025ce0  x0:0x00000000  x5=0x80025ce0
     1494182000	     74607	8000bcac	0002ab83	lw	x23,0(x5)	  x5:0x80025ce0 x23=0x80021df8 PA:0x80025ce0 load:0x80021df8
     1494202000	     74608	8000bcb0	0291	c.addi	x5,4	  x5:0x80025ce0  x5=0x80025ce4
     1494242000	     74610	8000bcb2	30200073	mret	
     1495062000	     74651	80009fec	02f58c63	beq	x11,x15,8000a024	 x11:0x99fbfce4 x15:0x00000000
     1495122000	     74654	80009ff0	0153d663	bge	x7,x21,80009ffc	  x7:0x0000c000 x21:0xfe4b51fe
     1495162000	     74656	80009ffc	5037cf13	xori	x30,x15,1283	 x15:0x00000000 x30=0x00000503
     1495802000	     74688	8000a000	527d	c.li	x4,-1	  x4=0xffffffff
     1496562000	     74726	8000a002	8e3d	c.xor	x12,x15	 x12:0x00001b8a x15:0x00000000 x12=0x00001b8a
     1496582000	     74727	8000a004	0b88	c.addi4spn	x10,x2,464	 x10=0x000001bf
     1496622000	     74729	8000a006	0001	c.addi	x0,0	  x0:0x00000000  x0=0x00000000
     1497382000	     74767	8000a008	00c101b3	add	x3,x2,x12	  x2:0xffffffef x12:0x00001b8a  x3=0x00001b79
     1497402000	     74768	8000a00c	15569a37	lui	x20,0x15569	 x20=0x15569000
     1497442000	     74770	8000a010	8f0d	c.sub	x14,x11	 x14:0x00000000 x11:0x99fbfce4 x14=0x6604031c
     1498202000	     74808	8000a012	0324e433	rem	x8,x9,x18	  x9:0x00000000 x18:0x0c000000  x8=0x00000000
     1498242000	     74810	8000a016	03d5dd63	bge	x11,x29,8000a050	 x11:0x99fbfce4 x29:0x00000000
     1498302000	     74813	8000a01a	419e5e93	srai	x29,x28,0x19	 x28:0x00000001 x29=0x00000000
     1498362000	     74816	8000a01e	c59d	c.beqz	x11,8000a04c	 x11:0x99fbfce4
     1498442000	     74820	8000a020	c10d	c.beqz	x10,8000a042	 x10:0x000001bf
     1498502000	     74823	8000a022	80b9	c.srli	x9,0xe	  x9:0x00000000  x9=0x00000000
     1498542000	     74825	8000a024	00789d63	bne	x17,x7,8000a03e	 x17:0x00000000  x7:0x0000c000
     1499042000	     74850	8000a03e	0378b533	mulhu	x10,x17,x23	 x17:0x00000000 x23:0x80021df8 x10=0x00000000
     1499082000	     74852	8000a042	c129	c.beqz	x10,8000a084	 x10:0x00000000
     1500062000	     74901	8000a084	01eaf1b3	and	x3,x21,x30	 x21:0xfe4b51fe x30:0x00000503  x3=0x00000102
     1500102000	     74903	8000a088	f14c5473	csrrwi	x0,mhartid,24	  x0=0x00000000
     1500162000	     74906	80002700	0800006f	jal	x0,80002780	  x0=0x00000000
     1500242000	     74910	80002780	12f1	c.addi	x5,-4	  x5:0x80025ce4  x5=0x80025ce0
     1500342000	     74915	80002782	0172a023	sw	x23,0(x5)	  x5:0x80025ce0 x23:0x80021df8 PA:0x80025ce0 store:0x80021df8 load:0xffffffff
     1500382000	     74917	80002786	00028bb3	add	x23,x5,x0	  x5:0x80025ce0  x0:0x00000000 x23=0x80025ce0
     1500402000	     74918	8000278a	f80b8b93	addi	x23,x23,-128	 x23:0x80025ce0 x23=0x80025c60
     1500542000	     74925	8000278e	001ba223	sw	x1,4(x23)	 x23:0x80025c60  x1:0x00000000 PA:0x80025c64 store:0x00000000 load:0xffffffff
     1500582000	     74927	80002792	002ba423	sw	x2,8(x23)	 x23:0x80025c60  x2:0xffffffef PA:0x80025c68 store:0xffffffef load:0xffffffff
     1501022000	     74949	80002796	003ba623	sw	x3,12(x23)	 x23:0x80025c60  x3:0x00000102 PA:0x80025c6c store:0x00000102 load:0xffffffff
     1501082000	     74952	8000279a	004ba823	sw	x4,16(x23)	 x23:0x80025c60  x4:0xffffffff PA:0x80025c70 store:0xffffffff load:0xffffffff
     1501902000	     74993	8000279e	005baa23	sw	x5,20(x23)	 x23:0x80025c60  x5:0x80025ce0 PA:0x80025c74 store:0x80025ce0 load:0xffffffff
     1501922000	     74994	800027a2	006bac23	sw	x6,24(x23)	 x23:0x80025c60  x6:0x80021df9 PA:0x80025c78 store:0x80021df9 load:0xffffffff
     1501962000	     74996	800027a6	007bae23	sw	x7,28(x23)	 x23:0x80025c60  x7:0x0000c000 PA:0x80025c7c store:0x0000c000 load:0xffffffff
     1502102000	     75003	800027aa	028ba023	sw	x8,32(x23)	 x23:0x80025c60  x8:0x00000000 PA:0x80025c80 store:0x00000000 load:0xffffffff
     1502242000	     75010	800027ae	029ba223	sw	x9,36(x23)	 x23:0x80025c60  x9:0x00000000 PA:0x80025c84 store:0x00000000 load:0xffffffff
     1502282000	     75012	800027b2	02aba423	sw	x10,40(x23)	 x23:0x80025c60 x10:0x00000000 PA:0x80025c88 store:0x00000000 load:0xffffffff
     1502642000	     75030	800027b6	02bba623	sw	x11,44(x23)	 x23:0x80025c60 x11:0x99fbfce4 PA:0x80025c8c store:0x99fbfce4 load:0xffffffff
     1502722000	     75034	800027ba	02cba823	sw	x12,48(x23)	 x23:0x80025c60 x12:0x00001b8a PA:0x80025c90 store:0x00001b8a load:0xffffffff
     1502762000	     75036	800027be	02dbaa23	sw	x13,52(x23)	 x23:0x80025c60 x13:0x00000200 PA:0x80025c94 store:0x00000200 load:0xffffffff
     1502862000	     75041	800027c2	02ebac23	sw	x14,56(x23)	 x23:0x80025c60 x14:0x6604031c PA:0x80025c98 store:0x6604031c load:0xffffffff
     1502882000	     75042	800027c6	02fbae23	sw	x15,60(x23)	 x23:0x80025c60 x15:0x00000000 PA:0x80025c9c store:0x00000000 load:0xffffffff
     1502902000	     75043	800027ca	050ba023	sw	x16,64(x23)	 x23:0x80025c60 x16:0x00000000 PA:0x80025ca0 store:0x00000000 load:0xffffffff
     1502942000	     75045	800027ce	051ba223	sw	x17,68(x23)	 x23:0x80025c60 x17:0x00000000 PA:0x80025ca4 store:0x00000000 load:0xffffffff
     1503162000	     75056	800027d2	052ba423	sw	x18,72(x23)	 x23:0x80025c60 x18:0x0c000000 PA:0x80025ca8 store:0x0c000000 load:0xffffffff
     1503282000	     75062	800027d6	053ba623	sw	x19,76(x23)	 x23:0x80025c60 x19:0x00000001 PA:0x80025cac store:0x00000001 load:0xffffffff
     1504082000	     75102	800027da	054ba823	sw	x20,80(x23)	 x23:0x80025c60 x20:0x15569000 PA:0x80025cb0 store:0x15569000 load:0xffffffff
     1504422000	     75119	800027de	055baa23	sw	x21,84(x23)	 x23:0x80025c60 x21:0xfe4b51fe PA:0x80025cb4 store:0xfe4b51fe load:0xffffffff
     1504502000	     75123	800027e2	056bac23	sw	x22,88(x23)	 x23:0x80025c60 x22:0x0000000b PA:0x80025cb8 store:0x0000000b load:0xffffffff
     1504622000	     75129	800027e6	057bae23	sw	x23,92(x23)	 x23:0x80025c60 x23:0x80025c60 PA:0x80025cbc store:0x80025c60 load:0xffffffff
     1504902000	     75143	800027ea	078ba023	sw	x24,96(x23)	 x23:0x80025c60 x24:0x00000000 PA:0x80025cc0 store:0x00000000 load:0xffffffff
     1506102000	     75203	800027ee	079ba223	sw	x25,100(x23)	 x23:0x80025c60 x25:0x00000000 PA:0x80025cc4 store:0x00000000 load:0xffffffff
     1506582000	     75227	800027f2	07aba423	sw	x26,104(x23)	 x23:0x80025c60 x26:0x00000000 PA:0x80025cc8 store:0x00000000 load:0xffffffff
     1506882000	     75242	800027f6	07bba623	sw	x27,108(x23)	 x23:0x80025c60 x27:0x01b8ae01 PA:0x80025ccc store:0x01b8ae01 load:0xffffffff
     1507502000	     75273	800027fa	07cba823	sw	x28,112(x23)	 x23:0x80025c60 x28:0x00000001 PA:0x80025cd0 store:0x00000001 load:0xffffffff
     1507962000	     75296	800027fe	07dbaa23	sw	x29,116(x23)	 x23:0x80025c60 x29:0x00000000 PA:0x80025cd4 store:0x00000000 load:0xffffffff
     1509162000	     75356	80002802	07ebac23	sw	x30,120(x23)	 x23:0x80025c60 x30:0x00000503 PA:0x80025cd8 store:0x00000503 load:0xffffffff
     1509622000	     75379	80002806	07fbae23	sw	x31,124(x23)	 x23:0x80025c60 x31:0x00000000 PA:0x80025cdc store:0x00000000 load:0xffffffff
     1509642000	     75380	8000280a	000b82b3	add	x5,x23,x0	 x23:0x80025c60  x0:0x00000000  x5=0x80025c60
     1509682000	     75382	8000280e	90000c37	lui	x24,0x90000	 x24=0x90000000
     1509702000	     75383	80002812	1c71	c.addi	x24,-4	 x24:0x90000000 x24=0x8ffffffc
     1509742000	     75385	80002814	4f21	c.li	x30,8	 x30=0x00000008
     1509762000	     75386	80002816	0f22	c.slli	x30,0x8	 x30:0x00000008 x30=0x00000800
     1510522000	     75424	80002818	000f0f13	addi	x30,x30,0	 x30:0x00000800 x30=0x00000800
     1511742000	     75485	8000281c	01ec2023	sw	x30,0(x24)	 x24:0x8ffffffc x30:0x00000800 PA:0x8ffffffc store:0x00000800 load:0xffffffff
     1511762000	     75486	80002820	34102f73	csrrs	x30,mepc,x0	  x0:0x00000000 x30=0x8000a088
     1521522000	     75974	80002824	34202f73	csrrs	x30,mcause,x0	  x0:0x00000000 x30=0x00000002
     1521542000	     75975	80002828	4c0d	c.li	x24,3	 x24=0x00000003
     1521582000	     75977	8000282a	018f1463	bne	x30,x24,80002832	 x30:0x00000002 x24:0x00000003
     1521642000	     75980	80002832	4c21	c.li	x24,8	 x24=0x00000008
     1521682000	     75982	80002834	058f0d63	beq	x30,x24,8000288e	 x30:0x00000002 x24:0x00000008
     1521722000	     75984	80002838	4c25	c.li	x24,9	 x24=0x00000009
     1521782000	     75987	8000283a	058f0a63	beq	x30,x24,8000288e	 x30:0x00000002 x24:0x00000009
     1521822000	     75989	8000283e	4c2d	c.li	x24,11	 x24=0x0000000b
     1521882000	     75992	80002840	058f0763	beq	x30,x24,8000288e	 x30:0x00000002 x24:0x0000000b
     1521942000	     75995	80002844	4c05	c.li	x24,1	 x24=0x00000001
     1522742000	     76035	80002846	358f0363	beq	x30,x24,80002b8c	 x30:0x00000002 x24:0x00000001
     1522822000	     76039	8000284a	4c15	c.li	x24,5	 x24=0x00000005
     1522862000	     76041	8000284c	638f0a63	beq	x30,x24,80002e80	 x30:0x00000002 x24:0x00000005
     1522922000	     76044	80002850	4c1d	c.li	x24,7	 x24=0x00000007
     1523722000	     76084	80002852	158f0ce3	beq	x30,x24,800031aa	 x30:0x00000002 x24:0x00000007
     1523762000	     76086	80002856	4c31	c.li	x24,12	 x24=0x0000000c
     1523842000	     76090	80002858	018f1463	bne	x30,x24,80002860	 x30:0x00000002 x24:0x0000000c
     1523902000	     76093	80002860	4c35	c.li	x24,13	 x24=0x0000000d
     1523942000	     76095	80002862	018f1463	bne	x30,x24,8000286a	 x30:0x00000002 x24:0x0000000d
     1524002000	     76098	8000286a	4c3d	c.li	x24,15	 x24=0x0000000f
     1524042000	     76100	8000286c	018f1463	bne	x30,x24,80002874	 x30:0x00000002 x24:0x0000000f
     1524102000	     76103	80002874	4c09	c.li	x24,2	 x24=0x00000002
     1524142000	     76105	80002876	018f1463	bne	x30,x24,8000287e	 x30:0x00000002 x24:0x00000002
     1524202000	     76108	8000287a	3740906f	jal	x0,8000bbee	  x0=0x00000000
     1524282000	     76112	8000bbee	90000c37	lui	x24,0x90000	 x24=0x90000000
     1525042000	     76150	8000bbf2	1c71	c.addi	x24,-4	 x24:0x90000000 x24=0x8ffffffc
     1525062000	     76151	8000bbf4	4f29	c.li	x30,10	 x30=0x0000000a
     1525082000	     76152	8000bbf6	0f22	c.slli	x30,0x8	 x30:0x0000000a x30=0x00000a00
     1525142000	     76155	8000bbf8	000f0f13	addi	x30,x30,0	 x30:0x00000a00 x30=0x00000a00
     1525682000	     76182	8000bbfc	01ec2023	sw	x30,0(x24)	 x24:0x8ffffffc x30:0x00000a00 PA:0x8ffffffc store:0x00000a00 load:0xffffffff
     1525742000	     76185	8000bc00	90000c37	lui	x24,0x90000	 x24=0x90000000
     1525782000	     76187	8000bc04	1c71	c.addi	x24,-4	 x24:0x90000000 x24=0x8ffffffc
     1525802000	     76188	8000bc06	34200f13	addi	x30,x0,834	  x0:0x00000000 x30=0x00000342
     1525842000	     76190	8000bc0a	0f22	c.slli	x30,0x8	 x30:0x00000342 x30=0x00034200
     1525882000	     76192	8000bc0c	0f0d	c.addi	x30,3	 x30:0x00034200 x30=0x00034203
     1526242000	     76210	8000bc0e	01ec2023	sw	x30,0(x24)	 x24:0x8ffffffc x30:0x00034203 PA:0x8ffffffc store:0x00034203 load:0xffffffff
     1526262000	     76211	8000bc12	34202f73	csrrs	x30,mcause,x0	  x0:0x00000000 x30=0x00000002
     1527062000	     76251	8000bc16	01ec2023	sw	x30,0(x24)	 x24:0x8ffffffc x30:0x00000002 PA:0x8ffffffc store:0x00000002 load:0xffffffff
     1527082000	     76252	8000bc1a	34102f73	csrrs	x30,mepc,x0	  x0:0x00000000 x30=0x8000a088
     1527122000	     76254	8000bc1e	0f11	c.addi	x30,4	 x30:0x8000a088 x30=0x8000a08c
     1527162000	     76256	8000bc20	341f1073	csrrw	x0,mepc,x30	 x30:0x8000a08c  x0=0x00000000
     1527182000	     76257	8000bc24	00028bb3	add	x23,x5,x0	  x5:0x80025c60  x0:0x00000000 x23=0x80025c60
     1527282000	     76262	8000bc28	004ba083	lw	x1,4(x23)	 x23:0x80025c60  x1=0x00000000 PA:0x80025c64 load:0x00000000
     1527742000	     76285	8000bc2c	008ba103	lw	x2,8(x23)	 x23:0x80025c60  x2=0xffffffef PA:0x80025c68 load:0xffffffef
     1527962000	     76296	8000bc30	00cba183	lw	x3,12(x23)	 x23:0x80025c60  x3=0x00000102 PA:0x80025c6c load:0x00000102
     1528042000	     76300	8000bc34	010ba203	lw	x4,16(x23)	 x23:0x80025c60  x4=0xffffffff PA:0x80025c70 load:0xffffffff
     1528062000	     76301	8000bc38	014ba283	lw	x5,20(x23)	 x23:0x80025c60  x5=0x80025ce0 PA:0x80025c74 load:0x80025ce0
     1529782000	     76387	8000bc3c	018ba303	lw	x6,24(x23)	 x23:0x80025c60  x6=0x80021df9 PA:0x80025c78 load:0x80021df9
     1529962000	     76396	8000bc40	01cba383	lw	x7,28(x23)	 x23:0x80025c60  x7=0x0000c000 PA:0x80025c7c load:0x0000c000
     1530022000	     76399	8000bc44	020ba403	lw	x8,32(x23)	 x23:0x80025c60  x8=0x00000000 PA:0x80025c80 load:0x00000000
     1530322000	     76414	8000bc48	024ba483	lw	x9,36(x23)	 x23:0x80025c60  x9=0x00000000 PA:0x80025c84 load:0x00000000
     1530582000	     76427	8000bc4c	028ba503	lw	x10,40(x23)	 x23:0x80025c60 x10=0x00000000 PA:0x80025c88 load:0x00000000
     1530862000	     76441	8000bc50	02cba583	lw	x11,44(x23)	 x23:0x80025c60 x11=0x99fbfce4 PA:0x80025c8c load:0x99fbfce4
     1530882000	     76442	8000bc54	030ba603	lw	x12,48(x23)	 x23:0x80025c60 x12=0x00001b8a PA:0x80025c90 load:0x00001b8a
     1530922000	     76444	8000bc58	034ba683	lw	x13,52(x23)	 x23:0x80025c60 x13=0x00000200 PA:0x80025c94 load:0x00000200
     1531722000	     76484	8000bc5c	038ba703	lw	x14,56(x23)	 x23:0x80025c60 x14=0x6604031c PA:0x80025c98 load:0x6604031c
     1533602000	     76578	8000bc60	03cba783	lw	x15,60(x23)	 x23:0x80025c60 x15=0x00000000 PA:0x80025c9c load:0x00000000
     1533882000	     76592	8000bc64	040ba803	lw	x16,64(x23)	 x23:0x80025c60 x16=0x00000000 PA:0x80025ca0 load:0x00000000
     1534122000	     76604	8000bc68	044ba883	lw	x17,68(x23)	 x23:0x80025c60 x17=0x00000000 PA:0x80025ca4 load:0x00000000
     1534202000	     76608	8000bc6c	048ba903	lw	x18,72(x23)	 x23:0x80025c60 x18=0x0c000000 PA:0x80025ca8 load:0x0c000000
     1534382000	     76617	8000bc70	04cba983	lw	x19,76(x23)	 x23:0x80025c60 x19=0x00000001 PA:0x80025cac load:0x00000001
     1534682000	     76632	8000bc74	050baa03	lw	x20,80(x23)	 x23:0x80025c60 x20=0x15569000 PA:0x80025cb0 load:0x15569000
     1534922000	     76644	8000bc78	054baa83	lw	x21,84(x23)	 x23:0x80025c60 x21=0xfe4b51fe PA:0x80025cb4 load:0xfe4b51fe
     1535582000	     76677	8000bc7c	058bab03	lw	x22,88(x23)	 x23:0x80025c60 x22=0x0000000b PA:0x80025cb8 load:0x0000000b
     1535642000	     76680	8000bc80	05cbab83	lw	x23,92(x23)	 x23:0x80025c60 x23=0x80025c60 PA:0x80025cbc load:0x80025c60
     1535682000	     76682	8000bc84	060bac03	lw	x24,96(x23)	 x23:0x80025c60 x24=0x00000000 PA:0x80025cc0 load:0x00000000
     1536482000	     76722	8000bc88	064bac83	lw	x25,100(x23)	 x23:0x80025c60 x25=0x00000000 PA:0x80025cc4 load:0x00000000
     1536622000	     76729	8000bc8c	068bad03	lw	x26,104(x23)	 x23:0x80025c60 x26=0x00000000 PA:0x80025cc8 load:0x00000000
     1536822000	     76739	8000bc90	06cbad83	lw	x27,108(x23)	 x23:0x80025c60 x27=0x01b8ae01 PA:0x80025ccc load:0x01b8ae01
     1536842000	     76740	8000bc94	070bae03	lw	x28,112(x23)	 x23:0x80025c60 x28=0x00000001 PA:0x80025cd0 load:0x00000001
     1537642000	     76780	8000bc98	074bae83	lw	x29,116(x23)	 x23:0x80025c60 x29=0x00000000 PA:0x80025cd4 load:0x00000000
     1537662000	     76781	8000bc9c	078baf03	lw	x30,120(x23)	 x23:0x80025c60 x30=0x00000503 PA:0x80025cd8 load:0x00000503
     1537682000	     76782	8000bca0	07cbaf83	lw	x31,124(x23)	 x23:0x80025c60 x31=0x00000000 PA:0x80025cdc load:0x00000000
     1537742000	     76785	8000bca4	080b8b93	addi	x23,x23,128	 x23:0x80025c60 x23=0x80025ce0
     1537762000	     76786	8000bca8	000b82b3	add	x5,x23,x0	 x23:0x80025ce0  x0:0x00000000  x5=0x80025ce0
     1537902000	     76793	8000bcac	0002ab83	lw	x23,0(x5)	  x5:0x80025ce0 x23=0x80021df8 PA:0x80025ce0 load:0x80021df8
     1537942000	     76795	8000bcb0	0291	c.addi	x5,4	  x5:0x80025ce0  x5=0x80025ce4
     1537962000	     76796	8000bcb2	30200073	mret	
     1538042000	     76800	8000a08c	001ec6b3	xor	x13,x29,x1	 x29:0x00000000  x1:0x00000000 x13=0x00000000
     1538062000	     76801	8000a090	00298333	add	x6,x19,x2	 x19:0x00000001  x2:0xffffffef  x6=0xfffffff0
     1538122000	     76804	8000a094	8e4d	c.or	x12,x11	 x12:0x00001b8a x11:0x99fbfce4 x12=0x99fbffee
     1539342000	     76865	8000a096	039743b3	div	x7,x14,x25	 x14:0x6604031c x25:0x00000000  x7=0xffffffff
     1539362000	     76866	8000a09a	50fd	c.li	x1,-1	  x1=0xffffffff
     1540122000	     76904	8000a09c	0044c533	xor	x10,x9,x4	  x9:0x00000000  x4:0xffffffff x10=0xffffffff
     1540862000	     76941	8000a0a0	0329e833	rem	x16,x19,x18	 x19:0x00000001 x18:0x0c000000 x16=0x00000001
     1540882000	     76942	8000a0a4	1ca9c437	lui	x8,0x1ca9c	  x8=0x1ca9c000
     1541662000	     76981	8000a0a8	02a02733	mulhsu	x14,x0,x10	  x0:0x00000000 x10:0xffffffff x14=0x00000000
     1541682000	     76982	8000a0ac	40a65a33	sra	x20,x12,x10	 x12:0x99fbffee x10:0xffffffff x20=0xffffffff
     1542442000	     77020	8000a0b0	d941f593	andi	x11,x3,-620	  x3:0x00000102 x11=0x00000100
     1542462000	     77021	8000a0b4	008a5d93	srli	x27,x20,0x8	 x20:0xffffffff x27=0x00ffffff
     1543242000	     77060	8000a0b8	0001	c.addi	x0,0	  x0:0x00000000  x0=0x00000000
     1543262000	     77061	8000a0ba	00d37933	and	x18,x6,x13	  x6:0xfffffff0 x13:0x00000000 x18=0x00000000
     1543302000	     77063	8000a0be	de293413	sltiu	x8,x18,-542	 x18:0x00000000  x8=0x00000001
     1543322000	     77064	8000a0c2	0001	c.addi	x0,0	  x0:0x00000000  x0=0x00000000
     1543342000	     77065	8000a0c4	07eb8013	addi	x0,x23,126	 x23:0x80021df8  x0=0x00000000
     1543382000	     77067	8000a0c8	82bd	c.srli	x13,0xf	 x13:0x00000000 x13=0x00000000
     1543422000	     77069	8000a0ca	c689	c.beqz	x13,8000a0d4	 x13:0x00000000
     1543482000	     77072	8000a0d4	02af5963	bge	x30,x10,8000a106	 x30:0x00000503 x10:0xffffffff
     1545002000	     77148	8000a106	044fb493	sltiu	x9,x31,68	 x31:0x00000000  x9=0x00000001
     1545022000	     77149	8000a10a	41db8133	sub	x2,x23,x29	 x23:0x80021df8 x29:0x00000000  x2=0x80021df8
     1545222000	     77159	8000a10e	3f11b4b7	lui	x9,0x3f11b	  x9=0x3f11b000
     1545642000	     77180	8000a112	34175cf3	csrrwi	x25,mepc,14	 x25=0x8000a08c
     1545682000	     77182	8000a116	01de	c.slli	x3,0x17	  x3:0x00000102  x3=0x81000000
     1545722000	     77184	8000a118	b8ab9df3	csrrw	x27,mhpmcounter10h,x23	 x23:0x80021df8 x27=0x00000000
     1545822000	     77189	8000a11c	00044963	blt	x8,x0,8000a12e	  x8:0x00000001  x0:0x00000000
     1546342000	     77215	8000a120	808d	c.srli	x9,0x3	  x9:0x3f11b000  x9=0x07e23600
     1547222000	     77259	8000a122	0335e5b3	rem	x11,x11,x19	 x11:0x00000100 x19:0x00000001 x11=0x00000000
     1547262000	     77261	8000a126	00b09863	bne	x1,x11,8000a136	  x1:0xffffffff x11:0x00000000
     1547842000	     77290	8000a136	51e86b13	ori	x22,x16,1310	 x16:0x00000001 x22=0x0000051f
     1548282000	     77312	8000a13a	02bfa533	mulhsu	x10,x31,x11	 x31:0x00000000 x11:0x00000000 x10=0x00000000
     1548322000	     77314	8000a13e	c815	c.beqz	x8,8000a172	  x8:0x00000001
     1549082000	     77352	8000a140	41a35d13	srai	x26,x6,0x1a	  x6:0xfffffff0 x26=0xffffffff
     1549122000	     77354	8000a144	044dd163	bge	x27,x4,8000a186	 x27:0x00000000  x4:0xffffffff
     1550442000	     77420	8000a186	0067bd33	sltu	x26,x15,x6	 x15:0x00000000  x6:0xfffffff0 x26=0x00000001
     1550462000	     77421	8000a18a	7a106f73	csrrsi	x30,tdata1,0	 x30=0x28001048
     1550522000	     77424	8000a18e	0151cc33	xor	x24,x3,x21	  x3:0x81000000 x21:0xfe4b51fe x24=0x7f4b51fe
     1551282000	     77462	8000a192	02b77333	remu	x6,x14,x11	 x14:0x00000000 x11:0x00000000  x6=0x00000000
     1551322000	     77464	8000a196	d2304d93	xori	x27,x0,-733	  x0:0x00000000 x27=0xfffffd23
     1551342000	     77465	8000a19a	84757993	andi	x19,x10,-1977	 x10:0x00000000 x19=0x00000000
     1551362000	     77466	8000a19e	00c3d733	srl	x14,x7,x12	  x7:0xffffffff x12:0x99fbffee x14=0x0003ffff
     1551402000	     77468	8000a1a2	717d	c.addi16sp	x2,-16	  x2:0x80021df8  x2=0x80021de8
     1551422000	     77469	8000a1a4	0000100f	fence.i	
     1552042000	     77500	8000a1a8	e481	c.bnez	x9,8000a1b0	  x9:0x07e23600
     1553022000	     77549	8000a1b0	8979	c.andi	x10,30	 x10:0x00000000 x10=0x00000000
     1553042000	     77550	8000a1b2	1c94	c.addi4spn	x13,x2,624	 x13=0x80022058
     1553082000	     77552	8000a1b4	7c0f9d73	csrrw	x26,0x7c0,x31	 x31:0x00000000 x26=0x00000107
     1553142000	     77555	8000a1b8	0001	c.addi	x0,0	  x0:0x00000000  x0=0x00000000
     1553162000	     77556	8000a1ba	b87d38f3	csrrc	x17,mhpmcounter7h,x26	 x26:0x00000107 x17=0x00000000
     1553502000	     77573	8000a1be	024e7263	bgeu	x28,x4,8000a1e2	 x28:0x00000001  x4:0xffffffff
     1553522000	     77574	8000a1c2	00ea29b3	slt	x19,x20,x14	 x20:0xffffffff x14:0x0003ffff x19=0x00000001
     1553542000	     77575	8000a1c6	f1406e73	csrrsi	x28,mhartid,0	 x28=0x00000000
     1553562000	     77576	8000a1ca	8669	c.srai	x12,0x1a	 x12:0x99fbffee x12=0xffffffe6
     1553582000	     77577	8000a1cc	0296cc63	blt	x13,x9,8000a204	 x13:0x80022058  x9:0x07e23600
     1554082000	     77602	8000a204	032d0913	addi	x18,x26,50	 x26:0x00000107 x18=0x00000139
     1554822000	     77639	8000a208	035678b3	remu	x17,x12,x21	 x12:0xffffffe6 x21:0xfe4b51fe x17=0x01b4ade8
     1554842000	     77640	8000a20c	06e6	c.slli	x13,0x19	 x13:0x80022058 x13=0xb0000000
     1554862000	     77641	8000a20e	30a07c73	csrrci	x24,0x30a,0	 x24=0x00000000
     1554882000	     77642	8000a212	015f0733	add	x14,x30,x21	 x30:0x28001048 x21:0xfe4b51fe x14=0x264b6246
     1554902000	     77643	8000a216	688d	c.lui	x17,0x3	 x17=0x00003000
     1554922000	     77644	8000a218	74706b73	csrrsi	x22,0x747,0	 x22=0x00000004
     1554962000	     77646	8000a21c	026e1233	mulh	x4,x28,x6	 x28:0x00000000  x6:0x00000000  x4=0x00000000
     1555142000	     77655	8000a220	8cd5	c.or	x9,x13	  x9:0x07e23600 x13:0xb0000000  x9=0xb7e23600
     1555162000	     77656	8000a222	8e29	c.xor	x12,x10	 x12:0xffffffe6 x10:0x00000000 x12=0xffffffe6
     1555522000	     77674	8000a224	057a9063	bne	x21,x23,8000a264	 x21:0xfe4b51fe x23:0x80021df8
     1556042000	     77700	8000a264	8cd5	c.or	x9,x13	  x9:0xb7e23600 x13:0xb0000000  x9=0xb7e23600
     1556082000	     77702	8000a266	287805b7	lui	x11,0x28780	 x11=0x28780000
     1556122000	     77704	8000a26a	02d8adb3	mulhsu	x27,x17,x13	 x17:0x00003000 x13:0xb0000000 x27=0x00002100
     1556142000	     77705	8000a26e	40255493	srai	x9,x10,0x2	 x10:0x00000000  x9=0x00000000
     1556882000	     77742	8000a272	02ec5d33	divu	x26,x24,x14	 x24:0x00000000 x14:0x264b6246 x26=0x00000000
     1556902000	     77743	8000a276	00d869b3	or	x19,x16,x13	 x16:0x00000001 x13:0xb0000000 x19=0xb0000001
     1556922000	     77744	8000a27a	00000a33	add	x20,x0,x0	  x0:0x00000000  x0:0x00000000 x20=0x00000000
     1556942000	     77745	8000a27e	8079	c.srli	x8,0x1e	  x8:0x00000001  x8=0x00000000
     1556962000	     77746	8000a280	b0abd0f3	csrrwi	x1,mhpmcounter10,23	  x1=0x000003ec
     1557022000	     77749	8000a284	e229	c.bnez	x12,8000a2c6	 x12:0xffffffe6
     1557702000	     77783	8000a2c6	997e	c.add	x18,x31	 x18:0x00000139 x31:0x00000000 x18=0x00000139
     1557722000	     77784	8000a2c8	3c7b7213	andi	x4,x22,967	 x22:0x00000004  x4=0x00000004
     1557742000	     77785	8000a2cc	ce05	c.beqz	x12,8000a304	 x12:0xffffffe6
     1557762000	     77786	8000a2ce	8ec9	c.or	x13,x10	 x13:0xb0000000 x10:0x00000000 x13=0xb0000000
     1557842000	     77790	8000a2d0	000c29b3	slt	x19,x24,x0	 x24:0x00000000  x0:0x00000000 x19=0x00000000
     1557862000	     77791	8000a2d4	89c6	c.mv	x19,x17	  x0:0x00000000 x17:0x00003000 x19=0x00003000
     1557902000	     77793	8000a2d6	b8b07973	csrrci	x18,mhpmcounter11h,0	 x18=0x00000000
     1557922000	     77794	8000a2da	8685	c.srai	x13,0x1	 x13:0xb0000000 x13=0xd8000000
     1557942000	     77795	8000a2dc	01a863b3	or	x7,x16,x26	 x16:0x00000001 x26:0x00000000  x7=0x00000001
     1558102000	     77803	8000a2e0	02c39463	bne	x7,x12,8000a308	  x7:0x00000001 x12:0xffffffe6
     1558782000	     77837	8000a308	7c17def3	csrrwi	x29,0x7c1,15	 x29=0x00000000
     1559202000	     77858	8000a30c	8d05	c.sub	x10,x9	 x10:0x00000000  x9:0x00000000 x10=0x00000000
     1559222000	     77859	8000a30e	005c8ab3	add	x21,x25,x5	 x25:0x8000a08c  x5:0x80025ce4 x21=0x0002fd70
     1559602000	     77878	8000a312	0000100f	fence.i	
     1563202000	     78058	8000a316	41dddc33	sra	x24,x27,x29	 x27:0x00002100 x29:0x00000000 x24=0x00002100
     1563222000	     78059	8000a31a	003ed933	srl	x18,x29,x3	 x29:0x00000000  x3:0x81000000 x18=0x00000000
     1563962000	     78096	8000a31e	02355cb3	divu	x25,x10,x3	 x10:0x00000000  x3:0x81000000 x25=0x00000000
     1563982000	     78097	8000a322	83c6	c.mv	x7,x17	  x0:0x00000000 x17:0x00003000  x7=0x00003000
     1564002000	     78098	8000a324	0ff0000f	fence	iorw,iorw	
     1564022000	     78099	8000a328	b87d5af3	csrrwi	x21,mhpmcounter7h,26	 x21=0x00000000
     1564082000	     78102	8000a32c	0100e933	or	x18,x1,x16	  x1:0x000003ec x16:0x00000001 x18=0x000003ed
     1564102000	     78103	8000a330	4106dcb3	sra	x25,x13,x16	 x13:0xd8000000 x16:0x00000001 x25=0xec000000
     1564122000	     78104	8000a334	ca99	c.beqz	x13,8000a34a	 x13:0xd8000000
     1564142000	     78105	8000a336	0007c263	blt	x15,x0,8000a33a	 x15:0x00000000  x0:0x00000000
     1564182000	     78107	8000a33a	03311c33	mulh	x24,x2,x19	  x2:0x80021de8 x19:0x00003000 x24=0xffffe800
     1564202000	     78108	8000a33e	02b9e863	bltu	x19,x11,8000a36e	 x19:0x00003000 x11:0x28780000
     1565282000	     78162	8000a36e	328bee13	ori	x28,x23,808	 x23:0x80021df8 x28=0x80021ff8
     1565642000	     78180	8000a372	00eaaeb3	slt	x29,x21,x14	 x21:0x00000000 x14:0x264b6246 x29=0x00000001
     1565662000	     78181	8000a376	8f39	c.xor	x14,x14	 x14:0x264b6246 x14:0x264b6246 x14=0x00000000
     1566062000	     78201	8000a378	9f7a	c.add	x30,x30	 x30:0x28001048 x30:0x28001048 x30=0x50002090
     1566082000	     78202	8000a37a	98fd	c.andi	x9,-1	  x9:0x00000000  x9=0x00000000
     1566182000	     78207	8000a37c	00c5	c.addi	x1,17	  x1:0x000003ec  x1=0x000003fd
     1566202000	     78208	8000a37e	6eed	c.lui	x29,0x1b	 x29=0x0001b000
     1566422000	     78219	8000a380	7b106f73	csrrsi	x0,dpc,0	  x0=0x00000000
     1567442000	     78270	80002700	0800006f	jal	x0,80002780	  x0=0x00000000
     1567962000	     78296	80002780	12f1	c.addi	x5,-4	  x5:0x80025ce4  x5=0x80025ce0
     1568322000	     78314	80002782	0172a023	sw	x23,0(x5)	  x5:0x80025ce0 x23:0x80021df8 PA:0x80025ce0 store:0x80021df8 load:0xffffffff
     1568342000	     78315	80002786	00028bb3	add	x23,x5,x0	  x5:0x80025ce0  x0:0x00000000 x23=0x80025ce0
     1568582000	     78327	8000278a	f80b8b93	addi	x23,x23,-128	 x23:0x80025ce0 x23=0x80025c60
     1568682000	     78332	8000278e	001ba223	sw	x1,4(x23)	 x23:0x80025c60  x1:0x000003fd PA:0x80025c64 store:0x000003fd load:0xffffffff
     1568702000	     78333	80002792	002ba423	sw	x2,8(x23)	 x23:0x80025c60  x2:0x80021de8 PA:0x80025c68 store:0x80021de8 load:0xffffffff
     1568722000	     78334	80002796	003ba623	sw	x3,12(x23)	 x23:0x80025c60  x3:0x81000000 PA:0x80025c6c store:0x81000000 load:0xffffffff
     1568742000	     78335	8000279a	004ba823	sw	x4,16(x23)	 x23:0x80025c60  x4:0x00000004 PA:0x80025c70 store:0x00000004 load:0xffffffff
     1569362000	     78366	8000279e	005baa23	sw	x5,20(x23)	 x23:0x80025c60  x5:0x80025ce0 PA:0x80025c74 store:0x80025ce0 load:0xffffffff
     1569422000	     78369	800027a2	006bac23	sw	x6,24(x23)	 x23:0x80025c60  x6:0x00000000 PA:0x80025c78 store:0x00000000 load:0xffffffff
     1569622000	     78379	800027a6	007bae23	sw	x7,28(x23)	 x23:0x80025c60  x7:0x00003000 PA:0x80025c7c store:0x00003000 load:0xffffffff
     1570082000	     78402	800027aa	028ba023	sw	x8,32(x23)	 x23:0x80025c60  x8:0x00000000 PA:0x80025c80 store:0x00000000 load:0xffffffff
     1570402000	     78418	800027ae	029ba223	sw	x9,36(x23)	 x23:0x80025c60  x9:0x00000000 PA:0x80025c84 store:0x00000000 load:0xffffffff
     1570462000	     78421	800027b2	02aba423	sw	x10,40(x23)	 x23:0x80025c60 x10:0x00000000 PA:0x80025c88 store:0x00000000 load:0xffffffff
     1570562000	     78426	800027b6	02bba623	sw	x11,44(x23)	 x23:0x80025c60 x11:0x28780000 PA:0x80025c8c store:0x28780000 load:0xffffffff
     1570622000	     78429	800027ba	02cba823	sw	x12,48(x23)	 x23:0x80025c60 x12:0xffffffe6 PA:0x80025c90 store:0xffffffe6 load:0xffffffff
     1571242000	     78460	800027be	02dbaa23	sw	x13,52(x23)	 x23:0x80025c60 x13:0xd8000000 PA:0x80025c94 store:0xd8000000 load:0xffffffff
     1571382000	     78467	800027c2	02ebac23	sw	x14,56(x23)	 x23:0x80025c60 x14:0x00000000 PA:0x80025c98 store:0x00000000 load:0xffffffff
     1571662000	     78481	800027c6	02fbae23	sw	x15,60(x23)	 x23:0x80025c60 x15:0x00000000 PA:0x80025c9c store:0x00000000 load:0xffffffff
     1571722000	     78484	800027ca	050ba023	sw	x16,64(x23)	 x23:0x80025c60 x16:0x00000001 PA:0x80025ca0 store:0x00000001 load:0xffffffff
     1572322000	     78514	800027ce	051ba223	sw	x17,68(x23)	 x23:0x80025c60 x17:0x00003000 PA:0x80025ca4 store:0x00003000 load:0xffffffff
     1572382000	     78517	800027d2	052ba423	sw	x18,72(x23)	 x23:0x80025c60 x18:0x000003ed PA:0x80025ca8 store:0x000003ed load:0xffffffff
     1572402000	     78518	800027d6	053ba623	sw	x19,76(x23)	 x23:0x80025c60 x19:0x00003000 PA:0x80025cac store:0x00003000 load:0xffffffff
     1572422000	     78519	800027da	054ba823	sw	x20,80(x23)	 x23:0x80025c60 x20:0x00000000 PA:0x80025cb0 store:0x00000000 load:0xffffffff
     1572522000	     78524	800027de	055baa23	sw	x21,84(x23)	 x23:0x80025c60 x21:0x00000000 PA:0x80025cb4 store:0x00000000 load:0xffffffff
     1572742000	     78535	800027e2	056bac23	sw	x22,88(x23)	 x23:0x80025c60 x22:0x00000004 PA:0x80025cb8 store:0x00000004 load:0xffffffff
     1572802000	     78538	800027e6	057bae23	sw	x23,92(x23)	 x23:0x80025c60 x23:0x80025c60 PA:0x80025cbc store:0x80025c60 load:0xffffffff
     1572822000	     78539	800027ea	078ba023	sw	x24,96(x23)	 x23:0x80025c60 x24:0xffffe800 PA:0x80025cc0 store:0xffffe800 load:0xffffffff
     1572842000	     78540	800027ee	079ba223	sw	x25,100(x23)	 x23:0x80025c60 x25:0xec000000 PA:0x80025cc4 store:0xec000000 load:0xffffffff
     1573042000	     78550	800027f2	07aba423	sw	x26,104(x23)	 x23:0x80025c60 x26:0x00000000 PA:0x80025cc8 store:0x00000000 load:0xffffffff
     1573102000	     78553	800027f6	07bba623	sw	x27,108(x23)	 x23:0x80025c60 x27:0x00002100 PA:0x80025ccc store:0x00002100 load:0xffffffff
     1573442000	     78570	800027fa	07cba823	sw	x28,112(x23)	 x23:0x80025c60 x28:0x80021ff8 PA:0x80025cd0 store:0x80021ff8 load:0xffffffff
     1573902000	     78593	800027fe	07dbaa23	sw	x29,116(x23)	 x23:0x80025c60 x29:0x0001b000 PA:0x80025cd4 store:0x0001b000 load:0xffffffff
     1573962000	     78596	80002802	07ebac23	sw	x30,120(x23)	 x23:0x80025c60 x30:0x50002090 PA:0x80025cd8 store:0x50002090 load:0xffffffff
     1573982000	     78597	80002806	07fbae23	sw	x31,124(x23)	 x23:0x80025c60 x31:0x00000000 PA:0x80025cdc store:0x00000000 load:0xffffffff
     1574002000	     78598	8000280a	000b82b3	add	x5,x23,x0	 x23:0x80025c60  x0:0x00000000  x5=0x80025c60
     1574022000	     78599	8000280e	90000c37	lui	x24,0x90000	 x24=0x90000000
     1574042000	     78600	80002812	1c71	c.addi	x24,-4	 x24:0x90000000 x24=0x8ffffffc
     1574062000	     78601	80002814	4f21	c.li	x30,8	 x30=0x00000008
     1574082000	     78602	80002816	0f22	c.slli	x30,0x8	 x30:0x00000008 x30=0x00000800
     1574102000	     78603	80002818	000f0f13	addi	x30,x30,0	 x30:0x00000800 x30=0x00000800
     1574322000	     78614	8000281c	01ec2023	sw	x30,0(x24)	 x24:0x8ffffffc x30:0x00000800 PA:0x8ffffffc store:0x00000800 load:0xffffffff
     1574342000	     78615	80002820	34102f73	csrrs	x30,mepc,x0	  x0:0x00000000 x30=0x8000a380
     1574462000	     78621	80002824	34202f73	csrrs	x30,mcause,x0	  x0:0x00000000 x30=0x00000002
     1574482000	     78622	80002828	4c0d	c.li	x24,3	 x24=0x00000003
     1574542000	     78625	8000282a	018f1463	bne	x30,x24,80002832	 x30:0x00000002 x24:0x00000003
     1574622000	     78629	80002832	4c21	c.li	x24,8	 x24=0x00000008
     1575042000	     78650	80002834	058f0d63	beq	x30,x24,8000288e	 x30:0x00000002 x24:0x00000008
     1575122000	     78654	80002838	4c25	c.li	x24,9	 x24=0x00000009
     1575222000	     78659	8000283a	058f0a63	beq	x30,x24,8000288e	 x30:0x00000002 x24:0x00000009
     1575242000	     78660	8000283e	4c2d	c.li	x24,11	 x24=0x0000000b
     1575262000	     78661	80002840	058f0763	beq	x30,x24,8000288e	 x30:0x00000002 x24:0x0000000b
     1575282000	     78662	80002844	4c05	c.li	x24,1	 x24=0x00000001
     1575422000	     78669	80002846	358f0363	beq	x30,x24,80002b8c	 x30:0x00000002 x24:0x00000001
     1575442000	     78670	8000284a	4c15	c.li	x24,5	 x24=0x00000005
     1575462000	     78671	8000284c	638f0a63	beq	x30,x24,80002e80	 x30:0x00000002 x24:0x00000005
     1575662000	     78681	80002850	4c1d	c.li	x24,7	 x24=0x00000007
     1575942000	     78695	80002852	158f0ce3	beq	x30,x24,800031aa	 x30:0x00000002 x24:0x00000007
     1575962000	     78696	80002856	4c31	c.li	x24,12	 x24=0x0000000c
     1576022000	     78699	80002858	018f1463	bne	x30,x24,80002860	 x30:0x00000002 x24:0x0000000c
     1576302000	     78713	80002860	4c35	c.li	x24,13	 x24=0x0000000d
     1576462000	     78721	80002862	018f1463	bne	x30,x24,8000286a	 x30:0x00000002 x24:0x0000000d
     1576642000	     78730	8000286a	4c3d	c.li	x24,15	 x24=0x0000000f
     1576662000	     78731	8000286c	018f1463	bne	x30,x24,80002874	 x30:0x00000002 x24:0x0000000f
     1576902000	     78743	80002874	4c09	c.li	x24,2	 x24=0x00000002
     1576922000	     78744	80002876	018f1463	bne	x30,x24,8000287e	 x30:0x00000002 x24:0x00000002
     1576942000	     78745	8000287a	3740906f	jal	x0,8000bbee	  x0=0x00000000
     1577302000	     78763	8000bbee	90000c37	lui	x24,0x90000	 x24=0x90000000
     1577322000	     78764	8000bbf2	1c71	c.addi	x24,-4	 x24:0x90000000 x24=0x8ffffffc
     1577342000	     78765	8000bbf4	4f29	c.li	x30,10	 x30=0x0000000a
     1577362000	     78766	8000bbf6	0f22	c.slli	x30,0x8	 x30:0x0000000a x30=0x00000a00
     1577382000	     78767	8000bbf8	000f0f13	addi	x30,x30,0	 x30:0x00000a00 x30=0x00000a00
     1577782000	     78787	8000bbfc	01ec2023	sw	x30,0(x24)	 x24:0x8ffffffc x30:0x00000a00 PA:0x8ffffffc store:0x00000a00 load:0xffffffff
     1577802000	     78788	8000bc00	90000c37	lui	x24,0x90000	 x24=0x90000000
     1577822000	     78789	8000bc04	1c71	c.addi	x24,-4	 x24:0x90000000 x24=0x8ffffffc
     1578182000	     78807	8000bc06	34200f13	addi	x30,x0,834	  x0:0x00000000 x30=0x00000342
     1578202000	     78808	8000bc0a	0f22	c.slli	x30,0x8	 x30:0x00000342 x30=0x00034200
     1578222000	     78809	8000bc0c	0f0d	c.addi	x30,3	 x30:0x00034200 x30=0x00034203
     1578682000	     78832	8000bc0e	01ec2023	sw	x30,0(x24)	 x24:0x8ffffffc x30:0x00034203 PA:0x8ffffffc store:0x00034203 load:0xffffffff
     1578742000	     78835	8000bc12	34202f73	csrrs	x30,mcause,x0	  x0:0x00000000 x30=0x00000002
     1578842000	     78840	8000bc16	01ec2023	sw	x30,0(x24)	 x24:0x8ffffffc x30:0x00000002 PA:0x8ffffffc store:0x00000002 load:0xffffffff
     1578862000	     78841	8000bc1a	34102f73	csrrs	x30,mepc,x0	  x0:0x00000000 x30=0x8000a380
     1578882000	     78842	8000bc1e	0f11	c.addi	x30,4	 x30:0x8000a380 x30=0x8000a384
     1579102000	     78853	8000bc20	341f1073	csrrw	x0,mepc,x30	 x30:0x8000a384  x0=0x00000000
     1579522000	     78874	8000bc24	00028bb3	add	x23,x5,x0	  x5:0x80025c60  x0:0x00000000 x23=0x80025c60
     1579582000	     78877	8000bc28	004ba083	lw	x1,4(x23)	 x23:0x80025c60  x1=0x000003fd PA:0x80025c64 load:0x000003fd
     1579802000	     78888	8000bc2c	008ba103	lw	x2,8(x23)	 x23:0x80025c60  x2=0x80021de8 PA:0x80025c68 load:0x80021de8
     1579862000	     78891	8000bc30	00cba183	lw	x3,12(x23)	 x23:0x80025c60  x3=0x81000000 PA:0x80025c6c load:0x81000000
     1580462000	     78921	8000bc34	010ba203	lw	x4,16(x23)	 x23:0x80025c60  x4=0x00000004 PA:0x80025c70 load:0x00000004
     1580922000	     78944	8000bc38	014ba283	lw	x5,20(x23)	 x23:0x80025c60  x5=0x80025ce0 PA:0x80025c74 load:0x80025ce0
     1580982000	     78947	8000bc3c	018ba303	lw	x6,24(x23)	 x23:0x80025c60  x6=0x00000000 PA:0x80025c78 load:0x00000000
     1581002000	     78948	8000bc40	01cba383	lw	x7,28(x23)	 x23:0x80025c60  x7=0x00003000 PA:0x80025c7c load:0x00003000
     1581582000	     78977	8000bc44	020ba403	lw	x8,32(x23)	 x23:0x80025c60  x8=0x00000000 PA:0x80025c80 load:0x00000000
     1581982000	     78997	8000bc48	024ba483	lw	x9,36(x23)	 x23:0x80025c60  x9=0x00000000 PA:0x80025c84 load:0x00000000
     1582442000	     79020	8000bc4c	028ba503	lw	x10,40(x23)	 x23:0x80025c60 x10=0x00000000 PA:0x80025c88 load:0x00000000
     1582502000	     79023	8000bc50	02cba583	lw	x11,44(x23)	 x23:0x80025c60 x11=0x28780000 PA:0x80025c8c load:0x28780000
     1582522000	     79024	8000bc54	030ba603	lw	x12,48(x23)	 x23:0x80025c60 x12=0xffffffe6 PA:0x80025c90 load:0xffffffe6
     1582562000	     79026	8000bc58	034ba683	lw	x13,52(x23)	 x23:0x80025c60 x13=0xd8000000 PA:0x80025c94 load:0xd8000000
     1582622000	     79029	8000bc5c	038ba703	lw	x14,56(x23)	 x23:0x80025c60 x14=0x00000000 PA:0x80025c98 load:0x00000000
     1582822000	     79039	8000bc60	03cba783	lw	x15,60(x23)	 x23:0x80025c60 x15=0x00000000 PA:0x80025c9c load:0x00000000
     1582982000	     79047	8000bc64	040ba803	lw	x16,64(x23)	 x23:0x80025c60 x16=0x00000001 PA:0x80025ca0 load:0x00000001
     1583042000	     79050	8000bc68	044ba883	lw	x17,68(x23)	 x23:0x80025c60 x17=0x00003000 PA:0x80025ca4 load:0x00003000
     1583462000	     79071	8000bc6c	048ba903	lw	x18,72(x23)	 x23:0x80025c60 x18=0x000003ed PA:0x80025ca8 load:0x000003ed
     1583522000	     79074	8000bc70	04cba983	lw	x19,76(x23)	 x23:0x80025c60 x19=0x00003000 PA:0x80025cac load:0x00003000
     1583542000	     79075	8000bc74	050baa03	lw	x20,80(x23)	 x23:0x80025c60 x20=0x00000000 PA:0x80025cb0 load:0x00000000
     1583562000	     79076	8000bc78	054baa83	lw	x21,84(x23)	 x23:0x80025c60 x21=0x00000000 PA:0x80025cb4 load:0x00000000
     1583762000	     79086	8000bc7c	058bab03	lw	x22,88(x23)	 x23:0x80025c60 x22=0x00000004 PA:0x80025cb8 load:0x00000004
     1583782000	     79087	8000bc80	05cbab83	lw	x23,92(x23)	 x23:0x80025c60 x23=0x80025c60 PA:0x80025cbc load:0x80025c60
     1584042000	     79100	8000bc84	060bac03	lw	x24,96(x23)	 x23:0x80025c60 x24=0xffffe800 PA:0x80025cc0 load:0xffffe800
     1584302000	     79113	8000bc88	064bac83	lw	x25,100(x23)	 x23:0x80025c60 x25=0xec000000 PA:0x80025cc4 load:0xec000000
     1584522000	     79124	8000bc8c	068bad03	lw	x26,104(x23)	 x23:0x80025c60 x26=0x00000000 PA:0x80025cc8 load:0x00000000
     1584942000	     79145	8000bc90	06cbad83	lw	x27,108(x23)	 x23:0x80025c60 x27=0x00002100 PA:0x80025ccc load:0x00002100
     1585122000	     79154	8000bc94	070bae03	lw	x28,112(x23)	 x23:0x80025c60 x28=0x80021ff8 PA:0x80025cd0 load:0x80021ff8
     1585182000	     79157	8000bc98	074bae83	lw	x29,116(x23)	 x23:0x80025c60 x29=0x0001b000 PA:0x80025cd4 load:0x0001b000
     1585202000	     79158	8000bc9c	078baf03	lw	x30,120(x23)	 x23:0x80025c60 x30=0x50002090 PA:0x80025cd8 load:0x50002090
     1585242000	     79160	8000bca0	07cbaf83	lw	x31,124(x23)	 x23:0x80025c60 x31=0x00000000 PA:0x80025cdc load:0x00000000
     1585262000	     79161	8000bca4	080b8b93	addi	x23,x23,128	 x23:0x80025c60 x23=0x80025ce0
     1585282000	     79162	8000bca8	000b82b3	add	x5,x23,x0	 x23:0x80025ce0  x0:0x00000000  x5=0x80025ce0
     1585342000	     79165	8000bcac	0002ab83	lw	x23,0(x5)	  x5:0x80025ce0 x23=0x80021df8 PA:0x80025ce0 load:0x80021df8
     1585662000	     79181	8000bcb0	0291	c.addi	x5,4	  x5:0x80025ce0  x5=0x80025ce4
     1585682000	     79182	8000bcb2	30200073	mret	
     1586442000	     79220	8000a384	8fce	c.mv	x31,x19	  x0:0x00000000 x19:0x00003000 x31=0x00003000
     1586462000	     79221	8000a386	01b5aeb3	slt	x29,x11,x27	 x11:0x28780000 x27:0x00002100 x29=0x00000000
     1586482000	     79222	8000a38a	3eb04c93	xori	x25,x0,1003	  x0:0x00000000 x25=0x000003eb
     1586902000	     79243	8000a38e	57bc7893	andi	x17,x24,1403	 x24:0xffffe800 x17=0x00000000
     1586922000	     79244	8000a392	8969	c.andi	x10,26	 x10:0x00000000 x10=0x00000000
     1587002000	     79248	8000a394	77877c93	andi	x25,x14,1912	 x14:0x00000000 x25=0x00000000
     1587022000	     79249	8000a398	0001	c.addi	x0,0	  x0:0x00000000  x0=0x00000000
     1587762000	     79286	8000a39a	0328cb33	div	x22,x17,x18	 x17:0x00000000 x18:0x000003ed x22=0x00000000
     1587782000	     79287	8000a39e	3b302c73	csrrs	x24,pmpaddr3,x0	  x0:0x00000000 x24=0x2cccd9fb
     1587802000	     79288	8000a3a2	3b103473	csrrc	x8,pmpaddr1,x0	  x0:0x00000000  x8=0x24445173
     1587822000	     79289	8000a3a6	ee0d	c.bnez	x12,8000a3e0	 x12:0xffffffe6
     1587902000	     79293	8000a3e0	016c9f63	bne	x25,x22,8000a3fe	 x25:0x00000000 x22:0x00000000
     1588322000	     79314	8000a3e4	01978133	add	x2,x15,x25	 x15:0x00000000 x25:0x00000000  x2=0x00000000
     1588742000	     79335	8000a3e8	03dd4663	blt	x26,x29,8000a414	 x26:0x00000000 x29:0x00000000
     1588762000	     79336	8000a3ec	01dac4b3	xor	x9,x21,x29	 x21:0x00000000 x29:0x00000000  x9=0x00000000
     1588922000	     79344	8000a3f0	02ea7f33	remu	x30,x20,x14	 x20:0x00000000 x14:0x00000000 x30=0x00000000
     1588942000	     79345	8000a3f4	b89a6373	csrrsi	x6,mhpmcounter9h,20	  x6=0x00000000
     1589002000	     79348	8000a3f8	01c47333	and	x6,x8,x28	  x8:0x24445173 x28:0x80021ff8  x6=0x00001170
     1589022000	     79349	8000a3fc	8ca1	c.xor	x9,x8	  x9:0x00000000  x8:0x24445173  x9=0x24445173
     1589042000	     79350	8000a3fe	e8993e93	sltiu	x29,x18,-375	 x18:0x000003ed x29=0x00000001
     1589162000	     79356	8000a402	0021e133	or	x2,x3,x2	  x3:0x81000000  x2:0x00000000  x2=0x81000000
     1589182000	     79357	8000a406	8efe	c.mv	x29,x31	  x0:0x00000000 x31:0x00003000 x29=0x00003000
     1589342000	     79365	8000a408	02e1f863	bgeu	x3,x14,8000a438	  x3:0x81000000 x14:0x00000000
     1589662000	     79381	8000a438	fad48f93	addi	x31,x9,-83	  x9:0x24445173 x31=0x24445120
     1589682000	     79382	8000a43c	230fe697	auipc	x13,0x230fe	 x13=0xa310843c
     1589762000	     79386	8000a440	a2262a13	slti	x20,x12,-1502	 x12:0xffffffe6 x20=0x00000000
     1589822000	     79389	8000a444	021e5463	bge	x28,x1,8000a46c	 x28:0x80021ff8  x1:0x000003fd
     1589842000	     79390	8000a448	ca89	c.beqz	x13,8000a45a	 x13:0xa310843c
     1590582000	     79427	8000a44a	038cc633	div	x12,x25,x24	 x25:0x00000000 x24:0x2cccd9fb x12=0x00000000
     1590602000	     79428	8000a44e	9a7d	c.andi	x12,-1	 x12:0x00000000 x12=0x00000000
     1590622000	     79429	8000a450	0001	c.addi	x0,0	  x0:0x00000000  x0=0x00000000
     1590642000	     79430	8000a452	717d	c.addi16sp	x2,-16	  x2:0x81000000  x2=0x80fffff0
     1590662000	     79431	8000a454	0179a133	slt	x2,x19,x23	 x19:0x00003000 x23:0x80021df8  x2=0x00000000
     1590682000	     79432	8000a458	e581	c.bnez	x11,8000a460	 x11:0x28780000
     1591682000	     79482	8000a460	032443b3	div	x7,x8,x18	  x8:0x24445173 x18:0x000003ed  x7=0x00093cf5
     1591702000	     79483	8000a464	4006bc93	sltiu	x25,x13,1024	 x13:0xa310843c x25=0x00000000
     1591722000	     79484	8000a468	00fa	c.slli	x1,0x1e	  x1:0x000003fd  x1=0x40000000
     1591742000	     79485	8000a46a	1cfd	c.addi	x25,-1	 x25:0x00000000 x25=0xffffffff
     1591762000	     79486	8000a46c	e419	c.bnez	x8,8000a47a	  x8:0x24445173
     1591862000	     79491	8000a47a	9af2	c.add	x21,x28	 x21:0x00000000 x28:0x80021ff8 x21=0x80021ff8
     1632142000	     81505	8000a47c	b8859df3	csrrw	x27,mhpmcounter8h,x11	 x11:0x28780000 x27=0x00000000
     1632202000	     81508	8000a480	892d	c.andi	x10,11	 x10:0x00000000 x10=0x00000000
     1632222000	     81509	8000a482	8eed	c.and	x13,x11	 x13:0xa310843c x11:0x28780000 x13=0x20100000
     1632242000	     81510	8000a484	32c03973	csrrc	x18,mhpmevent12,x0	  x0:0x00000000 x18=0x00000200
     1632262000	     81511	8000a488	0095bd33	sltu	x26,x11,x9	 x11:0x28780000  x9:0x24445173 x26=0x00000000
     1632282000	     81512	8000a48c	03f781b3	mul	x3,x15,x31	 x15:0x00000000 x31:0x24445120  x3=0x00000000
     1632302000	     81513	8000a490	b09df673	csrrci	x12,mhpmcounter9,27	 x12=0xd03b51ba
     1632382000	     81517	8000a494	02aa9233	mulh	x4,x21,x10	 x21:0x80021ff8 x10:0x00000000  x4=0x00000000
     1632402000	     81518	8000a498	d56b8013	addi	x0,x23,-682	 x23:0x80021df8  x0=0x00000000
     1632422000	     81519	8000a49c	c6a9	c.beqz	x13,8000a4e6	 x13:0x20100000
     1633162000	     81556	8000a49e	02d8ffb3	remu	x31,x17,x13	 x17:0x00000000 x13:0x20100000 x31=0x00000000
     1633902000	     81593	8000a4a2	027261b3	rem	x3,x4,x7	  x4:0x00000000  x7:0x00093cf5  x3=0x00000000
     1633922000	     81594	8000a4a6	01de1b33	sll	x22,x28,x29	 x28:0x80021ff8 x29:0x00003000 x22=0x80021ff8
     1633942000	     81595	8000a4aa	048a	c.slli	x9,0x2	  x9:0x24445173  x9=0x911145cc
     1633962000	     81596	8000a4ac	00757d33	and	x26,x10,x7	 x10:0x00000000  x7:0x00093cf5 x26=0x00000000
     1634002000	     81598	8000a4b0	02f244b3	div	x9,x4,x15	  x4:0x00000000 x15:0x00000000  x9=0xffffffff
     1634022000	     81599	8000a4b4	0000100f	fence.i	
     1634482000	     81622	8000a4b8	00acceb3	xor	x29,x25,x10	 x25:0xffffffff x10:0x00000000 x29=0xffffffff
     1634502000	     81623	8000a4bc	393d7d93	andi	x27,x26,915	 x26:0x00000000 x27=0x00000000
     1634522000	     81624	8000a4c0	00864033	xor	x0,x12,x8	 x12:0xd03b51ba  x8:0x24445173  x0=0x00000000
     1634542000	     81625	8000a4c4	832d	c.srli	x14,0xb	 x14:0x00000000 x14=0x00000000
     1634902000	     81643	8000a4c6	0ff0000f	fence	iorw,iorw	
     1634942000	     81645	8000a4ca	023bbcb3	mulhu	x25,x23,x3	 x23:0x80021df8  x3:0x00000000 x25=0x00000000
     1634962000	     81646	8000a4ce	0230d363	bge	x1,x3,8000a4f4	  x1:0x40000000  x3:0x00000000
     1635522000	     81674	8000a4f4	01747db3	and	x27,x8,x23	  x8:0x24445173 x23:0x80021df8 x27=0x00001170
     1635542000	     81675	8000a4f8	98c50313	addi	x6,x10,-1652	 x10:0x00000000  x6=0xfffff98c
     1635582000	     81677	8000a4fc	0362beb3	mulhu	x29,x5,x22	  x5:0x80025ce4 x22:0x80021ff8 x29=0x40023e73
     1635762000	     81686	8000a500	03144eb3	div	x29,x8,x17	  x8:0x24445173 x17:0x00000000 x29=0xffffffff
     1636502000	     81723	8000a504	029ff0b3	remu	x1,x31,x9	 x31:0x00000000  x9:0xffffffff  x1=0x00000000
     1636522000	     81724	8000a508	547d	c.li	x8,-1	  x8=0xffffffff
     1636542000	     81725	8000a50a	ee95	c.bnez	x13,8000a546	 x13:0x20100000
     1637022000	     81749	8000a546	0001	c.addi	x0,0	  x0:0x00000000  x0=0x00000000
     1637042000	     81750	8000a548	3b006373	csrrsi	x6,pmpaddr0,0	  x6=0x20000d2f
     1638022000	     81799	8000a54c	03017fb3	remu	x31,x2,x16	  x2:0x00000000 x16:0x00000001 x31=0x00000000
     1638062000	     81801	8000a550	020e2ab3	mulhsu	x21,x28,x0	 x28:0x80021ff8  x0:0x00000000 x21=0x00000000
     1638082000	     81802	8000a554	6c35	c.lui	x24,0xd	 x24=0x0000d000
     1638102000	     81803	8000a556	1400	c.addi4spn	x8,x2,544	  x8=0x00000220
     1638122000	     81804	8000a558	8009	c.srli	x8,0x2	  x8:0x00000220  x8=0x00000088
     1638142000	     81805	8000a55a	e981	c.bnez	x11,8000a56a	 x11:0x28780000
     1638622000	     81829	8000a56a	02560cb3	mul	x25,x12,x5	 x12:0xd03b51ba  x5:0x80025ce4 x25=0x69a7a1a8
     1638642000	     81830	8000a56e	00dfc1b3	xor	x3,x31,x13	 x31:0x00000000 x13:0x20100000  x3=0x20100000
     1638862000	     81841	8000a572	021afcb3	remu	x25,x21,x1	 x21:0x00000000  x1:0x00000000 x25=0x00000000
     1638882000	     81842	8000a576	fe646493	ori	x9,x8,-26	  x8:0x00000088  x9=0xffffffee
     1638902000	     81843	8000a57a	8f4bf693	andi	x13,x23,-1804	 x23:0x80021df8 x13=0x800218f0
     1638942000	     81845	8000a57e	02669f33	mulh	x30,x13,x6	 x13:0x800218f0  x6:0x20000d2f x30=0xf0003c86
     1638962000	     81846	8000a582	34402773	csrrs	x14,mip,x0	  x0:0x00000000 x14=0x00000000
     1638982000	     81847	8000a586	0d0c	c.addi4spn	x11,x2,656	 x11=0x00000290
     1639462000	     81871	8000a588	03ce9033	mulh	x0,x29,x28	 x29:0xffffffff x28:0x80021ff8  x0=0x00000000
     1639522000	     81874	8000a58c	99e55997	auipc	x19,0x99e55	 x19=0x19e5f58c
     1639622000	     81879	8000a590	01c50563	beq	x10,x28,8000a59a	 x10:0x00000000 x28:0x80021ff8
     1639642000	     81880	8000a594	038a	c.slli	x7,0x2	  x7:0x00093cf5  x7=0x0024f3d4
     1639662000	     81881	8000a596	32707af3	csrrci	x21,mhpmevent7,0	 x21=0x00000010
     1639682000	     81882	8000a59a	8a5d	c.andi	x12,23	 x12:0xd03b51ba x12=0x00000012
     1639702000	     81883	8000a59c	e999	c.bnez	x11,8000a5b2	 x11:0x00000290
     1640302000	     81913	8000a5b2	c7e7c897	auipc	x17,0xc7e7c	 x17=0x47e865b2
     1640322000	     81914	8000a5b6	01a5e533	or	x10,x11,x26	 x11:0x00000290 x26:0x00000000 x10=0x00000290
     1640342000	     81915	8000a5ba	1ffd	c.addi	x31,-1	 x31:0x00000000 x31=0xffffffff
     1640362000	     81916	8000a5bc	008c0533	add	x10,x24,x8	 x24:0x0000d000  x8:0x00000088 x10=0x0000d088
     1640382000	     81917	8000a5c0	00e94433	xor	x8,x18,x14	 x18:0x00000200 x14:0x00000000  x8=0x00000200
     1640722000	     81934	8000a5c4	41068833	sub	x16,x13,x16	 x13:0x800218f0 x16:0x00000001 x16=0x800218ef
     1640742000	     81935	8000a5c8	136aaa93	slti	x21,x21,310	 x21:0x00000010 x21=0x00000001
     1640842000	     81940	8000a5cc	91ba	c.add	x3,x14	  x3:0x20100000 x14:0x00000000  x3=0x20100000
     1640862000	     81941	8000a5ce	018b80b3	add	x1,x23,x24	 x23:0x80021df8 x24:0x0000d000  x1=0x8002edf8
     1641042000	     81950	8000a5d2	0d296417	auipc	x8,0xd296	  x8=0x8d2a05d2
     1641062000	     81951	8000a5d6	8e6d	c.and	x12,x11	 x12:0x00000012 x11:0x00000290 x12=0x00000010
     1641102000	     81953	8000a5d8	020e2833	mulhsu	x16,x28,x0	 x28:0x80021ff8  x0:0x00000000 x16=0x00000000
     1641142000	     81955	8000a5dc	0d14	c.addi4spn	x13,x2,656	 x13=0x00000290
     1641162000	     81956	8000a5de	e499	c.bnez	x9,8000a5ec	  x9:0xffffffee
     1641802000	     81988	8000a5ec	717d	c.addi16sp	x2,-16	  x2:0x00000000  x2=0xfffffff0
     1641822000	     81989	8000a5ee	8d29	c.xor	x10,x10	 x10:0x0000d088 x10:0x0000d088 x10=0x00000000
     1641842000	     81990	8000a5f0	400f5c93	srai	x25,x30,0x0	 x30:0xf0003c86 x25=0xf0003c86
     1641862000	     81991	8000a5f4	c8a41437	lui	x8,0xc8a41	  x8=0xc8a41000
     1641882000	     81992	8000a5f8	01bd40b3	xor	x1,x26,x27	 x26:0x00000000 x27:0x00001170  x1=0x00001170
     1642622000	     82029	8000a5fc	026a5fb3	divu	x31,x20,x6	 x20:0x00000000  x6:0x20000d2f x31=0x00000000
     1642642000	     82030	8000a600	02108033	mul	x0,x1,x1	  x1:0x00001170  x1:0x00001170  x0=0x00000000
     1642662000	     82031	8000a604	6b8a03b7	lui	x7,0x6b8a0	  x7=0x6b8a0000
     1643402000	     82068	8000a608	03d3f133	remu	x2,x7,x29	  x7:0x6b8a0000 x29:0xffffffff  x2=0x6b8a0000
     1643422000	     82069	8000a60c	00fed813	srli	x16,x29,0xf	 x29:0xffffffff x16=0x0001ffff
     1643442000	     82070	8000a610	f13b1673	csrrw	x0,mimpid,x0	  x0:0x00000000  x0=0x00000000
     1644062000	     82101	80002700	0800006f	jal	x0,80002780	  x0=0x00000000
     1644302000	     82113	80002780	12f1	c.addi	x5,-4	  x5:0x80025ce4  x5=0x80025ce0
     1644842000	     82140	80002782	0172a023	sw	x23,0(x5)	  x5:0x80025ce0 x23:0x80021df8 PA:0x80025ce0 store:0x80021df8 load:0xffffffff
     1644862000	     82141	80002786	00028bb3	add	x23,x5,x0	  x5:0x80025ce0  x0:0x00000000 x23=0x80025ce0
     1644882000	     82142	8000278a	f80b8b93	addi	x23,x23,-128	 x23:0x80025ce0 x23=0x80025c60
     1645302000	     82163	8000278e	001ba223	sw	x1,4(x23)	 x23:0x80025c60  x1:0x00001170 PA:0x80025c64 store:0x00001170 load:0xffffffff
     1645362000	     82166	80002792	002ba423	sw	x2,8(x23)	 x23:0x80025c60  x2:0x6b8a0000 PA:0x80025c68 store:0x6b8a0000 load:0xffffffff
     1645382000	     82167	80002796	003ba623	sw	x3,12(x23)	 x23:0x80025c60  x3:0x20100000 PA:0x80025c6c store:0x20100000 load:0xffffffff
     1645402000	     82168	8000279a	004ba823	sw	x4,16(x23)	 x23:0x80025c60  x4:0x00000000 PA:0x80025c70 store:0x00000000 load:0xffffffff
     1645822000	     82189	8000279e	005baa23	sw	x5,20(x23)	 x23:0x80025c60  x5:0x80025ce0 PA:0x80025c74 store:0x80025ce0 load:0xffffffff
     1645882000	     82192	800027a2	006bac23	sw	x6,24(x23)	 x23:0x80025c60  x6:0x20000d2f PA:0x80025c78 store:0x20000d2f load:0xffffffff
     1645902000	     82193	800027a6	007bae23	sw	x7,28(x23)	 x23:0x80025c60  x7:0x6b8a0000 PA:0x80025c7c store:0x6b8a0000 load:0xffffffff
     1645922000	     82194	800027aa	028ba023	sw	x8,32(x23)	 x23:0x80025c60  x8:0xc8a41000 PA:0x80025c80 store:0xc8a41000 load:0xffffffff
     1645942000	     82195	800027ae	029ba223	sw	x9,36(x23)	 x23:0x80025c60  x9:0xffffffee PA:0x80025c84 store:0xffffffee load:0xffffffff
     1646062000	     82201	800027b2	02aba423	sw	x10,40(x23)	 x23:0x80025c60 x10:0x00000000 PA:0x80025c88 store:0x00000000 load:0xffffffff
     1646202000	     82208	800027b6	02bba623	sw	x11,44(x23)	 x23:0x80025c60 x11:0x00000290 PA:0x80025c8c store:0x00000290 load:0xffffffff
     1646262000	     82211	800027ba	02cba823	sw	x12,48(x23)	 x23:0x80025c60 x12:0x00000010 PA:0x80025c90 store:0x00000010 load:0xffffffff
     1646582000	     82227	800027be	02dbaa23	sw	x13,52(x23)	 x23:0x80025c60 x13:0x00000290 PA:0x80025c94 store:0x00000290 load:0xffffffff
     1646662000	     82231	800027c2	02ebac23	sw	x14,56(x23)	 x23:0x80025c60 x14:0x00000000 PA:0x80025c98 store:0x00000000 load:0xffffffff
     1646762000	     82236	800027c6	02fbae23	sw	x15,60(x23)	 x23:0x80025c60 x15:0x00000000 PA:0x80025c9c store:0x00000000 load:0xffffffff
     1646782000	     82237	800027ca	050ba023	sw	x16,64(x23)	 x23:0x80025c60 x16:0x0001ffff PA:0x80025ca0 store:0x0001ffff load:0xffffffff
     1647162000	     82256	800027ce	051ba223	sw	x17,68(x23)	 x23:0x80025c60 x17:0x47e865b2 PA:0x80025ca4 store:0x47e865b2 load:0xffffffff
     1647522000	     82274	800027d2	052ba423	sw	x18,72(x23)	 x23:0x80025c60 x18:0x00000200 PA:0x80025ca8 store:0x00000200 load:0xffffffff
     1647722000	     82284	800027d6	053ba623	sw	x19,76(x23)	 x23:0x80025c60 x19:0x19e5f58c PA:0x80025cac store:0x19e5f58c load:0xffffffff
     1647802000	     82288	800027da	054ba823	sw	x20,80(x23)	 x23:0x80025c60 x20:0x00000000 PA:0x80025cb0 store:0x00000000 load:0xffffffff
     1647822000	     82289	800027de	055baa23	sw	x21,84(x23)	 x23:0x80025c60 x21:0x00000001 PA:0x80025cb4 store:0x00000001 load:0xffffffff
     1648002000	     82298	800027e2	056bac23	sw	x22,88(x23)	 x23:0x80025c60 x22:0x80021ff8 PA:0x80025cb8 store:0x80021ff8 load:0xffffffff
     1648062000	     82301	800027e6	057bae23	sw	x23,92(x23)	 x23:0x80025c60 x23:0x80025c60 PA:0x80025cbc store:0x80025c60 load:0xffffffff
     1648882000	     82342	800027ea	078ba023	sw	x24,96(x23)	 x23:0x80025c60 x24:0x0000d000 PA:0x80025cc0 store:0x0000d000 load:0xffffffff
     1649162000	     82356	800027ee	079ba223	sw	x25,100(x23)	 x23:0x80025c60 x25:0xf0003c86 PA:0x80025cc4 store:0xf0003c86 load:0xffffffff
     1649222000	     82359	800027f2	07aba423	sw	x26,104(x23)	 x23:0x80025c60 x26:0x00000000 PA:0x80025cc8 store:0x00000000 load:0xffffffff
     1649242000	     82360	800027f6	07bba623	sw	x27,108(x23)	 x23:0x80025c60 x27:0x00001170 PA:0x80025ccc store:0x00001170 load:0xffffffff
     1649262000	     82361	800027fa	07cba823	sw	x28,112(x23)	 x23:0x80025c60 x28:0x80021ff8 PA:0x80025cd0 store:0x80021ff8 load:0xffffffff
     1649322000	     82364	800027fe	07dbaa23	sw	x29,116(x23)	 x23:0x80025c60 x29:0xffffffff PA:0x80025cd4 store:0xffffffff load:0xffffffff
     1649902000	     82393	80002802	07ebac23	sw	x30,120(x23)	 x23:0x80025c60 x30:0xf0003c86 PA:0x80025cd8 store:0xf0003c86 load:0xffffffff
     1650142000	     82405	80002806	07fbae23	sw	x31,124(x23)	 x23:0x80025c60 x31:0x00000000 PA:0x80025cdc store:0x00000000 load:0xffffffff
     1650162000	     82406	8000280a	000b82b3	add	x5,x23,x0	 x23:0x80025c60  x0:0x00000000  x5=0x80025c60
     1650502000	     82423	8000280e	90000c37	lui	x24,0x90000	 x24=0x90000000
     1650522000	     82424	80002812	1c71	c.addi	x24,-4	 x24:0x90000000 x24=0x8ffffffc
     1650542000	     82425	80002814	4f21	c.li	x30,8	 x30=0x00000008
     1650562000	     82426	80002816	0f22	c.slli	x30,0x8	 x30:0x00000008 x30=0x00000800
     1650622000	     82429	80002818	000f0f13	addi	x30,x30,0	 x30:0x00000800 x30=0x00000800
     1651062000	     82451	8000281c	01ec2023	sw	x30,0(x24)	 x24:0x8ffffffc x30:0x00000800 PA:0x8ffffffc store:0x00000800 load:0xffffffff
     1651162000	     82456	80002820	34102f73	csrrs	x30,mepc,x0	  x0:0x00000000 x30=0x8000a610
     1651562000	     82476	80002824	34202f73	csrrs	x30,mcause,x0	  x0:0x00000000 x30=0x00000002
     1651582000	     82477	80002828	4c0d	c.li	x24,3	 x24=0x00000003
     1651602000	     82478	8000282a	018f1463	bne	x30,x24,80002832	 x30:0x00000002 x24:0x00000003
     1652602000	     82528	80002832	4c21	c.li	x24,8	 x24=0x00000008
     1652622000	     82529	80002834	058f0d63	beq	x30,x24,8000288e	 x30:0x00000002 x24:0x00000008
     1652722000	     82534	80002838	4c25	c.li	x24,9	 x24=0x00000009
     1652802000	     82538	8000283a	058f0a63	beq	x30,x24,8000288e	 x30:0x00000002 x24:0x00000009
     1652822000	     82539	8000283e	4c2d	c.li	x24,11	 x24=0x0000000b
     1652942000	     82545	80002840	058f0763	beq	x30,x24,8000288e	 x30:0x00000002 x24:0x0000000b
     1653002000	     82548	80002844	4c05	c.li	x24,1	 x24=0x00000001
     1653022000	     82549	80002846	358f0363	beq	x30,x24,80002b8c	 x30:0x00000002 x24:0x00000001
     1653042000	     82550	8000284a	4c15	c.li	x24,5	 x24=0x00000005
     1653062000	     82551	8000284c	638f0a63	beq	x30,x24,80002e80	 x30:0x00000002 x24:0x00000005
     1653082000	     82552	80002850	4c1d	c.li	x24,7	 x24=0x00000007
     1653122000	     82554	80002852	158f0ce3	beq	x30,x24,800031aa	 x30:0x00000002 x24:0x00000007
     1653142000	     82555	80002856	4c31	c.li	x24,12	 x24=0x0000000c
     1653162000	     82556	80002858	018f1463	bne	x30,x24,80002860	 x30:0x00000002 x24:0x0000000c
     1653682000	     82582	80002860	4c35	c.li	x24,13	 x24=0x0000000d
     1653822000	     82589	80002862	018f1463	bne	x30,x24,8000286a	 x30:0x00000002 x24:0x0000000d
     1654422000	     82619	8000286a	4c3d	c.li	x24,15	 x24=0x0000000f
     1654502000	     82623	8000286c	018f1463	bne	x30,x24,80002874	 x30:0x00000002 x24:0x0000000f
     1655162000	     82656	80002874	4c09	c.li	x24,2	 x24=0x00000002
     1655182000	     82657	80002876	018f1463	bne	x30,x24,8000287e	 x30:0x00000002 x24:0x00000002
     1655462000	     82671	8000287a	3740906f	jal	x0,8000bbee	  x0=0x00000000
     1655722000	     82684	8000bbee	90000c37	lui	x24,0x90000	 x24=0x90000000
     1655742000	     82685	8000bbf2	1c71	c.addi	x24,-4	 x24:0x90000000 x24=0x8ffffffc
     1655762000	     82686	8000bbf4	4f29	c.li	x30,10	 x30=0x0000000a
     1655782000	     82687	8000bbf6	0f22	c.slli	x30,0x8	 x30:0x0000000a x30=0x00000a00
     1656162000	     82706	8000bbf8	000f0f13	addi	x30,x30,0	 x30:0x00000a00 x30=0x00000a00
     1656582000	     82727	8000bbfc	01ec2023	sw	x30,0(x24)	 x24:0x8ffffffc x30:0x00000a00 PA:0x8ffffffc store:0x00000a00 load:0xffffffff
     1656602000	     82728	8000bc00	90000c37	lui	x24,0x90000	 x24=0x90000000
     1656662000	     82731	8000bc04	1c71	c.addi	x24,-4	 x24:0x90000000 x24=0x8ffffffc
     1656682000	     82732	8000bc06	34200f13	addi	x30,x0,834	  x0:0x00000000 x30=0x00000342
     1656702000	     82733	8000bc0a	0f22	c.slli	x30,0x8	 x30:0x00000342 x30=0x00034200
     1656722000	     82734	8000bc0c	0f0d	c.addi	x30,3	 x30:0x00034200 x30=0x00034203
     1656782000	     82737	8000bc0e	01ec2023	sw	x30,0(x24)	 x24:0x8ffffffc x30:0x00034203 PA:0x8ffffffc store:0x00034203 load:0xffffffff
     1657142000	     82755	8000bc12	34202f73	csrrs	x30,mcause,x0	  x0:0x00000000 x30=0x00000002
     1657962000	     82796	8000bc16	01ec2023	sw	x30,0(x24)	 x24:0x8ffffffc x30:0x00000002 PA:0x8ffffffc store:0x00000002 load:0xffffffff
     1657982000	     82797	8000bc1a	34102f73	csrrs	x30,mepc,x0	  x0:0x00000000 x30=0x8000a610
     1658002000	     82798	8000bc1e	0f11	c.addi	x30,4	 x30:0x8000a610 x30=0x8000a614
     1658022000	     82799	8000bc20	341f1073	csrrw	x0,mepc,x30	 x30:0x8000a614  x0=0x00000000
     1658222000	     82809	8000bc24	00028bb3	add	x23,x5,x0	  x5:0x80025c60  x0:0x00000000 x23=0x80025c60
     1658462000	     82821	8000bc28	004ba083	lw	x1,4(x23)	 x23:0x80025c60  x1=0x00001170 PA:0x80025c64 load:0x00001170
     1658882000	     82842	8000bc2c	008ba103	lw	x2,8(x23)	 x23:0x80025c60  x2=0x6b8a0000 PA:0x80025c68 load:0x6b8a0000
     1659082000	     82852	8000bc30	00cba183	lw	x3,12(x23)	 x23:0x80025c60  x3=0x20100000 PA:0x80025c6c load:0x20100000
     1659262000	     82861	8000bc34	010ba203	lw	x4,16(x23)	 x23:0x80025c60  x4=0x00000000 PA:0x80025c70 load:0x00000000
     1659542000	     82875	8000bc38	014ba283	lw	x5,20(x23)	 x23:0x80025c60  x5=0x80025ce0 PA:0x80025c74 load:0x80025ce0
     1659742000	     82885	8000bc3c	018ba303	lw	x6,24(x23)	 x23:0x80025c60  x6=0x20000d2f PA:0x80025c78 load:0x20000d2f
     1659762000	     82886	8000bc40	01cba383	lw	x7,28(x23)	 x23:0x80025c60  x7=0x6b8a0000 PA:0x80025c7c load:0x6b8a0000
     1659782000	     82887	8000bc44	020ba403	lw	x8,32(x23)	 x23:0x80025c60  x8=0xc8a41000 PA:0x80025c80 load:0xc8a41000
     1659802000	     82888	8000bc48	024ba483	lw	x9,36(x23)	 x23:0x80025c60  x9=0xffffffee PA:0x80025c84 load:0xffffffee
     1660022000	     82899	8000bc4c	028ba503	lw	x10,40(x23)	 x23:0x80025c60 x10=0x00000000 PA:0x80025c88 load:0x00000000
     1660402000	     82918	8000bc50	02cba583	lw	x11,44(x23)	 x23:0x80025c60 x11=0x00000290 PA:0x80025c8c load:0x00000290
     1660562000	     82926	8000bc54	030ba603	lw	x12,48(x23)	 x23:0x80025c60 x12=0x00000010 PA:0x80025c90 load:0x00000010
     1660762000	     82936	8000bc58	034ba683	lw	x13,52(x23)	 x23:0x80025c60 x13=0x00000290 PA:0x80025c94 load:0x00000290
     1661262000	     82961	8000bc5c	038ba703	lw	x14,56(x23)	 x23:0x80025c60 x14=0x00000000 PA:0x80025c98 load:0x00000000
     1661362000	     82966	8000bc60	03cba783	lw	x15,60(x23)	 x23:0x80025c60 x15=0x00000000 PA:0x80025c9c load:0x00000000
     1661562000	     82976	8000bc64	040ba803	lw	x16,64(x23)	 x23:0x80025c60 x16=0x0001ffff PA:0x80025ca0 load:0x0001ffff
     1661622000	     82979	8000bc68	044ba883	lw	x17,68(x23)	 x23:0x80025c60 x17=0x47e865b2 PA:0x80025ca4 load:0x47e865b2
     1661642000	     82980	8000bc6c	048ba903	lw	x18,72(x23)	 x23:0x80025c60 x18=0x00000200 PA:0x80025ca8 load:0x00000200
     1661662000	     82981	8000bc70	04cba983	lw	x19,76(x23)	 x23:0x80025c60 x19=0x19e5f58c PA:0x80025cac load:0x19e5f58c
     1662062000	     83001	8000bc74	050baa03	lw	x20,80(x23)	 x23:0x80025c60 x20=0x00000000 PA:0x80025cb0 load:0x00000000
     1662302000	     83013	8000bc78	054baa83	lw	x21,84(x23)	 x23:0x80025c60 x21=0x00000001 PA:0x80025cb4 load:0x00000001
     1662622000	     83029	8000bc7c	058bab03	lw	x22,88(x23)	 x23:0x80025c60 x22=0x80021ff8 PA:0x80025cb8 load:0x80021ff8
     1662682000	     83032	8000bc80	05cbab83	lw	x23,92(x23)	 x23:0x80025c60 x23=0x80025c60 PA:0x80025cbc load:0x80025c60
     1663122000	     83054	8000bc84	060bac03	lw	x24,96(x23)	 x23:0x80025c60 x24=0x0000d000 PA:0x80025cc0 load:0x0000d000
     1663342000	     83065	8000bc88	064bac83	lw	x25,100(x23)	 x23:0x80025c60 x25=0xf0003c86 PA:0x80025cc4 load:0xf0003c86
     1663402000	     83068	8000bc8c	068bad03	lw	x26,104(x23)	 x23:0x80025c60 x26=0x00000000 PA:0x80025cc8 load:0x00000000
     1663502000	     83073	8000bc90	06cbad83	lw	x27,108(x23)	 x23:0x80025c60 x27=0x00001170 PA:0x80025ccc load:0x00001170
     1663842000	     83090	8000bc94	070bae03	lw	x28,112(x23)	 x23:0x80025c60 x28=0x80021ff8 PA:0x80025cd0 load:0x80021ff8
     1664062000	     83101	8000bc98	074bae83	lw	x29,116(x23)	 x23:0x80025c60 x29=0xffffffff PA:0x80025cd4 load:0xffffffff
     1664122000	     83104	8000bc9c	078baf03	lw	x30,120(x23)	 x23:0x80025c60 x30=0xf0003c86 PA:0x80025cd8 load:0xf0003c86
     1664162000	     83106	8000bca0	07cbaf83	lw	x31,124(x23)	 x23:0x80025c60 x31=0x00000000 PA:0x80025cdc load:0x00000000
     1664182000	     83107	8000bca4	080b8b93	addi	x23,x23,128	 x23:0x80025c60 x23=0x80025ce0
     1664202000	     83108	8000bca8	000b82b3	add	x5,x23,x0	 x23:0x80025ce0  x0:0x00000000  x5=0x80025ce0
     1664262000	     83111	8000bcac	0002ab83	lw	x23,0(x5)	  x5:0x80025ce0 x23=0x80021df8 PA:0x80025ce0 load:0x80021df8
     1664282000	     83112	8000bcb0	0291	c.addi	x5,4	  x5:0x80025ce0  x5=0x80025ce4
     1664302000	     83113	8000bcb2	30200073	mret	
     1664882000	     83142	8000a614	0001	c.addi	x0,0	  x0:0x00000000  x0=0x00000000
     1668102000	     83303	8000a616	b8aeef73	csrrsi	x30,mhpmcounter10h,29	 x30=0x00000000
     1668162000	     83306	8000a61a	8e85	c.sub	x13,x9	 x13:0x00000290  x9:0xffffffee x13=0x000002a2
     1668182000	     83307	8000a61c	8219	c.srli	x12,0x6	 x12:0x00000010 x12=0x00000000
     1668202000	     83308	8000a61e	717d	c.addi16sp	x2,-16	  x2:0x6b8a0000  x2=0x6b89fff0
     1668222000	     83309	8000a620	7b306273	csrrsi	x0,0x7b3,0	  x0=0x00000000
     1668722000	     83334	80002700	0800006f	jal	x0,80002780	  x0=0x00000000
     1669342000	     83365	80002780	12f1	c.addi	x5,-4	  x5:0x80025ce4  x5=0x80025ce0
     1669422000	     83369	80002782	0172a023	sw	x23,0(x5)	  x5:0x80025ce0 x23:0x80021df8 PA:0x80025ce0 store:0x80021df8 load:0xffffffff
     1669442000	     83370	80002786	00028bb3	add	x23,x5,x0	  x5:0x80025ce0  x0:0x00000000 x23=0x80025ce0
     1669462000	     83371	8000278a	f80b8b93	addi	x23,x23,-128	 x23:0x80025ce0 x23=0x80025c60
     1669522000	     83374	8000278e	001ba223	sw	x1,4(x23)	 x23:0x80025c60  x1:0x00001170 PA:0x80025c64 store:0x00001170 load:0xffffffff
     1669942000	     83395	80002792	002ba423	sw	x2,8(x23)	 x23:0x80025c60  x2:0x6b89fff0 PA:0x80025c68 store:0x6b89fff0 load:0xffffffff
     1669962000	     83396	80002796	003ba623	sw	x3,12(x23)	 x23:0x80025c60  x3:0x20100000 PA:0x80025c6c store:0x20100000 load:0xffffffff
     1670162000	     83406	8000279a	004ba823	sw	x4,16(x23)	 x23:0x80025c60  x4:0x00000000 PA:0x80025c70 store:0x00000000 load:0xffffffff
     1670222000	     83409	8000279e	005baa23	sw	x5,20(x23)	 x23:0x80025c60  x5:0x80025ce0 PA:0x80025c74 store:0x80025ce0 load:0xffffffff
     1670642000	     83430	800027a2	006bac23	sw	x6,24(x23)	 x23:0x80025c60  x6:0x20000d2f PA:0x80025c78 store:0x20000d2f load:0xffffffff
     1670702000	     83433	800027a6	007bae23	sw	x7,28(x23)	 x23:0x80025c60  x7:0x6b8a0000 PA:0x80025c7c store:0x6b8a0000 load:0xffffffff
     1670922000	     83444	800027aa	028ba023	sw	x8,32(x23)	 x23:0x80025c60  x8:0xc8a41000 PA:0x80025c80 store:0xc8a41000 load:0xffffffff
     1671022000	     83449	800027ae	029ba223	sw	x9,36(x23)	 x23:0x80025c60  x9:0xffffffee PA:0x80025c84 store:0xffffffee load:0xffffffff
     1671162000	     83456	800027b2	02aba423	sw	x10,40(x23)	 x23:0x80025c60 x10:0x00000000 PA:0x80025c88 store:0x00000000 load:0xffffffff
     1671222000	     83459	800027b6	02bba623	sw	x11,44(x23)	 x23:0x80025c60 x11:0x00000290 PA:0x80025c8c store:0x00000290 load:0xffffffff
     1671442000	     83470	800027ba	02cba823	sw	x12,48(x23)	 x23:0x80025c60 x12:0x00000000 PA:0x80025c90 store:0x00000000 load:0xffffffff
     1671462000	     83471	800027be	02dbaa23	sw	x13,52(x23)	 x23:0x80025c60 x13:0x000002a2 PA:0x80025c94 store:0x000002a2 load:0xffffffff
     1671582000	     83477	800027c2	02ebac23	sw	x14,56(x23)	 x23:0x80025c60 x14:0x00000000 PA:0x80025c98 store:0x00000000 load:0xffffffff
     1671642000	     83480	800027c6	02fbae23	sw	x15,60(x23)	 x23:0x80025c60 x15:0x00000000 PA:0x80025c9c store:0x00000000 load:0xffffffff
     1671782000	     83487	800027ca	050ba023	sw	x16,64(x23)	 x23:0x80025c60 x16:0x0001ffff PA:0x80025ca0 store:0x0001ffff load:0xffffffff
     1671982000	     83497	800027ce	051ba223	sw	x17,68(x23)	 x23:0x80025c60 x17:0x47e865b2 PA:0x80025ca4 store:0x47e865b2 load:0xffffffff
     1672322000	     83514	800027d2	052ba423	sw	x18,72(x23)	 x23:0x80025c60 x18:0x00000200 PA:0x80025ca8 store:0x00000200 load:0xffffffff
     1672382000	     83517	800027d6	053ba623	sw	x19,76(x23)	 x23:0x80025c60 x19:0x19e5f58c PA:0x80025cac store:0x19e5f58c load:0xffffffff
     1672402000	     83518	800027da	054ba823	sw	x20,80(x23)	 x23:0x80025c60 x20:0x00000000 PA:0x80025cb0 store:0x00000000 load:0xffffffff
     1672422000	     83519	800027de	055baa23	sw	x21,84(x23)	 x23:0x80025c60 x21:0x00000001 PA:0x80025cb4 store:0x00000001 load:0xffffffff
     1672462000	     83521	800027e2	056bac23	sw	x22,88(x23)	 x23:0x80025c60 x22:0x80021ff8 PA:0x80025cb8 store:0x80021ff8 load:0xffffffff
     1672482000	     83522	800027e6	057bae23	sw	x23,92(x23)	 x23:0x80025c60 x23:0x80025c60 PA:0x80025cbc store:0x80025c60 load:0xffffffff
     1672922000	     83544	800027ea	078ba023	sw	x24,96(x23)	 x23:0x80025c60 x24:0x0000d000 PA:0x80025cc0 store:0x0000d000 load:0xffffffff
     1672982000	     83547	800027ee	079ba223	sw	x25,100(x23)	 x23:0x80025c60 x25:0xf0003c86 PA:0x80025cc4 store:0xf0003c86 load:0xffffffff
     1673162000	     83556	800027f2	07aba423	sw	x26,104(x23)	 x23:0x80025c60 x26:0x00000000 PA:0x80025cc8 store:0x00000000 load:0xffffffff
     1673302000	     83563	800027f6	07bba623	sw	x27,108(x23)	 x23:0x80025c60 x27:0x00001170 PA:0x80025ccc store:0x00001170 load:0xffffffff
     1673722000	     83584	800027fa	07cba823	sw	x28,112(x23)	 x23:0x80025c60 x28:0x80021ff8 PA:0x80025cd0 store:0x80021ff8 load:0xffffffff
     1673782000	     83587	800027fe	07dbaa23	sw	x29,116(x23)	 x23:0x80025c60 x29:0xffffffff PA:0x80025cd4 store:0xffffffff load:0xffffffff
     1673842000	     83590	80002802	07ebac23	sw	x30,120(x23)	 x23:0x80025c60 x30:0x00000000 PA:0x80025cd8 store:0x00000000 load:0xffffffff
     1673962000	     83596	80002806	07fbae23	sw	x31,124(x23)	 x23:0x80025c60 x31:0x00000000 PA:0x80025cdc store:0x00000000 load:0xffffffff
     1673982000	     83597	8000280a	000b82b3	add	x5,x23,x0	 x23:0x80025c60  x0:0x00000000  x5=0x80025c60
     1674002000	     83598	8000280e	90000c37	lui	x24,0x90000	 x24=0x90000000
     1674022000	     83599	80002812	1c71	c.addi	x24,-4	 x24:0x90000000 x24=0x8ffffffc
     1674042000	     83600	80002814	4f21	c.li	x30,8	 x30=0x00000008
     1674062000	     83601	80002816	0f22	c.slli	x30,0x8	 x30:0x00000008 x30=0x00000800
     1674082000	     83602	80002818	000f0f13	addi	x30,x30,0	 x30:0x00000800 x30=0x00000800
     1674562000	     83626	8000281c	01ec2023	sw	x30,0(x24)	 x24:0x8ffffffc x30:0x00000800 PA:0x8ffffffc store:0x00000800 load:0xffffffff
     1674582000	     83627	80002820	34102f73	csrrs	x30,mepc,x0	  x0:0x00000000 x30=0x8000a620
     1674602000	     83628	80002824	34202f73	csrrs	x30,mcause,x0	  x0:0x00000000 x30=0x00000002
     1674622000	     83629	80002828	4c0d	c.li	x24,3	 x24=0x00000003
     1674782000	     83637	8000282a	018f1463	bne	x30,x24,80002832	 x30:0x00000002 x24:0x00000003
     1675082000	     83652	80002832	4c21	c.li	x24,8	 x24=0x00000008
     1675102000	     83653	80002834	058f0d63	beq	x30,x24,8000288e	 x30:0x00000002 x24:0x00000008
     1675182000	     83657	80002838	4c25	c.li	x24,9	 x24=0x00000009
     1675322000	     83664	8000283a	058f0a63	beq	x30,x24,8000288e	 x30:0x00000002 x24:0x00000009
     1675342000	     83665	8000283e	4c2d	c.li	x24,11	 x24=0x0000000b
     1675482000	     83672	80002840	058f0763	beq	x30,x24,8000288e	 x30:0x00000002 x24:0x0000000b
     1675502000	     83673	80002844	4c05	c.li	x24,1	 x24=0x00000001
     1675522000	     83674	80002846	358f0363	beq	x30,x24,80002b8c	 x30:0x00000002 x24:0x00000001
     1675542000	     83675	8000284a	4c15	c.li	x24,5	 x24=0x00000005
     1675762000	     83686	8000284c	638f0a63	beq	x30,x24,80002e80	 x30:0x00000002 x24:0x00000005
     1675862000	     83691	80002850	4c1d	c.li	x24,7	 x24=0x00000007
     1676082000	     83702	80002852	158f0ce3	beq	x30,x24,800031aa	 x30:0x00000002 x24:0x00000007
     1676102000	     83703	80002856	4c31	c.li	x24,12	 x24=0x0000000c
     1676122000	     83704	80002858	018f1463	bne	x30,x24,80002860	 x30:0x00000002 x24:0x0000000c
     1676662000	     83731	80002860	4c35	c.li	x24,13	 x24=0x0000000d
     1676882000	     83742	80002862	018f1463	bne	x30,x24,8000286a	 x30:0x00000002 x24:0x0000000d
     1677182000	     83757	8000286a	4c3d	c.li	x24,15	 x24=0x0000000f
     1677602000	     83778	8000286c	018f1463	bne	x30,x24,80002874	 x30:0x00000002 x24:0x0000000f
     1678082000	     83802	80002874	4c09	c.li	x24,2	 x24=0x00000002
     1678102000	     83803	80002876	018f1463	bne	x30,x24,8000287e	 x30:0x00000002 x24:0x00000002
     1678122000	     83804	8000287a	3740906f	jal	x0,8000bbee	  x0=0x00000000
     1678522000	     83824	8000bbee	90000c37	lui	x24,0x90000	 x24=0x90000000
     1678542000	     83825	8000bbf2	1c71	c.addi	x24,-4	 x24:0x90000000 x24=0x8ffffffc
     1678602000	     83828	8000bbf4	4f29	c.li	x30,10	 x30=0x0000000a
     1678622000	     83829	8000bbf6	0f22	c.slli	x30,0x8	 x30:0x0000000a x30=0x00000a00
     1678762000	     83836	8000bbf8	000f0f13	addi	x30,x30,0	 x30:0x00000a00 x30=0x00000a00
     1679222000	     83859	8000bbfc	01ec2023	sw	x30,0(x24)	 x24:0x8ffffffc x30:0x00000a00 PA:0x8ffffffc store:0x00000a00 load:0xffffffff
     1679242000	     83860	8000bc00	90000c37	lui	x24,0x90000	 x24=0x90000000
     1679262000	     83861	8000bc04	1c71	c.addi	x24,-4	 x24:0x90000000 x24=0x8ffffffc
     1679442000	     83870	8000bc06	34200f13	addi	x30,x0,834	  x0:0x00000000 x30=0x00000342
     1679462000	     83871	8000bc0a	0f22	c.slli	x30,0x8	 x30:0x00000342 x30=0x00034200
     1679482000	     83872	8000bc0c	0f0d	c.addi	x30,3	 x30:0x00034200 x30=0x00034203
     1679702000	     83883	8000bc0e	01ec2023	sw	x30,0(x24)	 x24:0x8ffffffc x30:0x00034203 PA:0x8ffffffc store:0x00034203 load:0xffffffff
     1679822000	     83889	8000bc12	34202f73	csrrs	x30,mcause,x0	  x0:0x00000000 x30=0x00000002
     1680282000	     83912	8000bc16	01ec2023	sw	x30,0(x24)	 x24:0x8ffffffc x30:0x00000002 PA:0x8ffffffc store:0x00000002 load:0xffffffff
     1680302000	     83913	8000bc1a	34102f73	csrrs	x30,mepc,x0	  x0:0x00000000 x30=0x8000a620
     1680322000	     83914	8000bc1e	0f11	c.addi	x30,4	 x30:0x8000a620 x30=0x8000a624
     1680422000	     83919	8000bc20	341f1073	csrrw	x0,mepc,x30	 x30:0x8000a624  x0=0x00000000
     1680482000	     83922	8000bc24	00028bb3	add	x23,x5,x0	  x5:0x80025c60  x0:0x00000000 x23=0x80025c60
     1680942000	     83945	8000bc28	004ba083	lw	x1,4(x23)	 x23:0x80025c60  x1=0x00001170 PA:0x80025c64 load:0x00001170
     1681062000	     83951	8000bc2c	008ba103	lw	x2,8(x23)	 x23:0x80025c60  x2=0x6b89fff0 PA:0x80025c68 load:0x6b89fff0
     1681422000	     83969	8000bc30	00cba183	lw	x3,12(x23)	 x23:0x80025c60  x3=0x20100000 PA:0x80025c6c load:0x20100000
     1681482000	     83972	8000bc34	010ba203	lw	x4,16(x23)	 x23:0x80025c60  x4=0x00000000 PA:0x80025c70 load:0x00000000
     1681502000	     83973	8000bc38	014ba283	lw	x5,20(x23)	 x23:0x80025c60  x5=0x80025ce0 PA:0x80025c74 load:0x80025ce0
     1681522000	     83974	8000bc3c	018ba303	lw	x6,24(x23)	 x23:0x80025c60  x6=0x20000d2f PA:0x80025c78 load:0x20000d2f
     1681582000	     83977	8000bc40	01cba383	lw	x7,28(x23)	 x23:0x80025c60  x7=0x6b8a0000 PA:0x80025c7c load:0x6b8a0000
     1681622000	     83979	8000bc44	020ba403	lw	x8,32(x23)	 x23:0x80025c60  x8=0xc8a41000 PA:0x80025c80 load:0xc8a41000
     1681642000	     83980	8000bc48	024ba483	lw	x9,36(x23)	 x23:0x80025c60  x9=0xffffffee PA:0x80025c84 load:0xffffffee
     1681662000	     83981	8000bc4c	028ba503	lw	x10,40(x23)	 x23:0x80025c60 x10=0x00000000 PA:0x80025c88 load:0x00000000
     1682142000	     84005	8000bc50	02cba583	lw	x11,44(x23)	 x23:0x80025c60 x11=0x00000290 PA:0x80025c8c load:0x00000290
     1682202000	     84008	8000bc54	030ba603	lw	x12,48(x23)	 x23:0x80025c60 x12=0x00000000 PA:0x80025c90 load:0x00000000
     1682262000	     84011	8000bc58	034ba683	lw	x13,52(x23)	 x23:0x80025c60 x13=0x000002a2 PA:0x80025c94 load:0x000002a2
     1682742000	     84035	8000bc5c	038ba703	lw	x14,56(x23)	 x23:0x80025c60 x14=0x00000000 PA:0x80025c98 load:0x00000000
     1682762000	     84036	8000bc60	03cba783	lw	x15,60(x23)	 x23:0x80025c60 x15=0x00000000 PA:0x80025c9c load:0x00000000
     1683122000	     84054	8000bc64	040ba803	lw	x16,64(x23)	 x23:0x80025c60 x16=0x0001ffff PA:0x80025ca0 load:0x0001ffff
     1683142000	     84055	8000bc68	044ba883	lw	x17,68(x23)	 x23:0x80025c60 x17=0x47e865b2 PA:0x80025ca4 load:0x47e865b2
     1683162000	     84056	8000bc6c	048ba903	lw	x18,72(x23)	 x23:0x80025c60 x18=0x00000200 PA:0x80025ca8 load:0x00000200
     1683522000	     84074	8000bc70	04cba983	lw	x19,76(x23)	 x23:0x80025c60 x19=0x19e5f58c PA:0x80025cac load:0x19e5f58c
     1683802000	     84088	8000bc74	050baa03	lw	x20,80(x23)	 x23:0x80025c60 x20=0x00000000 PA:0x80025cb0 load:0x00000000
     1683862000	     84091	8000bc78	054baa83	lw	x21,84(x23)	 x23:0x80025c60 x21=0x00000001 PA:0x80025cb4 load:0x00000001
     1684202000	     84108	8000bc7c	058bab03	lw	x22,88(x23)	 x23:0x80025c60 x22=0x80021ff8 PA:0x80025cb8 load:0x80021ff8
     1684262000	     84111	8000bc80	05cbab83	lw	x23,92(x23)	 x23:0x80025c60 x23=0x80025c60 PA:0x80025cbc load:0x80025c60
     1684362000	     84116	8000bc84	060bac03	lw	x24,96(x23)	 x23:0x80025c60 x24=0x0000d000 PA:0x80025cc0 load:0x0000d000
     1684422000	     84119	8000bc88	064bac83	lw	x25,100(x23)	 x23:0x80025c60 x25=0xf0003c86 PA:0x80025cc4 load:0xf0003c86
     1684622000	     84129	8000bc8c	068bad03	lw	x26,104(x23)	 x23:0x80025c60 x26=0x00000000 PA:0x80025cc8 load:0x00000000
     1684682000	     84132	8000bc90	06cbad83	lw	x27,108(x23)	 x23:0x80025c60 x27=0x00001170 PA:0x80025ccc load:0x00001170
     1684942000	     84145	8000bc94	070bae03	lw	x28,112(x23)	 x23:0x80025c60 x28=0x80021ff8 PA:0x80025cd0 load:0x80021ff8
     1685082000	     84152	8000bc98	074bae83	lw	x29,116(x23)	 x23:0x80025c60 x29=0xffffffff PA:0x80025cd4 load:0xffffffff
     1685102000	     84153	8000bc9c	078baf03	lw	x30,120(x23)	 x23:0x80025c60 x30=0x00000000 PA:0x80025cd8 load:0x00000000
     1685462000	     84171	8000bca0	07cbaf83	lw	x31,124(x23)	 x23:0x80025c60 x31=0x00000000 PA:0x80025cdc load:0x00000000
     1685482000	     84172	8000bca4	080b8b93	addi	x23,x23,128	 x23:0x80025c60 x23=0x80025ce0
     1685502000	     84173	8000bca8	000b82b3	add	x5,x23,x0	 x23:0x80025ce0  x0:0x00000000  x5=0x80025ce0
     1685602000	     84178	8000bcac	0002ab83	lw	x23,0(x5)	  x5:0x80025ce0 x23=0x80021df8 PA:0x80025ce0 load:0x80021df8
     1685622000	     84179	8000bcb0	0291	c.addi	x5,4	  x5:0x80025ce0  x5=0x80025ce4
     1685642000	     84180	8000bcb2	30200073	mret	
     1685702000	     84183	8000a624	010b3b33	sltu	x22,x22,x16	 x22:0x80021ff8 x16:0x0001ffff x22=0x00000000
     1686142000	     84205	8000a628	1a46f893	andi	x17,x13,420	 x13:0x000002a2 x17=0x000000a0
     1686162000	     84206	8000a62c	011933b3	sltu	x7,x18,x17	 x18:0x00000200 x17:0x000000a0  x7=0x00000000
     1686262000	     84211	8000a630	0276d3b3	divu	x7,x13,x7	 x13:0x000002a2  x7:0x00000000  x7=0xffffffff
     1686282000	     84212	8000a634	0d56	c.slli	x26,0x15	 x26:0x00000000 x26=0x00000000
     1686302000	     84213	8000a636	0001	c.addi	x0,0	  x0:0x00000000  x0=0x00000000
     1686322000	     84214	8000a638	02448c63	beq	x9,x4,8000a670	  x9:0xffffffee  x4:0x00000000
     1686362000	     84216	8000a63c	0214a1b3	mulhsu	x3,x9,x1	  x9:0xffffffee  x1:0x00001170  x3=0xffffffff
     1686382000	     84217	8000a640	e289	c.bnez	x13,8000a642	 x13:0x000002a2
     1686862000	     84241	8000a642	305039f3	csrrc	x19,mtvec,x0	  x0:0x00000000 x19=0x80002701
     1687602000	     84278	8000a646	02867cb3	remu	x25,x12,x8	 x12:0x00000000  x8:0xc8a41000 x25=0x00000000
     1687622000	     84279	8000a64a	0244dc63	bge	x9,x4,8000a682	  x9:0xffffffee  x4:0x00000000
     1687642000	     84280	8000a64e	f90b4693	xori	x13,x22,-112	 x22:0x00000000 x13=0xffffff90
     1687662000	     84281	8000a652	01df0433	add	x8,x30,x29	 x30:0x00000000 x29:0xffffffff  x8=0xffffffff
     1687682000	     84282	8000a656	14fd	c.addi	x9,-1	  x9:0xffffffee  x9=0xffffffed
     1687702000	     84283	8000a658	031e0733	mul	x14,x28,x17	 x28:0x80021ff8 x17:0x000000a0 x14=0x0153fb00
     1687722000	     84284	8000a65c	ca8d	c.beqz	x13,8000a68e	 x13:0xffffff90
     1687822000	     84289	8000a65e	05316063	bltu	x2,x19,8000a69e	  x2:0x6b89fff0 x19:0x80002701
     1688562000	     84326	8000a69e	02b38b33	mul	x22,x7,x11	  x7:0xffffffff x11:0x00000290 x22=0xfffffd70
     1688582000	     84327	8000a6a2	3b706e73	csrrsi	x28,pmpaddr7,0	 x28=0x3dddeb0c
     1688602000	     84328	8000a6a6	34336d73	csrrsi	x26,mtval,6	 x26=0x7b306273
     1688662000	     84331	8000a6aa	8d5d	c.or	x10,x15	 x10:0x00000000 x15:0x00000000 x10=0x00000000
     1688802000	     84338	8000a6ac	3dc5c693	xori	x13,x11,988	 x11:0x00000290 x13=0x0000014c
     1689422000	     84369	8000a6b0	8191	c.srli	x11,0x4	 x11:0x00000290 x11=0x00000029
     1689442000	     84370	8000a6b2	717d	c.addi16sp	x2,-16	  x2:0x6b89fff0  x2=0x6b89ffe0
     1689462000	     84371	8000a6b4	b09da9f3	csrrs	x19,mhpmcounter9,x27	 x27:0x00001170 x19=0xd03b51af
     1689642000	     84380	8000a6b8	0001	c.addi	x0,0	  x0:0x00000000  x0=0x00000000
     1689662000	     84381	8000a6ba	00421533	sll	x10,x4,x4	  x4:0x00000000  x4:0x00000000 x10=0x00000000
     1690082000	     84402	8000a6be	01378e63	beq	x15,x19,8000a6da	 x15:0x00000000 x19:0xd03b51af
     1716942000	     85745	8000a6c2	b8003573	csrrc	x10,mcycleh,x0	  x0:0x00000000 x10=0x00000000
     1716962000	     85746	8000a6c6	406cd593	srai	x11,x25,0x6	 x25:0x00000000 x11=0x00000000
     1716982000	     85747	8000a6ca	6f51	c.lui	x30,0x14	 x30=0x00014000
     1717002000	     85748	8000a6cc	01d220b3	slt	x1,x4,x29	  x4:0x00000000 x29:0xffffffff  x1=0x00000000
     1717022000	     85749	8000a6d0	c5aaf593	andi	x11,x21,-934	 x21:0x00000001 x11=0x00000000
     1717062000	     85751	8000a6d4	03c63b33	mulhu	x22,x12,x28	 x12:0x00000000 x28:0x3dddeb0c x22=0x00000000
     1717082000	     85752	8000a6d8	4d79	c.li	x26,30	 x26=0x0000001e
     1717102000	     85753	8000a6da	0264e863	bltu	x9,x6,8000a70a	  x9:0xffffffed  x6:0x20000d2f
     1717122000	     85754	8000a6de	ca85	c.beqz	x13,8000a70e	 x13:0x0000014c
     1717202000	     85758	8000a6e0	031396b3	mulh	x13,x7,x17	  x7:0xffffffff x17:0x000000a0 x13=0xffffffff
     1717302000	     85763	8000a6e4	3a303ff3	csrrc	x31,pmpcfg3,x0	  x0:0x00000000 x31=0x0f0f0f0f
     1717342000	     85765	8000a6e8	8085	c.srli	x9,0x1	  x9:0xffffffed  x9=0x7ffffff6
     1717562000	     85776	8000a6ea	4012dd93	srai	x27,x5,0x1	  x5:0x80025ce4 x27=0xc0012e72
     1717662000	     85781	8000a6ee	b0b031f3	csrrc	x3,mhpmcounter11,x0	  x0:0x00000000  x3=0x000002ee
     1718082000	     85802	8000a6f2	0ff0000f	fence	iorw,iorw	
     1718202000	     85808	8000a6f6	017e8033	add	x0,x29,x23	 x29:0xffffffff x23:0x80021df8  x0=0x00000000
     1718222000	     85809	8000a6fa	0099acb3	slt	x25,x19,x9	 x19:0xd03b51af  x9:0x7ffffff6 x25=0x00000001
     1718242000	     85810	8000a6fe	8d0d	c.sub	x10,x11	 x10:0x00000000 x11:0x00000000 x10=0x00000000
     1718262000	     85811	8000a700	8ef5	c.and	x13,x13	 x13:0xffffffff x13:0xffffffff x13=0xffffffff
     1718282000	     85812	8000a702	014fea63	bltu	x31,x20,8000a716	 x31:0x0f0f0f0f x20:0x00000000
     1718302000	     85813	8000a706	326023f3	csrrs	x7,mhpmevent6,x0	  x0:0x00000000  x7=0x00000008
     1718322000	     85814	8000a70a	418ede13	srai	x28,x29,0x18	 x29:0xffffffff x28=0xffffffff
     1718742000	     85835	8000a70e	25e44393	xori	x7,x8,606	  x8:0xffffffff  x7=0xfffffda1
     1718762000	     85836	8000a712	01c081b3	add	x3,x1,x28	  x1:0x00000000 x28:0xffffffff  x3=0xffffffff
     1718802000	     85838	8000a716	03ab2633	mulhsu	x12,x22,x26	 x22:0x00000000 x26:0x0000001e x12=0x00000000
     1718822000	     85839	8000a71a	02ac8fb3	mul	x31,x25,x10	 x25:0x00000001 x10:0x00000000 x31=0x00000000
     1718922000	     85844	8000a71e	0352a533	mulhsu	x10,x5,x21	  x5:0x80025ce4 x21:0x00000001 x10=0xffffffff
     1719662000	     85881	8000a722	03246433	rem	x8,x8,x18	  x8:0xffffffff x18:0x00000200  x8=0xffffffff
     1719682000	     85882	8000a726	01496663	bltu	x18,x20,8000a732	 x18:0x00000200 x20:0x00000000
     1719702000	     85883	8000a72a	3bb065f3	csrrsi	x11,pmpaddr11,0	 x11=0x0eeefc1d
     1719722000	     85884	8000a72e	6f482193	slti	x3,x16,1780	 x16:0x0001ffff  x3=0x00000000
     1719742000	     85885	8000a732	4a9d0eb7	lui	x29,0x4a9d0	 x29=0x4a9d0000
     1719762000	     85886	8000a736	00083f33	sltu	x30,x16,x0	 x16:0x0001ffff  x0:0x00000000 x30=0x00000000
     1719782000	     85887	8000a73a	81b2	c.mv	x3,x12	  x0:0x00000000 x12:0x00000000  x3=0x00000000
     1719802000	     85888	8000a73c	0104efb3	or	x31,x9,x16	  x9:0x7ffffff6 x16:0x0001ffff x31=0x7fffffff
     1719822000	     85889	8000a740	418c08b3	sub	x17,x24,x24	 x24:0x0000d000 x24:0x0000d000 x17=0x00000000
     1719982000	     85897	8000a744	027e9f33	mulh	x30,x29,x7	 x29:0x4a9d0000  x7:0xfffffda1 x30=0xffffff4f
     1720182000	     85907	8000a748	b8013e73	csrrc	x28,mcycleh,x2	  x2:0x6b89ffe0 x28=0x00000000
     1720602000	     85928	8000a74c	8c39	c.xor	x8,x14	  x8:0xffffffff x14:0x0153fb00  x8=0xfeac04ff
     1720622000	     85929	8000a74e	01456e63	bltu	x10,x20,8000a76a	 x10:0xffffffff x20:0x00000000
     1720802000	     85938	8000a752	036cff63	bgeu	x25,x22,8000a790	 x25:0x00000001 x22:0x00000000
     1721102000	     85953	8000a790	8e4d	c.or	x12,x11	 x12:0x00000000 x11:0x0eeefc1d x12=0x0eeefc1d
     1722002000	     85998	8000a792	02a8dd33	divu	x26,x17,x10	 x17:0x00000000 x10:0xffffffff x26=0x00000000
     1722022000	     85999	8000a796	03aa0833	mul	x16,x20,x26	 x20:0x00000000 x26:0x00000000 x16=0x00000000
     1722042000	     86000	8000a79a	1008	c.addi4spn	x10,x2,32	 x10=0x6b8a0000
     1722062000	     86001	8000a79c	747028f3	csrrs	x17,0x747,x0	  x0:0x00000000 x17=0x00000004
     1722082000	     86002	8000a7a0	016edcb3	srl	x25,x29,x22	 x29:0x4a9d0000 x22:0x00000000 x25=0x4a9d0000
     1722102000	     86003	8000a7a4	4f8cea13	ori	x20,x25,1272	 x25:0x4a9d0000 x20=0x4a9d04f8
     1722122000	     86004	8000a7a8	000445b3	xor	x11,x8,x0	  x8:0xfeac04ff  x0:0x00000000 x11=0xfeac04ff
     1722142000	     86005	8000a7ac	8d29	c.xor	x10,x10	 x10:0x6b8a0000 x10:0x6b8a0000 x10=0x00000000
     1722162000	     86006	8000a7ae	82f9	c.srli	x13,0x1e	 x13:0xffffffff x13=0x00000003
     1722182000	     86007	8000a7b0	3b6075f3	csrrci	x11,pmpaddr6,0	 x11=0x3999a6c8
     1722562000	     86026	8000a7b4	0ff0000f	fence	iorw,iorw	
     1722582000	     86027	8000a7b8	0992	c.slli	x19,0x4	 x19:0xd03b51af x19=0x03b51af0
     1722602000	     86028	8000a7ba	e0b9	c.bnez	x9,8000a800	  x9:0x7ffffff6
     1723242000	     86060	8000a800	0000100f	fence.i	
     1724202000	     86108	8000a804	0ca6	c.slli	x25,0x9	 x25:0x4a9d0000 x25=0x3a000000
     1724222000	     86109	8000a806	02771a63	bne	x14,x7,8000a83a	 x14:0x0153fb00  x7:0xfffffda1
     1724582000	     86127	8000a83a	b8595b73	csrrwi	x22,mhpmcounter5h,18	 x22=0x00000000
     1725602000	     86178	8000a83e	0274c4b3	div	x9,x9,x7	  x9:0x7ffffff6  x7:0xfffffda1  x9=0xffca0438
     1725622000	     86179	8000a842	0001	c.addi	x0,0	  x0:0x00000000  x0=0x00000000
     1725642000	     86180	8000a844	0001	c.addi	x0,0	  x0:0x00000000  x0=0x00000000
     1725662000	     86181	8000a846	610d	c.addi16sp	x2,160	  x2:0x6b89ffe0  x2=0x6b8a0080
     1725682000	     86182	8000a848	9d6e	c.add	x26,x27	 x26:0x00000000 x27:0xc0012e72 x26=0xc0012e72
     1725722000	     86184	8000a84a	03c73133	mulhu	x2,x14,x28	 x14:0x0153fb00 x28:0x00000000  x2=0x00000000
     1725742000	     86185	8000a84e	412b01b3	sub	x3,x22,x18	 x22:0x00000000 x18:0x00000200  x3=0xfffffe00
     1725762000	     86186	8000a852	e401	c.bnez	x8,8000a85a	  x8:0xfeac04ff
     1726162000	     86206	8000a85a	00c94333	xor	x6,x18,x12	 x18:0x00000200 x12:0x0eeefc1d  x6=0x0eeefe1d
     1726582000	     86227	8000a85e	0000100f	fence.i	
     1727742000	     86285	8000a862	8f61	c.and	x14,x8	 x14:0x0153fb00  x8:0xfeac04ff x14=0x00000000
     1727942000	     86295	8000a864	0ff0000f	fence	iorw,iorw	
     1728242000	     86310	8000a868	0188b733	sltu	x14,x17,x24	 x17:0x00000004 x24:0x0000d000 x14=0x00000001
     1728262000	     86311	8000a86c	92d08613	addi	x12,x1,-1747	  x1:0x00000000 x12=0xfffff92d
     1728282000	     86312	8000a870	717d	c.addi16sp	x2,-16	  x2:0x00000000  x2=0xfffffff0
     1728402000	     86318	8000a872	3b403673	csrrc	x12,pmpaddr4,x0	  x0:0x00000000 x12=0x31111e40
     1728822000	     86339	8000a876	010c6733	or	x14,x24,x16	 x24:0x0000d000 x16:0x00000000 x14=0x0000d000
     1728842000	     86340	8000a87a	01425b33	srl	x22,x4,x20	  x4:0x00000000 x20:0x4a9d04f8 x22=0x00000000
     1728862000	     86341	8000a87e	6bd9af93	slti	x31,x19,1725	 x19:0x03b51af0 x31=0x00000000
     1728882000	     86342	8000a882	344a4b13	xori	x22,x20,836	 x20:0x4a9d04f8 x22=0x4a9d07bc
     1729082000	     86352	8000a886	02a40e33	mul	x28,x8,x10	  x8:0xfeac04ff x10:0x00000000 x28=0x00000000
     1729102000	     86353	8000a88a	8e55	c.or	x12,x13	 x12:0x31111e40 x13:0x00000003 x12=0x31111e43
     1729122000	     86354	8000a88c	40425eb3	sra	x29,x4,x4	  x4:0x00000000  x4:0x00000000 x29=0x00000000
     1729382000	     86367	8000a890	01eef563	bgeu	x29,x30,8000a89a	 x29:0x00000000 x30:0xffffff4f
     1729522000	     86374	8000a894	1afd	c.addi	x21,-1	 x21:0x00000001 x21=0x00000000
     1729542000	     86375	8000a896	93be	c.add	x7,x15	  x7:0xfffffda1 x15:0x00000000  x7=0xfffffda1
     1729562000	     86376	8000a898	0001	c.addi	x0,0	  x0:0x00000000  x0=0x00000000
     1729582000	     86377	8000a89a	043d9263	bne	x27,x3,8000a8de	 x27:0xc0012e72  x3:0xfffffe00
     1730822000	     86439	8000a8de	03607533	remu	x10,x0,x22	  x0:0x00000000 x22:0x4a9d07bc x10=0x00000000
     1730842000	     86440	8000a8e2	841e	c.mv	x8,x7	  x0:0x00000000  x7:0xfffffda1  x8=0xfffffda1
     1730862000	     86441	8000a8e4	a3282d93	slti	x27,x16,-1486	 x16:0x00000000 x27=0x00000000
     1730882000	     86442	8000a8e8	8b61	c.andi	x14,24	 x14:0x0000d000 x14=0x00000000
     1730902000	     86443	8000a8ea	344035f3	csrrc	x11,mip,x0	  x0:0x00000000 x11=0x00000000
     1730922000	     86444	8000a8ee	0000100f	fence.i	
     1731162000	     86456	8000a8f2	cc220113	addi	x2,x4,-830	  x4:0x00000000  x2=0xfffffcc2
     1731562000	     86476	8000a8f6	00ce7533	and	x10,x28,x12	 x28:0x00000000 x12:0x31111e43 x10=0x00000000
     1731582000	     86477	8000a8fa	cf15	c.beqz	x14,8000a936	 x14:0x00000000
     1732802000	     86538	8000a936	be752517	auipc	x10,0xbe752	 x10=0x3e75c936
     1732822000	     86539	8000a93a	0836	c.slli	x16,0xd	 x16:0x00000000 x16=0x00000000
     1732842000	     86540	8000a93c	8dc5	c.or	x11,x9	 x11:0x00000000  x9:0xffca0438 x11=0xffca0438
     1732862000	     86541	8000a93e	03d88a33	mul	x20,x17,x29	 x17:0x00000004 x29:0x00000000 x20=0x00000000
     1732882000	     86542	8000a942	1a7d	c.addi	x20,-1	 x20:0x00000000 x20=0xffffffff
     1732902000	     86543	8000a944	00f2ba33	sltu	x20,x5,x15	  x5:0x80025ce4 x15:0x00000000 x20=0x00000000
     1732922000	     86544	8000a948	8ead	c.xor	x13,x11	 x13:0x00000003 x11:0xffca0438 x13=0xffca043b
     1733042000	     86550	8000a94a	024605b3	mul	x11,x12,x4	 x12:0x31111e43  x4:0x00000000 x11=0x00000000
     1733302000	     86563	8000a94e	00aced33	or	x26,x25,x10	 x25:0x3a000000 x10:0x3e75c936 x26=0x3e75c936
     1733322000	     86564	8000a952	41628033	sub	x0,x5,x22	  x5:0x80025ce4 x22:0x4a9d07bc  x0=0x00000000
     1733342000	     86565	8000a956	0eaa	c.slli	x29,0xa	 x29:0x00000000 x29=0x00000000
     1733722000	     86584	8000a958	8ed9	c.or	x13,x14	 x13:0xffca043b x14:0x00000000 x13=0xffca043b
     1733742000	     86585	8000a95a	01589833	sll	x16,x17,x21	 x17:0x00000004 x21:0x00000000 x16=0x00000004
     1733762000	     86586	8000a95e	f11f5b73	csrrwi	x0,mvendorid,30	  x0=0x00000000
     1734382000	     86617	80002700	0800006f	jal	x0,80002780	  x0=0x00000000
     1734942000	     86645	80002780	12f1	c.addi	x5,-4	  x5:0x80025ce4  x5=0x80025ce0
     1735142000	     86655	80002782	0172a023	sw	x23,0(x5)	  x5:0x80025ce0 x23:0x80021df8 PA:0x80025ce0 store:0x80021df8 load:0xffffffff
     1735162000	     86656	80002786	00028bb3	add	x23,x5,x0	  x5:0x80025ce0  x0:0x00000000 x23=0x80025ce0
     1735182000	     86657	8000278a	f80b8b93	addi	x23,x23,-128	 x23:0x80025ce0 x23=0x80025c60
     1735242000	     86660	8000278e	001ba223	sw	x1,4(x23)	 x23:0x80025c60  x1:0x00000000 PA:0x80025c64 store:0x00000000 load:0xffffffff
     1735262000	     86661	80002792	002ba423	sw	x2,8(x23)	 x23:0x80025c60  x2:0xfffffcc2 PA:0x80025c68 store:0xfffffcc2 load:0xffffffff
     1735482000	     86672	80002796	003ba623	sw	x3,12(x23)	 x23:0x80025c60  x3:0xfffffe00 PA:0x80025c6c store:0xfffffe00 load:0xffffffff
     1735682000	     86682	8000279a	004ba823	sw	x4,16(x23)	 x23:0x80025c60  x4:0x00000000 PA:0x80025c70 store:0x00000000 load:0xffffffff
     1736082000	     86702	8000279e	005baa23	sw	x5,20(x23)	 x23:0x80025c60  x5:0x80025ce0 PA:0x80025c74 store:0x80025ce0 load:0xffffffff
     1736142000	     86705	800027a2	006bac23	sw	x6,24(x23)	 x23:0x80025c60  x6:0x0eeefe1d PA:0x80025c78 store:0x0eeefe1d load:0xffffffff
     1736522000	     86724	800027a6	007bae23	sw	x7,28(x23)	 x23:0x80025c60  x7:0xfffffda1 PA:0x80025c7c store:0xfffffda1 load:0xffffffff
     1736702000	     86733	800027aa	028ba023	sw	x8,32(x23)	 x23:0x80025c60  x8:0xfffffda1 PA:0x80025c80 store:0xfffffda1 load:0xffffffff
     1736762000	     86736	800027ae	029ba223	sw	x9,36(x23)	 x23:0x80025c60  x9:0xffca0438 PA:0x80025c84 store:0xffca0438 load:0xffffffff
     1737102000	     86753	800027b2	02aba423	sw	x10,40(x23)	 x23:0x80025c60 x10:0x3e75c936 PA:0x80025c88 store:0x3e75c936 load:0xffffffff
     1737222000	     86759	800027b6	02bba623	sw	x11,44(x23)	 x23:0x80025c60 x11:0x00000000 PA:0x80025c8c store:0x00000000 load:0xffffffff
     1737262000	     86761	800027ba	02cba823	sw	x12,48(x23)	 x23:0x80025c60 x12:0x31111e43 PA:0x80025c90 store:0x31111e43 load:0xffffffff
     1737682000	     86782	800027be	02dbaa23	sw	x13,52(x23)	 x23:0x80025c60 x13:0xffca043b PA:0x80025c94 store:0xffca043b load:0xffffffff
     1737742000	     86785	800027c2	02ebac23	sw	x14,56(x23)	 x23:0x80025c60 x14:0x00000000 PA:0x80025c98 store:0x00000000 load:0xffffffff
     1737762000	     86786	800027c6	02fbae23	sw	x15,60(x23)	 x23:0x80025c60 x15:0x00000000 PA:0x80025c9c store:0x00000000 load:0xffffffff
     1738142000	     86805	800027ca	050ba023	sw	x16,64(x23)	 x23:0x80025c60 x16:0x00000004 PA:0x80025ca0 store:0x00000004 load:0xffffffff
     1738662000	     86831	800027ce	051ba223	sw	x17,68(x23)	 x23:0x80025c60 x17:0x00000004 PA:0x80025ca4 store:0x00000004 load:0xffffffff
     1738722000	     86834	800027d2	052ba423	sw	x18,72(x23)	 x23:0x80025c60 x18:0x00000200 PA:0x80025ca8 store:0x00000200 load:0xffffffff
     1738822000	     86839	800027d6	053ba623	sw	x19,76(x23)	 x23:0x80025c60 x19:0x03b51af0 PA:0x80025cac store:0x03b51af0 load:0xffffffff
     1738842000	     86840	800027da	054ba823	sw	x20,80(x23)	 x23:0x80025c60 x20:0x00000000 PA:0x80025cb0 store:0x00000000 load:0xffffffff
     1739122000	     86854	800027de	055baa23	sw	x21,84(x23)	 x23:0x80025c60 x21:0x00000000 PA:0x80025cb4 store:0x00000000 load:0xffffffff
     1739342000	     86865	800027e2	056bac23	sw	x22,88(x23)	 x23:0x80025c60 x22:0x4a9d07bc PA:0x80025cb8 store:0x4a9d07bc load:0xffffffff
     1739502000	     86873	800027e6	057bae23	sw	x23,92(x23)	 x23:0x80025c60 x23:0x80025c60 PA:0x80025cbc store:0x80025c60 load:0xffffffff
     1739702000	     86883	800027ea	078ba023	sw	x24,96(x23)	 x23:0x80025c60 x24:0x0000d000 PA:0x80025cc0 store:0x0000d000 load:0xffffffff
     1739902000	     86893	800027ee	079ba223	sw	x25,100(x23)	 x23:0x80025c60 x25:0x3a000000 PA:0x80025cc4 store:0x3a000000 load:0xffffffff
     1740062000	     86901	800027f2	07aba423	sw	x26,104(x23)	 x23:0x80025c60 x26:0x3e75c936 PA:0x80025cc8 store:0x3e75c936 load:0xffffffff
     1740122000	     86904	800027f6	07bba623	sw	x27,108(x23)	 x23:0x80025c60 x27:0x00000000 PA:0x80025ccc store:0x00000000 load:0xffffffff
     1740142000	     86905	800027fa	07cba823	sw	x28,112(x23)	 x23:0x80025c60 x28:0x00000000 PA:0x80025cd0 store:0x00000000 load:0xffffffff
     1740382000	     86917	800027fe	07dbaa23	sw	x29,116(x23)	 x23:0x80025c60 x29:0x00000000 PA:0x80025cd4 store:0x00000000 load:0xffffffff
     1740402000	     86918	80002802	07ebac23	sw	x30,120(x23)	 x23:0x80025c60 x30:0xffffff4f PA:0x80025cd8 store:0xffffff4f load:0xffffffff
     1740482000	     86922	80002806	07fbae23	sw	x31,124(x23)	 x23:0x80025c60 x31:0x00000000 PA:0x80025cdc store:0x00000000 load:0xffffffff
     1740502000	     86923	8000280a	000b82b3	add	x5,x23,x0	 x23:0x80025c60  x0:0x00000000  x5=0x80025c60
     1740622000	     86929	8000280e	90000c37	lui	x24,0x90000	 x24=0x90000000
     1740642000	     86930	80002812	1c71	c.addi	x24,-4	 x24:0x90000000 x24=0x8ffffffc
     1740942000	     86945	80002814	4f21	c.li	x30,8	 x30=0x00000008
     1740962000	     86946	80002816	0f22	c.slli	x30,0x8	 x30:0x00000008 x30=0x00000800
     1741362000	     86966	80002818	000f0f13	addi	x30,x30,0	 x30:0x00000800 x30=0x00000800
     1742042000	     87000	8000281c	01ec2023	sw	x30,0(x24)	 x24:0x8ffffffc x30:0x00000800 PA:0x8ffffffc store:0x00000800 load:0xffffffff
     1742062000	     87001	80002820	34102f73	csrrs	x30,mepc,x0	  x0:0x00000000 x30=0x8000a95e
     1742082000	     87002	80002824	34202f73	csrrs	x30,mcause,x0	  x0:0x00000000 x30=0x00000002
     1742102000	     87003	80002828	4c0d	c.li	x24,3	 x24=0x00000003
     1742122000	     87004	8000282a	018f1463	bne	x30,x24,80002832	 x30:0x00000002 x24:0x00000003
     1742222000	     87009	80002832	4c21	c.li	x24,8	 x24=0x00000008
     1742642000	     87030	80002834	058f0d63	beq	x30,x24,8000288e	 x30:0x00000002 x24:0x00000008
     1742662000	     87031	80002838	4c25	c.li	x24,9	 x24=0x00000009
     1742882000	     87042	8000283a	058f0a63	beq	x30,x24,8000288e	 x30:0x00000002 x24:0x00000009
     1742902000	     87043	8000283e	4c2d	c.li	x24,11	 x24=0x0000000b
     1742982000	     87047	80002840	058f0763	beq	x30,x24,8000288e	 x30:0x00000002 x24:0x0000000b
     1743182000	     87057	80002844	4c05	c.li	x24,1	 x24=0x00000001
     1743202000	     87058	80002846	358f0363	beq	x30,x24,80002b8c	 x30:0x00000002 x24:0x00000001
     1743222000	     87059	8000284a	4c15	c.li	x24,5	 x24=0x00000005
     1743342000	     87065	8000284c	638f0a63	beq	x30,x24,80002e80	 x30:0x00000002 x24:0x00000005
     1743362000	     87066	80002850	4c1d	c.li	x24,7	 x24=0x00000007
     1743382000	     87067	80002852	158f0ce3	beq	x30,x24,800031aa	 x30:0x00000002 x24:0x00000007
     1743402000	     87068	80002856	4c31	c.li	x24,12	 x24=0x0000000c
     1743622000	     87079	80002858	018f1463	bne	x30,x24,80002860	 x30:0x00000002 x24:0x0000000c
     1744582000	     87127	80002860	4c35	c.li	x24,13	 x24=0x0000000d
     1744602000	     87128	80002862	018f1463	bne	x30,x24,8000286a	 x30:0x00000002 x24:0x0000000d
     1745002000	     87148	8000286a	4c3d	c.li	x24,15	 x24=0x0000000f
     1745022000	     87149	8000286c	018f1463	bne	x30,x24,80002874	 x30:0x00000002 x24:0x0000000f
     1745462000	     87171	80002874	4c09	c.li	x24,2	 x24=0x00000002
     1745482000	     87172	80002876	018f1463	bne	x30,x24,8000287e	 x30:0x00000002 x24:0x00000002
     1745642000	     87180	8000287a	3740906f	jal	x0,8000bbee	  x0=0x00000000
     1746142000	     87205	8000bbee	90000c37	lui	x24,0x90000	 x24=0x90000000
     1746162000	     87206	8000bbf2	1c71	c.addi	x24,-4	 x24:0x90000000 x24=0x8ffffffc
     1746222000	     87209	8000bbf4	4f29	c.li	x30,10	 x30=0x0000000a
     1746242000	     87210	8000bbf6	0f22	c.slli	x30,0x8	 x30:0x0000000a x30=0x00000a00
     1746622000	     87229	8000bbf8	000f0f13	addi	x30,x30,0	 x30:0x00000a00 x30=0x00000a00
     1746842000	     87240	8000bbfc	01ec2023	sw	x30,0(x24)	 x24:0x8ffffffc x30:0x00000a00 PA:0x8ffffffc store:0x00000a00 load:0xffffffff
     1746862000	     87241	8000bc00	90000c37	lui	x24,0x90000	 x24=0x90000000
     1746882000	     87242	8000bc04	1c71	c.addi	x24,-4	 x24:0x90000000 x24=0x8ffffffc
     1746902000	     87243	8000bc06	34200f13	addi	x30,x0,834	  x0:0x00000000 x30=0x00000342
     1746922000	     87244	8000bc0a	0f22	c.slli	x30,0x8	 x30:0x00000342 x30=0x00034200
     1746942000	     87245	8000bc0c	0f0d	c.addi	x30,3	 x30:0x00034200 x30=0x00034203
     1747602000	     87278	8000bc0e	01ec2023	sw	x30,0(x24)	 x24:0x8ffffffc x30:0x00034203 PA:0x8ffffffc store:0x00034203 load:0xffffffff
     1747622000	     87279	8000bc12	34202f73	csrrs	x30,mcause,x0	  x0:0x00000000 x30=0x00000002
     1747682000	     87282	8000bc16	01ec2023	sw	x30,0(x24)	 x24:0x8ffffffc x30:0x00000002 PA:0x8ffffffc store:0x00000002 load:0xffffffff
     1747702000	     87283	8000bc1a	34102f73	csrrs	x30,mepc,x0	  x0:0x00000000 x30=0x8000a95e
     1747722000	     87284	8000bc1e	0f11	c.addi	x30,4	 x30:0x8000a95e x30=0x8000a962
     1747742000	     87285	8000bc20	341f1073	csrrw	x0,mepc,x30	 x30:0x8000a962  x0=0x00000000
     1747762000	     87286	8000bc24	00028bb3	add	x23,x5,x0	  x5:0x80025c60  x0:0x00000000 x23=0x80025c60
     1747902000	     87293	8000bc28	004ba083	lw	x1,4(x23)	 x23:0x80025c60  x1=0x00000000 PA:0x80025c64 load:0x00000000
     1748222000	     87309	8000bc2c	008ba103	lw	x2,8(x23)	 x23:0x80025c60  x2=0xfffffcc2 PA:0x80025c68 load:0xfffffcc2
     1748682000	     87332	8000bc30	00cba183	lw	x3,12(x23)	 x23:0x80025c60  x3=0xfffffe00 PA:0x80025c6c load:0xfffffe00
     1748802000	     87338	8000bc34	010ba203	lw	x4,16(x23)	 x23:0x80025c60  x4=0x00000000 PA:0x80025c70 load:0x00000000
     1748982000	     87347	8000bc38	014ba283	lw	x5,20(x23)	 x23:0x80025c60  x5=0x80025ce0 PA:0x80025c74 load:0x80025ce0
     1749322000	     87364	8000bc3c	018ba303	lw	x6,24(x23)	 x23:0x80025c60  x6=0x0eeefe1d PA:0x80025c78 load:0x0eeefe1d
     1749382000	     87367	8000bc40	01cba383	lw	x7,28(x23)	 x23:0x80025c60  x7=0xfffffda1 PA:0x80025c7c load:0xfffffda1
     1749802000	     87388	8000bc44	020ba403	lw	x8,32(x23)	 x23:0x80025c60  x8=0xfffffda1 PA:0x80025c80 load:0xfffffda1
     1749962000	     87396	8000bc48	024ba483	lw	x9,36(x23)	 x23:0x80025c60  x9=0xffca0438 PA:0x80025c84 load:0xffca0438
     1750182000	     87407	8000bc4c	028ba503	lw	x10,40(x23)	 x23:0x80025c60 x10=0x3e75c936 PA:0x80025c88 load:0x3e75c936
     1750322000	     87414	8000bc50	02cba583	lw	x11,44(x23)	 x23:0x80025c60 x11=0x00000000 PA:0x80025c8c load:0x00000000
     1750702000	     87433	8000bc54	030ba603	lw	x12,48(x23)	 x23:0x80025c60 x12=0x31111e43 PA:0x80025c90 load:0x31111e43
     1750762000	     87436	8000bc58	034ba683	lw	x13,52(x23)	 x23:0x80025c60 x13=0xffca043b PA:0x80025c94 load:0xffca043b
     1750782000	     87437	8000bc5c	038ba703	lw	x14,56(x23)	 x23:0x80025c60 x14=0x00000000 PA:0x80025c98 load:0x00000000
     1751122000	     87454	8000bc60	03cba783	lw	x15,60(x23)	 x23:0x80025c60 x15=0x00000000 PA:0x80025c9c load:0x00000000
     1751182000	     87457	8000bc64	040ba803	lw	x16,64(x23)	 x23:0x80025c60 x16=0x00000004 PA:0x80025ca0 load:0x00000004
     1751362000	     87466	8000bc68	044ba883	lw	x17,68(x23)	 x23:0x80025c60 x17=0x00000004 PA:0x80025ca4 load:0x00000004
     1751522000	     87474	8000bc6c	048ba903	lw	x18,72(x23)	 x23:0x80025c60 x18=0x00000200 PA:0x80025ca8 load:0x00000200
     1752182000	     87507	8000bc70	04cba983	lw	x19,76(x23)	 x23:0x80025c60 x19=0x03b51af0 PA:0x80025cac load:0x03b51af0
     1752422000	     87519	8000bc74	050baa03	lw	x20,80(x23)	 x23:0x80025c60 x20=0x00000000 PA:0x80025cb0 load:0x00000000
     1752442000	     87520	8000bc78	054baa83	lw	x21,84(x23)	 x23:0x80025c60 x21=0x00000000 PA:0x80025cb4 load:0x00000000
     1752542000	     87525	8000bc7c	058bab03	lw	x22,88(x23)	 x23:0x80025c60 x22=0x4a9d07bc PA:0x80025cb8 load:0x4a9d07bc
     1752842000	     87540	8000bc80	05cbab83	lw	x23,92(x23)	 x23:0x80025c60 x23=0x80025c60 PA:0x80025cbc load:0x80025c60
     1753482000	     87572	8000bc84	060bac03	lw	x24,96(x23)	 x23:0x80025c60 x24=0x0000d000 PA:0x80025cc0 load:0x0000d000
     1753542000	     87575	8000bc88	064bac83	lw	x25,100(x23)	 x23:0x80025c60 x25=0x3a000000 PA:0x80025cc4 load:0x3a000000
     1753662000	     87581	8000bc8c	068bad03	lw	x26,104(x23)	 x23:0x80025c60 x26=0x3e75c936 PA:0x80025cc8 load:0x3e75c936
     1753782000	     87587	8000bc90	06cbad83	lw	x27,108(x23)	 x23:0x80025c60 x27=0x00000000 PA:0x80025ccc load:0x00000000
     1753802000	     87588	8000bc94	070bae03	lw	x28,112(x23)	 x23:0x80025c60 x28=0x00000000 PA:0x80025cd0 load:0x00000000
     1754002000	     87598	8000bc98	074bae83	lw	x29,116(x23)	 x23:0x80025c60 x29=0x00000000 PA:0x80025cd4 load:0x00000000
     1754062000	     87601	8000bc9c	078baf03	lw	x30,120(x23)	 x23:0x80025c60 x30=0xffffff4f PA:0x80025cd8 load:0xffffff4f
     1754202000	     87608	8000bca0	07cbaf83	lw	x31,124(x23)	 x23:0x80025c60 x31=0x00000000 PA:0x80025cdc load:0x00000000
     1754222000	     87609	8000bca4	080b8b93	addi	x23,x23,128	 x23:0x80025c60 x23=0x80025ce0
     1754442000	     87620	8000bca8	000b82b3	add	x5,x23,x0	 x23:0x80025ce0  x0:0x00000000  x5=0x80025ce0
     1754582000	     87627	8000bcac	0002ab83	lw	x23,0(x5)	  x5:0x80025ce0 x23=0x80021df8 PA:0x80025ce0 load:0x80021df8
     1754602000	     87628	8000bcb0	0291	c.addi	x5,4	  x5:0x80025ce0  x5=0x80025ce4
     1759922000	     87894	8000bcb2	30200073	mret	
     1760382000	     87917	8000a962	30502df3	csrrs	x27,mtvec,x0	  x0:0x00000000 x27=0x80002701
     1760402000	     87918	8000a966	8a72	c.mv	x20,x28	  x0:0x00000000 x28:0x00000000 x20=0x00000000
     1761142000	     87955	8000a968	03137b33	remu	x22,x6,x17	  x6:0x0eeefe1d x17:0x00000004 x22=0x00000001
     1761162000	     87956	8000a96c	b038b693	sltiu	x13,x17,-1277	 x17:0x00000004 x13=0x00000001
     1761182000	     87957	8000a970	b0c02af3	csrrs	x21,mhpmcounter12,x0	  x0:0x00000000 x21=0x00004bb1
     1761202000	     87958	8000a974	7b3078f3	csrrci	x0,0x7b3,0	  x0=0x00000000
     1761882000	     87992	80002700	0800006f	jal	x0,80002780	  x0=0x00000000
     1762702000	     88033	80002780	12f1	c.addi	x5,-4	  x5:0x80025ce4  x5=0x80025ce0
     1763402000	     88068	80002782	0172a023	sw	x23,0(x5)	  x5:0x80025ce0 x23:0x80021df8 PA:0x80025ce0 store:0x80021df8 load:0xffffffff
     1763542000	     88075	80002786	00028bb3	add	x23,x5,x0	  x5:0x80025ce0  x0:0x00000000 x23=0x80025ce0
     1763562000	     88076	8000278a	f80b8b93	addi	x23,x23,-128	 x23:0x80025ce0 x23=0x80025c60
     1763802000	     88088	8000278e	001ba223	sw	x1,4(x23)	 x23:0x80025c60  x1:0x00000000 PA:0x80025c64 store:0x00000000 load:0xffffffff
     1763842000	     88090	80002792	002ba423	sw	x2,8(x23)	 x23:0x80025c60  x2:0xfffffcc2 PA:0x80025c68 store:0xfffffcc2 load:0xffffffff
     1763982000	     88097	80002796	003ba623	sw	x3,12(x23)	 x23:0x80025c60  x3:0xfffffe00 PA:0x80025c6c store:0xfffffe00 load:0xffffffff
     1764702000	     88133	8000279a	004ba823	sw	x4,16(x23)	 x23:0x80025c60  x4:0x00000000 PA:0x80025c70 store:0x00000000 load:0xffffffff
     1764962000	     88146	8000279e	005baa23	sw	x5,20(x23)	 x23:0x80025c60  x5:0x80025ce0 PA:0x80025c74 store:0x80025ce0 load:0xffffffff
     1764982000	     88147	800027a2	006bac23	sw	x6,24(x23)	 x23:0x80025c60  x6:0x0eeefe1d PA:0x80025c78 store:0x0eeefe1d load:0xffffffff
     1765002000	     88148	800027a6	007bae23	sw	x7,28(x23)	 x23:0x80025c60  x7:0xfffffda1 PA:0x80025c7c store:0xfffffda1 load:0xffffffff
     1765022000	     88149	800027aa	028ba023	sw	x8,32(x23)	 x23:0x80025c60  x8:0xfffffda1 PA:0x80025c80 store:0xfffffda1 load:0xffffffff
     1765422000	     88169	800027ae	029ba223	sw	x9,36(x23)	 x23:0x80025c60  x9:0xffca0438 PA:0x80025c84 store:0xffca0438 load:0xffffffff
     1765542000	     88175	800027b2	02aba423	sw	x10,40(x23)	 x23:0x80025c60 x10:0x3e75c936 PA:0x80025c88 store:0x3e75c936 load:0xffffffff
     1765722000	     88184	800027b6	02bba623	sw	x11,44(x23)	 x23:0x80025c60 x11:0x00000000 PA:0x80025c8c store:0x00000000 load:0xffffffff
     1765742000	     88185	800027ba	02cba823	sw	x12,48(x23)	 x23:0x80025c60 x12:0x31111e43 PA:0x80025c90 store:0x31111e43 load:0xffffffff
     1765782000	     88187	800027be	02dbaa23	sw	x13,52(x23)	 x23:0x80025c60 x13:0x00000001 PA:0x80025c94 store:0x00000001 load:0xffffffff
     1765802000	     88188	800027c2	02ebac23	sw	x14,56(x23)	 x23:0x80025c60 x14:0x00000000 PA:0x80025c98 store:0x00000000 load:0xffffffff
     1766262000	     88211	800027c6	02fbae23	sw	x15,60(x23)	 x23:0x80025c60 x15:0x00000000 PA:0x80025c9c store:0x00000000 load:0xffffffff
     1766422000	     88219	800027ca	050ba023	sw	x16,64(x23)	 x23:0x80025c60 x16:0x00000004 PA:0x80025ca0 store:0x00000004 load:0xffffffff
     1766482000	     88222	800027ce	051ba223	sw	x17,68(x23)	 x23:0x80025c60 x17:0x00000004 PA:0x80025ca4 store:0x00000004 load:0xffffffff
     1766662000	     88231	800027d2	052ba423	sw	x18,72(x23)	 x23:0x80025c60 x18:0x00000200 PA:0x80025ca8 store:0x00000200 load:0xffffffff
     1766722000	     88234	800027d6	053ba623	sw	x19,76(x23)	 x23:0x80025c60 x19:0x03b51af0 PA:0x80025cac store:0x03b51af0 load:0xffffffff
     1767042000	     88250	800027da	054ba823	sw	x20,80(x23)	 x23:0x80025c60 x20:0x00000000 PA:0x80025cb0 store:0x00000000 load:0xffffffff
     1767182000	     88257	800027de	055baa23	sw	x21,84(x23)	 x23:0x80025c60 x21:0x00004bb1 PA:0x80025cb4 store:0x00004bb1 load:0xffffffff
     1767322000	     88264	800027e2	056bac23	sw	x22,88(x23)	 x23:0x80025c60 x22:0x00000001 PA:0x80025cb8 store:0x00000001 load:0xffffffff
     1767342000	     88265	800027e6	057bae23	sw	x23,92(x23)	 x23:0x80025c60 x23:0x80025c60 PA:0x80025cbc store:0x80025c60 load:0xffffffff
     1767542000	     88275	800027ea	078ba023	sw	x24,96(x23)	 x23:0x80025c60 x24:0x0000d000 PA:0x80025cc0 store:0x0000d000 load:0xffffffff
     1767602000	     88278	800027ee	079ba223	sw	x25,100(x23)	 x23:0x80025c60 x25:0x3a000000 PA:0x80025cc4 store:0x3a000000 load:0xffffffff
     1767702000	     88283	800027f2	07aba423	sw	x26,104(x23)	 x23:0x80025c60 x26:0x3e75c936 PA:0x80025cc8 store:0x3e75c936 load:0xffffffff
     1767762000	     88286	800027f6	07bba623	sw	x27,108(x23)	 x23:0x80025c60 x27:0x80002701 PA:0x80025ccc store:0x80002701 load:0xffffffff
     1768262000	     88311	800027fa	07cba823	sw	x28,112(x23)	 x23:0x80025c60 x28:0x00000000 PA:0x80025cd0 store:0x00000000 load:0xffffffff
     1768442000	     88320	800027fe	07dbaa23	sw	x29,116(x23)	 x23:0x80025c60 x29:0x00000000 PA:0x80025cd4 store:0x00000000 load:0xffffffff
     1768602000	     88328	80002802	07ebac23	sw	x30,120(x23)	 x23:0x80025c60 x30:0xffffff4f PA:0x80025cd8 store:0xffffff4f load:0xffffffff
     1769222000	     88359	80002806	07fbae23	sw	x31,124(x23)	 x23:0x80025c60 x31:0x00000000 PA:0x80025cdc store:0x00000000 load:0xffffffff
     1769242000	     88360	8000280a	000b82b3	add	x5,x23,x0	 x23:0x80025c60  x0:0x00000000  x5=0x80025c60
     1769262000	     88361	8000280e	90000c37	lui	x24,0x90000	 x24=0x90000000
     1769282000	     88362	80002812	1c71	c.addi	x24,-4	 x24:0x90000000 x24=0x8ffffffc
     1769522000	     88374	80002814	4f21	c.li	x30,8	 x30=0x00000008
     1769542000	     88375	80002816	0f22	c.slli	x30,0x8	 x30:0x00000008 x30=0x00000800
     1769562000	     88376	80002818	000f0f13	addi	x30,x30,0	 x30:0x00000800 x30=0x00000800
     1769702000	     88383	8000281c	01ec2023	sw	x30,0(x24)	 x24:0x8ffffffc x30:0x00000800 PA:0x8ffffffc store:0x00000800 load:0xffffffff
     1769722000	     88384	80002820	34102f73	csrrs	x30,mepc,x0	  x0:0x00000000 x30=0x8000a974
     1769742000	     88385	80002824	34202f73	csrrs	x30,mcause,x0	  x0:0x00000000 x30=0x00000002
     1770002000	     88398	80002828	4c0d	c.li	x24,3	 x24=0x00000003
     1770382000	     88417	8000282a	018f1463	bne	x30,x24,80002832	 x30:0x00000002 x24:0x00000003
     1771362000	     88466	80002832	4c21	c.li	x24,8	 x24=0x00000008
     1771422000	     88469	80002834	058f0d63	beq	x30,x24,8000288e	 x30:0x00000002 x24:0x00000008
     1771442000	     88470	80002838	4c25	c.li	x24,9	 x24=0x00000009
     1771462000	     88471	8000283a	058f0a63	beq	x30,x24,8000288e	 x30:0x00000002 x24:0x00000009
     1771482000	     88472	8000283e	4c2d	c.li	x24,11	 x24=0x0000000b
     1771662000	     88481	80002840	058f0763	beq	x30,x24,8000288e	 x30:0x00000002 x24:0x0000000b
     1771922000	     88494	80002844	4c05	c.li	x24,1	 x24=0x00000001
     1772302000	     88513	80002846	358f0363	beq	x30,x24,80002b8c	 x30:0x00000002 x24:0x00000001
     1772322000	     88514	8000284a	4c15	c.li	x24,5	 x24=0x00000005
     1772342000	     88515	8000284c	638f0a63	beq	x30,x24,80002e80	 x30:0x00000002 x24:0x00000005
     1772362000	     88516	80002850	4c1d	c.li	x24,7	 x24=0x00000007
     1772382000	     88517	80002852	158f0ce3	beq	x30,x24,800031aa	 x30:0x00000002 x24:0x00000007
     1772402000	     88518	80002856	4c31	c.li	x24,12	 x24=0x0000000c
     1772582000	     88527	80002858	018f1463	bne	x30,x24,80002860	 x30:0x00000002 x24:0x0000000c
     1772802000	     88538	80002860	4c35	c.li	x24,13	 x24=0x0000000d
     1772822000	     88539	80002862	018f1463	bne	x30,x24,8000286a	 x30:0x00000002 x24:0x0000000d
     1773282000	     88562	8000286a	4c3d	c.li	x24,15	 x24=0x0000000f
     1773302000	     88563	8000286c	018f1463	bne	x30,x24,80002874	 x30:0x00000002 x24:0x0000000f
     1773442000	     88570	80002874	4c09	c.li	x24,2	 x24=0x00000002
     1773462000	     88571	80002876	018f1463	bne	x30,x24,8000287e	 x30:0x00000002 x24:0x00000002
     1773482000	     88572	8000287a	3740906f	jal	x0,8000bbee	  x0=0x00000000
     1774382000	     88617	8000bbee	90000c37	lui	x24,0x90000	 x24=0x90000000
     1774402000	     88618	8000bbf2	1c71	c.addi	x24,-4	 x24:0x90000000 x24=0x8ffffffc
     1774422000	     88619	8000bbf4	4f29	c.li	x30,10	 x30=0x0000000a
     1774442000	     88620	8000bbf6	0f22	c.slli	x30,0x8	 x30:0x0000000a x30=0x00000a00
     1774462000	     88621	8000bbf8	000f0f13	addi	x30,x30,0	 x30:0x00000a00 x30=0x00000a00
     1774842000	     88640	8000bbfc	01ec2023	sw	x30,0(x24)	 x24:0x8ffffffc x30:0x00000a00 PA:0x8ffffffc store:0x00000a00 load:0xffffffff
     1775102000	     88653	8000bc00	90000c37	lui	x24,0x90000	 x24=0x90000000
     1775122000	     88654	8000bc04	1c71	c.addi	x24,-4	 x24:0x90000000 x24=0x8ffffffc
     1775142000	     88655	8000bc06	34200f13	addi	x30,x0,834	  x0:0x00000000 x30=0x00000342
     1775162000	     88656	8000bc0a	0f22	c.slli	x30,0x8	 x30:0x00000342 x30=0x00034200
     1775182000	     88657	8000bc0c	0f0d	c.addi	x30,3	 x30:0x00034200 x30=0x00034203
     1775242000	     88660	8000bc0e	01ec2023	sw	x30,0(x24)	 x24:0x8ffffffc x30:0x00034203 PA:0x8ffffffc store:0x00034203 load:0xffffffff
     1775262000	     88661	8000bc12	34202f73	csrrs	x30,mcause,x0	  x0:0x00000000 x30=0x00000002
     1775422000	     88669	8000bc16	01ec2023	sw	x30,0(x24)	 x24:0x8ffffffc x30:0x00000002 PA:0x8ffffffc store:0x00000002 load:0xffffffff
     1775442000	     88670	8000bc1a	34102f73	csrrs	x30,mepc,x0	  x0:0x00000000 x30=0x8000a974
     1775462000	     88671	8000bc1e	0f11	c.addi	x30,4	 x30:0x8000a974 x30=0x8000a978
     1775482000	     88672	8000bc20	341f1073	csrrw	x0,mepc,x30	 x30:0x8000a978  x0=0x00000000
     1775502000	     88673	8000bc24	00028bb3	add	x23,x5,x0	  x5:0x80025c60  x0:0x00000000 x23=0x80025c60
     1776162000	     88706	8000bc28	004ba083	lw	x1,4(x23)	 x23:0x80025c60  x1=0x00000000 PA:0x80025c64 load:0x00000000
     1776222000	     88709	8000bc2c	008ba103	lw	x2,8(x23)	 x23:0x80025c60  x2=0xfffffcc2 PA:0x80025c68 load:0xfffffcc2
     1776442000	     88720	8000bc30	00cba183	lw	x3,12(x23)	 x23:0x80025c60  x3=0xfffffe00 PA:0x80025c6c load:0xfffffe00
     1776582000	     88727	8000bc34	010ba203	lw	x4,16(x23)	 x23:0x80025c60  x4=0x00000000 PA:0x80025c70 load:0x00000000
     1776602000	     88728	8000bc38	014ba283	lw	x5,20(x23)	 x23:0x80025c60  x5=0x80025ce0 PA:0x80025c74 load:0x80025ce0
     1776622000	     88729	8000bc3c	018ba303	lw	x6,24(x23)	 x23:0x80025c60  x6=0x0eeefe1d PA:0x80025c78 load:0x0eeefe1d
     1776862000	     88741	8000bc40	01cba383	lw	x7,28(x23)	 x23:0x80025c60  x7=0xfffffda1 PA:0x80025c7c load:0xfffffda1
     1777222000	     88759	8000bc44	020ba403	lw	x8,32(x23)	 x23:0x80025c60  x8=0xfffffda1 PA:0x80025c80 load:0xfffffda1
     1777542000	     88775	8000bc48	024ba483	lw	x9,36(x23)	 x23:0x80025c60  x9=0xffca0438 PA:0x80025c84 load:0xffca0438
     1777602000	     88778	8000bc4c	028ba503	lw	x10,40(x23)	 x23:0x80025c60 x10=0x3e75c936 PA:0x80025c88 load:0x3e75c936
     1777622000	     88779	8000bc50	02cba583	lw	x11,44(x23)	 x23:0x80025c60 x11=0x00000000 PA:0x80025c8c load:0x00000000
     1777922000	     88794	8000bc54	030ba603	lw	x12,48(x23)	 x23:0x80025c60 x12=0x31111e43 PA:0x80025c90 load:0x31111e43
     1778182000	     88807	8000bc58	034ba683	lw	x13,52(x23)	 x23:0x80025c60 x13=0x00000001 PA:0x80025c94 load:0x00000001
     1778402000	     88818	8000bc5c	038ba703	lw	x14,56(x23)	 x23:0x80025c60 x14=0x00000000 PA:0x80025c98 load:0x00000000
     1778542000	     88825	8000bc60	03cba783	lw	x15,60(x23)	 x23:0x80025c60 x15=0x00000000 PA:0x80025c9c load:0x00000000
     1778782000	     88837	8000bc64	040ba803	lw	x16,64(x23)	 x23:0x80025c60 x16=0x00000004 PA:0x80025ca0 load:0x00000004
     1778842000	     88840	8000bc68	044ba883	lw	x17,68(x23)	 x23:0x80025c60 x17=0x00000004 PA:0x80025ca4 load:0x00000004
     1778862000	     88841	8000bc6c	048ba903	lw	x18,72(x23)	 x23:0x80025c60 x18=0x00000200 PA:0x80025ca8 load:0x00000200
     1779022000	     88849	8000bc70	04cba983	lw	x19,76(x23)	 x23:0x80025c60 x19=0x03b51af0 PA:0x80025cac load:0x03b51af0
     1779102000	     88853	8000bc74	050baa03	lw	x20,80(x23)	 x23:0x80025c60 x20=0x00000000 PA:0x80025cb0 load:0x00000000
     1779122000	     88854	8000bc78	054baa83	lw	x21,84(x23)	 x23:0x80025c60 x21=0x00004bb1 PA:0x80025cb4 load:0x00004bb1
     1779142000	     88855	8000bc7c	058bab03	lw	x22,88(x23)	 x23:0x80025c60 x22=0x00000001 PA:0x80025cb8 load:0x00000001
     1779162000	     88856	8000bc80	05cbab83	lw	x23,92(x23)	 x23:0x80025c60 x23=0x80025c60 PA:0x80025cbc load:0x80025c60
     1779422000	     88869	8000bc84	060bac03	lw	x24,96(x23)	 x23:0x80025c60 x24=0x0000d000 PA:0x80025cc0 load:0x0000d000
     1779802000	     88888	8000bc88	064bac83	lw	x25,100(x23)	 x23:0x80025c60 x25=0x3a000000 PA:0x80025cc4 load:0x3a000000
     1780002000	     88898	8000bc8c	068bad03	lw	x26,104(x23)	 x23:0x80025c60 x26=0x3e75c936 PA:0x80025cc8 load:0x3e75c936
     1780062000	     88901	8000bc90	06cbad83	lw	x27,108(x23)	 x23:0x80025c60 x27=0x80002701 PA:0x80025ccc load:0x80002701
     1780142000	     88905	8000bc94	070bae03	lw	x28,112(x23)	 x23:0x80025c60 x28=0x00000000 PA:0x80025cd0 load:0x00000000
     1780202000	     88908	8000bc98	074bae83	lw	x29,116(x23)	 x23:0x80025c60 x29=0x00000000 PA:0x80025cd4 load:0x00000000
     1780222000	     88909	8000bc9c	078baf03	lw	x30,120(x23)	 x23:0x80025c60 x30=0xffffff4f PA:0x80025cd8 load:0xffffff4f
     1780242000	     88910	8000bca0	07cbaf83	lw	x31,124(x23)	 x23:0x80025c60 x31=0x00000000 PA:0x80025cdc load:0x00000000
     1780262000	     88911	8000bca4	080b8b93	addi	x23,x23,128	 x23:0x80025c60 x23=0x80025ce0
     1780282000	     88912	8000bca8	000b82b3	add	x5,x23,x0	 x23:0x80025ce0  x0:0x00000000  x5=0x80025ce0
     1780622000	     88929	8000bcac	0002ab83	lw	x23,0(x5)	  x5:0x80025ce0 x23=0x80021df8 PA:0x80025ce0 load:0x80021df8
     1780642000	     88930	8000bcb0	0291	c.addi	x5,4	  x5:0x80025ce0  x5=0x80025ce4
     1780662000	     88931	8000bcb2	30200073	mret	
     1781082000	     88952	8000a978	03829a63	bne	x5,x24,8000a9ac	  x5:0x80025ce4 x24:0x0000d000
     1783002000	     89048	8000a9ac	0307eeb3	rem	x29,x15,x16	 x15:0x00000000 x16:0x00000004 x29=0x00000000
     1783022000	     89049	8000a9b0	0182c863	blt	x5,x24,8000a9c0	  x5:0x80025ce4 x24:0x0000d000
     1783542000	     89075	8000a9c0	03f89e63	bne	x17,x31,8000a9fc	 x17:0x00000004 x31:0x00000000
     1783962000	     89096	8000a9fc	c1022693	slti	x13,x4,-1008	  x4:0x00000000 x13=0x00000000
     1784382000	     89117	8000aa00	02b76f63	bltu	x14,x11,8000aa3e	 x14:0x00000000 x11:0x00000000
     1784482000	     89122	8000aa04	02520cb3	mul	x25,x4,x5	  x4:0x00000000  x5:0x80025ce4 x25=0x00000000
     1784502000	     89123	8000aa08	0001	c.addi	x0,0	  x0:0x00000000  x0=0x00000000
     1784542000	     89125	8000aa0a	0385a9b3	mulhsu	x19,x11,x24	 x11:0x00000000 x24:0x0000d000 x19=0x00000000
     1784562000	     89126	8000aa0e	0ff0000f	fence	iorw,iorw	
     1784582000	     89127	8000aa12	0ec1ea93	ori	x21,x3,236	  x3:0xfffffe00 x21=0xfffffeec
     1784602000	     89128	8000aa16	32703c73	csrrc	x24,mhpmevent7,x0	  x0:0x00000000 x24=0x00000010
     1784622000	     89129	8000aa1a	5f7d	c.li	x30,-1	 x30=0xffffffff
     1784942000	     89145	8000aa1c	8c3d	c.xor	x8,x15	  x8:0xfffffda1 x15:0x00000000  x8=0xfffffda1
     1784962000	     89146	8000aa1e	d704e913	ori	x18,x9,-656	  x9:0xffca0438 x18=0xfffffd78
     1784982000	     89147	8000aa22	ca8d	c.beqz	x13,8000aa54	 x13:0x00000000
     1785502000	     89173	8000aa54	1ffd	c.addi	x31,-1	 x31:0x00000000 x31=0xffffffff
     1785522000	     89174	8000aa56	ec89	c.bnez	x9,8000aa70	  x9:0xffca0438
     1786162000	     89206	8000aa70	40fc89b3	sub	x19,x25,x15	 x25:0x00000000 x15:0x00000000 x19=0x00000000
     1786282000	     89212	8000aa74	402b5913	srai	x18,x22,0x2	 x22:0x00000001 x18=0x00000000
     1786322000	     89214	8000aa78	034f73b3	remu	x7,x30,x20	 x30:0xffffffff x20:0x00000000  x7=0xffffffff
     1786722000	     89234	8000aa7c	327cfd73	csrrci	x26,mhpmevent7,25	 x26=0x00000010
     1786782000	     89237	8000aa80	3c033613	sltiu	x12,x6,960	  x6:0x0eeefe1d x12=0x00000000
     1786802000	     89238	8000aa84	41ac8a33	sub	x20,x25,x26	 x25:0x00000000 x26:0x00000010 x20=0xfffffff0
     1786822000	     89239	8000aa88	f15ea3f3	csrrs	x0,0xf15,x0	  x0:0x00000000  x0=0x00000000
     1787782000	     89287	80002700	0800006f	jal	x0,80002780	  x0=0x00000000
     1788502000	     89323	80002780	12f1	c.addi	x5,-4	  x5:0x80025ce4  x5=0x80025ce0
     1788622000	     89329	80002782	0172a023	sw	x23,0(x5)	  x5:0x80025ce0 x23:0x80021df8 PA:0x80025ce0 store:0x80021df8 load:0xffffffff
     1788842000	     89340	80002786	00028bb3	add	x23,x5,x0	  x5:0x80025ce0  x0:0x00000000 x23=0x80025ce0
     1789262000	     89361	8000278a	f80b8b93	addi	x23,x23,-128	 x23:0x80025ce0 x23=0x80025c60
     1789722000	     89384	8000278e	001ba223	sw	x1,4(x23)	 x23:0x80025c60  x1:0x00000000 PA:0x80025c64 store:0x00000000 load:0xffffffff
     1790382000	     89417	80002792	002ba423	sw	x2,8(x23)	 x23:0x80025c60  x2:0xfffffcc2 PA:0x80025c68 store:0xfffffcc2 load:0xffffffff
     1790442000	     89420	80002796	003ba623	sw	x3,12(x23)	 x23:0x80025c60  x3:0xfffffe00 PA:0x80025c6c store:0xfffffe00 load:0xffffffff
     1790862000	     89441	8000279a	004ba823	sw	x4,16(x23)	 x23:0x80025c60  x4:0x00000000 PA:0x80025c70 store:0x00000000 load:0xffffffff
     1790922000	     89444	8000279e	005baa23	sw	x5,20(x23)	 x23:0x80025c60  x5:0x80025ce0 PA:0x80025c74 store:0x80025ce0 load:0xffffffff
     1790942000	     89445	800027a2	006bac23	sw	x6,24(x23)	 x23:0x80025c60  x6:0x0eeefe1d PA:0x80025c78 store:0x0eeefe1d load:0xffffffff
     1791142000	     89455	800027a6	007bae23	sw	x7,28(x23)	 x23:0x80025c60  x7:0xffffffff PA:0x80025c7c store:0xffffffff load:0xffffffff
     1791802000	     89488	800027aa	028ba023	sw	x8,32(x23)	 x23:0x80025c60  x8:0xfffffda1 PA:0x80025c80 store:0xfffffda1 load:0xffffffff
     1791862000	     89491	800027ae	029ba223	sw	x9,36(x23)	 x23:0x80025c60  x9:0xffca0438 PA:0x80025c84 store:0xffca0438 load:0xffffffff
     1792242000	     89510	800027b2	02aba423	sw	x10,40(x23)	 x23:0x80025c60 x10:0x3e75c936 PA:0x80025c88 store:0x3e75c936 load:0xffffffff
     1792302000	     89513	800027b6	02bba623	sw	x11,44(x23)	 x23:0x80025c60 x11:0x00000000 PA:0x80025c8c store:0x00000000 load:0xffffffff
     1792602000	     89528	800027ba	02cba823	sw	x12,48(x23)	 x23:0x80025c60 x12:0x00000000 PA:0x80025c90 store:0x00000000 load:0xffffffff
     1793042000	     89550	800027be	02dbaa23	sw	x13,52(x23)	 x23:0x80025c60 x13:0x00000000 PA:0x80025c94 store:0x00000000 load:0xffffffff
     1793102000	     89553	800027c2	02ebac23	sw	x14,56(x23)	 x23:0x80025c60 x14:0x00000000 PA:0x80025c98 store:0x00000000 load:0xffffffff
     1793322000	     89564	800027c6	02fbae23	sw	x15,60(x23)	 x23:0x80025c60 x15:0x00000000 PA:0x80025c9c store:0x00000000 load:0xffffffff
     1793642000	     89580	800027ca	050ba023	sw	x16,64(x23)	 x23:0x80025c60 x16:0x00000004 PA:0x80025ca0 store:0x00000004 load:0xffffffff
     1794062000	     89601	800027ce	051ba223	sw	x17,68(x23)	 x23:0x80025c60 x17:0x00000004 PA:0x80025ca4 store:0x00000004 load:0xffffffff
     1794262000	     89611	800027d2	052ba423	sw	x18,72(x23)	 x23:0x80025c60 x18:0x00000000 PA:0x80025ca8 store:0x00000000 load:0xffffffff
     1794322000	     89614	800027d6	053ba623	sw	x19,76(x23)	 x23:0x80025c60 x19:0x00000000 PA:0x80025cac store:0x00000000 load:0xffffffff
     1794462000	     89621	800027da	054ba823	sw	x20,80(x23)	 x23:0x80025c60 x20:0xfffffff0 PA:0x80025cb0 store:0xfffffff0 load:0xffffffff
     1794602000	     89628	800027de	055baa23	sw	x21,84(x23)	 x23:0x80025c60 x21:0xfffffeec PA:0x80025cb4 store:0xfffffeec load:0xffffffff
     1794662000	     89631	800027e2	056bac23	sw	x22,88(x23)	 x23:0x80025c60 x22:0x00000001 PA:0x80025cb8 store:0x00000001 load:0xffffffff
     1794762000	     89636	800027e6	057bae23	sw	x23,92(x23)	 x23:0x80025c60 x23:0x80025c60 PA:0x80025cbc store:0x80025c60 load:0xffffffff
     1794922000	     89644	800027ea	078ba023	sw	x24,96(x23)	 x23:0x80025c60 x24:0x00000010 PA:0x80025cc0 store:0x00000010 load:0xffffffff
     1795062000	     89651	800027ee	079ba223	sw	x25,100(x23)	 x23:0x80025c60 x25:0x00000000 PA:0x80025cc4 store:0x00000000 load:0xffffffff
     1795222000	     89659	800027f2	07aba423	sw	x26,104(x23)	 x23:0x80025c60 x26:0x00000010 PA:0x80025cc8 store:0x00000010 load:0xffffffff
     1795562000	     89676	800027f6	07bba623	sw	x27,108(x23)	 x23:0x80025c60 x27:0x80002701 PA:0x80025ccc store:0x80002701 load:0xffffffff
     1795622000	     89679	800027fa	07cba823	sw	x28,112(x23)	 x23:0x80025c60 x28:0x00000000 PA:0x80025cd0 store:0x00000000 load:0xffffffff
     1795642000	     89680	800027fe	07dbaa23	sw	x29,116(x23)	 x23:0x80025c60 x29:0x00000000 PA:0x80025cd4 store:0x00000000 load:0xffffffff
     1795662000	     89681	80002802	07ebac23	sw	x30,120(x23)	 x23:0x80025c60 x30:0xffffffff PA:0x80025cd8 store:0xffffffff load:0xffffffff
     1795822000	     89689	80002806	07fbae23	sw	x31,124(x23)	 x23:0x80025c60 x31:0xffffffff PA:0x80025cdc store:0xffffffff load:0xffffffff
     1795842000	     89690	8000280a	000b82b3	add	x5,x23,x0	 x23:0x80025c60  x0:0x00000000  x5=0x80025c60
     1795882000	     89692	8000280e	90000c37	lui	x24,0x90000	 x24=0x90000000
     1795902000	     89693	80002812	1c71	c.addi	x24,-4	 x24:0x90000000 x24=0x8ffffffc
     1795922000	     89694	80002814	4f21	c.li	x30,8	 x30=0x00000008
     1795942000	     89695	80002816	0f22	c.slli	x30,0x8	 x30:0x00000008 x30=0x00000800
     1795962000	     89696	80002818	000f0f13	addi	x30,x30,0	 x30:0x00000800 x30=0x00000800
     1796162000	     89706	8000281c	01ec2023	sw	x30,0(x24)	 x24:0x8ffffffc x30:0x00000800 PA:0x8ffffffc store:0x00000800 load:0xffffffff
     1796342000	     89715	80002820	34102f73	csrrs	x30,mepc,x0	  x0:0x00000000 x30=0x8000aa88
     1796362000	     89716	80002824	34202f73	csrrs	x30,mcause,x0	  x0:0x00000000 x30=0x00000002
     1796382000	     89717	80002828	4c0d	c.li	x24,3	 x24=0x00000003
     1796402000	     89718	8000282a	018f1463	bne	x30,x24,80002832	 x30:0x00000002 x24:0x00000003
     1796682000	     89732	80002832	4c21	c.li	x24,8	 x24=0x00000008
     1796702000	     89733	80002834	058f0d63	beq	x30,x24,8000288e	 x30:0x00000002 x24:0x00000008
     1797122000	     89754	80002838	4c25	c.li	x24,9	 x24=0x00000009
     1797142000	     89755	8000283a	058f0a63	beq	x30,x24,8000288e	 x30:0x00000002 x24:0x00000009
     1797162000	     89756	8000283e	4c2d	c.li	x24,11	 x24=0x0000000b
     1797502000	     89773	80002840	058f0763	beq	x30,x24,8000288e	 x30:0x00000002 x24:0x0000000b
     1797902000	     89793	80002844	4c05	c.li	x24,1	 x24=0x00000001
     1797922000	     89794	80002846	358f0363	beq	x30,x24,80002b8c	 x30:0x00000002 x24:0x00000001
     1797942000	     89795	8000284a	4c15	c.li	x24,5	 x24=0x00000005
     1798242000	     89810	8000284c	638f0a63	beq	x30,x24,80002e80	 x30:0x00000002 x24:0x00000005
     1798262000	     89811	80002850	4c1d	c.li	x24,7	 x24=0x00000007
     1798282000	     89812	80002852	158f0ce3	beq	x30,x24,800031aa	 x30:0x00000002 x24:0x00000007
     1801862000	     89991	80002856	4c31	c.li	x24,12	 x24=0x0000000c
     1801882000	     89992	80002858	018f1463	bne	x30,x24,80002860	 x30:0x00000002 x24:0x0000000c
     1802322000	     90014	80002860	4c35	c.li	x24,13	 x24=0x0000000d
     1802522000	     90024	80002862	018f1463	bne	x30,x24,8000286a	 x30:0x00000002 x24:0x0000000d
     1802922000	     90044	8000286a	4c3d	c.li	x24,15	 x24=0x0000000f
     1803082000	     90052	8000286c	018f1463	bne	x30,x24,80002874	 x30:0x00000002 x24:0x0000000f
     1803782000	     90087	80002874	4c09	c.li	x24,2	 x24=0x00000002
     1803922000	     90094	80002876	018f1463	bne	x30,x24,8000287e	 x30:0x00000002 x24:0x00000002
     1803942000	     90095	8000287a	3740906f	jal	x0,8000bbee	  x0=0x00000000
     1804522000	     90124	8000bbee	90000c37	lui	x24,0x90000	 x24=0x90000000
     1804542000	     90125	8000bbf2	1c71	c.addi	x24,-4	 x24:0x90000000 x24=0x8ffffffc
     1804722000	     90134	8000bbf4	4f29	c.li	x30,10	 x30=0x0000000a
     1804742000	     90135	8000bbf6	0f22	c.slli	x30,0x8	 x30:0x0000000a x30=0x00000a00
     1804762000	     90136	8000bbf8	000f0f13	addi	x30,x30,0	 x30:0x00000a00 x30=0x00000a00
     1804822000	     90139	8000bbfc	01ec2023	sw	x30,0(x24)	 x24:0x8ffffffc x30:0x00000a00 PA:0x8ffffffc store:0x00000a00 load:0xffffffff
     1804842000	     90140	8000bc00	90000c37	lui	x24,0x90000	 x24=0x90000000
     1804862000	     90141	8000bc04	1c71	c.addi	x24,-4	 x24:0x90000000 x24=0x8ffffffc
     1805402000	     90168	8000bc06	34200f13	addi	x30,x0,834	  x0:0x00000000 x30=0x00000342
     1805422000	     90169	8000bc0a	0f22	c.slli	x30,0x8	 x30:0x00000342 x30=0x00034200
     1805822000	     90189	8000bc0c	0f0d	c.addi	x30,3	 x30:0x00034200 x30=0x00034203
     1806162000	     90206	8000bc0e	01ec2023	sw	x30,0(x24)	 x24:0x8ffffffc x30:0x00034203 PA:0x8ffffffc store:0x00034203 load:0xffffffff
     1806182000	     90207	8000bc12	34202f73	csrrs	x30,mcause,x0	  x0:0x00000000 x30=0x00000002
     1806362000	     90216	8000bc16	01ec2023	sw	x30,0(x24)	 x24:0x8ffffffc x30:0x00000002 PA:0x8ffffffc store:0x00000002 load:0xffffffff
     1806382000	     90217	8000bc1a	34102f73	csrrs	x30,mepc,x0	  x0:0x00000000 x30=0x8000aa88
     1806402000	     90218	8000bc1e	0f11	c.addi	x30,4	 x30:0x8000aa88 x30=0x8000aa8c
     1806422000	     90219	8000bc20	341f1073	csrrw	x0,mepc,x30	 x30:0x8000aa8c  x0=0x00000000
     1806802000	     90238	8000bc24	00028bb3	add	x23,x5,x0	  x5:0x80025c60  x0:0x00000000 x23=0x80025c60
     1807162000	     90256	8000bc28	004ba083	lw	x1,4(x23)	 x23:0x80025c60  x1=0x00000000 PA:0x80025c64 load:0x00000000
     1807222000	     90259	8000bc2c	008ba103	lw	x2,8(x23)	 x23:0x80025c60  x2=0xfffffcc2 PA:0x80025c68 load:0xfffffcc2
     1807302000	     90263	8000bc30	00cba183	lw	x3,12(x23)	 x23:0x80025c60  x3=0xfffffe00 PA:0x80025c6c load:0xfffffe00
     1807502000	     90273	8000bc34	010ba203	lw	x4,16(x23)	 x23:0x80025c60  x4=0x00000000 PA:0x80025c70 load:0x00000000
     1807522000	     90274	8000bc38	014ba283	lw	x5,20(x23)	 x23:0x80025c60  x5=0x80025ce0 PA:0x80025c74 load:0x80025ce0
     1807642000	     90280	8000bc3c	018ba303	lw	x6,24(x23)	 x23:0x80025c60  x6=0x0eeefe1d PA:0x80025c78 load:0x0eeefe1d
     1807922000	     90294	8000bc40	01cba383	lw	x7,28(x23)	 x23:0x80025c60  x7=0xffffffff PA:0x80025c7c load:0xffffffff
     1808002000	     90298	8000bc44	020ba403	lw	x8,32(x23)	 x23:0x80025c60  x8=0xfffffda1 PA:0x80025c80 load:0xfffffda1
     1808382000	     90317	8000bc48	024ba483	lw	x9,36(x23)	 x23:0x80025c60  x9=0xffca0438 PA:0x80025c84 load:0xffca0438
     1808802000	     90338	8000bc4c	028ba503	lw	x10,40(x23)	 x23:0x80025c60 x10=0x3e75c936 PA:0x80025c88 load:0x3e75c936
     1809262000	     90361	8000bc50	02cba583	lw	x11,44(x23)	 x23:0x80025c60 x11=0x00000000 PA:0x80025c8c load:0x00000000
     1809722000	     90384	8000bc54	030ba603	lw	x12,48(x23)	 x23:0x80025c60 x12=0x00000000 PA:0x80025c90 load:0x00000000
     1809782000	     90387	8000bc58	034ba683	lw	x13,52(x23)	 x23:0x80025c60 x13=0x00000000 PA:0x80025c94 load:0x00000000
     1809982000	     90397	8000bc5c	038ba703	lw	x14,56(x23)	 x23:0x80025c60 x14=0x00000000 PA:0x80025c98 load:0x00000000
     1810242000	     90410	8000bc60	03cba783	lw	x15,60(x23)	 x23:0x80025c60 x15=0x00000000 PA:0x80025c9c load:0x00000000
     1810702000	     90433	8000bc64	040ba803	lw	x16,64(x23)	 x23:0x80025c60 x16=0x00000004 PA:0x80025ca0 load:0x00000004
     1811182000	     90457	8000bc68	044ba883	lw	x17,68(x23)	 x23:0x80025c60 x17=0x00000004 PA:0x80025ca4 load:0x00000004
     1811362000	     90466	8000bc6c	048ba903	lw	x18,72(x23)	 x23:0x80025c60 x18=0x00000000 PA:0x80025ca8 load:0x00000000
     1811582000	     90477	8000bc70	04cba983	lw	x19,76(x23)	 x23:0x80025c60 x19=0x00000000 PA:0x80025cac load:0x00000000
     1811762000	     90486	8000bc74	050baa03	lw	x20,80(x23)	 x23:0x80025c60 x20=0xfffffff0 PA:0x80025cb0 load:0xfffffff0
     1811982000	     90497	8000bc78	054baa83	lw	x21,84(x23)	 x23:0x80025c60 x21=0xfffffeec PA:0x80025cb4 load:0xfffffeec
     1812042000	     90500	8000bc7c	058bab03	lw	x22,88(x23)	 x23:0x80025c60 x22=0x00000001 PA:0x80025cb8 load:0x00000001
     1812142000	     90505	8000bc80	05cbab83	lw	x23,92(x23)	 x23:0x80025c60 x23=0x80025c60 PA:0x80025cbc load:0x80025c60
     1812382000	     90517	8000bc84	060bac03	lw	x24,96(x23)	 x23:0x80025c60 x24=0x00000010 PA:0x80025cc0 load:0x00000010
     1812522000	     90524	8000bc88	064bac83	lw	x25,100(x23)	 x23:0x80025c60 x25=0x00000000 PA:0x80025cc4 load:0x00000000
     1812682000	     90532	8000bc8c	068bad03	lw	x26,104(x23)	 x23:0x80025c60 x26=0x00000010 PA:0x80025cc8 load:0x00000010
     1812702000	     90533	8000bc90	06cbad83	lw	x27,108(x23)	 x23:0x80025c60 x27=0x80002701 PA:0x80025ccc load:0x80002701
     1812802000	     90538	8000bc94	070bae03	lw	x28,112(x23)	 x23:0x80025c60 x28=0x00000000 PA:0x80025cd0 load:0x00000000
     1813082000	     90552	8000bc98	074bae83	lw	x29,116(x23)	 x23:0x80025c60 x29=0x00000000 PA:0x80025cd4 load:0x00000000
     1813202000	     90558	8000bc9c	078baf03	lw	x30,120(x23)	 x23:0x80025c60 x30=0xffffffff PA:0x80025cd8 load:0xffffffff
     1813442000	     90570	8000bca0	07cbaf83	lw	x31,124(x23)	 x23:0x80025c60 x31=0xffffffff PA:0x80025cdc load:0xffffffff
     1813462000	     90571	8000bca4	080b8b93	addi	x23,x23,128	 x23:0x80025c60 x23=0x80025ce0
     1813482000	     90572	8000bca8	000b82b3	add	x5,x23,x0	 x23:0x80025ce0  x0:0x00000000  x5=0x80025ce0
     1813622000	     90579	8000bcac	0002ab83	lw	x23,0(x5)	  x5:0x80025ce0 x23=0x80021df8 PA:0x80025ce0 load:0x80021df8
     1813642000	     90580	8000bcb0	0291	c.addi	x5,4	  x5:0x80025ce0  x5=0x80025ce4
     1813662000	     90581	8000bcb2	30200073	mret	
     1814002000	     90598	8000aa8c	00facab3	xor	x21,x21,x15	 x21:0xfffffeec x15:0x00000000 x21=0xfffffeec
     1814082000	     90602	8000aa90	0001	c.addi	x0,0	  x0:0x00000000  x0=0x00000000
     1814102000	     90603	8000aa92	32961373	csrrw	x6,mhpmevent9,x12	 x12:0x00000000  x6=0x00000040
     1814522000	     90624	8000aa96	406c89b3	sub	x19,x25,x6	 x25:0x00000000  x6:0x00000040 x19=0xffffffc0
     1814542000	     90625	8000aa9a	1680	c.addi4spn	x8,x2,864	  x8=0x00000022
     1815282000	     90662	8000aa9c	03f55733	divu	x14,x10,x31	 x10:0x3e75c936 x31:0xffffffff x14=0x00000000
     1815302000	     90663	8000aaa0	8096	c.mv	x1,x5	  x0:0x00000000  x5:0x80025ce4  x1=0x80025ce4
     1815322000	     90664	8000aaa2	00137fb3	and	x31,x6,x1	  x6:0x00000040  x1:0x80025ce4 x31=0x00000040
     1815342000	     90665	8000aaa6	9cae	c.add	x25,x11	 x25:0x00000000 x11:0x00000000 x25=0x00000000
     1815362000	     90666	8000aaa8	01fe4ab3	xor	x21,x28,x31	 x28:0x00000000 x31:0x00000040 x21=0x00000040
     1815382000	     90667	8000aaac	8dad	c.xor	x11,x11	 x11:0x00000000 x11:0x00000000 x11=0x00000000
     1815422000	     90669	8000aaae	03b021b3	mulhsu	x3,x0,x27	  x0:0x00000000 x27:0x80002701  x3=0x00000000
     1815442000	     90670	8000aab2	41a3d213	srai	x4,x7,0x1a	  x7:0xffffffff  x4=0xffffffff
     1815622000	     90679	8000aab6	0033af33	slt	x30,x7,x3	  x7:0xffffffff  x3:0x00000000 x30=0x00000001
     1815642000	     90680	8000aaba	717d	c.addi16sp	x2,-16	  x2:0xfffffcc2  x2=0xfffffcb2
     1815662000	     90681	8000aabc	8b5d	c.andi	x14,23	 x14:0x00000000 x14=0x00000000
     1815682000	     90682	8000aabe	a23db0b7	lui	x1,0xa23db	  x1=0xa23db000
     1815722000	     90684	8000aac2	02922933	mulhsu	x18,x4,x9	  x4:0xffffffff  x9:0xffca0438 x18=0xffffffff
     1815742000	     90685	8000aac6	178c	c.addi4spn	x11,x2,992	 x11=0x00000092
     1815842000	     90690	8000aac8	65c42a13	slti	x20,x8,1628	  x8:0x00000022 x20=0x00000001
     1815862000	     90691	8000aacc	00e1d313	srli	x6,x3,0xe	  x3:0x00000000  x6=0x00000000
     1815882000	     90692	8000aad0	508d8417	auipc	x8,0x508d8	  x8=0xd08e2ad0
     1815902000	     90693	8000aad4	b8c06e73	csrrsi	x28,mhpmcounter12h,0	 x28=0x00000000
     1816082000	     90702	8000aad8	014a8663	beq	x21,x20,8000aae4	 x21:0x00000040 x20:0x00000001
     1816842000	     90740	8000aadc	0293fa33	remu	x20,x7,x9	  x7:0xffffffff  x9:0xffca0438 x20=0x0035fbc7
     1816862000	     90741	8000aae0	01148b63	beq	x9,x17,8000aaf6	  x9:0xffca0438 x17:0x00000004
     1816882000	     90742	8000aae4	a3515fb7	lui	x31,0xa3515	 x31=0xa3515000
     1816902000	     90743	8000aae8	04368613	addi	x12,x13,67	 x13:0x00000000 x12=0x00000043
     1816922000	     90744	8000aaec	0000100f	fence.i	
     1817462000	     90771	8000aaf0	8e79	c.and	x12,x14	 x12:0x00000043 x14:0x00000000 x12=0x00000000
     1817482000	     90772	8000aaf2	8759	c.srai	x14,0x16	 x14:0x00000000 x14=0x00000000
     1817802000	     90788	8000aaf4	0e21	c.addi	x28,8	 x28:0x00000000 x28=0x00000008
     1817822000	     90789	8000aaf6	7c0363f3	csrrsi	x7,0x7c0,6	  x7=0x00000100
     1817882000	     90792	8000aafa	82f9	c.srli	x13,0x1e	 x13:0x00000000 x13=0x00000000
     1817962000	     90796	8000aafc	97947d37	lui	x26,0x97947	 x26=0x97947000
     1818042000	     90800	8000ab00	a5110117	auipc	x2,0xa5110	  x2=0x2511ab00
     1818482000	     90822	8000ab04	04840063	beq	x8,x8,8000ab44	  x8:0xd08e2ad0  x8:0xd08e2ad0
     1819162000	     90856	8000ab44	8c65	c.and	x8,x9	  x8:0xd08e2ad0  x9:0xffca0438  x8=0xd08a0010
     1819182000	     90857	8000ab46	81ed	c.srli	x11,0x1b	 x11:0x00000092 x11=0x00000000
     1819202000	     90858	8000ab48	0e00	c.addi4spn	x8,x2,784	  x8=0x2511ae10
     1819222000	     90859	8000ab4a	405c0633	sub	x12,x24,x5	 x24:0x00000010  x5:0x80025ce4 x12=0x7ffda32c
     1819362000	     90866	8000ab4e	04835917	auipc	x18,0x4835	 x18=0x8483fb4e
     1819382000	     90867	8000ab52	3a0060f3	csrrsi	x1,pmpcfg0,0	  x1=0x0f0f0f0f
     1819462000	     90871	8000ab56	012e6733	or	x14,x28,x18	 x28:0x00000008 x18:0x8483fb4e x14=0x8483fb4e
     1819862000	     90891	8000ab5a	414c0eb3	sub	x29,x24,x20	 x24:0x00000010 x20:0x0035fbc7 x29=0xffca0449
     1820042000	     90900	8000ab5e	03f786b3	mul	x13,x15,x31	 x15:0x00000000 x31:0xa3515000 x13=0x00000000
     1820082000	     90902	8000ab62	00521563	bne	x4,x5,8000ab6c	  x4:0xffffffff  x5:0x80025ce4
     1821202000	     90958	8000ab6c	9936	c.add	x18,x13	 x18:0x8483fb4e x13:0x00000000 x18=0x8483fb4e
     1821262000	     90961	8000ab6e	b89e3673	csrrc	x12,mhpmcounter9h,x28	 x28:0x00000008 x12=0x00000000
     1821322000	     90964	8000ab72	3251ed73	csrrsi	x26,mhpmevent5,3	 x26=0x00000004
     1821382000	     90967	8000ab76	0d91	c.addi	x27,4	 x27:0x80002701 x27=0x80002705
     1821422000	     90969	8000ab78	01040263	beq	x8,x16,8000ab7c	  x8:0x2511ae10 x16:0x00000004
     1822082000	     91002	8000ab7c	017554b3	srl	x9,x10,x23	 x10:0x3e75c936 x23:0x80021df8  x9=0x0000003e
     1822282000	     91012	8000ab80	3ba02273	csrrs	x4,pmpaddr10,x0	  x0:0x00000000  x4=0x0aaab7d9
     1822562000	     91026	8000ab84	414b8033	sub	x0,x23,x20	 x23:0x80021df8 x20:0x0035fbc7  x0=0x00000000
     1822722000	     91034	8000ab88	53f92613	slti	x12,x18,1343	 x18:0x8483fb4e x12=0x00000001
     1823142000	     91055	8000ab8c	927a	c.add	x4,x30	  x4:0x0aaab7d9 x30:0x00000001  x4=0x0aaab7da
     1823182000	     91057	8000ab8e	01e90763	beq	x18,x30,8000ab9c	 x18:0x8483fb4e x30:0x00000001
     1823422000	     91069	8000ab92	00a78d33	add	x26,x15,x10	 x15:0x00000000 x10:0x3e75c936 x26=0x3e75c936
     1823442000	     91070	8000ab96	86bd	c.srai	x13,0xf	 x13:0x00000000 x13=0x00000000
     1823802000	     91088	8000ab98	38e91e97	auipc	x29,0x38e91	 x29=0xb8e9bb98
     1824202000	     91108	8000ab9c	0001	c.addi	x0,0	  x0:0x00000000  x0=0x00000000
     1824462000	     91121	8000ab9e	32aa34f3	csrrc	x9,mhpmevent10,x20	 x20:0x0035fbc7  x9=0x00000080
     1824902000	     91143	8000aba2	032e3a33	mulhu	x20,x28,x18	 x28:0x00000008 x18:0x8483fb4e x20=0x00000004
     1824922000	     91144	8000aba6	8f45	c.or	x14,x9	 x14:0x8483fb4e  x9:0x00000080 x14=0x8483fbce
     1825082000	     91152	8000aba8	010935b3	sltu	x11,x18,x16	 x18:0x8483fb4e x16:0x00000004 x11=0x00000000
     1825842000	     91190	8000abac	8b4d	c.andi	x14,19	 x14:0x8483fbce x14=0x00000002
     1825862000	     91191	8000abae	00e71693	slli	x13,x14,0xe	 x14:0x00000002 x13=0x00008000
     1825882000	     91192	8000abb2	9926	c.add	x18,x9	 x18:0x8483fb4e  x9:0x00000080 x18=0x8483fbce
     1825942000	     91195	8000abb4	951e	c.add	x10,x7	 x10:0x3e75c936  x7:0x00000100 x10=0x3e75ca36
     1825962000	     91196	8000abb6	8c39	c.xor	x8,x14	  x8:0x2511ae10 x14:0x00000002  x8=0x2511ae12
     1826022000	     91199	8000abb8	00197e63	bgeu	x18,x1,8000abd4	 x18:0x8483fbce  x1:0x0f0f0f0f
     1826302000	     91213	8000abd4	00ce	c.slli	x1,0x13	  x1:0x0f0f0f0f  x1=0x78780000
     1826322000	     91214	8000abd6	3423d6f3	csrrwi	x13,mcause,7	 x13=0x00000002
     1826402000	     91218	8000abda	02a48cb3	mul	x25,x9,x10	  x9:0x00000080 x10:0x3e75ca36 x25=0x3ae51b00
     1826462000	     91221	8000abde	9dade193	ori	x3,x27,-1574	 x27:0x80002705  x3=0xffffffdf
     1826482000	     91222	8000abe2	0145fcb3	and	x25,x11,x20	 x11:0x00000000 x20:0x00000004 x25=0x00000000
     1827222000	     91259	8000abe6	0334dcb3	divu	x25,x9,x19	  x9:0x00000080 x19:0xffffffc0 x25=0x00000000
     1831002000	     91448	8000abea	7b307b73	csrrci	x0,0x7b3,0	  x0=0x00000000
     1831102000	     91453	80002700	0800006f	jal	x0,80002780	  x0=0x00000000
     1831422000	     91469	80002780	12f1	c.addi	x5,-4	  x5:0x80025ce4  x5=0x80025ce0
     1831762000	     91486	80002782	0172a023	sw	x23,0(x5)	  x5:0x80025ce0 x23:0x80021df8 PA:0x80025ce0 store:0x80021df8 load:0xffffffff
     1831782000	     91487	80002786	00028bb3	add	x23,x5,x0	  x5:0x80025ce0  x0:0x00000000 x23=0x80025ce0
     1831822000	     91489	8000278a	f80b8b93	addi	x23,x23,-128	 x23:0x80025ce0 x23=0x80025c60
     1832042000	     91500	8000278e	001ba223	sw	x1,4(x23)	 x23:0x80025c60  x1:0x78780000 PA:0x80025c64 store:0x78780000 load:0xffffffff
     1832322000	     91514	80002792	002ba423	sw	x2,8(x23)	 x23:0x80025c60  x2:0x2511ab00 PA:0x80025c68 store:0x2511ab00 load:0xffffffff
     1832782000	     91537	80002796	003ba623	sw	x3,12(x23)	 x23:0x80025c60  x3:0xffffffdf PA:0x80025c6c store:0xffffffdf load:0xffffffff
     1833002000	     91548	8000279a	004ba823	sw	x4,16(x23)	 x23:0x80025c60  x4:0x0aaab7da PA:0x80025c70 store:0x0aaab7da load:0xffffffff
     1833182000	     91557	8000279e	005baa23	sw	x5,20(x23)	 x23:0x80025c60  x5:0x80025ce0 PA:0x80025c74 store:0x80025ce0 load:0xffffffff
     1833222000	     91559	800027a2	006bac23	sw	x6,24(x23)	 x23:0x80025c60  x6:0x00000000 PA:0x80025c78 store:0x00000000 load:0xffffffff
     1833302000	     91563	800027a6	007bae23	sw	x7,28(x23)	 x23:0x80025c60  x7:0x00000100 PA:0x80025c7c store:0x00000100 load:0xffffffff
     1833642000	     91580	800027aa	028ba023	sw	x8,32(x23)	 x23:0x80025c60  x8:0x2511ae12 PA:0x80025c80 store:0x2511ae12 load:0xffffffff
     1833702000	     91583	800027ae	029ba223	sw	x9,36(x23)	 x23:0x80025c60  x9:0x00000080 PA:0x80025c84 store:0x00000080 load:0xffffffff
     1833842000	     91590	800027b2	02aba423	sw	x10,40(x23)	 x23:0x80025c60 x10:0x3e75ca36 PA:0x80025c88 store:0x3e75ca36 load:0xffffffff
     1834302000	     91613	800027b6	02bba623	sw	x11,44(x23)	 x23:0x80025c60 x11:0x00000000 PA:0x80025c8c store:0x00000000 load:0xffffffff
     1834422000	     91619	800027ba	02cba823	sw	x12,48(x23)	 x23:0x80025c60 x12:0x00000001 PA:0x80025c90 store:0x00000001 load:0xffffffff
     1834822000	     91639	800027be	02dbaa23	sw	x13,52(x23)	 x23:0x80025c60 x13:0x00000002 PA:0x80025c94 store:0x00000002 load:0xffffffff
     1834902000	     91643	800027c2	02ebac23	sw	x14,56(x23)	 x23:0x80025c60 x14:0x00000002 PA:0x80025c98 store:0x00000002 load:0xffffffff
     1836102000	     91703	800027c6	02fbae23	sw	x15,60(x23)	 x23:0x80025c60 x15:0x00000000 PA:0x80025c9c store:0x00000000 load:0xffffffff
     1836342000	     91715	800027ca	050ba023	sw	x16,64(x23)	 x23:0x80025c60 x16:0x00000004 PA:0x80025ca0 store:0x00000004 load:0xffffffff
     1837262000	     91761	800027ce	051ba223	sw	x17,68(x23)	 x23:0x80025c60 x17:0x00000004 PA:0x80025ca4 store:0x00000004 load:0xffffffff
     1837322000	     91764	800027d2	052ba423	sw	x18,72(x23)	 x23:0x80025c60 x18:0x8483fbce PA:0x80025ca8 store:0x8483fbce load:0xffffffff
     1837542000	     91775	800027d6	053ba623	sw	x19,76(x23)	 x23:0x80025c60 x19:0xffffffc0 PA:0x80025cac store:0xffffffc0 load:0xffffffff
     1837642000	     91780	800027da	054ba823	sw	x20,80(x23)	 x23:0x80025c60 x20:0x00000004 PA:0x80025cb0 store:0x00000004 load:0xffffffff
     1838822000	     91839	800027de	055baa23	sw	x21,84(x23)	 x23:0x80025c60 x21:0x00000040 PA:0x80025cb4 store:0x00000040 load:0xffffffff
     1839042000	     91850	800027e2	056bac23	sw	x22,88(x23)	 x23:0x80025c60 x22:0x00000001 PA:0x80025cb8 store:0x00000001 load:0xffffffff
     1840142000	     91905	800027e6	057bae23	sw	x23,92(x23)	 x23:0x80025c60 x23:0x80025c60 PA:0x80025cbc store:0x80025c60 load:0xffffffff
     1840222000	     91909	800027ea	078ba023	sw	x24,96(x23)	 x23:0x80025c60 x24:0x00000010 PA:0x80025cc0 store:0x00000010 load:0xffffffff
     1840242000	     91910	800027ee	079ba223	sw	x25,100(x23)	 x23:0x80025c60 x25:0x00000000 PA:0x80025cc4 store:0x00000000 load:0xffffffff
     1840702000	     91933	800027f2	07aba423	sw	x26,104(x23)	 x23:0x80025c60 x26:0x3e75c936 PA:0x80025cc8 store:0x3e75c936 load:0xffffffff
     1840762000	     91936	800027f6	07bba623	sw	x27,108(x23)	 x23:0x80025c60 x27:0x80002705 PA:0x80025ccc store:0x80002705 load:0xffffffff
     1840982000	     91947	800027fa	07cba823	sw	x28,112(x23)	 x23:0x80025c60 x28:0x00000008 PA:0x80025cd0 store:0x00000008 load:0xffffffff
     1841142000	     91955	800027fe	07dbaa23	sw	x29,116(x23)	 x23:0x80025c60 x29:0xb8e9bb98 PA:0x80025cd4 store:0xb8e9bb98 load:0xffffffff
     1841402000	     91968	80002802	07ebac23	sw	x30,120(x23)	 x23:0x80025c60 x30:0x00000001 PA:0x80025cd8 store:0x00000001 load:0xffffffff
     1841542000	     91975	80002806	07fbae23	sw	x31,124(x23)	 x23:0x80025c60 x31:0xa3515000 PA:0x80025cdc store:0xa3515000 load:0xffffffff
     1841562000	     91976	8000280a	000b82b3	add	x5,x23,x0	 x23:0x80025c60  x0:0x00000000  x5=0x80025c60
     1841602000	     91978	8000280e	90000c37	lui	x24,0x90000	 x24=0x90000000
     1841642000	     91980	80002812	1c71	c.addi	x24,-4	 x24:0x90000000 x24=0x8ffffffc
     1841682000	     91982	80002814	4f21	c.li	x30,8	 x30=0x00000008
     1841722000	     91984	80002816	0f22	c.slli	x30,0x8	 x30:0x00000008 x30=0x00000800
     1841762000	     91986	80002818	000f0f13	addi	x30,x30,0	 x30:0x00000800 x30=0x00000800
     1841822000	     91989	8000281c	01ec2023	sw	x30,0(x24)	 x24:0x8ffffffc x30:0x00000800 PA:0x8ffffffc store:0x00000800 load:0xffffffff
     1841842000	     91990	80002820	34102f73	csrrs	x30,mepc,x0	  x0:0x00000000 x30=0x8000abea
     1841882000	     91992	80002824	34202f73	csrrs	x30,mcause,x0	  x0:0x00000000 x30=0x00000002
     1841902000	     91993	80002828	4c0d	c.li	x24,3	 x24=0x00000003
     1842162000	     92006	8000282a	018f1463	bne	x30,x24,80002832	 x30:0x00000002 x24:0x00000003
     1843202000	     92058	80002832	4c21	c.li	x24,8	 x24=0x00000008
     1843242000	     92060	80002834	058f0d63	beq	x30,x24,8000288e	 x30:0x00000002 x24:0x00000008
     1843502000	     92073	80002838	4c25	c.li	x24,9	 x24=0x00000009
     1843942000	     92095	8000283a	058f0a63	beq	x30,x24,8000288e	 x30:0x00000002 x24:0x00000009
     1844582000	     92127	8000283e	4c2d	c.li	x24,11	 x24=0x0000000b
     1844642000	     92130	80002840	058f0763	beq	x30,x24,8000288e	 x30:0x00000002 x24:0x0000000b
     1845062000	     92151	80002844	4c05	c.li	x24,1	 x24=0x00000001
     1845122000	     92154	80002846	358f0363	beq	x30,x24,80002b8c	 x30:0x00000002 x24:0x00000001
     1845602000	     92178	8000284a	4c15	c.li	x24,5	 x24=0x00000005
     1845782000	     92187	8000284c	638f0a63	beq	x30,x24,80002e80	 x30:0x00000002 x24:0x00000005
     1846262000	     92211	80002850	4c1d	c.li	x24,7	 x24=0x00000007
     1846562000	     92226	80002852	158f0ce3	beq	x30,x24,800031aa	 x30:0x00000002 x24:0x00000007
     1847042000	     92250	80002856	4c31	c.li	x24,12	 x24=0x0000000c
     1847182000	     92257	80002858	018f1463	bne	x30,x24,80002860	 x30:0x00000002 x24:0x0000000c
     1848262000	     92311	80002860	4c35	c.li	x24,13	 x24=0x0000000d
     1848302000	     92313	80002862	018f1463	bne	x30,x24,8000286a	 x30:0x00000002 x24:0x0000000d
     1848942000	     92345	8000286a	4c3d	c.li	x24,15	 x24=0x0000000f
     1849762000	     92386	8000286c	018f1463	bne	x30,x24,80002874	 x30:0x00000002 x24:0x0000000f
     1850102000	     92403	80002874	4c09	c.li	x24,2	 x24=0x00000002
     1850542000	     92425	80002876	018f1463	bne	x30,x24,8000287e	 x30:0x00000002 x24:0x00000002
     1851442000	     92470	8000287a	3740906f	jal	x0,8000bbee	  x0=0x00000000
     1852182000	     92507	8000bbee	90000c37	lui	x24,0x90000	 x24=0x90000000
     1852202000	     92508	8000bbf2	1c71	c.addi	x24,-4	 x24:0x90000000 x24=0x8ffffffc
     1869942000	     93395	8000bbf4	4f29	c.li	x30,10	 x30=0x0000000a
     1869962000	     93396	8000bbf6	0f22	c.slli	x30,0x8	 x30:0x0000000a x30=0x00000a00
     1869982000	     93397	8000bbf8	000f0f13	addi	x30,x30,0	 x30:0x00000a00 x30=0x00000a00
     1871182000	     93457	8000bbfc	01ec2023	sw	x30,0(x24)	 x24:0x8ffffffc x30:0x00000a00 PA:0x8ffffffc store:0x00000a00 load:0xffffffff
     1871202000	     93458	8000bc00	90000c37	lui	x24,0x90000	 x24=0x90000000
     1871222000	     93459	8000bc04	1c71	c.addi	x24,-4	 x24:0x90000000 x24=0x8ffffffc
     1871262000	     93461	8000bc06	34200f13	addi	x30,x0,834	  x0:0x00000000 x30=0x00000342
     1871282000	     93462	8000bc0a	0f22	c.slli	x30,0x8	 x30:0x00000342 x30=0x00034200
     1872062000	     93501	8000bc0c	0f0d	c.addi	x30,3	 x30:0x00034200 x30=0x00034203
     1872122000	     93504	8000bc0e	01ec2023	sw	x30,0(x24)	 x24:0x8ffffffc x30:0x00034203 PA:0x8ffffffc store:0x00034203 load:0xffffffff
     1872142000	     93505	8000bc12	34202f73	csrrs	x30,mcause,x0	  x0:0x00000000 x30=0x00000002
     1872242000	     93510	8000bc16	01ec2023	sw	x30,0(x24)	 x24:0x8ffffffc x30:0x00000002 PA:0x8ffffffc store:0x00000002 load:0xffffffff
     1872262000	     93511	8000bc1a	34102f73	csrrs	x30,mepc,x0	  x0:0x00000000 x30=0x8000abea
     1872322000	     93514	8000bc1e	0f11	c.addi	x30,4	 x30:0x8000abea x30=0x8000abee
     1872342000	     93515	8000bc20	341f1073	csrrw	x0,mepc,x30	 x30:0x8000abee  x0=0x00000000
     1872522000	     93524	8000bc24	00028bb3	add	x23,x5,x0	  x5:0x80025c60  x0:0x00000000 x23=0x80025c60
     1873302000	     93563	8000bc28	004ba083	lw	x1,4(x23)	 x23:0x80025c60  x1=0x78780000 PA:0x80025c64 load:0x78780000
     1873502000	     93573	8000bc2c	008ba103	lw	x2,8(x23)	 x23:0x80025c60  x2=0x2511ab00 PA:0x80025c68 load:0x2511ab00
     1873562000	     93576	8000bc30	00cba183	lw	x3,12(x23)	 x23:0x80025c60  x3=0xffffffdf PA:0x80025c6c load:0xffffffdf
     1874042000	     93600	8000bc34	010ba203	lw	x4,16(x23)	 x23:0x80025c60  x4=0x0aaab7da PA:0x80025c70 load:0x0aaab7da
     1874262000	     93611	8000bc38	014ba283	lw	x5,20(x23)	 x23:0x80025c60  x5=0x80025ce0 PA:0x80025c74 load:0x80025ce0
     1874342000	     93615	8000bc3c	018ba303	lw	x6,24(x23)	 x23:0x80025c60  x6=0x00000000 PA:0x80025c78 load:0x00000000
     1875342000	     93665	8000bc40	01cba383	lw	x7,28(x23)	 x23:0x80025c60  x7=0x00000100 PA:0x80025c7c load:0x00000100
     1875442000	     93670	8000bc44	020ba403	lw	x8,32(x23)	 x23:0x80025c60  x8=0x2511ae12 PA:0x80025c80 load:0x2511ae12
     1875942000	     93695	8000bc48	024ba483	lw	x9,36(x23)	 x23:0x80025c60  x9=0x00000080 PA:0x80025c84 load:0x00000080
     1876022000	     93699	8000bc4c	028ba503	lw	x10,40(x23)	 x23:0x80025c60 x10=0x3e75ca36 PA:0x80025c88 load:0x3e75ca36
     1876622000	     93729	8000bc50	02cba583	lw	x11,44(x23)	 x23:0x80025c60 x11=0x00000000 PA:0x80025c8c load:0x00000000
     1877502000	     93773	8000bc54	030ba603	lw	x12,48(x23)	 x23:0x80025c60 x12=0x00000001 PA:0x80025c90 load:0x00000001
     1877682000	     93782	8000bc58	034ba683	lw	x13,52(x23)	 x23:0x80025c60 x13=0x00000002 PA:0x80025c94 load:0x00000002
     1877742000	     93785	8000bc5c	038ba703	lw	x14,56(x23)	 x23:0x80025c60 x14=0x00000002 PA:0x80025c98 load:0x00000002
     1877922000	     93794	8000bc60	03cba783	lw	x15,60(x23)	 x23:0x80025c60 x15=0x00000000 PA:0x80025c9c load:0x00000000
     1878042000	     93800	8000bc64	040ba803	lw	x16,64(x23)	 x23:0x80025c60 x16=0x00000004 PA:0x80025ca0 load:0x00000004
     1878462000	     93821	8000bc68	044ba883	lw	x17,68(x23)	 x23:0x80025c60 x17=0x00000004 PA:0x80025ca4 load:0x00000004
     1879262000	     93861	8000bc6c	048ba903	lw	x18,72(x23)	 x23:0x80025c60 x18=0x8483fbce PA:0x80025ca8 load:0x8483fbce
     1879482000	     93872	8000bc70	04cba983	lw	x19,76(x23)	 x23:0x80025c60 x19=0xffffffc0 PA:0x80025cac load:0xffffffc0
     1879522000	     93874	8000bc74	050baa03	lw	x20,80(x23)	 x23:0x80025c60 x20=0x00000004 PA:0x80025cb0 load:0x00000004
     1879842000	     93890	8000bc78	054baa83	lw	x21,84(x23)	 x23:0x80025c60 x21=0x00000040 PA:0x80025cb4 load:0x00000040
     1880002000	     93898	8000bc7c	058bab03	lw	x22,88(x23)	 x23:0x80025c60 x22=0x00000001 PA:0x80025cb8 load:0x00000001
     1880822000	     93939	8000bc80	05cbab83	lw	x23,92(x23)	 x23:0x80025c60 x23=0x80025c60 PA:0x80025cbc load:0x80025c60
     1880862000	     93941	8000bc84	060bac03	lw	x24,96(x23)	 x23:0x80025c60 x24=0x00000010 PA:0x80025cc0 load:0x00000010
     1880902000	     93943	8000bc88	064bac83	lw	x25,100(x23)	 x23:0x80025c60 x25=0x00000000 PA:0x80025cc4 load:0x00000000
     1881122000	     93954	8000bc8c	068bad03	lw	x26,104(x23)	 x23:0x80025c60 x26=0x3e75c936 PA:0x80025cc8 load:0x3e75c936
     1881302000	     93963	8000bc90	06cbad83	lw	x27,108(x23)	 x23:0x80025c60 x27=0x80002705 PA:0x80025ccc load:0x80002705
     1881362000	     93966	8000bc94	070bae03	lw	x28,112(x23)	 x23:0x80025c60 x28=0x00000008 PA:0x80025cd0 load:0x00000008
     1882002000	     93998	8000bc98	074bae83	lw	x29,116(x23)	 x23:0x80025c60 x29=0xb8e9bb98 PA:0x80025cd4 load:0xb8e9bb98
     1882802000	     94038	8000bc9c	078baf03	lw	x30,120(x23)	 x23:0x80025c60 x30=0x00000001 PA:0x80025cd8 load:0x00000001
     1882942000	     94045	8000bca0	07cbaf83	lw	x31,124(x23)	 x23:0x80025c60 x31=0xa3515000 PA:0x80025cdc load:0xa3515000
     1882962000	     94046	8000bca4	080b8b93	addi	x23,x23,128	 x23:0x80025c60 x23=0x80025ce0
     1883002000	     94048	8000bca8	000b82b3	add	x5,x23,x0	 x23:0x80025ce0  x0:0x00000000  x5=0x80025ce0
     1883122000	     94054	8000bcac	0002ab83	lw	x23,0(x5)	  x5:0x80025ce0 x23=0x80021df8 PA:0x80025ce0 load:0x80021df8
     1883142000	     94055	8000bcb0	0291	c.addi	x5,4	  x5:0x80025ce0  x5=0x80025ce4
     1883282000	     94062	8000bcb2	30200073	mret	
     1883862000	     94091	8000abee	40fcd113	srai	x2,x25,0xf	 x25:0x00000000  x2=0x00000000
     1884642000	     94130	8000abf2	32b030f3	csrrc	x1,mhpmevent11,x0	  x0:0x00000000  x1=0x00000100
     1884662000	     94131	8000abf6	8a3e	c.mv	x20,x15	  x0:0x00000000 x15:0x00000000 x20=0x00000000
     1886162000	     94206	8000abf8	00a92fb3	slt	x31,x18,x10	 x18:0x8483fbce x10:0x3e75ca36 x31=0x00000001
     1886182000	     94207	8000abfc	b8302d73	csrrs	x26,mhpmcounter3h,x0	  x0:0x00000000 x26=0x00000000
     1886202000	     94208	8000ac00	85bb3eb7	lui	x29,0x85bb3	 x29=0x85bb3000
     1886962000	     94246	8000ac04	03dd6f33	rem	x30,x26,x29	 x26:0x00000000 x29:0x85bb3000 x30=0x00000000
     1886982000	     94247	8000ac08	3b402f73	csrrs	x30,pmpaddr4,x0	  x0:0x00000000 x30=0x31111e40
     1887782000	     94287	8000ac0c	01a0c763	blt	x1,x26,8000ac1a	  x1:0x00000100 x26:0x00000000
     1887862000	     94291	8000ac10	7a207d73	csrrci	x26,tdata2,0	 x26=0x00000000
     1887882000	     94292	8000ac14	8cb9	c.xor	x9,x14	  x9:0x00000080 x14:0x00000002  x9=0x00000082
     1888782000	     94337	8000ac16	035adcb3	divu	x25,x21,x21	 x21:0x00000040 x21:0x00000040 x25=0x00000001
     1888822000	     94339	8000ac1a	293f6213	ori	x4,x30,659	 x30:0x31111e40  x4=0x31111ed3
     1889562000	     94376	8000ac1e	03d5d433	divu	x8,x11,x29	 x11:0x00000000 x29:0x85bb3000  x8=0x00000000
     1889622000	     94379	8000ac22	05cd1063	bne	x26,x28,8000ac62	 x26:0x00000000 x28:0x00000008
     1889702000	     94383	8000ac62	8cf9	c.and	x9,x14	  x9:0x00000082 x14:0x00000002  x9=0x00000002
     1889742000	     94385	8000ac64	022cbdb3	mulhu	x27,x25,x2	 x25:0x00000001  x2:0x00000000 x27=0x00000000
     1889862000	     94391	8000ac68	8ea1	c.xor	x13,x8	 x13:0x00000002  x8:0x00000000 x13=0x00000002
     1889922000	     94394	8000ac6a	34075473	csrrwi	x8,mscratch,14	  x8=0x0000001d
     1890682000	     94432	8000ac6e	00c49333	sll	x6,x9,x12	  x9:0x00000002 x12:0x00000001  x6=0x00000004
     1890702000	     94433	8000ac72	8ec9	c.or	x13,x10	 x13:0x00000002 x10:0x3e75ca36 x13=0x3e75ca36
     1891442000	     94470	8000ac74	0314d133	divu	x2,x9,x17	  x9:0x00000002 x17:0x00000004  x2=0x00000000
     1891482000	     94472	8000ac78	0275	c.addi	x4,29	  x4:0x31111ed3  x4=0x31111ef0
     1891522000	     94474	8000ac7a	40055493	srai	x9,x10,0x0	 x10:0x3e75ca36  x9=0x3e75ca36
     1891542000	     94475	8000ac7e	0001	c.addi	x0,0	  x0:0x00000000  x0=0x00000000
     1891582000	     94477	8000ac80	80dd	c.srli	x9,0x17	  x9:0x3e75ca36  x9=0x0000007c
     1891602000	     94478	8000ac82	8ca1	c.xor	x9,x8	  x9:0x0000007c  x8:0x0000001d  x9=0x00000061
     1891642000	     94480	8000ac84	036b5f63	bge	x22,x22,8000acc2	 x22:0x00000001 x22:0x00000001
     1892202000	     94508	8000acc2	01704e63	blt	x0,x23,8000acde	  x0:0x00000000 x23:0x80021df8
     1893482000	     94572	8000acc6	02ee05b3	mul	x11,x28,x14	 x28:0x00000008 x14:0x00000002 x11=0x00000010
     1893682000	     94582	8000acca	02ebd063	bge	x23,x14,8000acea	 x23:0x80021df8 x14:0x00000002
     1894862000	     94641	8000acce	026fe133	rem	x2,x31,x6	 x31:0x00000001  x6:0x00000004  x2=0x00000001
     1894882000	     94642	8000acd2	f15e1af3	csrrw	x0,0xf15,x0	  x0:0x00000000  x0=0x00000000
     1895022000	     94649	80002700	0800006f	jal	x0,80002780	  x0=0x00000000
     1895262000	     94661	80002780	12f1	c.addi	x5,-4	  x5:0x80025ce4  x5=0x80025ce0
     1895342000	     94665	80002782	0172a023	sw	x23,0(x5)	  x5:0x80025ce0 x23:0x80021df8 PA:0x80025ce0 store:0x80021df8 load:0xffffffff
     1895402000	     94668	80002786	00028bb3	add	x23,x5,x0	  x5:0x80025ce0  x0:0x00000000 x23=0x80025ce0
     1895602000	     94678	8000278a	f80b8b93	addi	x23,x23,-128	 x23:0x80025ce0 x23=0x80025c60
     1895942000	     94695	8000278e	001ba223	sw	x1,4(x23)	 x23:0x80025c60  x1:0x00000100 PA:0x80025c64 store:0x00000100 load:0xffffffff
     1896182000	     94707	80002792	002ba423	sw	x2,8(x23)	 x23:0x80025c60  x2:0x00000001 PA:0x80025c68 store:0x00000001 load:0xffffffff
     1896242000	     94710	80002796	003ba623	sw	x3,12(x23)	 x23:0x80025c60  x3:0xffffffdf PA:0x80025c6c store:0xffffffdf load:0xffffffff
     1896262000	     94711	8000279a	004ba823	sw	x4,16(x23)	 x23:0x80025c60  x4:0x31111ef0 PA:0x80025c70 store:0x31111ef0 load:0xffffffff
     1896442000	     94720	8000279e	005baa23	sw	x5,20(x23)	 x23:0x80025c60  x5:0x80025ce0 PA:0x80025c74 store:0x80025ce0 load:0xffffffff
     1896502000	     94723	800027a2	006bac23	sw	x6,24(x23)	 x23:0x80025c60  x6:0x00000004 PA:0x80025c78 store:0x00000004 load:0xffffffff
     1896722000	     94734	800027a6	007bae23	sw	x7,28(x23)	 x23:0x80025c60  x7:0x00000100 PA:0x80025c7c store:0x00000100 load:0xffffffff
     1897282000	     94762	800027aa	028ba023	sw	x8,32(x23)	 x23:0x80025c60  x8:0x0000001d PA:0x80025c80 store:0x0000001d load:0xffffffff
     1897362000	     94766	800027ae	029ba223	sw	x9,36(x23)	 x23:0x80025c60  x9:0x00000061 PA:0x80025c84 store:0x00000061 load:0xffffffff
     1897402000	     94768	800027b2	02aba423	sw	x10,40(x23)	 x23:0x80025c60 x10:0x3e75ca36 PA:0x80025c88 store:0x3e75ca36 load:0xffffffff
     1897622000	     94779	800027b6	02bba623	sw	x11,44(x23)	 x23:0x80025c60 x11:0x00000010 PA:0x80025c8c store:0x00000010 load:0xffffffff
     1897682000	     94782	800027ba	02cba823	sw	x12,48(x23)	 x23:0x80025c60 x12:0x00000001 PA:0x80025c90 store:0x00000001 load:0xffffffff
     1897782000	     94787	800027be	02dbaa23	sw	x13,52(x23)	 x23:0x80025c60 x13:0x3e75ca36 PA:0x80025c94 store:0x3e75ca36 load:0xffffffff
     1898582000	     94827	800027c2	02ebac23	sw	x14,56(x23)	 x23:0x80025c60 x14:0x00000002 PA:0x80025c98 store:0x00000002 load:0xffffffff
     1899002000	     94848	800027c6	02fbae23	sw	x15,60(x23)	 x23:0x80025c60 x15:0x00000000 PA:0x80025c9c store:0x00000000 load:0xffffffff
     1899302000	     94863	800027ca	050ba023	sw	x16,64(x23)	 x23:0x80025c60 x16:0x00000004 PA:0x80025ca0 store:0x00000004 load:0xffffffff
     1899502000	     94873	800027ce	051ba223	sw	x17,68(x23)	 x23:0x80025c60 x17:0x00000004 PA:0x80025ca4 store:0x00000004 load:0xffffffff
     1899642000	     94880	800027d2	052ba423	sw	x18,72(x23)	 x23:0x80025c60 x18:0x8483fbce PA:0x80025ca8 store:0x8483fbce load:0xffffffff
     1899782000	     94887	800027d6	053ba623	sw	x19,76(x23)	 x23:0x80025c60 x19:0xffffffc0 PA:0x80025cac store:0xffffffc0 load:0xffffffff
     1899842000	     94890	800027da	054ba823	sw	x20,80(x23)	 x23:0x80025c60 x20:0x00000000 PA:0x80025cb0 store:0x00000000 load:0xffffffff
     1900462000	     94921	800027de	055baa23	sw	x21,84(x23)	 x23:0x80025c60 x21:0x00000040 PA:0x80025cb4 store:0x00000040 load:0xffffffff
     1901262000	     94961	800027e2	056bac23	sw	x22,88(x23)	 x23:0x80025c60 x22:0x00000001 PA:0x80025cb8 store:0x00000001 load:0xffffffff
     1901282000	     94962	800027e6	057bae23	sw	x23,92(x23)	 x23:0x80025c60 x23:0x80025c60 PA:0x80025cbc store:0x80025c60 load:0xffffffff
     1901702000	     94983	800027ea	078ba023	sw	x24,96(x23)	 x23:0x80025c60 x24:0x00000010 PA:0x80025cc0 store:0x00000010 load:0xffffffff
     1902902000	     95043	800027ee	079ba223	sw	x25,100(x23)	 x23:0x80025c60 x25:0x00000001 PA:0x80025cc4 store:0x00000001 load:0xffffffff
     1903042000	     95050	800027f2	07aba423	sw	x26,104(x23)	 x23:0x80025c60 x26:0x00000000 PA:0x80025cc8 store:0x00000000 load:0xffffffff
     1903122000	     95054	800027f6	07bba623	sw	x27,108(x23)	 x23:0x80025c60 x27:0x00000000 PA:0x80025ccc store:0x00000000 load:0xffffffff
     1903542000	     95075	800027fa	07cba823	sw	x28,112(x23)	 x23:0x80025c60 x28:0x00000008 PA:0x80025cd0 store:0x00000008 load:0xffffffff
     1903662000	     95081	800027fe	07dbaa23	sw	x29,116(x23)	 x23:0x80025c60 x29:0x85bb3000 PA:0x80025cd4 store:0x85bb3000 load:0xffffffff
     1903762000	     95086	80002802	07ebac23	sw	x30,120(x23)	 x23:0x80025c60 x30:0x31111e40 PA:0x80025cd8 store:0x31111e40 load:0xffffffff
     1903842000	     95090	80002806	07fbae23	sw	x31,124(x23)	 x23:0x80025c60 x31:0x00000001 PA:0x80025cdc store:0x00000001 load:0xffffffff
     1903882000	     95092	8000280a	000b82b3	add	x5,x23,x0	 x23:0x80025c60  x0:0x00000000  x5=0x80025c60
     1903902000	     95093	8000280e	90000c37	lui	x24,0x90000	 x24=0x90000000
     1903922000	     95094	80002812	1c71	c.addi	x24,-4	 x24:0x90000000 x24=0x8ffffffc
     1903982000	     95097	80002814	4f21	c.li	x30,8	 x30=0x00000008
     1904022000	     95099	80002816	0f22	c.slli	x30,0x8	 x30:0x00000008 x30=0x00000800
     1904042000	     95100	80002818	000f0f13	addi	x30,x30,0	 x30:0x00000800 x30=0x00000800
     1904462000	     95121	8000281c	01ec2023	sw	x30,0(x24)	 x24:0x8ffffffc x30:0x00000800 PA:0x8ffffffc store:0x00000800 load:0xffffffff
     1914162000	     95606	80002820	34102f73	csrrs	x30,mepc,x0	  x0:0x00000000 x30=0x8000acd2
     1914182000	     95607	80002824	34202f73	csrrs	x30,mcause,x0	  x0:0x00000000 x30=0x00000002
     1914202000	     95608	80002828	4c0d	c.li	x24,3	 x24=0x00000003
     1914262000	     95611	8000282a	018f1463	bne	x30,x24,80002832	 x30:0x00000002 x24:0x00000003
     1914702000	     95633	80002832	4c21	c.li	x24,8	 x24=0x00000008
     1914742000	     95635	80002834	058f0d63	beq	x30,x24,8000288e	 x30:0x00000002 x24:0x00000008
     1915782000	     95687	80002838	4c25	c.li	x24,9	 x24=0x00000009
     1915842000	     95690	8000283a	058f0a63	beq	x30,x24,8000288e	 x30:0x00000002 x24:0x00000009
     1916762000	     95736	8000283e	4c2d	c.li	x24,11	 x24=0x0000000b
     1916802000	     95738	80002840	058f0763	beq	x30,x24,8000288e	 x30:0x00000002 x24:0x0000000b
     1917662000	     95781	80002844	4c05	c.li	x24,1	 x24=0x00000001
     1918442000	     95820	80002846	358f0363	beq	x30,x24,80002b8c	 x30:0x00000002 x24:0x00000001
     1918522000	     95824	8000284a	4c15	c.li	x24,5	 x24=0x00000005
     1918582000	     95827	8000284c	638f0a63	beq	x30,x24,80002e80	 x30:0x00000002 x24:0x00000005
     1919142000	     95855	80002850	4c1d	c.li	x24,7	 x24=0x00000007
     1919202000	     95858	80002852	158f0ce3	beq	x30,x24,800031aa	 x30:0x00000002 x24:0x00000007
     1919722000	     95884	80002856	4c31	c.li	x24,12	 x24=0x0000000c
     1920502000	     95923	80002858	018f1463	bne	x30,x24,80002860	 x30:0x00000002 x24:0x0000000c
     1920582000	     95927	80002860	4c35	c.li	x24,13	 x24=0x0000000d
     1920642000	     95930	80002862	018f1463	bne	x30,x24,8000286a	 x30:0x00000002 x24:0x0000000d
     1920982000	     95947	8000286a	4c3d	c.li	x24,15	 x24=0x0000000f
     1921262000	     95961	8000286c	018f1463	bne	x30,x24,80002874	 x30:0x00000002 x24:0x0000000f
     1921382000	     95967	80002874	4c09	c.li	x24,2	 x24=0x00000002
     1921422000	     95969	80002876	018f1463	bne	x30,x24,8000287e	 x30:0x00000002 x24:0x00000002
     1922182000	     96007	8000287a	3740906f	jal	x0,8000bbee	  x0=0x00000000
     1922642000	     96030	8000bbee	90000c37	lui	x24,0x90000	 x24=0x90000000
     1922662000	     96031	8000bbf2	1c71	c.addi	x24,-4	 x24:0x90000000 x24=0x8ffffffc
     1922722000	     96034	8000bbf4	4f29	c.li	x30,10	 x30=0x0000000a
     1922762000	     96036	8000bbf6	0f22	c.slli	x30,0x8	 x30:0x0000000a x30=0x00000a00
     1922982000	     96047	8000bbf8	000f0f13	addi	x30,x30,0	 x30:0x00000a00 x30=0x00000a00
     1923042000	     96050	8000bbfc	01ec2023	sw	x30,0(x24)	 x24:0x8ffffffc x30:0x00000a00 PA:0x8ffffffc store:0x00000a00 load:0xffffffff
     1923102000	     96053	8000bc00	90000c37	lui	x24,0x90000	 x24=0x90000000
     1923122000	     96054	8000bc04	1c71	c.addi	x24,-4	 x24:0x90000000 x24=0x8ffffffc
     1923182000	     96057	8000bc06	34200f13	addi	x30,x0,834	  x0:0x00000000 x30=0x00000342
     1923242000	     96060	8000bc0a	0f22	c.slli	x30,0x8	 x30:0x00000342 x30=0x00034200
     1923462000	     96071	8000bc0c	0f0d	c.addi	x30,3	 x30:0x00034200 x30=0x00034203
     1923682000	     96082	8000bc0e	01ec2023	sw	x30,0(x24)	 x24:0x8ffffffc x30:0x00034203 PA:0x8ffffffc store:0x00034203 load:0xffffffff
     1923882000	     96092	8000bc12	34202f73	csrrs	x30,mcause,x0	  x0:0x00000000 x30=0x00000002
     1924502000	     96123	8000bc16	01ec2023	sw	x30,0(x24)	 x24:0x8ffffffc x30:0x00000002 PA:0x8ffffffc store:0x00000002 load:0xffffffff
     1924522000	     96124	8000bc1a	34102f73	csrrs	x30,mepc,x0	  x0:0x00000000 x30=0x8000acd2
     1924582000	     96127	8000bc1e	0f11	c.addi	x30,4	 x30:0x8000acd2 x30=0x8000acd6
     1924602000	     96128	8000bc20	341f1073	csrrw	x0,mepc,x30	 x30:0x8000acd6  x0=0x00000000
     1924622000	     96129	8000bc24	00028bb3	add	x23,x5,x0	  x5:0x80025c60  x0:0x00000000 x23=0x80025c60
     1924702000	     96133	8000bc28	004ba083	lw	x1,4(x23)	 x23:0x80025c60  x1=0x00000100 PA:0x80025c64 load:0x00000100
     1924802000	     96138	8000bc2c	008ba103	lw	x2,8(x23)	 x23:0x80025c60  x2=0x00000001 PA:0x80025c68 load:0x00000001
     1924822000	     96139	8000bc30	00cba183	lw	x3,12(x23)	 x23:0x80025c60  x3=0xffffffdf PA:0x80025c6c load:0xffffffdf
     1925262000	     96161	8000bc34	010ba203	lw	x4,16(x23)	 x23:0x80025c60  x4=0x31111ef0 PA:0x80025c70 load:0x31111ef0
     1925482000	     96172	8000bc38	014ba283	lw	x5,20(x23)	 x23:0x80025c60  x5=0x80025ce0 PA:0x80025c74 load:0x80025ce0
     1925582000	     96177	8000bc3c	018ba303	lw	x6,24(x23)	 x23:0x80025c60  x6=0x00000004 PA:0x80025c78 load:0x00000004
     1926462000	     96221	8000bc40	01cba383	lw	x7,28(x23)	 x23:0x80025c60  x7=0x00000100 PA:0x80025c7c load:0x00000100
     1926542000	     96225	8000bc44	020ba403	lw	x8,32(x23)	 x23:0x80025c60  x8=0x0000001d PA:0x80025c80 load:0x0000001d
     1926722000	     96234	8000bc48	024ba483	lw	x9,36(x23)	 x23:0x80025c60  x9=0x00000061 PA:0x80025c84 load:0x00000061
     1926862000	     96241	8000bc4c	028ba503	lw	x10,40(x23)	 x23:0x80025c60 x10=0x3e75ca36 PA:0x80025c88 load:0x3e75ca36
     1926882000	     96242	8000bc50	02cba583	lw	x11,44(x23)	 x23:0x80025c60 x11=0x00000010 PA:0x80025c8c load:0x00000010
     1928422000	     96319	8000bc54	030ba603	lw	x12,48(x23)	 x23:0x80025c60 x12=0x00000001 PA:0x80025c90 load:0x00000001
     1928462000	     96321	8000bc58	034ba683	lw	x13,52(x23)	 x23:0x80025c60 x13=0x3e75ca36 PA:0x80025c94 load:0x3e75ca36
     1928962000	     96346	8000bc5c	038ba703	lw	x14,56(x23)	 x23:0x80025c60 x14=0x00000002 PA:0x80025c98 load:0x00000002
     1929022000	     96349	8000bc60	03cba783	lw	x15,60(x23)	 x23:0x80025c60 x15=0x00000000 PA:0x80025c9c load:0x00000000
     1930222000	     96409	8000bc64	040ba803	lw	x16,64(x23)	 x23:0x80025c60 x16=0x00000004 PA:0x80025ca0 load:0x00000004
     1930442000	     96420	8000bc68	044ba883	lw	x17,68(x23)	 x23:0x80025c60 x17=0x00000004 PA:0x80025ca4 load:0x00000004
     1930502000	     96423	8000bc6c	048ba903	lw	x18,72(x23)	 x23:0x80025c60 x18=0x8483fbce PA:0x80025ca8 load:0x8483fbce
     1930982000	     96447	8000bc70	04cba983	lw	x19,76(x23)	 x23:0x80025c60 x19=0xffffffc0 PA:0x80025cac load:0xffffffc0
     1931042000	     96450	8000bc74	050baa03	lw	x20,80(x23)	 x23:0x80025c60 x20=0x00000000 PA:0x80025cb0 load:0x00000000
     1931142000	     96455	8000bc78	054baa83	lw	x21,84(x23)	 x23:0x80025c60 x21=0x00000040 PA:0x80025cb4 load:0x00000040
     1931302000	     96463	8000bc7c	058bab03	lw	x22,88(x23)	 x23:0x80025c60 x22=0x00000001 PA:0x80025cb8 load:0x00000001
     1931322000	     96464	8000bc80	05cbab83	lw	x23,92(x23)	 x23:0x80025c60 x23=0x80025c60 PA:0x80025cbc load:0x80025c60
     1931662000	     96481	8000bc84	060bac03	lw	x24,96(x23)	 x23:0x80025c60 x24=0x00000010 PA:0x80025cc0 load:0x00000010
     1931742000	     96485	8000bc88	064bac83	lw	x25,100(x23)	 x23:0x80025c60 x25=0x00000001 PA:0x80025cc4 load:0x00000001
     1931782000	     96487	8000bc8c	068bad03	lw	x26,104(x23)	 x23:0x80025c60 x26=0x00000000 PA:0x80025cc8 load:0x00000000
     1932162000	     96506	8000bc90	06cbad83	lw	x27,108(x23)	 x23:0x80025c60 x27=0x00000000 PA:0x80025ccc load:0x00000000
     1932222000	     96509	8000bc94	070bae03	lw	x28,112(x23)	 x23:0x80025c60 x28=0x00000008 PA:0x80025cd0 load:0x00000008
     1932322000	     96514	8000bc98	074bae83	lw	x29,116(x23)	 x23:0x80025c60 x29=0x85bb3000 PA:0x80025cd4 load:0x85bb3000
     1933002000	     96548	8000bc9c	078baf03	lw	x30,120(x23)	 x23:0x80025c60 x30=0x31111e40 PA:0x80025cd8 load:0x31111e40
     1933082000	     96552	8000bca0	07cbaf83	lw	x31,124(x23)	 x23:0x80025c60 x31=0x00000001 PA:0x80025cdc load:0x00000001
     1933102000	     96553	8000bca4	080b8b93	addi	x23,x23,128	 x23:0x80025c60 x23=0x80025ce0
     1933122000	     96554	8000bca8	000b82b3	add	x5,x23,x0	 x23:0x80025ce0  x0:0x00000000  x5=0x80025ce0
     1933602000	     96578	8000bcac	0002ab83	lw	x23,0(x5)	  x5:0x80025ce0 x23=0x80021df8 PA:0x80025ce0 load:0x80021df8
     1933622000	     96579	8000bcb0	0291	c.addi	x5,4	  x5:0x80025ce0  x5=0x80025ce4
     1934382000	     96617	8000bcb2	30200073	mret	
     1934502000	     96623	8000acd6	01419eb3	sll	x29,x3,x20	  x3:0xffffffdf x20:0x00000000 x29=0xffffffdf
     1934702000	     96633	8000acda	0000100f	fence.i	
     1934842000	     96640	8000acde	b03d56f3	csrrwi	x13,mhpmcounter3,26	 x13=0x00001562
     1935002000	     96648	8000ace2	7a107e73	csrrci	x28,tdata1,0	 x28=0x28001048
     1935022000	     96649	8000ace6	7b106e73	csrrsi	x0,dpc,0	  x0=0x00000000
     1936022000	     96699	80002700	0800006f	jal	x0,80002780	  x0=0x00000000
     1936582000	     96727	80002780	12f1	c.addi	x5,-4	  x5:0x80025ce4  x5=0x80025ce0
     1937242000	     96760	80002782	0172a023	sw	x23,0(x5)	  x5:0x80025ce0 x23:0x80021df8 PA:0x80025ce0 store:0x80021df8 load:0xffffffff
     1937262000	     96761	80002786	00028bb3	add	x23,x5,x0	  x5:0x80025ce0  x0:0x00000000 x23=0x80025ce0
     1937482000	     96772	8000278a	f80b8b93	addi	x23,x23,-128	 x23:0x80025ce0 x23=0x80025c60
     1937682000	     96782	8000278e	001ba223	sw	x1,4(x23)	 x23:0x80025c60  x1:0x00000100 PA:0x80025c64 store:0x00000100 load:0xffffffff
     1937702000	     96783	80002792	002ba423	sw	x2,8(x23)	 x23:0x80025c60  x2:0x00000001 PA:0x80025c68 store:0x00000001 load:0xffffffff
     1937762000	     96786	80002796	003ba623	sw	x3,12(x23)	 x23:0x80025c60  x3:0xffffffdf PA:0x80025c6c store:0xffffffdf load:0xffffffff
     1938562000	     96826	8000279a	004ba823	sw	x4,16(x23)	 x23:0x80025c60  x4:0x31111ef0 PA:0x80025c70 store:0x31111ef0 load:0xffffffff
     1938882000	     96842	8000279e	005baa23	sw	x5,20(x23)	 x23:0x80025c60  x5:0x80025ce0 PA:0x80025c74 store:0x80025ce0 load:0xffffffff
     1939282000	     96862	800027a2	006bac23	sw	x6,24(x23)	 x23:0x80025c60  x6:0x00000004 PA:0x80025c78 store:0x00000004 load:0xffffffff
     1940402000	     96918	800027a6	007bae23	sw	x7,28(x23)	 x23:0x80025c60  x7:0x00000100 PA:0x80025c7c store:0x00000100 load:0xffffffff
     1940462000	     96921	800027aa	028ba023	sw	x8,32(x23)	 x23:0x80025c60  x8:0x0000001d PA:0x80025c80 store:0x0000001d load:0xffffffff
     1940822000	     96939	800027ae	029ba223	sw	x9,36(x23)	 x23:0x80025c60  x9:0x00000061 PA:0x80025c84 store:0x00000061 load:0xffffffff
     1941622000	     96979	800027b2	02aba423	sw	x10,40(x23)	 x23:0x80025c60 x10:0x3e75ca36 PA:0x80025c88 store:0x3e75ca36 load:0xffffffff
     1941682000	     96982	800027b6	02bba623	sw	x11,44(x23)	 x23:0x80025c60 x11:0x00000010 PA:0x80025c8c store:0x00000010 load:0xffffffff
     1942582000	     97027	800027ba	02cba823	sw	x12,48(x23)	 x23:0x80025c60 x12:0x00000001 PA:0x80025c90 store:0x00000001 load:0xffffffff
     1942662000	     97031	800027be	02dbaa23	sw	x13,52(x23)	 x23:0x80025c60 x13:0x00001562 PA:0x80025c94 store:0x00001562 load:0xffffffff
     1942982000	     97047	800027c2	02ebac23	sw	x14,56(x23)	 x23:0x80025c60 x14:0x00000002 PA:0x80025c98 store:0x00000002 load:0xffffffff
     1943002000	     97048	800027c6	02fbae23	sw	x15,60(x23)	 x23:0x80025c60 x15:0x00000000 PA:0x80025c9c store:0x00000000 load:0xffffffff
     1943242000	     97060	800027ca	050ba023	sw	x16,64(x23)	 x23:0x80025c60 x16:0x00000004 PA:0x80025ca0 store:0x00000004 load:0xffffffff
     1946762000	     97236	800027ce	051ba223	sw	x17,68(x23)	 x23:0x80025c60 x17:0x00000004 PA:0x80025ca4 store:0x00000004 load:0xffffffff
     1946842000	     97240	800027d2	052ba423	sw	x18,72(x23)	 x23:0x80025c60 x18:0x8483fbce PA:0x80025ca8 store:0x8483fbce load:0xffffffff
     1947282000	     97262	800027d6	053ba623	sw	x19,76(x23)	 x23:0x80025c60 x19:0xffffffc0 PA:0x80025cac store:0xffffffc0 load:0xffffffff
     1947542000	     97275	800027da	054ba823	sw	x20,80(x23)	 x23:0x80025c60 x20:0x00000000 PA:0x80025cb0 store:0x00000000 load:0xffffffff
     1947662000	     97281	800027de	055baa23	sw	x21,84(x23)	 x23:0x80025c60 x21:0x00000040 PA:0x80025cb4 store:0x00000040 load:0xffffffff
     1947702000	     97283	800027e2	056bac23	sw	x22,88(x23)	 x23:0x80025c60 x22:0x00000001 PA:0x80025cb8 store:0x00000001 load:0xffffffff
     1948142000	     97305	800027e6	057bae23	sw	x23,92(x23)	 x23:0x80025c60 x23:0x80025c60 PA:0x80025cbc store:0x80025c60 load:0xffffffff
     1948202000	     97308	800027ea	078ba023	sw	x24,96(x23)	 x23:0x80025c60 x24:0x00000010 PA:0x80025cc0 store:0x00000010 load:0xffffffff
     1948482000	     97322	800027ee	079ba223	sw	x25,100(x23)	 x23:0x80025c60 x25:0x00000001 PA:0x80025cc4 store:0x00000001 load:0xffffffff
     1948962000	     97346	800027f2	07aba423	sw	x26,104(x23)	 x23:0x80025c60 x26:0x00000000 PA:0x80025cc8 store:0x00000000 load:0xffffffff
     1949782000	     97387	800027f6	07bba623	sw	x27,108(x23)	 x23:0x80025c60 x27:0x00000000 PA:0x80025ccc store:0x00000000 load:0xffffffff
     1949802000	     97388	800027fa	07cba823	sw	x28,112(x23)	 x23:0x80025c60 x28:0x28001048 PA:0x80025cd0 store:0x28001048 load:0xffffffff
     1949822000	     97389	800027fe	07dbaa23	sw	x29,116(x23)	 x23:0x80025c60 x29:0xffffffdf PA:0x80025cd4 store:0xffffffdf load:0xffffffff
     1950622000	     97429	80002802	07ebac23	sw	x30,120(x23)	 x23:0x80025c60 x30:0x31111e40 PA:0x80025cd8 store:0x31111e40 load:0xffffffff
     1950642000	     97430	80002806	07fbae23	sw	x31,124(x23)	 x23:0x80025c60 x31:0x00000001 PA:0x80025cdc store:0x00000001 load:0xffffffff
     1950722000	     97434	8000280a	000b82b3	add	x5,x23,x0	 x23:0x80025c60  x0:0x00000000  x5=0x80025c60
     1950742000	     97435	8000280e	90000c37	lui	x24,0x90000	 x24=0x90000000
     1950782000	     97437	80002812	1c71	c.addi	x24,-4	 x24:0x90000000 x24=0x8ffffffc
     1950802000	     97438	80002814	4f21	c.li	x30,8	 x30=0x00000008
     1950822000	     97439	80002816	0f22	c.slli	x30,0x8	 x30:0x00000008 x30=0x00000800
     1950862000	     97441	80002818	000f0f13	addi	x30,x30,0	 x30:0x00000800 x30=0x00000800
     1951182000	     97457	8000281c	01ec2023	sw	x30,0(x24)	 x24:0x8ffffffc x30:0x00000800 PA:0x8ffffffc store:0x00000800 load:0xffffffff
     1951222000	     97459	80002820	34102f73	csrrs	x30,mepc,x0	  x0:0x00000000 x30=0x8000ace6
     1951242000	     97460	80002824	34202f73	csrrs	x30,mcause,x0	  x0:0x00000000 x30=0x00000002
     1951262000	     97461	80002828	4c0d	c.li	x24,3	 x24=0x00000003
     1951362000	     97466	8000282a	018f1463	bne	x30,x24,80002832	 x30:0x00000002 x24:0x00000003
     1952102000	     97503	80002832	4c21	c.li	x24,8	 x24=0x00000008
     1952482000	     97522	80002834	058f0d63	beq	x30,x24,8000288e	 x30:0x00000002 x24:0x00000008
     1953302000	     97563	80002838	4c25	c.li	x24,9	 x24=0x00000009
     1953462000	     97571	8000283a	058f0a63	beq	x30,x24,8000288e	 x30:0x00000002 x24:0x00000009
     1953742000	     97585	8000283e	4c2d	c.li	x24,11	 x24=0x0000000b
     1953782000	     97587	80002840	058f0763	beq	x30,x24,8000288e	 x30:0x00000002 x24:0x0000000b
     1954222000	     97609	80002844	4c05	c.li	x24,1	 x24=0x00000001
     1954622000	     97629	80002846	358f0363	beq	x30,x24,80002b8c	 x30:0x00000002 x24:0x00000001
     1954862000	     97641	8000284a	4c15	c.li	x24,5	 x24=0x00000005
     1955062000	     97651	8000284c	638f0a63	beq	x30,x24,80002e80	 x30:0x00000002 x24:0x00000005
     1955922000	     97694	80002850	4c1d	c.li	x24,7	 x24=0x00000007
     1955962000	     97696	80002852	158f0ce3	beq	x30,x24,800031aa	 x30:0x00000002 x24:0x00000007
     1956482000	     97722	80002856	4c31	c.li	x24,12	 x24=0x0000000c
     1956562000	     97726	80002858	018f1463	bne	x30,x24,80002860	 x30:0x00000002 x24:0x0000000c
     1957222000	     97759	80002860	4c35	c.li	x24,13	 x24=0x0000000d
     1957662000	     97781	80002862	018f1463	bne	x30,x24,8000286a	 x30:0x00000002 x24:0x0000000d
     1958802000	     97838	8000286a	4c3d	c.li	x24,15	 x24=0x0000000f
     1959242000	     97860	8000286c	018f1463	bne	x30,x24,80002874	 x30:0x00000002 x24:0x0000000f
     1959782000	     97887	80002874	4c09	c.li	x24,2	 x24=0x00000002
     1959962000	     97896	80002876	018f1463	bne	x30,x24,8000287e	 x30:0x00000002 x24:0x00000002
     1960602000	     97928	8000287a	3740906f	jal	x0,8000bbee	  x0=0x00000000
     1961702000	     97983	8000bbee	90000c37	lui	x24,0x90000	 x24=0x90000000
     1961722000	     97984	8000bbf2	1c71	c.addi	x24,-4	 x24:0x90000000 x24=0x8ffffffc
     1961762000	     97986	8000bbf4	4f29	c.li	x30,10	 x30=0x0000000a
     1961782000	     97987	8000bbf6	0f22	c.slli	x30,0x8	 x30:0x0000000a x30=0x00000a00
     1962562000	     98026	8000bbf8	000f0f13	addi	x30,x30,0	 x30:0x00000a00 x30=0x00000a00
     1963022000	     98049	8000bbfc	01ec2023	sw	x30,0(x24)	 x24:0x8ffffffc x30:0x00000a00 PA:0x8ffffffc store:0x00000a00 load:0xffffffff
     1963042000	     98050	8000bc00	90000c37	lui	x24,0x90000	 x24=0x90000000
     1963082000	     98052	8000bc04	1c71	c.addi	x24,-4	 x24:0x90000000 x24=0x8ffffffc
     1963102000	     98053	8000bc06	34200f13	addi	x30,x0,834	  x0:0x00000000 x30=0x00000342
     1963122000	     98054	8000bc0a	0f22	c.slli	x30,0x8	 x30:0x00000342 x30=0x00034200
     1963182000	     98057	8000bc0c	0f0d	c.addi	x30,3	 x30:0x00034200 x30=0x00034203
     1963242000	     98060	8000bc0e	01ec2023	sw	x30,0(x24)	 x24:0x8ffffffc x30:0x00034203 PA:0x8ffffffc store:0x00034203 load:0xffffffff
     1963262000	     98061	8000bc12	34202f73	csrrs	x30,mcause,x0	  x0:0x00000000 x30=0x00000002
     1964062000	     98101	8000bc16	01ec2023	sw	x30,0(x24)	 x24:0x8ffffffc x30:0x00000002 PA:0x8ffffffc store:0x00000002 load:0xffffffff
     1964082000	     98102	8000bc1a	34102f73	csrrs	x30,mepc,x0	  x0:0x00000000 x30=0x8000ace6
     1964102000	     98103	8000bc1e	0f11	c.addi	x30,4	 x30:0x8000ace6 x30=0x8000acea
     1964142000	     98105	8000bc20	341f1073	csrrw	x0,mepc,x30	 x30:0x8000acea  x0=0x00000000
     1964162000	     98106	8000bc24	00028bb3	add	x23,x5,x0	  x5:0x80025c60  x0:0x00000000 x23=0x80025c60
     1964242000	     98110	8000bc28	004ba083	lw	x1,4(x23)	 x23:0x80025c60  x1=0x00000100 PA:0x80025c64 load:0x00000100
     1964622000	     98129	8000bc2c	008ba103	lw	x2,8(x23)	 x23:0x80025c60  x2=0x00000001 PA:0x80025c68 load:0x00000001
     1964762000	     98136	8000bc30	00cba183	lw	x3,12(x23)	 x23:0x80025c60  x3=0xffffffdf PA:0x80025c6c load:0xffffffdf
     1965622000	     98179	8000bc34	010ba203	lw	x4,16(x23)	 x23:0x80025c60  x4=0x31111ef0 PA:0x80025c70 load:0x31111ef0
     1965682000	     98182	8000bc38	014ba283	lw	x5,20(x23)	 x23:0x80025c60  x5=0x80025ce0 PA:0x80025c74 load:0x80025ce0
     1965962000	     98196	8000bc3c	018ba303	lw	x6,24(x23)	 x23:0x80025c60  x6=0x00000004 PA:0x80025c78 load:0x00000004
     1966422000	     98219	8000bc40	01cba383	lw	x7,28(x23)	 x23:0x80025c60  x7=0x00000100 PA:0x80025c7c load:0x00000100
     1967222000	     98259	8000bc44	020ba403	lw	x8,32(x23)	 x23:0x80025c60  x8=0x0000001d PA:0x80025c80 load:0x0000001d
     1968222000	     98309	8000bc48	024ba483	lw	x9,36(x23)	 x23:0x80025c60  x9=0x00000061 PA:0x80025c84 load:0x00000061
     1968242000	     98310	8000bc4c	028ba503	lw	x10,40(x23)	 x23:0x80025c60 x10=0x3e75ca36 PA:0x80025c88 load:0x3e75ca36
     1968322000	     98314	8000bc50	02cba583	lw	x11,44(x23)	 x23:0x80025c60 x11=0x00000010 PA:0x80025c8c load:0x00000010
     1968362000	     98316	8000bc54	030ba603	lw	x12,48(x23)	 x23:0x80025c60 x12=0x00000001 PA:0x80025c90 load:0x00000001
     1968402000	     98318	8000bc58	034ba683	lw	x13,52(x23)	 x23:0x80025c60 x13=0x00001562 PA:0x80025c94 load:0x00001562
     1968442000	     98320	8000bc5c	038ba703	lw	x14,56(x23)	 x23:0x80025c60 x14=0x00000002 PA:0x80025c98 load:0x00000002
     1968962000	     98346	8000bc60	03cba783	lw	x15,60(x23)	 x23:0x80025c60 x15=0x00000000 PA:0x80025c9c load:0x00000000
     1969422000	     98369	8000bc64	040ba803	lw	x16,64(x23)	 x23:0x80025c60 x16=0x00000004 PA:0x80025ca0 load:0x00000004
     1969622000	     98379	8000bc68	044ba883	lw	x17,68(x23)	 x23:0x80025c60 x17=0x00000004 PA:0x80025ca4 load:0x00000004
     1969902000	     98393	8000bc6c	048ba903	lw	x18,72(x23)	 x23:0x80025c60 x18=0x8483fbce PA:0x80025ca8 load:0x8483fbce
     1970022000	     98399	8000bc70	04cba983	lw	x19,76(x23)	 x23:0x80025c60 x19=0xffffffc0 PA:0x80025cac load:0xffffffc0
     1970402000	     98418	8000bc74	050baa03	lw	x20,80(x23)	 x23:0x80025c60 x20=0x00000000 PA:0x80025cb0 load:0x00000000
     1970862000	     98441	8000bc78	054baa83	lw	x21,84(x23)	 x23:0x80025c60 x21=0x00000040 PA:0x80025cb4 load:0x00000040
     1971802000	     98488	8000bc7c	058bab03	lw	x22,88(x23)	 x23:0x80025c60 x22=0x00000001 PA:0x80025cb8 load:0x00000001
     1972322000	     98514	8000bc80	05cbab83	lw	x23,92(x23)	 x23:0x80025c60 x23=0x80025c60 PA:0x80025cbc load:0x80025c60
     1972802000	     98538	8000bc84	060bac03	lw	x24,96(x23)	 x23:0x80025c60 x24=0x00000010 PA:0x80025cc0 load:0x00000010
     1972922000	     98544	8000bc88	064bac83	lw	x25,100(x23)	 x23:0x80025c60 x25=0x00000001 PA:0x80025cc4 load:0x00000001
     1973402000	     98568	8000bc8c	068bad03	lw	x26,104(x23)	 x23:0x80025c60 x26=0x00000000 PA:0x80025cc8 load:0x00000000
     1973482000	     98572	8000bc90	06cbad83	lw	x27,108(x23)	 x23:0x80025c60 x27=0x00000000 PA:0x80025ccc load:0x00000000
     1975042000	     98650	8000bc94	070bae03	lw	x28,112(x23)	 x23:0x80025c60 x28=0x28001048 PA:0x80025cd0 load:0x28001048
     1975122000	     98654	8000bc98	074bae83	lw	x29,116(x23)	 x23:0x80025c60 x29=0xffffffdf PA:0x80025cd4 load:0xffffffdf
     1975282000	     98662	8000bc9c	078baf03	lw	x30,120(x23)	 x23:0x80025c60 x30=0x31111e40 PA:0x80025cd8 load:0x31111e40
     1976142000	     98705	8000bca0	07cbaf83	lw	x31,124(x23)	 x23:0x80025c60 x31=0x00000001 PA:0x80025cdc load:0x00000001
     1976162000	     98706	8000bca4	080b8b93	addi	x23,x23,128	 x23:0x80025c60 x23=0x80025ce0
     1976202000	     98708	8000bca8	000b82b3	add	x5,x23,x0	 x23:0x80025ce0  x0:0x00000000  x5=0x80025ce0
     1976262000	     98711	8000bcac	0002ab83	lw	x23,0(x5)	  x5:0x80025ce0 x23=0x80021df8 PA:0x80025ce0 load:0x80021df8
     1976282000	     98712	8000bcb0	0291	c.addi	x5,4	  x5:0x80025ce0  x5=0x80025ce4
     1976322000	     98714	8000bcb2	30200073	mret	
     1976802000	     98738	8000acea	0001	c.addi	x0,0	  x0:0x00000000  x0=0x00000000
     1976862000	     98741	8000acec	05f77263	bgeu	x14,x31,8000ad30	 x14:0x00000002 x31:0x00000001
     1977602000	     98778	8000ad30	014d4563	blt	x26,x20,8000ad3a	 x26:0x00000000 x20:0x00000000
     1978142000	     98805	8000ad34	03339263	bne	x7,x19,8000ad58	  x7:0x00000100 x19:0xffffffc0
     1978402000	     98818	8000ad58	02b700b3	mul	x1,x14,x11	 x14:0x00000002 x11:0x00000010  x1=0x00000020
     1978482000	     98822	8000ad5c	01b85213	srli	x4,x16,0x1b	 x16:0x00000004  x4=0x00000000
     1978522000	     98824	8000ad60	05ff1163	bne	x30,x31,8000ada2	 x30:0x31111e40 x31:0x00000001
     1978942000	     98845	8000ada2	0168f263	bgeu	x17,x22,8000ada6	 x17:0x00000004 x22:0x00000001
     1979942000	     98895	8000ada6	01e8df93	srli	x31,x17,0x1e	 x17:0x00000004 x31=0x00000000
     2008542000	    100325	8000adaa	86fd	c.srai	x13,0x1f	 x13:0x00001562 x13=0x00000000
     2008582000	    100327	8000adac	b0906873	csrrsi	x16,mhpmcounter9,0	 x16=0xd03b5246
     2008602000	    100328	8000adb0	410706b3	sub	x13,x14,x16	 x14:0x00000002 x16:0xd03b5246 x13=0x2fc4adbc
     2008642000	    100330	8000adb4	00b945b3	xor	x11,x18,x11	 x18:0x8483fbce x11:0x00000010 x11=0x8483fbde
     2008662000	    100331	8000adb8	53ef0493	addi	x9,x30,1342	 x30:0x31111e40  x9=0x3111237e
     2008722000	    100334	8000adbc	e905	c.bnez	x10,8000adec	 x10:0x3e75ca36
     2009162000	    100356	8000adec	00d581b3	add	x3,x11,x13	 x11:0x8483fbde x13:0x2fc4adbc  x3=0xb448a99a
     2009202000	    100358	8000adf0	a29ecf13	xori	x30,x29,-1495	 x29:0xffffffdf x30=0x000005f6
     2009222000	    100359	8000adf4	952ac713	xori	x14,x21,-1710	 x21:0x00000040 x14=0xfffff912
     2009542000	    100375	8000adf8	e499	c.bnez	x9,8000ae06	  x9:0x3111237e
     2009742000	    100385	8000ae06	034c2333	mulhsu	x6,x24,x20	 x24:0x00000010 x20:0x00000000  x6=0x00000000
     2010782000	    100437	8000ae0a	0239cfb3	div	x31,x19,x3	 x19:0xffffffc0  x3:0xb448a99a x31=0x00000000
     2010862000	    100441	8000ae0e	8d45	c.or	x10,x9	 x10:0x3e75ca36  x9:0x3111237e x10=0x3f75eb7e
     2010882000	    100442	8000ae10	00539893	slli	x17,x7,0x5	  x7:0x00000100 x17=0x00002000
     2010922000	    100444	8000ae14	e34bf893	andi	x17,x23,-460	 x23:0x80021df8 x17=0x80021c30
     2010942000	    100445	8000ae18	8c4d	c.or	x8,x11	  x8:0x0000001d x11:0x8483fbde  x8=0x8483fbdf
     2011762000	    100486	8000ae1a	485b7113	andi	x2,x22,1157	 x22:0x00000001  x2=0x00000001
     2011802000	    100488	8000ae1e	03121263	bne	x4,x17,8000ae42	  x4:0x00000000 x17:0x80021c30
     2012282000	    100512	8000ae42	3a206cf3	csrrsi	x25,pmpcfg2,0	 x25=0x0f0f0f0f
     2012322000	    100514	8000ae46	0301dd63	bge	x3,x16,8000ae80	  x3:0xb448a99a x16:0xd03b5246
     2013222000	    100559	8000ae4a	01ce53b3	srl	x7,x28,x28	 x28:0x28001048 x28:0x28001048  x7=0x00280010
     2013262000	    100561	8000ae4e	3a202af3	csrrs	x21,pmpcfg2,x0	  x0:0x00000000 x21=0x0f0f0f0f
     2014002000	    100598	8000ae52	031fd733	divu	x14,x31,x17	 x31:0x00000000 x17:0x80021c30 x14=0x00000000
     2014042000	    100600	8000ae56	01295fb3	srl	x31,x18,x18	 x18:0x8483fbce x18:0x8483fbce x31=0x0002120f
     2014062000	    100601	8000ae5a	031e	c.slli	x6,0x7	  x6:0x00000000  x6=0x00000000
     2014842000	    100640	8000ae5c	016a38b3	sltu	x17,x20,x22	 x20:0x00000000 x22:0x00000001 x17=0x00000001
     2014862000	    100641	8000ae60	987d	c.andi	x8,-1	  x8:0x8483fbdf  x8=0x8483fbdf
     2014882000	    100642	8000ae62	567d	c.li	x12,-1	 x12=0xffffffff
     2014942000	    100645	8000ae64	9ee5fb37	lui	x22,0x9ee5f	 x22=0x9ee5f000
     2014962000	    100646	8000ae68	8d8d	c.sub	x11,x11	 x11:0x8483fbde x11:0x8483fbde x11=0x00000000
     2015782000	    100687	8000ae6a	0076e763	bltu	x13,x7,8000ae78	 x13:0x2fc4adbc  x7:0x00280010
     2016142000	    100705	8000ae6e	8c09	c.sub	x8,x10	  x8:0x8483fbdf x10:0x3f75eb7e  x8=0x450e1061
     2016902000	    100743	8000ae70	f14eff73	csrrci	x0,mhartid,29	  x0=0x00000000
     2017402000	    100768	80002700	0800006f	jal	x0,80002780	  x0=0x00000000
     2018182000	    100807	80002780	12f1	c.addi	x5,-4	  x5:0x80025ce4  x5=0x80025ce0
     2018322000	    100814	80002782	0172a023	sw	x23,0(x5)	  x5:0x80025ce0 x23:0x80021df8 PA:0x80025ce0 store:0x80021df8 load:0xffffffff
     2018382000	    100817	80002786	00028bb3	add	x23,x5,x0	  x5:0x80025ce0  x0:0x00000000 x23=0x80025ce0
     2018422000	    100819	8000278a	f80b8b93	addi	x23,x23,-128	 x23:0x80025ce0 x23=0x80025c60
     2018502000	    100823	8000278e	001ba223	sw	x1,4(x23)	 x23:0x80025c60  x1:0x00000020 PA:0x80025c64 store:0x00000020 load:0xffffffff
     2018762000	    100836	80002792	002ba423	sw	x2,8(x23)	 x23:0x80025c60  x2:0x00000001 PA:0x80025c68 store:0x00000001 load:0xffffffff
     2019202000	    100858	80002796	003ba623	sw	x3,12(x23)	 x23:0x80025c60  x3:0xb448a99a PA:0x80025c6c store:0xb448a99a load:0xffffffff
     2019282000	    100862	8000279a	004ba823	sw	x4,16(x23)	 x23:0x80025c60  x4:0x00000000 PA:0x80025c70 store:0x00000000 load:0xffffffff
     2019322000	    100864	8000279e	005baa23	sw	x5,20(x23)	 x23:0x80025c60  x5:0x80025ce0 PA:0x80025c74 store:0x80025ce0 load:0xffffffff
     2019522000	    100874	800027a2	006bac23	sw	x6,24(x23)	 x23:0x80025c60  x6:0x00000000 PA:0x80025c78 store:0x00000000 load:0xffffffff
     2019722000	    100884	800027a6	007bae23	sw	x7,28(x23)	 x23:0x80025c60  x7:0x00280010 PA:0x80025c7c store:0x00280010 load:0xffffffff
     2019862000	    100891	800027aa	028ba023	sw	x8,32(x23)	 x23:0x80025c60  x8:0x450e1061 PA:0x80025c80 store:0x450e1061 load:0xffffffff
     2019922000	    100894	800027ae	029ba223	sw	x9,36(x23)	 x23:0x80025c60  x9:0x3111237e PA:0x80025c84 store:0x3111237e load:0xffffffff
     2019942000	    100895	800027b2	02aba423	sw	x10,40(x23)	 x23:0x80025c60 x10:0x3f75eb7e PA:0x80025c88 store:0x3f75eb7e load:0xffffffff
     2020742000	    100935	800027b6	02bba623	sw	x11,44(x23)	 x23:0x80025c60 x11:0x00000000 PA:0x80025c8c store:0x00000000 load:0xffffffff
     2021542000	    100975	800027ba	02cba823	sw	x12,48(x23)	 x23:0x80025c60 x12:0xffffffff PA:0x80025c90 store:0xffffffff load:0xffffffff
     2021562000	    100976	800027be	02dbaa23	sw	x13,52(x23)	 x23:0x80025c60 x13:0x2fc4adbc PA:0x80025c94 store:0x2fc4adbc load:0xffffffff
     2021942000	    100995	800027c2	02ebac23	sw	x14,56(x23)	 x23:0x80025c60 x14:0x00000000 PA:0x80025c98 store:0x00000000 load:0xffffffff
     2022022000	    100999	800027c6	02fbae23	sw	x15,60(x23)	 x23:0x80025c60 x15:0x00000000 PA:0x80025c9c store:0x00000000 load:0xffffffff
     2022202000	    101008	800027ca	050ba023	sw	x16,64(x23)	 x23:0x80025c60 x16:0xd03b5246 PA:0x80025ca0 store:0xd03b5246 load:0xffffffff
     2023122000	    101054	800027ce	051ba223	sw	x17,68(x23)	 x23:0x80025c60 x17:0x00000001 PA:0x80025ca4 store:0x00000001 load:0xffffffff
     2023222000	    101059	800027d2	052ba423	sw	x18,72(x23)	 x23:0x80025c60 x18:0x8483fbce PA:0x80025ca8 store:0x8483fbce load:0xffffffff
     2024602000	    101128	800027d6	053ba623	sw	x19,76(x23)	 x23:0x80025c60 x19:0xffffffc0 PA:0x80025cac store:0xffffffc0 load:0xffffffff
     2024942000	    101145	800027da	054ba823	sw	x20,80(x23)	 x23:0x80025c60 x20:0x00000000 PA:0x80025cb0 store:0x00000000 load:0xffffffff
     2025022000	    101149	800027de	055baa23	sw	x21,84(x23)	 x23:0x80025c60 x21:0x0f0f0f0f PA:0x80025cb4 store:0x0f0f0f0f load:0xffffffff
     2025042000	    101150	800027e2	056bac23	sw	x22,88(x23)	 x23:0x80025c60 x22:0x9ee5f000 PA:0x80025cb8 store:0x9ee5f000 load:0xffffffff
     2025842000	    101190	800027e6	057bae23	sw	x23,92(x23)	 x23:0x80025c60 x23:0x80025c60 PA:0x80025cbc store:0x80025c60 load:0xffffffff
     2025862000	    101191	800027ea	078ba023	sw	x24,96(x23)	 x23:0x80025c60 x24:0x00000010 PA:0x80025cc0 store:0x00000010 load:0xffffffff
     2025882000	    101192	800027ee	079ba223	sw	x25,100(x23)	 x23:0x80025c60 x25:0x0f0f0f0f PA:0x80025cc4 store:0x0f0f0f0f load:0xffffffff
     2026022000	    101199	800027f2	07aba423	sw	x26,104(x23)	 x23:0x80025c60 x26:0x00000000 PA:0x80025cc8 store:0x00000000 load:0xffffffff
     2026242000	    101210	800027f6	07bba623	sw	x27,108(x23)	 x23:0x80025c60 x27:0x00000000 PA:0x80025ccc store:0x00000000 load:0xffffffff
     2026622000	    101229	800027fa	07cba823	sw	x28,112(x23)	 x23:0x80025c60 x28:0x28001048 PA:0x80025cd0 store:0x28001048 load:0xffffffff
     2027102000	    101253	800027fe	07dbaa23	sw	x29,116(x23)	 x23:0x80025c60 x29:0xffffffdf PA:0x80025cd4 store:0xffffffdf load:0xffffffff
     2027162000	    101256	80002802	07ebac23	sw	x30,120(x23)	 x23:0x80025c60 x30:0x000005f6 PA:0x80025cd8 store:0x000005f6 load:0xffffffff
     2027182000	    101257	80002806	07fbae23	sw	x31,124(x23)	 x23:0x80025c60 x31:0x0002120f PA:0x80025cdc store:0x0002120f load:0xffffffff
     2027942000	    101295	8000280a	000b82b3	add	x5,x23,x0	 x23:0x80025c60  x0:0x00000000  x5=0x80025c60
     2027982000	    101297	8000280e	90000c37	lui	x24,0x90000	 x24=0x90000000
     2028022000	    101299	80002812	1c71	c.addi	x24,-4	 x24:0x90000000 x24=0x8ffffffc
     2028042000	    101300	80002814	4f21	c.li	x30,8	 x30=0x00000008
     2028802000	    101338	80002816	0f22	c.slli	x30,0x8	 x30:0x00000008 x30=0x00000800
     2028822000	    101339	80002818	000f0f13	addi	x30,x30,0	 x30:0x00000800 x30=0x00000800
     2028882000	    101342	8000281c	01ec2023	sw	x30,0(x24)	 x24:0x8ffffffc x30:0x00000800 PA:0x8ffffffc store:0x00000800 load:0xffffffff
     2029642000	    101380	80002820	34102f73	csrrs	x30,mepc,x0	  x0:0x00000000 x30=0x8000ae70
     2029682000	    101382	80002824	34202f73	csrrs	x30,mcause,x0	  x0:0x00000000 x30=0x00000002
     2029702000	    101383	80002828	4c0d	c.li	x24,3	 x24=0x00000003
     2030482000	    101422	8000282a	018f1463	bne	x30,x24,80002832	 x30:0x00000002 x24:0x00000003
     2030582000	    101427	80002832	4c21	c.li	x24,8	 x24=0x00000008
     2030622000	    101429	80002834	058f0d63	beq	x30,x24,8000288e	 x30:0x00000002 x24:0x00000008
     2031022000	    101449	80002838	4c25	c.li	x24,9	 x24=0x00000009
     2031062000	    101451	8000283a	058f0a63	beq	x30,x24,8000288e	 x30:0x00000002 x24:0x00000009
     2031502000	    101473	8000283e	4c2d	c.li	x24,11	 x24=0x0000000b
     2031662000	    101481	80002840	058f0763	beq	x30,x24,8000288e	 x30:0x00000002 x24:0x0000000b
     2032322000	    101514	80002844	4c05	c.li	x24,1	 x24=0x00000001
     2032662000	    101531	80002846	358f0363	beq	x30,x24,80002b8c	 x30:0x00000002 x24:0x00000001
     2033362000	    101566	8000284a	4c15	c.li	x24,5	 x24=0x00000005
     2033542000	    101575	8000284c	638f0a63	beq	x30,x24,80002e80	 x30:0x00000002 x24:0x00000005
     2033982000	    101597	80002850	4c1d	c.li	x24,7	 x24=0x00000007
     2034202000	    101608	80002852	158f0ce3	beq	x30,x24,800031aa	 x30:0x00000002 x24:0x00000007
     2035002000	    101648	80002856	4c31	c.li	x24,12	 x24=0x0000000c
     2035062000	    101651	80002858	018f1463	bne	x30,x24,80002860	 x30:0x00000002 x24:0x0000000c
     2035642000	    101680	80002860	4c35	c.li	x24,13	 x24=0x0000000d
     2035782000	    101687	80002862	018f1463	bne	x30,x24,8000286a	 x30:0x00000002 x24:0x0000000d
     2036002000	    101698	8000286a	4c3d	c.li	x24,15	 x24=0x0000000f
     2036062000	    101701	8000286c	018f1463	bne	x30,x24,80002874	 x30:0x00000002 x24:0x0000000f
     2036702000	    101733	80002874	4c09	c.li	x24,2	 x24=0x00000002
     2036982000	    101747	80002876	018f1463	bne	x30,x24,8000287e	 x30:0x00000002 x24:0x00000002
     2038022000	    101799	8000287a	3740906f	jal	x0,8000bbee	  x0=0x00000000
     2038542000	    101825	8000bbee	90000c37	lui	x24,0x90000	 x24=0x90000000
     2039302000	    101863	8000bbf2	1c71	c.addi	x24,-4	 x24:0x90000000 x24=0x8ffffffc
     2039322000	    101864	8000bbf4	4f29	c.li	x30,10	 x30=0x0000000a
     2039362000	    101866	8000bbf6	0f22	c.slli	x30,0x8	 x30:0x0000000a x30=0x00000a00
     2039422000	    101869	8000bbf8	000f0f13	addi	x30,x30,0	 x30:0x00000a00 x30=0x00000a00
     2039502000	    101873	8000bbfc	01ec2023	sw	x30,0(x24)	 x24:0x8ffffffc x30:0x00000a00 PA:0x8ffffffc store:0x00000a00 load:0xffffffff
     2039522000	    101874	8000bc00	90000c37	lui	x24,0x90000	 x24=0x90000000
     2039582000	    101877	8000bc04	1c71	c.addi	x24,-4	 x24:0x90000000 x24=0x8ffffffc
     2039602000	    101878	8000bc06	34200f13	addi	x30,x0,834	  x0:0x00000000 x30=0x00000342
     2039642000	    101880	8000bc0a	0f22	c.slli	x30,0x8	 x30:0x00000342 x30=0x00034200
     2039662000	    101881	8000bc0c	0f0d	c.addi	x30,3	 x30:0x00034200 x30=0x00034203
     2039722000	    101884	8000bc0e	01ec2023	sw	x30,0(x24)	 x24:0x8ffffffc x30:0x00034203 PA:0x8ffffffc store:0x00034203 load:0xffffffff
     2039762000	    101886	8000bc12	34202f73	csrrs	x30,mcause,x0	  x0:0x00000000 x30=0x00000002
     2039902000	    101893	8000bc16	01ec2023	sw	x30,0(x24)	 x24:0x8ffffffc x30:0x00000002 PA:0x8ffffffc store:0x00000002 load:0xffffffff
     2039922000	    101894	8000bc1a	34102f73	csrrs	x30,mepc,x0	  x0:0x00000000 x30=0x8000ae70
     2040702000	    101933	8000bc1e	0f11	c.addi	x30,4	 x30:0x8000ae70 x30=0x8000ae74
     2040722000	    101934	8000bc20	341f1073	csrrw	x0,mepc,x30	 x30:0x8000ae74  x0=0x00000000
     2042262000	    102011	8000bc24	00028bb3	add	x23,x5,x0	  x5:0x80025c60  x0:0x00000000 x23=0x80025c60
     2042522000	    102024	8000bc28	004ba083	lw	x1,4(x23)	 x23:0x80025c60  x1=0x00000020 PA:0x80025c64 load:0x00000020
     2043342000	    102065	8000bc2c	008ba103	lw	x2,8(x23)	 x23:0x80025c60  x2=0x00000001 PA:0x80025c68 load:0x00000001
     2043362000	    102066	8000bc30	00cba183	lw	x3,12(x23)	 x23:0x80025c60  x3=0xb448a99a PA:0x80025c6c load:0xb448a99a
     2044502000	    102123	8000bc34	010ba203	lw	x4,16(x23)	 x23:0x80025c60  x4=0x00000000 PA:0x80025c70 load:0x00000000
     2058122000	    102804	8000bc38	014ba283	lw	x5,20(x23)	 x23:0x80025c60  x5=0x80025ce0 PA:0x80025c74 load:0x80025ce0
     2058282000	    102812	8000bc3c	018ba303	lw	x6,24(x23)	 x23:0x80025c60  x6=0x00000000 PA:0x80025c78 load:0x00000000
     2058482000	    102822	8000bc40	01cba383	lw	x7,28(x23)	 x23:0x80025c60  x7=0x00280010 PA:0x80025c7c load:0x00280010
     2058682000	    102832	8000bc44	020ba403	lw	x8,32(x23)	 x23:0x80025c60  x8=0x450e1061 PA:0x80025c80 load:0x450e1061
     2058762000	    102836	8000bc48	024ba483	lw	x9,36(x23)	 x23:0x80025c60  x9=0x3111237e PA:0x80025c84 load:0x3111237e
     2059142000	    102855	8000bc4c	028ba503	lw	x10,40(x23)	 x23:0x80025c60 x10=0x3f75eb7e PA:0x80025c88 load:0x3f75eb7e
     2059222000	    102859	8000bc50	02cba583	lw	x11,44(x23)	 x23:0x80025c60 x11=0x00000000 PA:0x80025c8c load:0x00000000
     2059242000	    102860	8000bc54	030ba603	lw	x12,48(x23)	 x23:0x80025c60 x12=0xffffffff PA:0x80025c90 load:0xffffffff
     2059262000	    102861	8000bc58	034ba683	lw	x13,52(x23)	 x23:0x80025c60 x13=0x2fc4adbc PA:0x80025c94 load:0x2fc4adbc
     2059702000	    102883	8000bc5c	038ba703	lw	x14,56(x23)	 x23:0x80025c60 x14=0x00000000 PA:0x80025c98 load:0x00000000
     2059762000	    102886	8000bc60	03cba783	lw	x15,60(x23)	 x23:0x80025c60 x15=0x00000000 PA:0x80025c9c load:0x00000000
     2059782000	    102887	8000bc64	040ba803	lw	x16,64(x23)	 x23:0x80025c60 x16=0xd03b5246 PA:0x80025ca0 load:0xd03b5246
     2059842000	    102890	8000bc68	044ba883	lw	x17,68(x23)	 x23:0x80025c60 x17=0x00000001 PA:0x80025ca4 load:0x00000001
     2060342000	    102915	8000bc6c	048ba903	lw	x18,72(x23)	 x23:0x80025c60 x18=0x8483fbce PA:0x80025ca8 load:0x8483fbce
     2061262000	    102961	8000bc70	04cba983	lw	x19,76(x23)	 x23:0x80025c60 x19=0xffffffc0 PA:0x80025cac load:0xffffffc0
     2061342000	    102965	8000bc74	050baa03	lw	x20,80(x23)	 x23:0x80025c60 x20=0x00000000 PA:0x80025cb0 load:0x00000000
     2061362000	    102966	8000bc78	054baa83	lw	x21,84(x23)	 x23:0x80025c60 x21=0x0f0f0f0f PA:0x80025cb4 load:0x0f0f0f0f
     2061382000	    102967	8000bc7c	058bab03	lw	x22,88(x23)	 x23:0x80025c60 x22=0x9ee5f000 PA:0x80025cb8 load:0x9ee5f000
     2062422000	    103019	8000bc80	05cbab83	lw	x23,92(x23)	 x23:0x80025c60 x23=0x80025c60 PA:0x80025cbc load:0x80025c60
     2062502000	    103023	8000bc84	060bac03	lw	x24,96(x23)	 x23:0x80025c60 x24=0x00000010 PA:0x80025cc0 load:0x00000010
     2062542000	    103025	8000bc88	064bac83	lw	x25,100(x23)	 x23:0x80025c60 x25=0x0f0f0f0f PA:0x80025cc4 load:0x0f0f0f0f
     2062762000	    103036	8000bc8c	068bad03	lw	x26,104(x23)	 x23:0x80025c60 x26=0x00000000 PA:0x80025cc8 load:0x00000000
     2062842000	    103040	8000bc90	06cbad83	lw	x27,108(x23)	 x23:0x80025c60 x27=0x00000000 PA:0x80025ccc load:0x00000000
     2063282000	    103062	8000bc94	070bae03	lw	x28,112(x23)	 x23:0x80025c60 x28=0x28001048 PA:0x80025cd0 load:0x28001048
     2063342000	    103065	8000bc98	074bae83	lw	x29,116(x23)	 x23:0x80025c60 x29=0xffffffdf PA:0x80025cd4 load:0xffffffdf
     2063502000	    103073	8000bc9c	078baf03	lw	x30,120(x23)	 x23:0x80025c60 x30=0x000005f6 PA:0x80025cd8 load:0x000005f6
     2063582000	    103077	8000bca0	07cbaf83	lw	x31,124(x23)	 x23:0x80025c60 x31=0x0002120f PA:0x80025cdc load:0x0002120f
     2063602000	    103078	8000bca4	080b8b93	addi	x23,x23,128	 x23:0x80025c60 x23=0x80025ce0
     2063622000	    103079	8000bca8	000b82b3	add	x5,x23,x0	 x23:0x80025ce0  x0:0x00000000  x5=0x80025ce0
     2064082000	    103102	8000bcac	0002ab83	lw	x23,0(x5)	  x5:0x80025ce0 x23=0x80021df8 PA:0x80025ce0 load:0x80021df8
     2064102000	    103103	8000bcb0	0291	c.addi	x5,4	  x5:0x80025ce0  x5=0x80025ce4
     2064122000	    103104	8000bcb2	30200073	mret	
     2064342000	    103115	8000ae74	4095d393	srai	x7,x11,0x9	 x11:0x00000000  x7=0x00000000
     2064462000	    103121	8000ae78	0116fb33	and	x22,x13,x17	 x13:0x2fc4adbc x17:0x00000001 x22=0x00000000
     2064502000	    103123	8000ae7c	717d	c.addi16sp	x2,-16	  x2:0x00000001  x2=0xfffffff1
     2064542000	    103125	8000ae7e	8cb5	c.xor	x9,x13	  x9:0x3111237e x13:0x2fc4adbc  x9=0x1ed58ec2
     2064642000	    103130	8000ae80	0135cc63	blt	x11,x19,8000ae98	 x11:0x00000000 x19:0xffffffc0
     2065102000	    103153	8000ae84	0a7d	c.addi	x20,31	 x20:0x00000000 x20=0x0000001f
     2065122000	    103154	8000ae86	84bd	c.srai	x9,0xf	  x9:0x1ed58ec2  x9=0x00003dab
     2065882000	    103192	8000ae88	03607c33	remu	x24,x0,x22	  x0:0x00000000 x22:0x00000000 x24=0x00000000
     2065942000	    103195	8000ae8c	011cf0b3	and	x1,x25,x17	 x25:0x0f0f0f0f x17:0x00000001  x1=0x00000001
     2065962000	    103196	8000ae90	1f18b917	auipc	x18,0x1f18b	 x18=0x9f195e90
     2066002000	    103198	8000ae94	2afd7a13	andi	x20,x26,687	 x26:0x00000000 x20=0x00000000
     2066782000	    103237	8000ae98	e7269d37	lui	x26,0xe7269	 x26=0xe7269000
     2066822000	    103239	8000ae9c	9afd	c.andi	x13,-1	 x13:0x2fc4adbc x13=0x2fc4adbc
     2066842000	    103240	8000ae9e	001ab833	sltu	x16,x21,x1	 x21:0x0f0f0f0f  x1:0x00000001 x16=0x00000000
     2067602000	    103278	8000aea2	8eea	c.mv	x29,x26	  x0:0x00000000 x26:0xe7269000 x29=0xe7269000
     2067642000	    103280	8000aea4	03ed3cb3	mulhu	x25,x26,x30	 x26:0xe7269000 x30:0x000005f6 x25=0x00000561
     2068422000	    103319	8000aea8	04328263	beq	x5,x3,8000aeec	  x5:0x80025ce4  x3:0xb448a99a
     2068742000	    103335	8000aeac	717d	c.addi16sp	x2,-16	  x2:0xfffffff1  x2=0xffffffe1
     2068782000	    103337	8000aeae	86c9	c.srai	x13,0x12	 x13:0x2fc4adbc x13=0x00000bf1
     2068842000	    103340	8000aeb0	02e71a63	bne	x14,x14,8000aee4	 x14:0x00000000 x14:0x00000000
     2069062000	    103351	8000aeb4	00a71093	slli	x1,x14,0xa	 x14:0x00000000  x1=0x00000000
     2069122000	    103354	8000aeb8	01bf1713	slli	x14,x30,0x1b	 x30:0x000005f6 x14=0xb0000000
     2070262000	    103411	8000aebc	03dbd633	divu	x12,x23,x29	 x23:0x80021df8 x29:0xe7269000 x12=0x00000000
     2070302000	    103413	8000aec0	3a306c73	csrrsi	x24,pmpcfg3,0	 x24=0x0f0f0f0f
     2070322000	    103414	8000aec4	c2521917	auipc	x18,0xc2521	 x18=0x4252bec4
     2070362000	    103416	8000aec8	410f56b3	sra	x13,x30,x16	 x30:0x000005f6 x16:0x00000000 x13=0x000005f6
     2070422000	    103419	8000aecc	b08939f3	csrrc	x19,mhpmcounter8,x18	 x18:0x4252bec4 x19=0x0000018d
     2070482000	    103422	8000aed0	98fa	c.add	x17,x30	 x17:0x00000001 x30:0x000005f6 x17=0x000005f7
     2070522000	    103424	8000aed2	00aaa1b3	slt	x3,x21,x10	 x21:0x0f0f0f0f x10:0x3f75eb7e  x3=0x00000001
     2070542000	    103425	8000aed6	8e69	c.and	x12,x10	 x12:0x00000000 x10:0x3f75eb7e x12=0x00000000
     2070562000	    103426	8000aed8	8686	c.mv	x13,x1	  x0:0x00000000  x1:0x00000000 x13=0x00000000
     2070622000	    103429	8000aeda	411a83b3	sub	x7,x21,x17	 x21:0x0f0f0f0f x17:0x000005f7  x7=0x0f0f0918
     2070642000	    103430	8000aede	023e	c.slli	x4,0xf	  x4:0x00000000  x4=0x00000000
     2071382000	    103467	8000aee0	03c859b3	divu	x19,x16,x28	 x16:0x00000000 x28:0x28001048 x19=0x00000000
     2071422000	    103469	8000aee4	000d01b3	add	x3,x26,x0	 x26:0xe7269000  x0:0x00000000  x3=0xe7269000
     2072182000	    103507	8000aee8	035cd033	divu	x0,x25,x21	 x25:0x00000561 x21:0x0f0f0f0f  x0=0x00000000
     2072222000	    103509	8000aeec	8e61	c.and	x12,x8	 x12:0x00000000  x8:0x450e1061 x12=0x00000000
     2072242000	    103510	8000aeee	8ac1	c.andi	x13,16	 x13:0x00000000 x13=0x00000000
     2072282000	    103512	8000aef0	826d	c.srli	x12,0x1b	 x12:0x00000000 x12=0x00000000
     2072302000	    103513	8000aef2	00655713	srli	x14,x10,0x6	 x10:0x3f75eb7e x14=0x00fdd7ad
     2073102000	    103553	8000aef6	01a34763	blt	x6,x26,8000af04	  x6:0x00000000 x26:0xe7269000
     2073382000	    103567	8000aefa	c499	c.beqz	x9,8000af08	  x9:0x00003dab
     2073882000	    103592	8000aefc	cdb1ca37	lui	x20,0xcdb1c	 x20=0xcdb1c000
     2073902000	    103593	8000af00	a451a393	slti	x7,x3,-1467	  x3:0xe7269000  x7=0x00000001
     2075042000	    103650	8000af04	03586f33	rem	x30,x16,x21	 x16:0x00000000 x21:0x0f0f0f0f x30=0x00000000
     2075062000	    103651	8000af08	0001	c.addi	x0,0	  x0:0x00000000  x0=0x00000000
     2075102000	    103653	8000af0a	0001	c.addi	x0,0	  x0:0x00000000  x0=0x00000000
     2075122000	    103654	8000af0c	0073d413	srli	x8,x7,0x7	  x7:0x00000001  x8=0x00000000
     2075202000	    103658	8000af10	f7087393	andi	x7,x16,-144	 x16:0x00000000  x7=0x00000000
     2075242000	    103660	8000af14	014d1213	slli	x4,x26,0x14	 x26:0xe7269000  x4=0x00000000
     2075302000	    103663	8000af18	0141e563	bltu	x3,x20,8000af22	  x3:0xe7269000 x20:0xcdb1c000
     2075802000	    103688	8000af1c	04ea	c.slli	x9,0x1a	  x9:0x00003dab  x9=0xac000000
     2075842000	    103690	8000af1e	008ea033	slt	x0,x29,x8	 x29:0xe7269000  x8:0x00000000  x0=0x00000000
     2075862000	    103691	8000af22	0001	c.addi	x0,0	  x0:0x00000000  x0=0x00000000
     2075922000	    103694	8000af24	8cc5	c.or	x9,x9	  x9:0xac000000  x9:0xac000000  x9=0xac000000
     2075962000	    103696	8000af26	9462	c.add	x8,x24	  x8:0x00000000 x24:0x0f0f0f0f  x8=0x0f0f0f0f
     2076002000	    103698	8000af28	000fd193	srli	x3,x31,0x0	 x31:0x0002120f  x3=0x0002120f
     2076022000	    103699	8000af2c	c1528597	auipc	x11,0xc1528	 x11=0x41532f2c
     2076822000	    103739	8000af30	037e58b3	divu	x17,x28,x23	 x28:0x28001048 x23:0x80021df8 x17=0x00000000
     2076862000	    103741	8000af34	024111b3	mulh	x3,x2,x4	  x2:0xffffffe1  x4:0x00000000  x3=0x00000000
     2076902000	    103743	8000af38	c685	c.beqz	x13,8000af60	 x13:0x00000000
     2076962000	    103746	8000af60	00f71fb3	sll	x31,x14,x15	 x14:0x00fdd7ad x15:0x00000000 x31=0x00fdd7ad
     2077702000	    103783	8000af64	03105433	divu	x8,x0,x17	  x0:0x00000000 x17:0x00000000  x8=0xffffffff
     2077762000	    103786	8000af68	0236a733	mulhsu	x14,x13,x3	 x13:0x00000000  x3:0x00000000 x14=0x00000000
     2077802000	    103788	8000af6c	0215b533	mulhu	x10,x11,x1	 x11:0x41532f2c  x1:0x00000000 x10=0x00000000
     2078582000	    103827	8000af70	0115ae33	slt	x28,x11,x17	 x11:0x41532f2c x17:0x00000000 x28=0x00000000
     2078602000	    103828	8000af74	00ca14b3	sll	x9,x20,x12	 x20:0xcdb1c000 x12:0x00000000  x9=0xcdb1c000
     2079342000	    103865	8000af78	02f6c533	div	x10,x13,x15	 x13:0x00000000 x15:0x00000000 x10=0xffffffff
     2080122000	    103904	8000af7c	324d15f3	csrrw	x11,mhpmevent4,x26	 x26:0xe7269000 x11=0x00000002
     2080182000	    103907	8000af80	14fd	c.addi	x9,-1	  x9:0xcdb1c000  x9=0xcdb1bfff
     2080942000	    103945	8000af82	0001	c.addi	x0,0	  x0:0x00000000  x0=0x00000000
     2080962000	    103946	8000af84	0ff0000f	fence	iorw,iorw	
     2080982000	    103947	8000af88	8411	c.srai	x8,0x4	  x8:0xffffffff  x8=0xffffffff
     2081762000	    103986	8000af8a	010c5eb3	srl	x29,x24,x16	 x24:0x0f0f0f0f x16:0x00000000 x29=0x0f0f0f0f
     2081782000	    103987	8000af8e	50530813	addi	x16,x6,1285	  x6:0x00000000 x16=0x00000505
     2082542000	    104025	8000af92	8341	c.srli	x14,0x10	 x14:0x00000000 x14=0x00000000
     2082582000	    104027	8000af94	ef01	c.bnez	x14,8000afac	 x14:0x00000000
     2083082000	    104052	8000af96	b89533f3	csrrc	x7,mhpmcounter9h,x10	 x10:0xffffffff  x7=0x00000000
     2118802000	    105838	8000af9a	01e01613	slli	x12,x0,0x1e	  x0:0x00000000 x12=0x00000000
     2118842000	    105840	8000af9e	325756f3	csrrwi	x13,mhpmevent5,14	 x13=0x00000004
     2118902000	    105843	8000afa2	40150e33	sub	x28,x10,x1	 x10:0xffffffff  x1:0x00000000 x28=0xffffffff
     2119662000	    105881	8000afa6	03affeb3	remu	x29,x31,x26	 x31:0x00fdd7ad x26:0xe7269000 x29=0x00fdd7ad
     2119682000	    105882	8000afaa	936a	c.add	x6,x26	  x6:0x00000000 x26:0xe7269000  x6=0xe7269000
     2119702000	    105883	8000afac	55df2893	slti	x17,x30,1373	 x30:0x00000000 x17=0x00000001
     2119742000	    105885	8000afb0	01be5693	srli	x13,x28,0x1b	 x28:0xffffffff x13=0x0000001f
     2119782000	    105887	8000afb4	010eda13	srli	x20,x29,0x10	 x29:0x00fdd7ad x20=0x000000fd
     2119802000	    105888	8000afb8	1984	c.addi4spn	x9,x2,240	  x9=0x000000d1
     2119822000	    105889	8000afba	871a	c.mv	x14,x6	  x0:0x00000000  x6:0xe7269000 x14=0xe7269000
     2120582000	    105927	8000afbc	c0abec93	ori	x25,x23,-1014	 x23:0x80021df8 x25=0xfffffdfa
     2120622000	    105929	8000afc0	730bc393	xori	x7,x23,1840	 x23:0x80021df8  x7=0x80021ac8
     2121422000	    105969	8000afc4	03b37863	bgeu	x6,x27,8000aff4	  x6:0xe7269000 x27:0x00000000
     2121502000	    105973	8000aff4	8d6d	c.and	x10,x11	 x10:0xffffffff x11:0x00000002 x10=0x00000002
     2121922000	    105994	8000aff6	32002e73	csrrs	x28,mcountinhibit,x0	  x0:0x00000000 x28=0x00000000
     2122142000	    106005	8000affa	40ef5393	srai	x7,x30,0xe	 x30:0x00000000  x7=0x00000000
     2122182000	    106007	8000affe	6105	c.addi16sp	x2,32	  x2:0xffffffe1  x2=0x00000001
     2122202000	    106008	8000b000	85b5	c.srai	x11,0xd	 x11:0x00000002 x11=0x00000000
     2122962000	    106046	8000b002	01e51333	sll	x6,x10,x30	 x10:0x00000002 x30:0x00000000  x6=0x00000002
     2123002000	    106048	8000b006	008a9e13	slli	x28,x21,0x8	 x21:0x0f0f0f0f x28=0x0f0f0f00
     2123022000	    106049	8000b00a	41af01b3	sub	x3,x30,x26	 x30:0x00000000 x26:0xe7269000  x3=0x18d97000
     2123042000	    106050	8000b00e	3246d073	csrrwi	x0,mhpmevent4,13	  x0=0x00000000
     2123122000	    106054	8000b012	00bf1393	slli	x7,x30,0xb	 x30:0x00000000  x7=0x00000000
     2123142000	    106055	8000b016	407c51b3	sra	x3,x24,x7	 x24:0x0f0f0f0f  x7:0x00000000  x3=0x0f0f0f0f
     2123402000	    106068	8000b01a	03c3c863	blt	x7,x28,8000b04a	  x7:0x00000000 x28:0x0f0f0f00
     2123882000	    106092	8000b04a	969e	c.add	x13,x7	 x13:0x0000001f  x7:0x00000000 x13=0x0000001f
     2124042000	    106100	8000b04c	008d9b33	sll	x22,x27,x8	 x27:0x00000000  x8:0xffffffff x22=0x00000000
     2124062000	    106101	8000b050	75febf93	sltiu	x31,x29,1887	 x29:0x00fdd7ad x31=0x00000000
     2124182000	    106107	8000b054	03f7dd63	bge	x15,x31,8000b08e	 x15:0x00000000 x31:0x00000000
     2125282000	    106162	8000b08e	0305bcb3	mulhu	x25,x11,x16	 x11:0x00000000 x16:0x00000505 x25=0x00000000
     2125302000	    106163	8000b092	0086	c.slli	x1,0x1	  x1:0x00000000  x1=0x00000000
     2125662000	    106181	8000b094	2a757393	andi	x7,x10,679	 x10:0x00000002  x7=0x00000002
     2126422000	    106219	8000b098	015ac433	xor	x8,x21,x21	 x21:0x0f0f0f0f x21:0x0f0f0f0f  x8=0x00000000
     2126442000	    106220	8000b09c	8145	c.srli	x10,0x11	 x10:0x00000002 x10=0x00000000
     2126482000	    106222	8000b09e	7fe4ce93	xori	x29,x9,2046	  x9:0x000000d1 x29=0x0000072f
     2126502000	    106223	8000b0a2	987d	c.andi	x8,-1	  x8:0x00000000  x8=0x00000000
     2126562000	    106226	8000b0a4	15fd	c.addi	x11,-1	 x11:0x00000000 x11=0xffffffff
     2126582000	    106227	8000b0a6	457ece93	xori	x29,x29,1111	 x29:0x0000072f x29=0x00000378
     2126622000	    106229	8000b0aa	8eb9	c.xor	x13,x14	 x13:0x0000001f x14:0xe7269000 x13=0xe726901f
     2126662000	    106231	8000b0ac	15fd	c.addi	x11,-1	 x11:0xffffffff x11=0xfffffffe
     2126702000	    106233	8000b0ae	8f2d	c.xor	x14,x11	 x14:0xe7269000 x11:0xfffffffe x14=0x18d96ffe
     2126722000	    106234	8000b0b0	011b7493	andi	x9,x22,17	 x22:0x00000000  x9=0x00000000
     2126762000	    106236	8000b0b4	c595	c.beqz	x11,8000b0e0	 x11:0xfffffffe
     2127322000	    106264	8000b0b6	01c3d963	bge	x7,x28,8000b0c8	  x7:0x00000002 x28:0x0f0f0f00
     2128102000	    106303	8000b0ba	8cc5	c.or	x9,x9	  x9:0x00000000  x9:0x00000000  x9=0x00000000
     2128882000	    106342	8000b0bc	0251ee33	rem	x28,x3,x5	  x3:0x0f0f0f0f  x5:0x80025ce4 x28=0x0f0f0f0f
     2129622000	    106379	8000b0c0	02886fb3	rem	x31,x16,x8	 x16:0x00000505  x8:0x00000000 x31=0x00000505
     2130382000	    106417	8000b0c4	034acfb3	div	x31,x21,x20	 x21:0x0f0f0f0f x20:0x000000fd x31=0x000f3cc5
     2130422000	    106419	8000b0c8	00e5ec33	or	x24,x11,x14	 x11:0xfffffffe x14:0x18d96ffe x24=0xfffffffe
     2130442000	    106420	8000b0cc	8e39	c.xor	x12,x14	 x12:0x00000000 x14:0x18d96ffe x12=0x18d96ffe
     2130462000	    106421	8000b0ce	0000100f	fence.i	
     2130582000	    106427	8000b0d2	8fda	c.mv	x31,x22	  x0:0x00000000 x22:0x00000000 x31=0x00000000
     2130922000	    106444	8000b0d4	00f59c63	bne	x11,x15,8000b0ec	 x11:0xfffffffe x15:0x00000000
     2131602000	    106478	8000b0ec	7a007a73	csrrci	x20,tselect,0	 x20=0x00000000
     2131622000	    106479	8000b0f0	26af2f37	lui	x30,0x26af2	 x30=0x26af2000
     2131642000	    106480	8000b0f4	0ff0000f	fence	iorw,iorw	
     2132402000	    106518	8000b0f8	01761c33	sll	x24,x12,x23	 x12:0x18d96ffe x23:0x80021df8 x24=0xfe000000
     2132422000	    106519	8000b0fc	f128d073	csrrwi	x0,marchid,17	  x0=0x00000000
     2132762000	    106536	80002700	0800006f	jal	x0,80002780	  x0=0x00000000
     2134122000	    106604	80002780	12f1	c.addi	x5,-4	  x5:0x80025ce4  x5=0x80025ce0
     2135062000	    106651	80002782	0172a023	sw	x23,0(x5)	  x5:0x80025ce0 x23:0x80021df8 PA:0x80025ce0 store:0x80021df8 load:0xffffffff
     2135082000	    106652	80002786	00028bb3	add	x23,x5,x0	  x5:0x80025ce0  x0:0x00000000 x23=0x80025ce0
     2135102000	    106653	8000278a	f80b8b93	addi	x23,x23,-128	 x23:0x80025ce0 x23=0x80025c60
     2135182000	    106657	8000278e	001ba223	sw	x1,4(x23)	 x23:0x80025c60  x1:0x00000000 PA:0x80025c64 store:0x00000000 load:0xffffffff
     2135202000	    106658	80002792	002ba423	sw	x2,8(x23)	 x23:0x80025c60  x2:0x00000001 PA:0x80025c68 store:0x00000001 load:0xffffffff
     2135422000	    106669	80002796	003ba623	sw	x3,12(x23)	 x23:0x80025c60  x3:0x0f0f0f0f PA:0x80025c6c store:0x0f0f0f0f load:0xffffffff
     2135742000	    106685	8000279a	004ba823	sw	x4,16(x23)	 x23:0x80025c60  x4:0x00000000 PA:0x80025c70 store:0x00000000 load:0xffffffff
     2136282000	    106712	8000279e	005baa23	sw	x5,20(x23)	 x23:0x80025c60  x5:0x80025ce0 PA:0x80025c74 store:0x80025ce0 load:0xffffffff
     2136742000	    106735	800027a2	006bac23	sw	x6,24(x23)	 x23:0x80025c60  x6:0x00000002 PA:0x80025c78 store:0x00000002 load:0xffffffff
     2136822000	    106739	800027a6	007bae23	sw	x7,28(x23)	 x23:0x80025c60  x7:0x00000002 PA:0x80025c7c store:0x00000002 load:0xffffffff
     2137022000	    106749	800027aa	028ba023	sw	x8,32(x23)	 x23:0x80025c60  x8:0x00000000 PA:0x80025c80 store:0x00000000 load:0xffffffff
     2137102000	    106753	800027ae	029ba223	sw	x9,36(x23)	 x23:0x80025c60  x9:0x00000000 PA:0x80025c84 store:0x00000000 load:0xffffffff
     2137122000	    106754	800027b2	02aba423	sw	x10,40(x23)	 x23:0x80025c60 x10:0x00000000 PA:0x80025c88 store:0x00000000 load:0xffffffff
     2137262000	    106761	800027b6	02bba623	sw	x11,44(x23)	 x23:0x80025c60 x11:0xfffffffe PA:0x80025c8c store:0xfffffffe load:0xffffffff
     2137362000	    106766	800027ba	02cba823	sw	x12,48(x23)	 x23:0x80025c60 x12:0x18d96ffe PA:0x80025c90 store:0x18d96ffe load:0xffffffff
     2137382000	    106767	800027be	02dbaa23	sw	x13,52(x23)	 x23:0x80025c60 x13:0xe726901f PA:0x80025c94 store:0xe726901f load:0xffffffff
     2137502000	    106773	800027c2	02ebac23	sw	x14,56(x23)	 x23:0x80025c60 x14:0x18d96ffe PA:0x80025c98 store:0x18d96ffe load:0xffffffff
     2137602000	    106778	800027c6	02fbae23	sw	x15,60(x23)	 x23:0x80025c60 x15:0x00000000 PA:0x80025c9c store:0x00000000 load:0xffffffff
     2137822000	    106789	800027ca	050ba023	sw	x16,64(x23)	 x23:0x80025c60 x16:0x00000505 PA:0x80025ca0 store:0x00000505 load:0xffffffff
     2138182000	    106807	800027ce	051ba223	sw	x17,68(x23)	 x23:0x80025c60 x17:0x00000001 PA:0x80025ca4 store:0x00000001 load:0xffffffff
     2138642000	    106830	800027d2	052ba423	sw	x18,72(x23)	 x23:0x80025c60 x18:0x4252bec4 PA:0x80025ca8 store:0x4252bec4 load:0xffffffff
     2139722000	    106884	800027d6	053ba623	sw	x19,76(x23)	 x23:0x80025c60 x19:0x00000000 PA:0x80025cac store:0x00000000 load:0xffffffff
     2140382000	    106917	800027da	054ba823	sw	x20,80(x23)	 x23:0x80025c60 x20:0x00000000 PA:0x80025cb0 store:0x00000000 load:0xffffffff
     2140582000	    106927	800027de	055baa23	sw	x21,84(x23)	 x23:0x80025c60 x21:0x0f0f0f0f PA:0x80025cb4 store:0x0f0f0f0f load:0xffffffff
     2141462000	    106971	800027e2	056bac23	sw	x22,88(x23)	 x23:0x80025c60 x22:0x00000000 PA:0x80025cb8 store:0x00000000 load:0xffffffff
     2141802000	    106988	800027e6	057bae23	sw	x23,92(x23)	 x23:0x80025c60 x23:0x80025c60 PA:0x80025cbc store:0x80025c60 load:0xffffffff
     2142102000	    107003	800027ea	078ba023	sw	x24,96(x23)	 x23:0x80025c60 x24:0xfe000000 PA:0x80025cc0 store:0xfe000000 load:0xffffffff
     2142122000	    107004	800027ee	079ba223	sw	x25,100(x23)	 x23:0x80025c60 x25:0x00000000 PA:0x80025cc4 store:0x00000000 load:0xffffffff
     2143682000	    107082	800027f2	07aba423	sw	x26,104(x23)	 x23:0x80025c60 x26:0xe7269000 PA:0x80025cc8 store:0xe7269000 load:0xffffffff
     2143902000	    107093	800027f6	07bba623	sw	x27,108(x23)	 x23:0x80025c60 x27:0x00000000 PA:0x80025ccc store:0x00000000 load:0xffffffff
     2144122000	    107104	800027fa	07cba823	sw	x28,112(x23)	 x23:0x80025c60 x28:0x0f0f0f0f PA:0x80025cd0 store:0x0f0f0f0f load:0xffffffff
     2144142000	    107105	800027fe	07dbaa23	sw	x29,116(x23)	 x23:0x80025c60 x29:0x00000378 PA:0x80025cd4 store:0x00000378 load:0xffffffff
     2144242000	    107110	80002802	07ebac23	sw	x30,120(x23)	 x23:0x80025c60 x30:0x26af2000 PA:0x80025cd8 store:0x26af2000 load:0xffffffff
     2144322000	    107114	80002806	07fbae23	sw	x31,124(x23)	 x23:0x80025c60 x31:0x00000000 PA:0x80025cdc store:0x00000000 load:0xffffffff
     2144342000	    107115	8000280a	000b82b3	add	x5,x23,x0	 x23:0x80025c60  x0:0x00000000  x5=0x80025c60
     2144362000	    107116	8000280e	90000c37	lui	x24,0x90000	 x24=0x90000000
     2144402000	    107118	80002812	1c71	c.addi	x24,-4	 x24:0x90000000 x24=0x8ffffffc
     2144442000	    107120	80002814	4f21	c.li	x30,8	 x30=0x00000008
     2144482000	    107122	80002816	0f22	c.slli	x30,0x8	 x30:0x00000008 x30=0x00000800
     2144622000	    107129	80002818	000f0f13	addi	x30,x30,0	 x30:0x00000800 x30=0x00000800
     2145202000	    107158	8000281c	01ec2023	sw	x30,0(x24)	 x24:0x8ffffffc x30:0x00000800 PA:0x8ffffffc store:0x00000800 load:0xffffffff
     2145222000	    107159	80002820	34102f73	csrrs	x30,mepc,x0	  x0:0x00000000 x30=0x8000b0fc
     2145262000	    107161	80002824	34202f73	csrrs	x30,mcause,x0	  x0:0x00000000 x30=0x00000002
     2145282000	    107162	80002828	4c0d	c.li	x24,3	 x24=0x00000003
     2145322000	    107164	8000282a	018f1463	bne	x30,x24,80002832	 x30:0x00000002 x24:0x00000003
     2145382000	    107167	80002832	4c21	c.li	x24,8	 x24=0x00000008
     2145462000	    107171	80002834	058f0d63	beq	x30,x24,8000288e	 x30:0x00000002 x24:0x00000008
     2145802000	    107188	80002838	4c25	c.li	x24,9	 x24=0x00000009
     2145842000	    107190	8000283a	058f0a63	beq	x30,x24,8000288e	 x30:0x00000002 x24:0x00000009
     2145962000	    107196	8000283e	4c2d	c.li	x24,11	 x24=0x0000000b
     2146002000	    107198	80002840	058f0763	beq	x30,x24,8000288e	 x30:0x00000002 x24:0x0000000b
     2146822000	    107239	80002844	4c05	c.li	x24,1	 x24=0x00000001
     2146882000	    107242	80002846	358f0363	beq	x30,x24,80002b8c	 x30:0x00000002 x24:0x00000001
     2147202000	    107258	8000284a	4c15	c.li	x24,5	 x24=0x00000005
     2147982000	    107297	8000284c	638f0a63	beq	x30,x24,80002e80	 x30:0x00000002 x24:0x00000005
     2148082000	    107302	80002850	4c1d	c.li	x24,7	 x24=0x00000007
     2148142000	    107305	80002852	158f0ce3	beq	x30,x24,800031aa	 x30:0x00000002 x24:0x00000007
     2148582000	    107327	80002856	4c31	c.li	x24,12	 x24=0x0000000c
     2149022000	    107349	80002858	018f1463	bne	x30,x24,80002860	 x30:0x00000002 x24:0x0000000c
     2149622000	    107379	80002860	4c35	c.li	x24,13	 x24=0x0000000d
     2149682000	    107382	80002862	018f1463	bne	x30,x24,8000286a	 x30:0x00000002 x24:0x0000000d
     2150262000	    107411	8000286a	4c3d	c.li	x24,15	 x24=0x0000000f
     2150302000	    107413	8000286c	018f1463	bne	x30,x24,80002874	 x30:0x00000002 x24:0x0000000f
     2151142000	    107455	80002874	4c09	c.li	x24,2	 x24=0x00000002
     2151182000	    107457	80002876	018f1463	bne	x30,x24,8000287e	 x30:0x00000002 x24:0x00000002
     2152122000	    107504	8000287a	3740906f	jal	x0,8000bbee	  x0=0x00000000
     2152322000	    107514	8000bbee	90000c37	lui	x24,0x90000	 x24=0x90000000
     2152342000	    107515	8000bbf2	1c71	c.addi	x24,-4	 x24:0x90000000 x24=0x8ffffffc
     2153102000	    107553	8000bbf4	4f29	c.li	x30,10	 x30=0x0000000a
     2153122000	    107554	8000bbf6	0f22	c.slli	x30,0x8	 x30:0x0000000a x30=0x00000a00
     2153142000	    107555	8000bbf8	000f0f13	addi	x30,x30,0	 x30:0x00000a00 x30=0x00000a00
     2153242000	    107560	8000bbfc	01ec2023	sw	x30,0(x24)	 x24:0x8ffffffc x30:0x00000a00 PA:0x8ffffffc store:0x00000a00 load:0xffffffff
     2153262000	    107561	8000bc00	90000c37	lui	x24,0x90000	 x24=0x90000000
     2153302000	    107563	8000bc04	1c71	c.addi	x24,-4	 x24:0x90000000 x24=0x8ffffffc
     2153322000	    107564	8000bc06	34200f13	addi	x30,x0,834	  x0:0x00000000 x30=0x00000342
     2153342000	    107565	8000bc0a	0f22	c.slli	x30,0x8	 x30:0x00000342 x30=0x00034200
     2153702000	    107583	8000bc0c	0f0d	c.addi	x30,3	 x30:0x00034200 x30=0x00034203
     2169842000	    108390	8000bc0e	01ec2023	sw	x30,0(x24)	 x24:0x8ffffffc x30:0x00034203 PA:0x8ffffffc store:0x00034203 load:0xffffffff
     2169862000	    108391	8000bc12	34202f73	csrrs	x30,mcause,x0	  x0:0x00000000 x30=0x00000002
     2169882000	    108392	8000bc16	01ec2023	sw	x30,0(x24)	 x24:0x8ffffffc x30:0x00000002 PA:0x8ffffffc store:0x00000002 load:0xffffffff
     2170642000	    108430	8000bc1a	34102f73	csrrs	x30,mepc,x0	  x0:0x00000000 x30=0x8000b0fc
     2171402000	    108468	8000bc1e	0f11	c.addi	x30,4	 x30:0x8000b0fc x30=0x8000b100
     2171422000	    108469	8000bc20	341f1073	csrrw	x0,mepc,x30	 x30:0x8000b100  x0=0x00000000
     2171462000	    108471	8000bc24	00028bb3	add	x23,x5,x0	  x5:0x80025c60  x0:0x00000000 x23=0x80025c60
     2171522000	    108474	8000bc28	004ba083	lw	x1,4(x23)	 x23:0x80025c60  x1=0x00000000 PA:0x80025c64 load:0x00000000
     2172342000	    108515	8000bc2c	008ba103	lw	x2,8(x23)	 x23:0x80025c60  x2=0x00000001 PA:0x80025c68 load:0x00000001
     2172382000	    108517	8000bc30	00cba183	lw	x3,12(x23)	 x23:0x80025c60  x3=0x0f0f0f0f PA:0x80025c6c load:0x0f0f0f0f
     2172522000	    108524	8000bc34	010ba203	lw	x4,16(x23)	 x23:0x80025c60  x4=0x00000000 PA:0x80025c70 load:0x00000000
     2172662000	    108531	8000bc38	014ba283	lw	x5,20(x23)	 x23:0x80025c60  x5=0x80025ce0 PA:0x80025c74 load:0x80025ce0
     2173162000	    108556	8000bc3c	018ba303	lw	x6,24(x23)	 x23:0x80025c60  x6=0x00000002 PA:0x80025c78 load:0x00000002
     2173222000	    108559	8000bc40	01cba383	lw	x7,28(x23)	 x23:0x80025c60  x7=0x00000002 PA:0x80025c7c load:0x00000002
     2173362000	    108566	8000bc44	020ba403	lw	x8,32(x23)	 x23:0x80025c60  x8=0x00000000 PA:0x80025c80 load:0x00000000
     2173522000	    108574	8000bc48	024ba483	lw	x9,36(x23)	 x23:0x80025c60  x9=0x00000000 PA:0x80025c84 load:0x00000000
     2173662000	    108581	8000bc4c	028ba503	lw	x10,40(x23)	 x23:0x80025c60 x10=0x00000000 PA:0x80025c88 load:0x00000000
     2174262000	    108611	8000bc50	02cba583	lw	x11,44(x23)	 x23:0x80025c60 x11=0xfffffffe PA:0x80025c8c load:0xfffffffe
     2174322000	    108614	8000bc54	030ba603	lw	x12,48(x23)	 x23:0x80025c60 x12=0x18d96ffe PA:0x80025c90 load:0x18d96ffe
     2174342000	    108615	8000bc58	034ba683	lw	x13,52(x23)	 x23:0x80025c60 x13=0xe726901f PA:0x80025c94 load:0xe726901f
     2174382000	    108617	8000bc5c	038ba703	lw	x14,56(x23)	 x23:0x80025c60 x14=0x18d96ffe PA:0x80025c98 load:0x18d96ffe
     2175182000	    108657	8000bc60	03cba783	lw	x15,60(x23)	 x23:0x80025c60 x15=0x00000000 PA:0x80025c9c load:0x00000000
     2175202000	    108658	8000bc64	040ba803	lw	x16,64(x23)	 x23:0x80025c60 x16=0x00000505 PA:0x80025ca0 load:0x00000505
     2175222000	    108659	8000bc68	044ba883	lw	x17,68(x23)	 x23:0x80025c60 x17=0x00000001 PA:0x80025ca4 load:0x00000001
     2175662000	    108681	8000bc6c	048ba903	lw	x18,72(x23)	 x23:0x80025c60 x18=0x4252bec4 PA:0x80025ca8 load:0x4252bec4
     2176122000	    108704	8000bc70	04cba983	lw	x19,76(x23)	 x23:0x80025c60 x19=0x00000000 PA:0x80025cac load:0x00000000
     2176202000	    108708	8000bc74	050baa03	lw	x20,80(x23)	 x23:0x80025c60 x20=0x00000000 PA:0x80025cb0 load:0x00000000
     2176382000	    108717	8000bc78	054baa83	lw	x21,84(x23)	 x23:0x80025c60 x21=0x0f0f0f0f PA:0x80025cb4 load:0x0f0f0f0f
     2176462000	    108721	8000bc7c	058bab03	lw	x22,88(x23)	 x23:0x80025c60 x22=0x00000000 PA:0x80025cb8 load:0x00000000
     2176882000	    108742	8000bc80	05cbab83	lw	x23,92(x23)	 x23:0x80025c60 x23=0x80025c60 PA:0x80025cbc load:0x80025c60
     2177242000	    108760	8000bc84	060bac03	lw	x24,96(x23)	 x23:0x80025c60 x24=0xfe000000 PA:0x80025cc0 load:0xfe000000
     2177762000	    108786	8000bc88	064bac83	lw	x25,100(x23)	 x23:0x80025c60 x25=0x00000000 PA:0x80025cc4 load:0x00000000
     2177822000	    108789	8000bc8c	068bad03	lw	x26,104(x23)	 x23:0x80025c60 x26=0xe7269000 PA:0x80025cc8 load:0xe7269000
     2177842000	    108790	8000bc90	06cbad83	lw	x27,108(x23)	 x23:0x80025c60 x27=0x00000000 PA:0x80025ccc load:0x00000000
     2177882000	    108792	8000bc94	070bae03	lw	x28,112(x23)	 x23:0x80025c60 x28=0x0f0f0f0f PA:0x80025cd0 load:0x0f0f0f0f
     2177962000	    108796	8000bc98	074bae83	lw	x29,116(x23)	 x23:0x80025c60 x29=0x00000378 PA:0x80025cd4 load:0x00000378
     2178022000	    108799	8000bc9c	078baf03	lw	x30,120(x23)	 x23:0x80025c60 x30=0x26af2000 PA:0x80025cd8 load:0x26af2000
     2178142000	    108805	8000bca0	07cbaf83	lw	x31,124(x23)	 x23:0x80025c60 x31=0x00000000 PA:0x80025cdc load:0x00000000
     2178182000	    108807	8000bca4	080b8b93	addi	x23,x23,128	 x23:0x80025c60 x23=0x80025ce0
     2178962000	    108846	8000bca8	000b82b3	add	x5,x23,x0	 x23:0x80025ce0  x0:0x00000000  x5=0x80025ce0
     2180282000	    108912	8000bcac	0002ab83	lw	x23,0(x5)	  x5:0x80025ce0 x23=0x80021df8 PA:0x80025ce0 load:0x80021df8
     2180302000	    108913	8000bcb0	0291	c.addi	x5,4	  x5:0x80025ce0  x5=0x80025ce4
     2180342000	    108915	8000bcb2	30200073	mret	
     2181162000	    108956	8000b100	03c85633	divu	x12,x16,x28	 x16:0x00000505 x28:0x0f0f0f0f x12=0x00000000
     2181182000	    108957	8000b104	403d5c33	sra	x24,x26,x3	 x26:0xe7269000  x3:0x0f0f0f0f x24=0xffffce4d
     2181222000	    108959	8000b108	8e0d	c.sub	x12,x11	 x12:0x00000000 x11:0xfffffffe x12=0x00000002
     2181242000	    108960	8000b10a	00172b33	slt	x22,x14,x1	 x14:0x18d96ffe  x1:0x00000000 x22=0x00000000
     2181302000	    108963	8000b10e	01e8fb33	and	x22,x17,x30	 x17:0x00000001 x30:0x26af2000 x22=0x00000000
     2182082000	    109002	8000b112	d130c093	xori	x1,x1,-749	  x1:0x00000000  x1=0xfffffd13
     2182102000	    109003	8000b116	3244d473	csrrwi	x8,mhpmevent4,9	  x8=0x00000002
     2182162000	    109006	8000b11a	0001	c.addi	x0,0	  x0:0x00000000  x0=0x00000000
     2184402000	    109118	8000b11c	0001	c.addi	x0,0	  x0:0x00000000  x0=0x00000000
     2184442000	    109120	8000b11e	02721833	mulh	x16,x4,x7	  x4:0x00000000  x7:0x00000002 x16=0x00000000
     2184502000	    109123	8000b122	bb393a93	sltiu	x21,x18,-1101	 x18:0x4252bec4 x21=0x00000001
     2184542000	    109125	8000b126	0372da63	bge	x5,x23,8000b15a	  x5:0x80025ce4 x23:0x80021df8
     2185022000	    109149	8000b15a	7ba20537	lui	x10,0x7ba20	 x10=0x7ba20000
     2185042000	    109150	8000b15e	01f6a9b3	slt	x19,x13,x31	 x13:0xe726901f x31:0x00000000 x19=0x00000001
     2185082000	    109152	8000b162	6139	c.addi16sp	x2,448	  x2:0x00000001  x2=0x000001c1
     2185822000	    109189	8000b164	03555d33	divu	x26,x10,x21	 x10:0x7ba20000 x21:0x00000001 x26=0x7ba20000
     2185842000	    109190	8000b168	8962	c.mv	x18,x24	  x0:0x00000000 x24:0xffffce4d x18=0xffffce4d
     2185882000	    109192	8000b16a	0001	c.addi	x0,0	  x0:0x00000000  x0=0x00000000
     2185902000	    109193	8000b16c	b0a279f3	csrrci	x19,mhpmcounter10,4	 x19=0x000001e1
     2185962000	    109196	8000b170	4163dc13	srai	x24,x7,0x16	  x7:0x00000002 x24=0x00000000
     2187442000	    109270	8000b174	032b50b3	divu	x1,x22,x18	 x22:0x00000000 x18:0xffffce4d  x1=0x00000000
     2187462000	    109271	8000b178	896d	c.andi	x10,27	 x10:0x7ba20000 x10=0x00000000
     2187482000	    109272	8000b17a	88d6	c.mv	x17,x21	  x0:0x00000000 x21:0x00000001 x17=0x00000001
     2187542000	    109275	8000b17c	e609	c.bnez	x12,8000b186	 x12:0x00000002
     2187982000	    109297	8000b186	0001	c.addi	x0,0	  x0:0x00000000  x0=0x00000000
     2188122000	    109304	8000b188	412650b3	sra	x1,x12,x18	 x12:0x00000002 x18:0xffffce4d  x1=0x00000000
     2188862000	    109341	8000b18c	029056b3	divu	x13,x0,x9	  x0:0x00000000  x9:0x00000000 x13=0xffffffff
     2188902000	    109343	8000b190	717d	c.addi16sp	x2,-16	  x2:0x000001c1  x2=0x000001b1
     2188922000	    109344	8000b192	1834f213	andi	x4,x9,387	  x9:0x00000000  x4=0x00000000
     2188962000	    109346	8000b196	3109fb73	csrrci	x22,0x310,19	 x22=0x00000000
     2189022000	    109349	8000b19a	1899c493	xori	x9,x19,393	 x19:0x000001e1  x9=0x00000068
     2189042000	    109350	8000b19e	3436d3f3	csrrwi	x7,mtval,13	  x7=0xf128d073
     2189142000	    109355	8000b1a2	02342cb3	mulhsu	x25,x8,x3	  x8:0x00000002  x3:0x0f0f0f0f x25=0x00000000
     2189222000	    109359	8000b1a6	acc633b7	lui	x7,0xacc63	  x7=0xacc63000
     2189262000	    109361	8000b1aa	6329	c.lui	x6,0xa	  x6=0x0000a000
     2189542000	    109375	8000b1ac	987d	c.andi	x8,-1	  x8:0x00000002  x8=0x00000002
     2189582000	    109377	8000b1ae	8e41	c.or	x12,x8	 x12:0x00000002  x8:0x00000002 x12=0x00000002
     2189642000	    109380	8000b1b0	03f3a9b3	mulhsu	x19,x7,x31	  x7:0xacc63000 x31:0x00000000 x19=0x00000000
     2189742000	    109385	8000b1b4	3b260db7	lui	x27,0x3b260	 x27=0x3b260000
     2190122000	    109404	8000b1b8	04dac163	blt	x21,x13,8000b1fa	 x21:0x00000001 x13:0xffffffff
     2195982000	    109697	8000b1bc	8e4d	c.or	x12,x11	 x12:0x00000002 x11:0xfffffffe x12=0xfffffffe
     2196002000	    109698	8000b1be	028189b3	mul	x19,x3,x8	  x3:0x0f0f0f0f  x8:0x00000002 x19=0x1e1e1e1e
     2196022000	    109699	8000b1c2	4201	c.li	x4,0	  x4=0x00000000
     2196802000	    109738	8000b1c4	cc9d	c.beqz	x9,8000b202	  x9:0x00000068
     2196902000	    109743	8000b1c6	c509	c.beqz	x10,8000b1d0	 x10:0x00000000
     2197122000	    109754	8000b1d0	b056d173	csrrwi	x2,mhpmcounter5,13	  x2=0x000002cf
     2197222000	    109759	8000b1d4	033f0fb3	mul	x31,x30,x19	 x30:0x26af2000 x19:0x1e1e1e1e x31=0xce45c000
     2197402000	    109768	8000b1d8	41395333	sra	x6,x18,x19	 x18:0xffffce4d x19:0x1e1e1e1e  x6=0xffffffff
     2197422000	    109769	8000b1dc	9af6	c.add	x21,x29	 x21:0x00000001 x29:0x00000378 x21=0x00000379
     2197442000	    109770	8000b1de	3b903773	csrrc	x14,pmpaddr9,x0	  x0:0x00000000 x14=0x06667395
     2197742000	    109785	8000b1e2	033f9a63	bne	x31,x19,8000b216	 x31:0xce45c000 x19:0x1e1e1e1e
     2198722000	    109834	8000b216	02fcbfb3	mulhu	x31,x25,x15	 x25:0x00000000 x15:0x00000000 x31=0x00000000
     2199502000	    109873	8000b21a	0253ee63	bltu	x7,x5,8000b256	  x7:0xacc63000  x5:0x80025ce4
     2199742000	    109885	8000b21e	b8803af3	csrrc	x21,mhpmcounter8h,x0	  x0:0x00000000 x21=0x00000000
     2200522000	    109924	8000b222	00a59663	bne	x11,x10,8000b22e	 x11:0xfffffffe x10:0x00000000
     2200822000	    109939	8000b22e	04809163	bne	x1,x8,8000b270	  x1:0x00000000  x8:0x00000002
     2201702000	    109983	8000b270	00127e63	bgeu	x4,x1,8000b28c	  x4:0x00000000  x1:0x00000000
     2201982000	    109997	8000b28c	0856	c.slli	x16,0x15	 x16:0x00000000 x16=0x00000000
     2202002000	    109998	8000b28e	862d	c.srai	x12,0xb	 x12:0xfffffffe x12=0xffffffff
     2202762000	    110036	8000b290	029ccfb3	div	x31,x25,x9	 x25:0x00000000  x9:0x00000068 x31=0x00000000
     2202782000	    110037	8000b294	00b6c433	xor	x8,x13,x11	 x13:0xffffffff x11:0xfffffffe  x8=0x00000001
     2202842000	    110040	8000b298	8629	c.srai	x12,0xa	 x12:0xffffffff x12=0xffffffff
     2202882000	    110042	8000b29a	0001	c.addi	x0,0	  x0:0x00000000  x0=0x00000000
     2202922000	    110044	8000b29c	01be3eb3	sltu	x29,x28,x27	 x28:0x0f0f0f0f x27:0x3b260000 x29=0x00000001
     2202962000	    110046	8000b2a0	c685	c.beqz	x13,8000b2c8	 x13:0xffffffff
     2203162000	    110056	8000b2a2	717d	c.addi16sp	x2,-16	  x2:0x000002cf  x2=0x000002bf
     2203542000	    110075	8000b2a4	0ff0000f	fence	iorw,iorw	
     2203602000	    110078	8000b2a8	01b4da63	bge	x9,x27,8000b2bc	  x9:0x00000068 x27:0x3b260000
     2204522000	    110124	8000b2ac	03aa7433	remu	x8,x20,x26	 x20:0x00000000 x26:0x7ba20000  x8=0x00000000
     2205302000	    110163	8000b2b0	035924b3	mulhsu	x9,x18,x21	 x18:0xffffce4d x21:0x00000000  x9=0x00000000
     2205342000	    110165	8000b2b4	01b99233	sll	x4,x19,x27	 x19:0x1e1e1e1e x27:0x3b260000  x4=0x1e1e1e1e
     2205362000	    110166	8000b2b8	32307d73	csrrci	x26,mhpmevent3,0	 x26=0x00000001
     2206142000	    110205	8000b2bc	674d	c.lui	x14,0x13	 x14=0x00013000
     2206162000	    110206	8000b2be	c896b697	auipc	x13,0xc896b	 x13=0x489762be
     2206182000	    110207	8000b2c2	01b52733	slt	x14,x10,x27	 x10:0x00000000 x27:0x3b260000 x14=0x00000001
     2206242000	    110210	8000b2c6	0d2e	c.slli	x26,0xb	 x26:0x00000001 x26=0x00000800
     2206262000	    110211	8000b2c8	8b61	c.andi	x14,24	 x14:0x00000001 x14=0x00000000
     2207042000	    110250	8000b2ca	997a	c.add	x18,x30	 x18:0xffffce4d x30:0x26af2000 x18=0x26aeee4d
     2207782000	    110287	8000b2cc	039beab3	rem	x21,x23,x25	 x23:0x80021df8 x25:0x00000000 x21=0x80021df8
     2207802000	    110288	8000b2d0	619b2513	slti	x10,x22,1561	 x22:0x00000000 x10=0x00000001
     2207842000	    110290	8000b2d4	40e85eb3	sra	x29,x16,x14	 x16:0x00000000 x14:0x00000000 x29=0x00000000
     2208622000	    110329	8000b2d8	00c8c733	xor	x14,x17,x12	 x17:0x00000001 x12:0xffffffff x14=0xfffffffe
     2208642000	    110330	8000b2dc	01358db3	add	x27,x11,x19	 x11:0xfffffffe x19:0x1e1e1e1e x27=0x1e1e1e1c
     2208662000	    110331	8000b2e0	015fdf93	srli	x31,x31,0x15	 x31:0x00000000 x31=0x00000000
     2209422000	    110369	8000b2e4	11f70e13	addi	x28,x14,287	 x14:0xfffffffe x28=0x0000011d
     2209442000	    110370	8000b2e8	8ef9	c.and	x13,x14	 x13:0x489762be x14:0xfffffffe x13=0x489762be
     2210222000	    110409	8000b2ea	8a29	c.andi	x12,10	 x12:0xffffffff x12=0x0000000a
     2210242000	    110410	8000b2ec	99fd	c.andi	x11,-1	 x11:0xfffffffe x11=0xfffffffe
     2210282000	    110412	8000b2ee	3f1cad93	slti	x27,x25,1009	 x25:0x00000000 x27=0x00000001
     2210302000	    110413	8000b2f2	b0802d73	csrrs	x26,mhpmcounter8,x0	  x0:0x00000000 x26=0x0000012b
     2210322000	    110414	8000b2f6	8765	c.srai	x14,0x19	 x14:0xfffffffe x14=0xffffffff
     2211102000	    110453	8000b2f8	cc9d	c.beqz	x9,8000b336	  x9:0x00000000
     2211182000	    110457	8000b336	8555	c.srai	x10,0x15	 x10:0x00000001 x10=0x00000000
     2211402000	    110468	8000b338	41ed5213	srai	x4,x26,0x1e	 x26:0x0000012b  x4=0x00000000
     2211442000	    110470	8000b33c	01b7f863	bgeu	x15,x27,8000b34c	 x15:0x00000000 x27:0x00000001
     2211622000	    110479	8000b340	e04d7913	andi	x18,x26,-508	 x26:0x0000012b x18=0x00000000
     2211722000	    110484	8000b344	025f5963	bge	x30,x5,8000b376	 x30:0x26af2000  x5:0x80025ce4
     2212002000	    110498	8000b376	3280dd73	csrrwi	x26,mhpmevent8,1	 x26=0x00000020
     2212282000	    110512	8000b37a	0ff0000f	fence	iorw,iorw	
     2212442000	    110520	8000b37e	02ee4763	blt	x28,x14,8000b3ac	 x28:0x0000011d x14:0xffffffff
     2213082000	    110552	8000b382	4ee1	c.li	x29,24	 x29=0x00000018
     2213522000	    110574	8000b384	c98d	c.beqz	x11,8000b3b6	 x11:0xfffffffe
     2214402000	    110618	8000b386	03416863	bltu	x2,x20,8000b3b6	  x2:0x000002bf x20:0x00000000
     2214862000	    110641	8000b38a	9e84f693	andi	x13,x9,-1560	  x9:0x00000000 x13=0x00000000
     2215622000	    110679	8000b38e	0d31	c.addi	x26,12	 x26:0x00000020 x26=0x0000002c
     2215682000	    110682	8000b390	0571e163	bltu	x3,x23,8000b3d2	  x3:0x0f0f0f0f x23:0x80021df8
     2216282000	    110712	8000b3d2	6b21	c.lui	x22,0x8	 x22=0x00008000
     2216382000	    110717	8000b3d4	40c05e93	srai	x29,x0,0xc	  x0:0x00000000 x29=0x00000000
     2216802000	    110738	8000b3d8	0001	c.addi	x0,0	  x0:0x00000000  x0=0x00000000
     2216922000	    110744	8000b3da	23c5c393	xori	x7,x11,572	 x11:0xfffffffe  x7=0xfffffdc2
     2216962000	    110746	8000b3de	4551	c.li	x10,20	 x10=0x00000014
     2217002000	    110748	8000b3e0	1984	c.addi4spn	x9,x2,240	  x9=0x000003af
     2217762000	    110786	8000b3e2	006580b3	add	x1,x11,x6	 x11:0xfffffffe  x6:0xffffffff  x1=0xfffffffd
     2217802000	    110788	8000b3e6	8d6b4993	xori	x19,x22,-1834	 x22:0x00008000 x19=0xffff78d6
     2217842000	    110790	8000b3ea	0033aeb3	slt	x29,x7,x3	  x7:0xfffffdc2  x3:0x0f0f0f0f x29=0x00000001
     2217862000	    110791	8000b3ee	03110433	mul	x8,x2,x17	  x2:0x000002bf x17:0x00000001  x8=0x000002bf
     2218662000	    110831	8000b3f2	03651ab3	mulh	x21,x10,x22	 x10:0x00000014 x22:0x00008000 x21=0x00000000
     2218682000	    110832	8000b3f6	823619b7	lui	x19,0x82361	 x19=0x82361000
     2218702000	    110833	8000b3fa	004b0633	add	x12,x22,x4	 x22:0x00008000  x4:0x00000000 x12=0x00008000
     2218762000	    110836	8000b3fe	00600e63	beq	x0,x6,8000b41a	  x0:0x00000000  x6:0xffffffff
     2220662000	    110931	8000b402	032dcab3	div	x21,x27,x18	 x27:0x00000001 x18:0x00000000 x21=0xffffffff
     2220682000	    110932	8000b406	0000100f	fence.i	
     2221322000	    110964	8000b40a	81d8e693	ori	x13,x17,-2019	 x17:0x00000001 x13=0xfffff81d
     2221342000	    110965	8000b40e	b08c9073	csrrw	x0,mhpmcounter8,x25	 x25:0x00000000  x0=0x00000000
     2221402000	    110968	8000b412	b8507273	csrrci	x4,mhpmcounter5h,0	  x4=0x00000000
     2222942000	    111045	8000b416	03177533	remu	x10,x14,x17	 x14:0xffffffff x17:0x00000001 x10=0x00000000
     2222982000	    111047	8000b41a	0480c063	blt	x1,x8,8000b45a	  x1:0xfffffffd  x8:0x000002bf
     2223222000	    111059	8000b45a	3276e873	csrrsi	x16,mhpmevent7,13	 x16=0x00000010
     2223282000	    111062	8000b45e	93be	c.add	x7,x15	  x7:0xfffffdc2 x15:0x00000000  x7=0xfffffdc2
     2223382000	    111067	8000b460	039c6b63	bltu	x24,x25,8000b496	 x24:0x00000000 x25:0x00000000
     2224362000	    111116	8000b464	c0f72a93	slti	x21,x14,-1009	 x14:0xffffffff x21=0x00000000
     2224382000	    111117	8000b468	0001	c.addi	x0,0	  x0:0x00000000  x0=0x00000000
     2224822000	    111139	8000b46a	051f1363	bne	x30,x17,8000b4b0	 x30:0x26af2000 x17:0x00000001
     2259802000	    112888	8000b4b0	0ff0000f	fence	iorw,iorw	
     2259822000	    112889	8000b4b4	00fe35b3	sltu	x11,x28,x15	 x28:0x0000011d x15:0x00000000 x11=0x00000000
     2260562000	    112926	8000b4b8	02c5e733	rem	x14,x11,x12	 x11:0x00000000 x12:0x00008000 x14=0x00000000
     2260602000	    112928	8000b4bc	0441	c.addi	x8,16	  x8:0x000002bf  x8=0x000002cf
     2260622000	    112929	8000b4be	0001	c.addi	x0,0	  x0:0x00000000  x0=0x00000000
     2260662000	    112931	8000b4c0	e32eb593	sltiu	x11,x29,-462	 x29:0x00000001 x11=0x00000001
     2260682000	    112932	8000b4c4	8035	c.srli	x8,0xd	  x8:0x000002cf  x8=0x00000000
     2260762000	    112936	8000b4c6	3a02b413	sltiu	x8,x5,928	  x5:0x80025ce4  x8=0x00000000
     2260782000	    112937	8000b4ca	01b969b3	or	x19,x18,x27	 x18:0x00000000 x27:0x00000001 x19=0x00000001
     2260822000	    112939	8000b4ce	01e7a333	slt	x6,x15,x30	 x15:0x00000000 x30:0x26af2000  x6=0x00000001
     2261582000	    112977	8000b4d2	9974a917	auipc	x18,0x9974a	 x18=0x197554d2
     2262342000	    113015	8000b4d6	63ce0e93	addi	x29,x28,1596	 x28:0x0000011d x29=0x00000759
     2262382000	    113017	8000b4da	914e	c.add	x2,x19	  x2:0x000002bf x19:0x00000001  x2=0x000002c0
     2262402000	    113018	8000b4dc	00d09913	slli	x18,x1,0xd	  x1:0xfffffffd x18=0xffffa000
     2263162000	    113056	8000b4e0	02847a33	remu	x20,x8,x8	  x8:0x00000000  x8:0x00000000 x20=0x00000000
     2263202000	    113058	8000b4e4	036b3233	mulhu	x4,x22,x22	 x22:0x00008000 x22:0x00008000  x4=0x00000000
     2263962000	    113096	8000b4e8	01d9deb3	srl	x29,x19,x29	 x19:0x00000001 x29:0x00000759 x29=0x00000000
     2264002000	    113098	8000b4ec	004d89b3	add	x19,x27,x4	 x27:0x00000001  x4:0x00000000 x19=0x00000001
     2264762000	    113136	8000b4f0	03d3f6b3	remu	x13,x7,x29	  x7:0xfffffdc2 x29:0x00000000 x13=0xfffffdc2
     2264782000	    113137	8000b4f4	9320ca93	xori	x21,x1,-1742	  x1:0xfffffffd x21=0x000006cf
     2264842000	    113140	8000b4f8	00120663	beq	x4,x1,8000b504	  x4:0x00000000  x1:0xfffffffd
     2265762000	    113186	8000b4fc	0246e3b3	rem	x7,x13,x4	 x13:0xfffffdc2  x4:0x00000000  x7=0xfffffdc2
     2265802000	    113188	8000b500	0dea	c.slli	x27,0x1a	 x27:0x00000001 x27=0x04000000
     2265822000	    113189	8000b502	997d	c.andi	x10,-1	 x10:0x00000000 x10=0x00000000
     2265862000	    113191	8000b504	02d6f363	bgeu	x13,x13,8000b52a	 x13:0xfffffdc2 x13:0xfffffdc2
     2266162000	    113206	8000b52a	0ff0000f	fence	iorw,iorw	
     2266222000	    113209	8000b52e	02348c63	beq	x9,x3,8000b566	  x9:0x000003af  x3:0x0f0f0f0f
     2267582000	    113277	8000b532	02b44633	div	x12,x8,x11	  x8:0x00000000 x11:0x00000001 x12=0x00000000
     2267602000	    113278	8000b536	81bd	c.srli	x11,0xf	 x11:0x00000001 x11=0x00000000
     2267642000	    113280	8000b538	8e11	c.sub	x12,x12	 x12:0x00000000 x12:0x00000000 x12=0x00000000
     2267662000	    113281	8000b53a	01d163b3	or	x7,x2,x29	  x2:0x000002c0 x29:0x00000000  x7=0x000002c0
     2267682000	    113282	8000b53e	8f01	c.sub	x14,x8	 x14:0x00000000  x8:0x00000000 x14=0x00000000
     2268442000	    113320	8000b540	24b77f93	andi	x31,x14,587	 x14:0x00000000 x31=0x00000000
     2268462000	    113321	8000b544	0001	c.addi	x0,0	  x0:0x00000000  x0=0x00000000
     2268502000	    113323	8000b546	8f15	c.sub	x14,x13	 x14:0x00000000 x13:0xfffffdc2 x14=0x0000023e
     2268582000	    113327	8000b548	3b0029f3	csrrs	x19,pmpaddr0,x0	  x0:0x00000000 x19=0x20000d2f
     2268602000	    113328	8000b54c	613d	c.addi16sp	x2,480	  x2:0x000002c0  x2=0x000004a0
     2268642000	    113330	8000b54e	5efea513	slti	x10,x29,1519	 x29:0x00000000 x10=0x00000001
     2268682000	    113332	8000b552	03c93433	mulhu	x8,x18,x28	 x18:0xffffa000 x28:0x0000011d  x8=0x0000011c
     2269442000	    113370	8000b556	006dcab3	xor	x21,x27,x6	 x27:0x04000000  x6:0x00000001 x21=0x04000001
     2270202000	    113408	8000b55a	0000100f	fence.i	
     2271422000	    113469	8000b55e	02dbc833	div	x16,x23,x13	 x23:0x80021df8 x13:0xfffffdc2 x16=0x0039155a
     2272182000	    113507	8000b562	547d	c.li	x8,-1	  x8=0xffffffff
     2272202000	    113508	8000b564	0001	c.addi	x0,0	  x0:0x00000000  x0=0x00000000
     2272242000	    113510	8000b566	8745	c.srai	x14,0x11	 x14:0x0000023e x14=0x00000000
     2272262000	    113511	8000b568	7c1023f3	csrrs	x7,0x7c1,x0	  x0:0x00000000  x7=0x00000000
     2272302000	    113513	8000b56c	9ed4b093	sltiu	x1,x9,-1555	  x9:0x000003af  x1=0x00000001
     2272322000	    113514	8000b570	d15bd037	lui	x0,0xd15bd	  x0=0x00000000
     2272362000	    113516	8000b574	418a0633	sub	x12,x20,x24	 x20:0x00000000 x24:0x00000000 x12=0x00000000
     2272402000	    113518	8000b578	03023eb3	mulhu	x29,x4,x16	  x4:0x00000000 x16:0x0039155a x29=0x00000000
     2273382000	    113567	8000b57c	02c2de33	divu	x28,x5,x12	  x5:0x80025ce4 x12:0x00000000 x28=0xffffffff
     2273442000	    113570	8000b580	015b1093	slli	x1,x22,0x15	 x22:0x00008000  x1=0x00000000
     2273482000	    113572	8000b584	03a5a233	mulhsu	x4,x11,x26	 x11:0x00000000 x26:0x0000002c  x4=0x00000000
     2273502000	    113573	8000b588	144c6717	auipc	x14,0x144c6	 x14=0x944d1588
     2274262000	    113611	8000b58c	41fa5b33	sra	x22,x20,x31	 x20:0x00000000 x31:0x00000000 x22=0x00000000
     2275022000	    113649	8000b590	01231213	slli	x4,x6,0x12	  x6:0x00000001  x4=0x00040000
     2275082000	    113652	8000b594	01bc9233	sll	x4,x25,x27	 x25:0x00000000 x27:0x04000000  x4=0x00000000
     2275102000	    113653	8000b598	b86439f3	csrrc	x19,mhpmcounter6h,x8	  x8:0xffffffff x19=0x00000000
     2275902000	    113693	8000b59c	b0902ef3	csrrs	x29,mhpmcounter9,x0	  x0:0x00000000 x29=0xd03b5289
     2275962000	    113696	8000b5a0	cd9d	c.beqz	x11,8000b5de	 x11:0x00000000
     2276162000	    113706	8000b5de	8c51	c.or	x8,x12	  x8:0xffffffff x12:0x00000000  x8=0xffffffff
     2276202000	    113708	8000b5e0	02071933	mulh	x18,x14,x0	 x14:0x944d1588  x0:0x00000000 x18=0x00000000
     2276242000	    113710	8000b5e4	7a0073f3	csrrci	x7,tselect,0	  x7=0x00000000
     2276422000	    113719	8000b5e8	340ed073	csrrwi	x0,mscratch,29	  x0=0x00000000
     2276462000	    113721	8000b5ec	0454c263	blt	x9,x5,8000b630	  x9:0x000003af  x5:0x80025ce4
     2276602000	    113728	8000b5f0	66911497	auipc	x9,0x66911	  x9=0xe691c5f0
     2277362000	    113766	8000b5f4	03b3e5b3	rem	x11,x7,x27	  x7:0x00000000 x27:0x04000000 x11=0x00000000
     2277382000	    113767	8000b5f8	009586b3	add	x13,x11,x9	 x11:0x00000000  x9:0xe691c5f0 x13=0xe691c5f0
     2277402000	    113768	8000b5fc	0026fd33	and	x26,x13,x2	 x13:0xe691c5f0  x2:0x000004a0 x26=0x000004a0
     2278162000	    113806	8000b600	40b68cb3	sub	x25,x13,x11	 x13:0xe691c5f0 x11:0x00000000 x25=0xe691c5f0
     2278182000	    113807	8000b604	01e17433	and	x8,x2,x30	  x2:0x000004a0 x30:0x26af2000  x8=0x00000000
     2278202000	    113808	8000b608	408ad213	srai	x4,x21,0x8	 x21:0x04000001  x4=0x00040000
     2279702000	    113883	8000b60c	0213c9b3	div	x19,x7,x1	  x7:0x00000000  x1:0x00000000 x19=0xffffffff
     2279722000	    113884	8000b610	0008d913	srli	x18,x17,0x0	 x17:0x00000001 x18=0x00000001
     2280522000	    113924	8000b614	8d21	c.xor	x10,x8	 x10:0x00000001  x8:0x00000000 x10=0x00000001
     2281302000	    113963	8000b616	b8802d73	csrrs	x26,mhpmcounter8h,x0	  x0:0x00000000 x26=0x00000000
     2281342000	    113965	8000b61a	0ff0000f	fence	iorw,iorw	
     2281362000	    113966	8000b61e	0001	c.addi	x0,0	  x0:0x00000000  x0=0x00000000
     2281382000	    113967	8000b620	4074d033	sra	x0,x9,x7	  x9:0xe691c5f0  x7:0x00000000  x0=0x00000000
     2281422000	    113969	8000b624	fa9fea17	auipc	x20,0xfa9fe	 x20=0x7aa09624
     2281462000	    113971	8000b628	03f79763	bne	x15,x31,8000b656	 x15:0x00000000 x31:0x00000000
     2282622000	    114029	8000b62c	03f55ab3	divu	x21,x10,x31	 x10:0x00000001 x31:0x00000000 x21=0xffffffff
     2282662000	    114031	8000b630	02a9df63	bge	x19,x10,8000b66e	 x19:0xffffffff x10:0x00000001
     2282922000	    114044	8000b634	41c6d933	sra	x18,x13,x28	 x13:0xe691c5f0 x28:0xffffffff x18=0xffffffff
     2282942000	    114045	8000b638	8d79	c.and	x10,x14	 x10:0x00000001 x14:0x944d1588 x10=0x00000000
     2282962000	    114046	8000b63a	0000100f	fence.i	
     2283062000	    114051	8000b63e	977e	c.add	x14,x31	 x14:0x944d1588 x31:0x00000000 x14=0x944d1588
     2283122000	    114054	8000b640	00eec133	xor	x2,x29,x14	 x29:0xd03b5289 x14:0x944d1588  x2=0x44764701
     2283242000	    114060	8000b644	013816b3	sll	x13,x16,x19	 x16:0x0039155a x19:0xffffffff x13=0x00000000
     2283262000	    114061	8000b648	8f1d	c.sub	x14,x15	 x14:0x944d1588 x15:0x00000000 x14=0x944d1588
     2283442000	    114070	8000b64a	018e5e33	srl	x28,x28,x24	 x28:0xffffffff x24:0x00000000 x28=0xffffffff
     2284982000	    114147	8000b64e	0001	c.addi	x0,0	  x0:0x00000000  x0=0x00000000
     2285022000	    114149	8000b650	037434b3	mulhu	x9,x8,x23	  x8:0x00000000 x23:0x80021df8  x9=0x00000000
     2285782000	    114187	8000b654	0001	c.addi	x0,0	  x0:0x00000000  x0=0x00000000
     2285822000	    114189	8000b656	45c8b517	auipc	x10,0x45c8b	 x10=0xc5c96656
     2285862000	    114191	8000b65a	31006273	csrrsi	x4,0x310,0	  x4=0x00000000
     2285882000	    114192	8000b65e	00fbdb33	srl	x22,x23,x15	 x23:0x80021df8 x15:0x00000000 x22=0x80021df8
     2285922000	    114194	8000b662	a7a56393	ori	x7,x10,-1414	 x10:0xc5c96656  x7=0xfffffe7e
     2286082000	    114202	8000b666	000ddd93	srli	x27,x27,0x0	 x27:0x04000000 x27=0x04000000
     2286102000	    114203	8000b66a	3e72ac13	slti	x24,x5,999	  x5:0x80025ce4 x24=0x00000001
     2286122000	    114204	8000b66e	0001	c.addi	x0,0	  x0:0x00000000  x0=0x00000000
     2286282000	    114212	8000b670	34b3f593	andi	x11,x7,843	  x7:0xfffffe7e x11=0x0000024a
     2286302000	    114213	8000b674	00441813	slli	x16,x8,0x4	  x8:0x00000000 x16=0x00000000
     2286722000	    114234	8000b678	64b1	c.lui	x9,0xc	  x9=0x0000c000
     2286742000	    114235	8000b67a	3b102373	csrrs	x6,pmpaddr1,x0	  x0:0x00000000  x6=0x24445173
     2286762000	    114236	8000b67e	015f9733	sll	x14,x31,x21	 x31:0x00000000 x21:0xffffffff x14=0x00000000
     2286822000	    114239	8000b682	6ced	c.lui	x25,0x1b	 x25=0x0001b000
     2286862000	    114241	8000b684	030a3033	mulhu	x0,x20,x16	 x20:0x7aa09624 x16:0x00000000  x0=0x00000000
     2287682000	    114282	8000b688	02d2a633	mulhsu	x12,x5,x13	  x5:0x80025ce4 x13:0x00000000 x12=0x00000000
     2287742000	    114285	8000b68c	03918233	mul	x4,x3,x25	  x3:0x0f0f0f0f x25:0x0001b000  x4=0x69695000
     2287782000	    114287	8000b690	03631863	bne	x6,x22,8000b6c0	  x6:0x24445173 x22:0x80021df8
     2287922000	    114294	8000b6c0	7b2063f3	csrrsi	x0,dscratch,0	  x0=0x00000000
     2287982000	    114297	80002700	0800006f	jal	x0,80002780	  x0=0x00000000
     2288222000	    114309	80002780	12f1	c.addi	x5,-4	  x5:0x80025ce4  x5=0x80025ce0
     2288542000	    114325	80002782	0172a023	sw	x23,0(x5)	  x5:0x80025ce0 x23:0x80021df8 PA:0x80025ce0 store:0x80021df8 load:0xffffffff
     2289342000	    114365	80002786	00028bb3	add	x23,x5,x0	  x5:0x80025ce0  x0:0x00000000 x23=0x80025ce0
     2289362000	    114366	8000278a	f80b8b93	addi	x23,x23,-128	 x23:0x80025ce0 x23=0x80025c60
     2289422000	    114369	8000278e	001ba223	sw	x1,4(x23)	 x23:0x80025c60  x1:0x00000000 PA:0x80025c64 store:0x00000000 load:0xffffffff
     2289582000	    114377	80002792	002ba423	sw	x2,8(x23)	 x23:0x80025c60  x2:0x44764701 PA:0x80025c68 store:0x44764701 load:0xffffffff
     2289642000	    114380	80002796	003ba623	sw	x3,12(x23)	 x23:0x80025c60  x3:0x0f0f0f0f PA:0x80025c6c store:0x0f0f0f0f load:0xffffffff
     2289802000	    114388	8000279a	004ba823	sw	x4,16(x23)	 x23:0x80025c60  x4:0x69695000 PA:0x80025c70 store:0x69695000 load:0xffffffff
     2289962000	    114396	8000279e	005baa23	sw	x5,20(x23)	 x23:0x80025c60  x5:0x80025ce0 PA:0x80025c74 store:0x80025ce0 load:0xffffffff
     2290122000	    114404	800027a2	006bac23	sw	x6,24(x23)	 x23:0x80025c60  x6:0x24445173 PA:0x80025c78 store:0x24445173 load:0xffffffff
     2290142000	    114405	800027a6	007bae23	sw	x7,28(x23)	 x23:0x80025c60  x7:0xfffffe7e PA:0x80025c7c store:0xfffffe7e load:0xffffffff
     2290182000	    114407	800027aa	028ba023	sw	x8,32(x23)	 x23:0x80025c60  x8:0x00000000 PA:0x80025c80 store:0x00000000 load:0xffffffff
     2290222000	    114409	800027ae	029ba223	sw	x9,36(x23)	 x23:0x80025c60  x9:0x0000c000 PA:0x80025c84 store:0x0000c000 load:0xffffffff
     2290862000	    114441	800027b2	02aba423	sw	x10,40(x23)	 x23:0x80025c60 x10:0xc5c96656 PA:0x80025c88 store:0xc5c96656 load:0xffffffff
     2303102000	    115053	800027b6	02bba623	sw	x11,44(x23)	 x23:0x80025c60 x11:0x0000024a PA:0x80025c8c store:0x0000024a load:0xffffffff
     2303322000	    115064	800027ba	02cba823	sw	x12,48(x23)	 x23:0x80025c60 x12:0x00000000 PA:0x80025c90 store:0x00000000 load:0xffffffff
     2304122000	    115104	800027be	02dbaa23	sw	x13,52(x23)	 x23:0x80025c60 x13:0x00000000 PA:0x80025c94 store:0x00000000 load:0xffffffff
     2304142000	    115105	800027c2	02ebac23	sw	x14,56(x23)	 x23:0x80025c60 x14:0x00000000 PA:0x80025c98 store:0x00000000 load:0xffffffff
     2304302000	    115113	800027c6	02fbae23	sw	x15,60(x23)	 x23:0x80025c60 x15:0x00000000 PA:0x80025c9c store:0x00000000 load:0xffffffff
     2304742000	    115135	800027ca	050ba023	sw	x16,64(x23)	 x23:0x80025c60 x16:0x00000000 PA:0x80025ca0 store:0x00000000 load:0xffffffff
     2304802000	    115138	800027ce	051ba223	sw	x17,68(x23)	 x23:0x80025c60 x17:0x00000001 PA:0x80025ca4 store:0x00000001 load:0xffffffff
     2305622000	    115179	800027d2	052ba423	sw	x18,72(x23)	 x23:0x80025c60 x18:0xffffffff PA:0x80025ca8 store:0xffffffff load:0xffffffff
     2305822000	    115189	800027d6	053ba623	sw	x19,76(x23)	 x23:0x80025c60 x19:0xffffffff PA:0x80025cac store:0xffffffff load:0xffffffff
     2305882000	    115192	800027da	054ba823	sw	x20,80(x23)	 x23:0x80025c60 x20:0x7aa09624 PA:0x80025cb0 store:0x7aa09624 load:0xffffffff
     2305942000	    115195	800027de	055baa23	sw	x21,84(x23)	 x23:0x80025c60 x21:0xffffffff PA:0x80025cb4 store:0xffffffff load:0xffffffff
     2306162000	    115206	800027e2	056bac23	sw	x22,88(x23)	 x23:0x80025c60 x22:0x80021df8 PA:0x80025cb8 store:0x80021df8 load:0xffffffff
     2306222000	    115209	800027e6	057bae23	sw	x23,92(x23)	 x23:0x80025c60 x23:0x80025c60 PA:0x80025cbc store:0x80025c60 load:0xffffffff
     2306402000	    115218	800027ea	078ba023	sw	x24,96(x23)	 x23:0x80025c60 x24:0x00000001 PA:0x80025cc0 store:0x00000001 load:0xffffffff
     2306582000	    115227	800027ee	079ba223	sw	x25,100(x23)	 x23:0x80025c60 x25:0x0001b000 PA:0x80025cc4 store:0x0001b000 load:0xffffffff
     2306782000	    115237	800027f2	07aba423	sw	x26,104(x23)	 x23:0x80025c60 x26:0x00000000 PA:0x80025cc8 store:0x00000000 load:0xffffffff
     2306882000	    115242	800027f6	07bba623	sw	x27,108(x23)	 x23:0x80025c60 x27:0x04000000 PA:0x80025ccc store:0x04000000 load:0xffffffff
     2306902000	    115243	800027fa	07cba823	sw	x28,112(x23)	 x23:0x80025c60 x28:0xffffffff PA:0x80025cd0 store:0xffffffff load:0xffffffff
     2306942000	    115245	800027fe	07dbaa23	sw	x29,116(x23)	 x23:0x80025c60 x29:0xd03b5289 PA:0x80025cd4 store:0xd03b5289 load:0xffffffff
     2307162000	    115256	80002802	07ebac23	sw	x30,120(x23)	 x23:0x80025c60 x30:0x26af2000 PA:0x80025cd8 store:0x26af2000 load:0xffffffff
     2307342000	    115265	80002806	07fbae23	sw	x31,124(x23)	 x23:0x80025c60 x31:0x00000000 PA:0x80025cdc store:0x00000000 load:0xffffffff
     2307382000	    115267	8000280a	000b82b3	add	x5,x23,x0	 x23:0x80025c60  x0:0x00000000  x5=0x80025c60
     2308162000	    115306	8000280e	90000c37	lui	x24,0x90000	 x24=0x90000000
     2308202000	    115308	80002812	1c71	c.addi	x24,-4	 x24:0x90000000 x24=0x8ffffffc
     2308222000	    115309	80002814	4f21	c.li	x30,8	 x30=0x00000008
     2308262000	    115311	80002816	0f22	c.slli	x30,0x8	 x30:0x00000008 x30=0x00000800
     2308282000	    115312	80002818	000f0f13	addi	x30,x30,0	 x30:0x00000800 x30=0x00000800
     2308342000	    115315	8000281c	01ec2023	sw	x30,0(x24)	 x24:0x8ffffffc x30:0x00000800 PA:0x8ffffffc store:0x00000800 load:0xffffffff
     2308402000	    115318	80002820	34102f73	csrrs	x30,mepc,x0	  x0:0x00000000 x30=0x8000b6c0
     2308422000	    115319	80002824	34202f73	csrrs	x30,mcause,x0	  x0:0x00000000 x30=0x00000002
     2308442000	    115320	80002828	4c0d	c.li	x24,3	 x24=0x00000003
     2308582000	    115327	8000282a	018f1463	bne	x30,x24,80002832	 x30:0x00000002 x24:0x00000003
     2309242000	    115360	80002832	4c21	c.li	x24,8	 x24=0x00000008
     2309382000	    115367	80002834	058f0d63	beq	x30,x24,8000288e	 x30:0x00000002 x24:0x00000008
     2310122000	    115404	80002838	4c25	c.li	x24,9	 x24=0x00000009
     2310402000	    115418	8000283a	058f0a63	beq	x30,x24,8000288e	 x30:0x00000002 x24:0x00000009
     2310482000	    115422	8000283e	4c2d	c.li	x24,11	 x24=0x0000000b
     2310522000	    115424	80002840	058f0763	beq	x30,x24,8000288e	 x30:0x00000002 x24:0x0000000b
     2311022000	    115449	80002844	4c05	c.li	x24,1	 x24=0x00000001
     2311082000	    115452	80002846	358f0363	beq	x30,x24,80002b8c	 x30:0x00000002 x24:0x00000001
     2312362000	    115516	8000284a	4c15	c.li	x24,5	 x24=0x00000005
     2312482000	    115522	8000284c	638f0a63	beq	x30,x24,80002e80	 x30:0x00000002 x24:0x00000005
     2313162000	    115556	80002850	4c1d	c.li	x24,7	 x24=0x00000007
     2313602000	    115578	80002852	158f0ce3	beq	x30,x24,800031aa	 x30:0x00000002 x24:0x00000007
     2314342000	    115615	80002856	4c31	c.li	x24,12	 x24=0x0000000c
     2314382000	    115617	80002858	018f1463	bne	x30,x24,80002860	 x30:0x00000002 x24:0x0000000c
     2315322000	    115664	80002860	4c35	c.li	x24,13	 x24=0x0000000d
     2315762000	    115686	80002862	018f1463	bne	x30,x24,8000286a	 x30:0x00000002 x24:0x0000000d
     2316062000	    115701	8000286a	4c3d	c.li	x24,15	 x24=0x0000000f
     2316502000	    115723	8000286c	018f1463	bne	x30,x24,80002874	 x30:0x00000002 x24:0x0000000f
     2317262000	    115761	80002874	4c09	c.li	x24,2	 x24=0x00000002
     2317322000	    115764	80002876	018f1463	bne	x30,x24,8000287e	 x30:0x00000002 x24:0x00000002
     2317942000	    115795	8000287a	3740906f	jal	x0,8000bbee	  x0=0x00000000
     2318402000	    115818	8000bbee	90000c37	lui	x24,0x90000	 x24=0x90000000
     2318442000	    115820	8000bbf2	1c71	c.addi	x24,-4	 x24:0x90000000 x24=0x8ffffffc
     2318462000	    115821	8000bbf4	4f29	c.li	x30,10	 x30=0x0000000a
     2318502000	    115823	8000bbf6	0f22	c.slli	x30,0x8	 x30:0x0000000a x30=0x00000a00
     2318582000	    115827	8000bbf8	000f0f13	addi	x30,x30,0	 x30:0x00000a00 x30=0x00000a00
     2318642000	    115830	8000bbfc	01ec2023	sw	x30,0(x24)	 x24:0x8ffffffc x30:0x00000a00 PA:0x8ffffffc store:0x00000a00 load:0xffffffff
     2318682000	    115832	8000bc00	90000c37	lui	x24,0x90000	 x24=0x90000000
     2318842000	    115840	8000bc04	1c71	c.addi	x24,-4	 x24:0x90000000 x24=0x8ffffffc
     2318862000	    115841	8000bc06	34200f13	addi	x30,x0,834	  x0:0x00000000 x30=0x00000342
     2318902000	    115843	8000bc0a	0f22	c.slli	x30,0x8	 x30:0x00000342 x30=0x00034200
     2318942000	    115845	8000bc0c	0f0d	c.addi	x30,3	 x30:0x00034200 x30=0x00034203
     2319282000	    115862	8000bc0e	01ec2023	sw	x30,0(x24)	 x24:0x8ffffffc x30:0x00034203 PA:0x8ffffffc store:0x00034203 load:0xffffffff
     2319322000	    115864	8000bc12	34202f73	csrrs	x30,mcause,x0	  x0:0x00000000 x30=0x00000002
     2319782000	    115887	8000bc16	01ec2023	sw	x30,0(x24)	 x24:0x8ffffffc x30:0x00000002 PA:0x8ffffffc store:0x00000002 load:0xffffffff
     2320542000	    115925	8000bc1a	34102f73	csrrs	x30,mepc,x0	  x0:0x00000000 x30=0x8000b6c0
     2320622000	    115929	8000bc1e	0f11	c.addi	x30,4	 x30:0x8000b6c0 x30=0x8000b6c4
     2320662000	    115931	8000bc20	341f1073	csrrw	x0,mepc,x30	 x30:0x8000b6c4  x0=0x00000000
     2320682000	    115932	8000bc24	00028bb3	add	x23,x5,x0	  x5:0x80025c60  x0:0x00000000 x23=0x80025c60
     2320882000	    115942	8000bc28	004ba083	lw	x1,4(x23)	 x23:0x80025c60  x1=0x00000000 PA:0x80025c64 load:0x00000000
     2321922000	    115994	8000bc2c	008ba103	lw	x2,8(x23)	 x23:0x80025c60  x2=0x44764701 PA:0x80025c68 load:0x44764701
     2322222000	    116009	8000bc30	00cba183	lw	x3,12(x23)	 x23:0x80025c60  x3=0x0f0f0f0f PA:0x80025c6c load:0x0f0f0f0f
     2322622000	    116029	8000bc34	010ba203	lw	x4,16(x23)	 x23:0x80025c60  x4=0x69695000 PA:0x80025c70 load:0x69695000
     2323042000	    116050	8000bc38	014ba283	lw	x5,20(x23)	 x23:0x80025c60  x5=0x80025ce0 PA:0x80025c74 load:0x80025ce0
     2323242000	    116060	8000bc3c	018ba303	lw	x6,24(x23)	 x23:0x80025c60  x6=0x24445173 PA:0x80025c78 load:0x24445173
     2324082000	    116102	8000bc40	01cba383	lw	x7,28(x23)	 x23:0x80025c60  x7=0xfffffe7e PA:0x80025c7c load:0xfffffe7e
     2324282000	    116112	8000bc44	020ba403	lw	x8,32(x23)	 x23:0x80025c60  x8=0x00000000 PA:0x80025c80 load:0x00000000
     2324342000	    116115	8000bc48	024ba483	lw	x9,36(x23)	 x23:0x80025c60  x9=0x0000c000 PA:0x80025c84 load:0x0000c000
     2325162000	    116156	8000bc4c	028ba503	lw	x10,40(x23)	 x23:0x80025c60 x10=0xc5c96656 PA:0x80025c88 load:0xc5c96656
     2325182000	    116157	8000bc50	02cba583	lw	x11,44(x23)	 x23:0x80025c60 x11=0x0000024a PA:0x80025c8c load:0x0000024a
     2325262000	    116161	8000bc54	030ba603	lw	x12,48(x23)	 x23:0x80025c60 x12=0x00000000 PA:0x80025c90 load:0x00000000
     2331382000	    116467	8000bc58	034ba683	lw	x13,52(x23)	 x23:0x80025c60 x13=0x00000000 PA:0x80025c94 load:0x00000000
     2331802000	    116488	8000bc5c	038ba703	lw	x14,56(x23)	 x23:0x80025c60 x14=0x00000000 PA:0x80025c98 load:0x00000000
     2332722000	    116534	8000bc60	03cba783	lw	x15,60(x23)	 x23:0x80025c60 x15=0x00000000 PA:0x80025c9c load:0x00000000
     2333062000	    116551	8000bc64	040ba803	lw	x16,64(x23)	 x23:0x80025c60 x16=0x00000000 PA:0x80025ca0 load:0x00000000
     2333162000	    116556	8000bc68	044ba883	lw	x17,68(x23)	 x23:0x80025c60 x17=0x00000001 PA:0x80025ca4 load:0x00000001
     2334002000	    116598	8000bc6c	048ba903	lw	x18,72(x23)	 x23:0x80025c60 x18=0xffffffff PA:0x80025ca8 load:0xffffffff
     2334462000	    116621	8000bc70	04cba983	lw	x19,76(x23)	 x23:0x80025c60 x19=0xffffffff PA:0x80025cac load:0xffffffff
     2334522000	    116624	8000bc74	050baa03	lw	x20,80(x23)	 x23:0x80025c60 x20=0x7aa09624 PA:0x80025cb0 load:0x7aa09624
     2334722000	    116634	8000bc78	054baa83	lw	x21,84(x23)	 x23:0x80025c60 x21=0xffffffff PA:0x80025cb4 load:0xffffffff
     2334782000	    116637	8000bc7c	058bab03	lw	x22,88(x23)	 x23:0x80025c60 x22=0x80021df8 PA:0x80025cb8 load:0x80021df8
     2334882000	    116642	8000bc80	05cbab83	lw	x23,92(x23)	 x23:0x80025c60 x23=0x80025c60 PA:0x80025cbc load:0x80025c60
     2335142000	    116655	8000bc84	060bac03	lw	x24,96(x23)	 x23:0x80025c60 x24=0x00000001 PA:0x80025cc0 load:0x00000001
     2335302000	    116663	8000bc88	064bac83	lw	x25,100(x23)	 x23:0x80025c60 x25=0x0001b000 PA:0x80025cc4 load:0x0001b000
     2335422000	    116669	8000bc8c	068bad03	lw	x26,104(x23)	 x23:0x80025c60 x26=0x00000000 PA:0x80025cc8 load:0x00000000
     2335702000	    116683	8000bc90	06cbad83	lw	x27,108(x23)	 x23:0x80025c60 x27=0x04000000 PA:0x80025ccc load:0x04000000
     2335762000	    116686	8000bc94	070bae03	lw	x28,112(x23)	 x23:0x80025c60 x28=0xffffffff PA:0x80025cd0 load:0xffffffff
     2336102000	    116703	8000bc98	074bae83	lw	x29,116(x23)	 x23:0x80025c60 x29=0xd03b5289 PA:0x80025cd4 load:0xd03b5289
     2336182000	    116707	8000bc9c	078baf03	lw	x30,120(x23)	 x23:0x80025c60 x30=0x26af2000 PA:0x80025cd8 load:0x26af2000
     2336202000	    116708	8000bca0	07cbaf83	lw	x31,124(x23)	 x23:0x80025c60 x31=0x00000000 PA:0x80025cdc load:0x00000000
     2336522000	    116724	8000bca4	080b8b93	addi	x23,x23,128	 x23:0x80025c60 x23=0x80025ce0
     2336562000	    116726	8000bca8	000b82b3	add	x5,x23,x0	 x23:0x80025ce0  x0:0x00000000  x5=0x80025ce0
     2336722000	    116734	8000bcac	0002ab83	lw	x23,0(x5)	  x5:0x80025ce0 x23=0x80021df8 PA:0x80025ce0 load:0x80021df8
     2336742000	    116735	8000bcb0	0291	c.addi	x5,4	  x5:0x80025ce0  x5=0x80025ce4
     2337522000	    116774	8000bcb2	30200073	mret	
     2338002000	    116798	8000b6c4	03ecbe33	mulhu	x28,x25,x30	 x25:0x0001b000 x30:0x26af2000 x28=0x00004147
     2338402000	    116818	8000b6c8	32b03673	csrrc	x12,mhpmevent11,x0	  x0:0x00000000 x12=0x00000100
     2338422000	    116819	8000b6cc	0ff0000f	fence	iorw,iorw	
     2338862000	    116841	8000b6d0	02aa9a63	bne	x21,x10,8000b704	 x21:0xffffffff x10:0xc5c96656
     2339342000	    116865	8000b704	016f0333	add	x6,x30,x22	 x30:0x26af2000 x22:0x80021df8  x6=0xa6b13df8
     2339362000	    116866	8000b708	01b6f4b3	and	x9,x13,x27	 x13:0x00000000 x27:0x04000000  x9=0x00000000
     2339662000	    116881	8000b70c	6d69	c.lui	x26,0x1a	 x26=0x0001a000
     2339702000	    116883	8000b70e	35156f93	ori	x31,x10,849	 x10:0xc5c96656 x31=0xc5c96757
     2339762000	    116886	8000b712	833ad5b7	lui	x11,0x833ad	 x11=0x833ad000
     2339822000	    116889	8000b716	8f61	c.and	x14,x8	 x14:0x00000000  x8:0x00000000 x14=0x00000000
     2340622000	    116929	8000b718	035bf4b3	remu	x9,x23,x21	 x23:0x80021df8 x21:0xffffffff  x9=0x80021df8
     2340662000	    116931	8000b71c	c7352e13	slti	x28,x10,-909	 x10:0xc5c96656 x28=0x00000001
     2340682000	    116932	8000b720	01494d33	xor	x26,x18,x20	 x18:0xffffffff x20:0x7aa09624 x26=0x855f69db
     2341462000	    116971	8000b724	00341333	sll	x6,x8,x3	  x8:0x00000000  x3:0x0f0f0f0f  x6=0x00000000
     2342242000	    117010	8000b728	00433d33	sltu	x26,x6,x4	  x6:0x00000000  x4:0x69695000 x26=0x00000001
     2342262000	    117011	8000b72c	02ad0433	mul	x8,x26,x10	 x26:0x00000001 x10:0xc5c96656  x8=0xc5c96656
     2342282000	    117012	8000b730	0016da33	srl	x20,x13,x1	 x13:0x00000000  x1:0x00000000 x20=0x00000000
     2342342000	    117015	8000b734	03192233	mulhsu	x4,x18,x17	 x18:0xffffffff x17:0x00000001  x4=0xffffffff
     2342362000	    117016	8000b738	8952	c.mv	x18,x20	  x0:0x00000000 x20:0x00000000 x18=0x00000000
     2342382000	    117017	8000b73a	66b9	c.lui	x13,0xe	 x13=0x0000e000
     2343182000	    117057	8000b73c	00021c93	slli	x25,x4,0x0	  x4:0xffffffff x25=0xffffffff
     2343202000	    117058	8000b740	9e8eae37	lui	x28,0x9e8ea	 x28=0x9e8ea000
     2343222000	    117059	8000b744	4181d313	srai	x6,x3,0x18	  x3:0x0f0f0f0f  x6=0x0000000f
     2343282000	    117062	8000b748	03f42097	auipc	x1,0x3f42	  x1=0x83f4d748
     2343302000	    117063	8000b74c	0762	c.slli	x14,0x18	 x14:0x00000000 x14=0x00000000
     2343482000	    117072	8000b74e	000da533	slt	x10,x27,x0	 x27:0x04000000  x0:0x00000000 x10=0x00000000
     2343502000	    117073	8000b752	00975233	srl	x4,x14,x9	 x14:0x00000000  x9:0x80021df8  x4=0x00000000
     2343522000	    117074	8000b756	0000100f	fence.i	
     2343722000	    117084	8000b75a	02451363	bne	x10,x4,8000b780	 x10:0x00000000  x4:0x00000000
     2343962000	    117096	8000b75e	85c5	c.srai	x11,0x11	 x11:0x833ad000 x11=0xffffc19d
     2344402000	    117118	8000b760	00c29e63	bne	x5,x12,8000b77c	  x5:0x80025ce4 x12:0x00000100
     2344682000	    117132	8000b77c	f5637b13	andi	x22,x6,-170	  x6:0x0000000f x22=0x00000006
     2344742000	    117135	8000b780	850e	c.mv	x10,x3	  x0:0x00000000  x3:0x0f0f0f0f x10=0x0f0f0f0f
     2344762000	    117136	8000b782	01ded233	srl	x4,x29,x29	 x29:0xd03b5289 x29:0xd03b5289  x4=0x00681da9
     2344842000	    117140	8000b786	01029863	bne	x5,x16,8000b796	  x5:0x80025ce4 x16:0x00000000
     2345962000	    117196	8000b796	03aa59b3	divu	x19,x20,x26	 x20:0x00000000 x26:0x00000001 x19=0x00000000
     2346002000	    117198	8000b79a	0001	c.addi	x0,0	  x0:0x00000000  x0=0x00000000
     2346022000	    117199	8000b79c	f15e5c73	csrrwi	x0,0xf15,28	  x0=0x00000000
     2346122000	    117204	80002700	0800006f	jal	x0,80002780	  x0=0x00000000
     2346162000	    117206	80002780	12f1	c.addi	x5,-4	  x5:0x80025ce4  x5=0x80025ce0
     2346222000	    117209	80002782	0172a023	sw	x23,0(x5)	  x5:0x80025ce0 x23:0x80021df8 PA:0x80025ce0 store:0x80021df8 load:0xffffffff
     2346242000	    117210	80002786	00028bb3	add	x23,x5,x0	  x5:0x80025ce0  x0:0x00000000 x23=0x80025ce0
     2346282000	    117212	8000278a	f80b8b93	addi	x23,x23,-128	 x23:0x80025ce0 x23=0x80025c60
     2346342000	    117215	8000278e	001ba223	sw	x1,4(x23)	 x23:0x80025c60  x1:0x83f4d748 PA:0x80025c64 store:0x83f4d748 load:0xffffffff
     2346922000	    117244	80002792	002ba423	sw	x2,8(x23)	 x23:0x80025c60  x2:0x44764701 PA:0x80025c68 store:0x44764701 load:0xffffffff
     2346962000	    117246	80002796	003ba623	sw	x3,12(x23)	 x23:0x80025c60  x3:0x0f0f0f0f PA:0x80025c6c store:0x0f0f0f0f load:0xffffffff
     2346982000	    117247	8000279a	004ba823	sw	x4,16(x23)	 x23:0x80025c60  x4:0x00681da9 PA:0x80025c70 store:0x00681da9 load:0xffffffff
     2347002000	    117248	8000279e	005baa23	sw	x5,20(x23)	 x23:0x80025c60  x5:0x80025ce0 PA:0x80025c74 store:0x80025ce0 load:0xffffffff
     2347142000	    117255	800027a2	006bac23	sw	x6,24(x23)	 x23:0x80025c60  x6:0x0000000f PA:0x80025c78 store:0x0000000f load:0xffffffff
     2347202000	    117258	800027a6	007bae23	sw	x7,28(x23)	 x23:0x80025c60  x7:0xfffffe7e PA:0x80025c7c store:0xfffffe7e load:0xffffffff
     2348542000	    117325	800027aa	028ba023	sw	x8,32(x23)	 x23:0x80025c60  x8:0xc5c96656 PA:0x80025c80 store:0xc5c96656 load:0xffffffff
     2349542000	    117375	800027ae	029ba223	sw	x9,36(x23)	 x23:0x80025c60  x9:0x80021df8 PA:0x80025c84 store:0x80021df8 load:0xffffffff
     2349622000	    117379	800027b2	02aba423	sw	x10,40(x23)	 x23:0x80025c60 x10:0x0f0f0f0f PA:0x80025c88 store:0x0f0f0f0f load:0xffffffff
     2349762000	    117386	800027b6	02bba623	sw	x11,44(x23)	 x23:0x80025c60 x11:0xffffc19d PA:0x80025c8c store:0xffffc19d load:0xffffffff
     2349982000	    117397	800027ba	02cba823	sw	x12,48(x23)	 x23:0x80025c60 x12:0x00000100 PA:0x80025c90 store:0x00000100 load:0xffffffff
     2350142000	    117405	800027be	02dbaa23	sw	x13,52(x23)	 x23:0x80025c60 x13:0x0000e000 PA:0x80025c94 store:0x0000e000 load:0xffffffff
     2350242000	    117410	800027c2	02ebac23	sw	x14,56(x23)	 x23:0x80025c60 x14:0x00000000 PA:0x80025c98 store:0x00000000 load:0xffffffff
     2350302000	    117413	800027c6	02fbae23	sw	x15,60(x23)	 x23:0x80025c60 x15:0x00000000 PA:0x80025c9c store:0x00000000 load:0xffffffff
     2350862000	    117441	800027ca	050ba023	sw	x16,64(x23)	 x23:0x80025c60 x16:0x00000000 PA:0x80025ca0 store:0x00000000 load:0xffffffff
     2351662000	    117481	800027ce	051ba223	sw	x17,68(x23)	 x23:0x80025c60 x17:0x00000001 PA:0x80025ca4 store:0x00000001 load:0xffffffff
     2351702000	    117483	800027d2	052ba423	sw	x18,72(x23)	 x23:0x80025c60 x18:0x00000000 PA:0x80025ca8 store:0x00000000 load:0xffffffff
     2354022000	    117599	800027d6	053ba623	sw	x19,76(x23)	 x23:0x80025c60 x19:0x00000000 PA:0x80025cac store:0x00000000 load:0xffffffff
     2354342000	    117615	800027da	054ba823	sw	x20,80(x23)	 x23:0x80025c60 x20:0x00000000 PA:0x80025cb0 store:0x00000000 load:0xffffffff
     2354422000	    117619	800027de	055baa23	sw	x21,84(x23)	 x23:0x80025c60 x21:0xffffffff PA:0x80025cb4 store:0xffffffff load:0xffffffff
     2355242000	    117660	800027e2	056bac23	sw	x22,88(x23)	 x23:0x80025c60 x22:0x00000006 PA:0x80025cb8 store:0x00000006 load:0xffffffff
     2355422000	    117669	800027e6	057bae23	sw	x23,92(x23)	 x23:0x80025c60 x23:0x80025c60 PA:0x80025cbc store:0x80025c60 load:0xffffffff
     2355582000	    117677	800027ea	078ba023	sw	x24,96(x23)	 x23:0x80025c60 x24:0x00000001 PA:0x80025cc0 store:0x00000001 load:0xffffffff
     2355602000	    117678	800027ee	079ba223	sw	x25,100(x23)	 x23:0x80025c60 x25:0xffffffff PA:0x80025cc4 store:0xffffffff load:0xffffffff
     2355742000	    117685	800027f2	07aba423	sw	x26,104(x23)	 x23:0x80025c60 x26:0x00000001 PA:0x80025cc8 store:0x00000001 load:0xffffffff
     2355882000	    117692	800027f6	07bba623	sw	x27,108(x23)	 x23:0x80025c60 x27:0x04000000 PA:0x80025ccc store:0x04000000 load:0xffffffff
     2355942000	    117695	800027fa	07cba823	sw	x28,112(x23)	 x23:0x80025c60 x28:0x9e8ea000 PA:0x80025cd0 store:0x9e8ea000 load:0xffffffff
     2356382000	    117717	800027fe	07dbaa23	sw	x29,116(x23)	 x23:0x80025c60 x29:0xd03b5289 PA:0x80025cd4 store:0xd03b5289 load:0xffffffff
     2356442000	    117720	80002802	07ebac23	sw	x30,120(x23)	 x23:0x80025c60 x30:0x26af2000 PA:0x80025cd8 store:0x26af2000 load:0xffffffff
     2356802000	    117738	80002806	07fbae23	sw	x31,124(x23)	 x23:0x80025c60 x31:0xc5c96757 PA:0x80025cdc store:0xc5c96757 load:0xffffffff
     2356842000	    117740	8000280a	000b82b3	add	x5,x23,x0	 x23:0x80025c60  x0:0x00000000  x5=0x80025c60
     2356862000	    117741	8000280e	90000c37	lui	x24,0x90000	 x24=0x90000000
     2356882000	    117742	80002812	1c71	c.addi	x24,-4	 x24:0x90000000 x24=0x8ffffffc
     2357642000	    117780	80002814	4f21	c.li	x30,8	 x30=0x00000008
     2359202000	    117858	80002816	0f22	c.slli	x30,0x8	 x30:0x00000008 x30=0x00000800
     2359222000	    117859	80002818	000f0f13	addi	x30,x30,0	 x30:0x00000800 x30=0x00000800
     2359322000	    117864	8000281c	01ec2023	sw	x30,0(x24)	 x24:0x8ffffffc x30:0x00000800 PA:0x8ffffffc store:0x00000800 load:0xffffffff
     2359362000	    117866	80002820	34102f73	csrrs	x30,mepc,x0	  x0:0x00000000 x30=0x8000b79c
     2359402000	    117868	80002824	34202f73	csrrs	x30,mcause,x0	  x0:0x00000000 x30=0x00000002
     2359502000	    117873	80002828	4c0d	c.li	x24,3	 x24=0x00000003
     2359542000	    117875	8000282a	018f1463	bne	x30,x24,80002832	 x30:0x00000002 x24:0x00000003
     2359862000	    117891	80002832	4c21	c.li	x24,8	 x24=0x00000008
     2359922000	    117894	80002834	058f0d63	beq	x30,x24,8000288e	 x30:0x00000002 x24:0x00000008
     2372602000	    118528	80002838	4c25	c.li	x24,9	 x24=0x00000009
     2372642000	    118530	8000283a	058f0a63	beq	x30,x24,8000288e	 x30:0x00000002 x24:0x00000009
     2372842000	    118540	8000283e	4c2d	c.li	x24,11	 x24=0x0000000b
     2372882000	    118542	80002840	058f0763	beq	x30,x24,8000288e	 x30:0x00000002 x24:0x0000000b
     2373562000	    118576	80002844	4c05	c.li	x24,1	 x24=0x00000001
     2373702000	    118583	80002846	358f0363	beq	x30,x24,80002b8c	 x30:0x00000002 x24:0x00000001
     2374062000	    118601	8000284a	4c15	c.li	x24,5	 x24=0x00000005
     2374122000	    118604	8000284c	638f0a63	beq	x30,x24,80002e80	 x30:0x00000002 x24:0x00000005
     2374522000	    118624	80002850	4c1d	c.li	x24,7	 x24=0x00000007
     2374702000	    118633	80002852	158f0ce3	beq	x30,x24,800031aa	 x30:0x00000002 x24:0x00000007
     2375162000	    118656	80002856	4c31	c.li	x24,12	 x24=0x0000000c
     2375222000	    118659	80002858	018f1463	bne	x30,x24,80002860	 x30:0x00000002 x24:0x0000000c
     2376482000	    118722	80002860	4c35	c.li	x24,13	 x24=0x0000000d
     2376522000	    118724	80002862	018f1463	bne	x30,x24,8000286a	 x30:0x00000002 x24:0x0000000d
     2377102000	    118753	8000286a	4c3d	c.li	x24,15	 x24=0x0000000f
     2377902000	    118793	8000286c	018f1463	bne	x30,x24,80002874	 x30:0x00000002 x24:0x0000000f
     2378382000	    118817	80002874	4c09	c.li	x24,2	 x24=0x00000002
     2378502000	    118823	80002876	018f1463	bne	x30,x24,8000287e	 x30:0x00000002 x24:0x00000002
     2379662000	    118881	8000287a	3740906f	jal	x0,8000bbee	  x0=0x00000000
     2380642000	    118930	8000bbee	90000c37	lui	x24,0x90000	 x24=0x90000000
     2380662000	    118931	8000bbf2	1c71	c.addi	x24,-4	 x24:0x90000000 x24=0x8ffffffc
     2380782000	    118937	8000bbf4	4f29	c.li	x30,10	 x30=0x0000000a
     2380802000	    118938	8000bbf6	0f22	c.slli	x30,0x8	 x30:0x0000000a x30=0x00000a00
     2381202000	    118958	8000bbf8	000f0f13	addi	x30,x30,0	 x30:0x00000a00 x30=0x00000a00
     2381342000	    118965	8000bbfc	01ec2023	sw	x30,0(x24)	 x24:0x8ffffffc x30:0x00000a00 PA:0x8ffffffc store:0x00000a00 load:0xffffffff
     2381402000	    118968	8000bc00	90000c37	lui	x24,0x90000	 x24=0x90000000
     2381422000	    118969	8000bc04	1c71	c.addi	x24,-4	 x24:0x90000000 x24=0x8ffffffc
     2381602000	    118978	8000bc06	34200f13	addi	x30,x0,834	  x0:0x00000000 x30=0x00000342
     2381642000	    118980	8000bc0a	0f22	c.slli	x30,0x8	 x30:0x00000342 x30=0x00034200
     2382422000	    119019	8000bc0c	0f0d	c.addi	x30,3	 x30:0x00034200 x30=0x00034203
     2385102000	    119153	8000bc0e	01ec2023	sw	x30,0(x24)	 x24:0x8ffffffc x30:0x00034203 PA:0x8ffffffc store:0x00034203 load:0xffffffff
     2385122000	    119154	8000bc12	34202f73	csrrs	x30,mcause,x0	  x0:0x00000000 x30=0x00000002
     2385622000	    119179	8000bc16	01ec2023	sw	x30,0(x24)	 x24:0x8ffffffc x30:0x00000002 PA:0x8ffffffc store:0x00000002 load:0xffffffff
     2385642000	    119180	8000bc1a	34102f73	csrrs	x30,mepc,x0	  x0:0x00000000 x30=0x8000b79c
     2385702000	    119183	8000bc1e	0f11	c.addi	x30,4	 x30:0x8000b79c x30=0x8000b7a0
     2385762000	    119186	8000bc20	341f1073	csrrw	x0,mepc,x30	 x30:0x8000b7a0  x0=0x00000000
     2385782000	    119187	8000bc24	00028bb3	add	x23,x5,x0	  x5:0x80025c60  x0:0x00000000 x23=0x80025c60
     2386162000	    119206	8000bc28	004ba083	lw	x1,4(x23)	 x23:0x80025c60  x1=0x83f4d748 PA:0x80025c64 load:0x83f4d748
     2386482000	    119222	8000bc2c	008ba103	lw	x2,8(x23)	 x23:0x80025c60  x2=0x44764701 PA:0x80025c68 load:0x44764701
     2386542000	    119225	8000bc30	00cba183	lw	x3,12(x23)	 x23:0x80025c60  x3=0x0f0f0f0f PA:0x80025c6c load:0x0f0f0f0f
     2386822000	    119239	8000bc34	010ba203	lw	x4,16(x23)	 x23:0x80025c60  x4=0x00681da9 PA:0x80025c70 load:0x00681da9
     2386942000	    119245	8000bc38	014ba283	lw	x5,20(x23)	 x23:0x80025c60  x5=0x80025ce0 PA:0x80025c74 load:0x80025ce0
     2387002000	    119248	8000bc3c	018ba303	lw	x6,24(x23)	 x23:0x80025c60  x6=0x0000000f PA:0x80025c78 load:0x0000000f
     2387102000	    119253	8000bc40	01cba383	lw	x7,28(x23)	 x23:0x80025c60  x7=0xfffffe7e PA:0x80025c7c load:0xfffffe7e
     2387942000	    119295	8000bc44	020ba403	lw	x8,32(x23)	 x23:0x80025c60  x8=0xc5c96656 PA:0x80025c80 load:0xc5c96656
     2387962000	    119296	8000bc48	024ba483	lw	x9,36(x23)	 x23:0x80025c60  x9=0x80021df8 PA:0x80025c84 load:0x80021df8
     2388182000	    119307	8000bc4c	028ba503	lw	x10,40(x23)	 x23:0x80025c60 x10=0x0f0f0f0f PA:0x80025c88 load:0x0f0f0f0f
     2388202000	    119308	8000bc50	02cba583	lw	x11,44(x23)	 x23:0x80025c60 x11=0xffffc19d PA:0x80025c8c load:0xffffc19d
     2389082000	    119352	8000bc54	030ba603	lw	x12,48(x23)	 x23:0x80025c60 x12=0x00000100 PA:0x80025c90 load:0x00000100
     2389242000	    119360	8000bc58	034ba683	lw	x13,52(x23)	 x23:0x80025c60 x13=0x0000e000 PA:0x80025c94 load:0x0000e000
     2389902000	    119393	8000bc5c	038ba703	lw	x14,56(x23)	 x23:0x80025c60 x14=0x00000000 PA:0x80025c98 load:0x00000000
     2390642000	    119430	8000bc60	03cba783	lw	x15,60(x23)	 x23:0x80025c60 x15=0x00000000 PA:0x80025c9c load:0x00000000
     2391082000	    119452	8000bc64	040ba803	lw	x16,64(x23)	 x23:0x80025c60 x16=0x00000000 PA:0x80025ca0 load:0x00000000
     2391882000	    119492	8000bc68	044ba883	lw	x17,68(x23)	 x23:0x80025c60 x17=0x00000001 PA:0x80025ca4 load:0x00000001
     2392042000	    119500	8000bc6c	048ba903	lw	x18,72(x23)	 x23:0x80025c60 x18=0x00000000 PA:0x80025ca8 load:0x00000000
     2392982000	    119547	8000bc70	04cba983	lw	x19,76(x23)	 x23:0x80025c60 x19=0x00000000 PA:0x80025cac load:0x00000000
     2393202000	    119558	8000bc74	050baa03	lw	x20,80(x23)	 x23:0x80025c60 x20=0x00000000 PA:0x80025cb0 load:0x00000000
     2393282000	    119562	8000bc78	054baa83	lw	x21,84(x23)	 x23:0x80025c60 x21=0xffffffff PA:0x80025cb4 load:0xffffffff
     2394282000	    119612	8000bc7c	058bab03	lw	x22,88(x23)	 x23:0x80025c60 x22=0x00000006 PA:0x80025cb8 load:0x00000006
     2394302000	    119613	8000bc80	05cbab83	lw	x23,92(x23)	 x23:0x80025c60 x23=0x80025c60 PA:0x80025cbc load:0x80025c60
     2394582000	    119627	8000bc84	060bac03	lw	x24,96(x23)	 x23:0x80025c60 x24=0x00000001 PA:0x80025cc0 load:0x00000001
     2395402000	    119668	8000bc88	064bac83	lw	x25,100(x23)	 x23:0x80025c60 x25=0xffffffff PA:0x80025cc4 load:0xffffffff
     2395542000	    119675	8000bc8c	068bad03	lw	x26,104(x23)	 x23:0x80025c60 x26=0x00000001 PA:0x80025cc8 load:0x00000001
     2395762000	    119686	8000bc90	06cbad83	lw	x27,108(x23)	 x23:0x80025c60 x27=0x04000000 PA:0x80025ccc load:0x04000000
     2396222000	    119709	8000bc94	070bae03	lw	x28,112(x23)	 x23:0x80025c60 x28=0x9e8ea000 PA:0x80025cd0 load:0x9e8ea000
     2396362000	    119716	8000bc98	074bae83	lw	x29,116(x23)	 x23:0x80025c60 x29=0xd03b5289 PA:0x80025cd4 load:0xd03b5289
     2396662000	    119731	8000bc9c	078baf03	lw	x30,120(x23)	 x23:0x80025c60 x30=0x26af2000 PA:0x80025cd8 load:0x26af2000
     2397482000	    119772	8000bca0	07cbaf83	lw	x31,124(x23)	 x23:0x80025c60 x31=0xc5c96757 PA:0x80025cdc load:0xc5c96757
     2397502000	    119773	8000bca4	080b8b93	addi	x23,x23,128	 x23:0x80025c60 x23=0x80025ce0
     2397522000	    119774	8000bca8	000b82b3	add	x5,x23,x0	 x23:0x80025ce0  x0:0x00000000  x5=0x80025ce0
     2397622000	    119779	8000bcac	0002ab83	lw	x23,0(x5)	  x5:0x80025ce0 x23=0x80021df8 PA:0x80025ce0 load:0x80021df8
     2397662000	    119781	8000bcb0	0291	c.addi	x5,4	  x5:0x80025ce0  x5=0x80025ce4
     2397722000	    119784	8000bcb2	30200073	mret	
     2398122000	    119804	8000b7a0	00c8ecb3	or	x25,x17,x12	 x17:0x00000001 x12:0x00000100 x25=0x00000101
     2398882000	    119842	8000b7a4	8df1	c.and	x11,x12	 x11:0xffffc19d x12:0x00000100 x11=0x00000100
     2398902000	    119843	8000b7a6	9066c993	xori	x19,x13,-1786	 x13:0x0000e000 x19=0xffff1906
     2398922000	    119844	8000b7aa	07fbf093	andi	x1,x23,127	 x23:0x80021df8  x1=0x00000078
     2399682000	    119882	8000b7ae	040e	c.slli	x8,0x3	  x8:0xc5c96656  x8=0x2e4b32b0
     2399702000	    119883	8000b7b0	717d	c.addi16sp	x2,-16	  x2:0x44764701  x2=0x447646f1
     2399722000	    119884	8000b7b2	0b69	c.addi	x22,26	 x22:0x00000006 x22=0x00000020
     2409782000	    120387	8000b7b4	003dca33	xor	x20,x27,x3	 x27:0x04000000  x3:0x0f0f0f0f x20=0x0b0f0f0f
     2409802000	    120388	8000b7b8	0ff0000f	fence	iorw,iorw	
     2410622000	    120429	8000b7bc	f1455973	csrrwi	x0,mhartid,10	  x0=0x00000000
     2411002000	    120448	80002700	0800006f	jal	x0,80002780	  x0=0x00000000
     2412442000	    120520	80002780	12f1	c.addi	x5,-4	  x5:0x80025ce4  x5=0x80025ce0
     2412522000	    120524	80002782	0172a023	sw	x23,0(x5)	  x5:0x80025ce0 x23:0x80021df8 PA:0x80025ce0 store:0x80021df8 load:0xffffffff
     2412542000	    120525	80002786	00028bb3	add	x23,x5,x0	  x5:0x80025ce0  x0:0x00000000 x23=0x80025ce0
     2412922000	    120544	8000278a	f80b8b93	addi	x23,x23,-128	 x23:0x80025ce0 x23=0x80025c60
     2413102000	    120553	8000278e	001ba223	sw	x1,4(x23)	 x23:0x80025c60  x1:0x00000078 PA:0x80025c64 store:0x00000078 load:0xffffffff
     2413202000	    120558	80002792	002ba423	sw	x2,8(x23)	 x23:0x80025c60  x2:0x447646f1 PA:0x80025c68 store:0x447646f1 load:0xffffffff
     2413602000	    120578	80002796	003ba623	sw	x3,12(x23)	 x23:0x80025c60  x3:0x0f0f0f0f PA:0x80025c6c store:0x0f0f0f0f load:0xffffffff
     2413682000	    120582	8000279a	004ba823	sw	x4,16(x23)	 x23:0x80025c60  x4:0x00681da9 PA:0x80025c70 store:0x00681da9 load:0xffffffff
     2414102000	    120603	8000279e	005baa23	sw	x5,20(x23)	 x23:0x80025c60  x5:0x80025ce0 PA:0x80025c74 store:0x80025ce0 load:0xffffffff
     2414242000	    120610	800027a2	006bac23	sw	x6,24(x23)	 x23:0x80025c60  x6:0x0000000f PA:0x80025c78 store:0x0000000f load:0xffffffff
     2415042000	    120650	800027a6	007bae23	sw	x7,28(x23)	 x23:0x80025c60  x7:0xfffffe7e PA:0x80025c7c store:0xfffffe7e load:0xffffffff
     2415062000	    120651	800027aa	028ba023	sw	x8,32(x23)	 x23:0x80025c60  x8:0x2e4b32b0 PA:0x80025c80 store:0x2e4b32b0 load:0xffffffff
     2415162000	    120656	800027ae	029ba223	sw	x9,36(x23)	 x23:0x80025c60  x9:0x80021df8 PA:0x80025c84 store:0x80021df8 load:0xffffffff
     2415442000	    120670	800027b2	02aba423	sw	x10,40(x23)	 x23:0x80025c60 x10:0x0f0f0f0f PA:0x80025c88 store:0x0f0f0f0f load:0xffffffff
     2415862000	    120691	800027b6	02bba623	sw	x11,44(x23)	 x23:0x80025c60 x11:0x00000100 PA:0x80025c8c store:0x00000100 load:0xffffffff
     2415922000	    120694	800027ba	02cba823	sw	x12,48(x23)	 x23:0x80025c60 x12:0x00000100 PA:0x80025c90 store:0x00000100 load:0xffffffff
     2416742000	    120735	800027be	02dbaa23	sw	x13,52(x23)	 x23:0x80025c60 x13:0x0000e000 PA:0x80025c94 store:0x0000e000 load:0xffffffff
     2416782000	    120737	800027c2	02ebac23	sw	x14,56(x23)	 x23:0x80025c60 x14:0x00000000 PA:0x80025c98 store:0x00000000 load:0xffffffff
     2416822000	    120739	800027c6	02fbae23	sw	x15,60(x23)	 x23:0x80025c60 x15:0x00000000 PA:0x80025c9c store:0x00000000 load:0xffffffff
     2417262000	    120761	800027ca	050ba023	sw	x16,64(x23)	 x23:0x80025c60 x16:0x00000000 PA:0x80025ca0 store:0x00000000 load:0xffffffff
     2417322000	    120764	800027ce	051ba223	sw	x17,68(x23)	 x23:0x80025c60 x17:0x00000001 PA:0x80025ca4 store:0x00000001 load:0xffffffff
     2417562000	    120776	800027d2	052ba423	sw	x18,72(x23)	 x23:0x80025c60 x18:0x00000000 PA:0x80025ca8 store:0x00000000 load:0xffffffff
     2417582000	    120777	800027d6	053ba623	sw	x19,76(x23)	 x23:0x80025c60 x19:0xffff1906 PA:0x80025cac store:0xffff1906 load:0xffffffff
     2417622000	    120779	800027da	054ba823	sw	x20,80(x23)	 x23:0x80025c60 x20:0x0b0f0f0f PA:0x80025cb0 store:0x0b0f0f0f load:0xffffffff
     2417762000	    120786	800027de	055baa23	sw	x21,84(x23)	 x23:0x80025c60 x21:0xffffffff PA:0x80025cb4 store:0xffffffff load:0xffffffff
     2418182000	    120807	800027e2	056bac23	sw	x22,88(x23)	 x23:0x80025c60 x22:0x00000020 PA:0x80025cb8 store:0x00000020 load:0xffffffff
     2418642000	    120830	800027e6	057bae23	sw	x23,92(x23)	 x23:0x80025c60 x23:0x80025c60 PA:0x80025cbc store:0x80025c60 load:0xffffffff
     2418722000	    120834	800027ea	078ba023	sw	x24,96(x23)	 x23:0x80025c60 x24:0x00000001 PA:0x80025cc0 store:0x00000001 load:0xffffffff
     2419142000	    120855	800027ee	079ba223	sw	x25,100(x23)	 x23:0x80025c60 x25:0x00000101 PA:0x80025cc4 store:0x00000101 load:0xffffffff
     2419402000	    120868	800027f2	07aba423	sw	x26,104(x23)	 x23:0x80025c60 x26:0x00000001 PA:0x80025cc8 store:0x00000001 load:0xffffffff
     2420402000	    120918	800027f6	07bba623	sw	x27,108(x23)	 x23:0x80025c60 x27:0x04000000 PA:0x80025ccc store:0x04000000 load:0xffffffff
     2420622000	    120929	800027fa	07cba823	sw	x28,112(x23)	 x23:0x80025c60 x28:0x9e8ea000 PA:0x80025cd0 store:0x9e8ea000 load:0xffffffff
     2420662000	    120931	800027fe	07dbaa23	sw	x29,116(x23)	 x23:0x80025c60 x29:0xd03b5289 PA:0x80025cd4 store:0xd03b5289 load:0xffffffff
     2421862000	    120991	80002802	07ebac23	sw	x30,120(x23)	 x23:0x80025c60 x30:0x26af2000 PA:0x80025cd8 store:0x26af2000 load:0xffffffff
     2422322000	    121014	80002806	07fbae23	sw	x31,124(x23)	 x23:0x80025c60 x31:0xc5c96757 PA:0x80025cdc store:0xc5c96757 load:0xffffffff
     2423082000	    121052	8000280a	000b82b3	add	x5,x23,x0	 x23:0x80025c60  x0:0x00000000  x5=0x80025c60
     2423102000	    121053	8000280e	90000c37	lui	x24,0x90000	 x24=0x90000000
     2423122000	    121054	80002812	1c71	c.addi	x24,-4	 x24:0x90000000 x24=0x8ffffffc
     2423182000	    121057	80002814	4f21	c.li	x30,8	 x30=0x00000008
     2423202000	    121058	80002816	0f22	c.slli	x30,0x8	 x30:0x00000008 x30=0x00000800
     2423242000	    121060	80002818	000f0f13	addi	x30,x30,0	 x30:0x00000800 x30=0x00000800
     2423322000	    121064	8000281c	01ec2023	sw	x30,0(x24)	 x24:0x8ffffffc x30:0x00000800 PA:0x8ffffffc store:0x00000800 load:0xffffffff
     2423502000	    121073	80002820	34102f73	csrrs	x30,mepc,x0	  x0:0x00000000 x30=0x8000b7bc
     2423522000	    121074	80002824	34202f73	csrrs	x30,mcause,x0	  x0:0x00000000 x30=0x00000002
     2423942000	    121095	80002828	4c0d	c.li	x24,3	 x24=0x00000003
     2424002000	    121098	8000282a	018f1463	bne	x30,x24,80002832	 x30:0x00000002 x24:0x00000003
     2424462000	    121121	80002832	4c21	c.li	x24,8	 x24=0x00000008
     2424902000	    121143	80002834	058f0d63	beq	x30,x24,8000288e	 x30:0x00000002 x24:0x00000008
     2425142000	    121155	80002838	4c25	c.li	x24,9	 x24=0x00000009
     2425942000	    121195	8000283a	058f0a63	beq	x30,x24,8000288e	 x30:0x00000002 x24:0x00000009
     2426522000	    121224	8000283e	4c2d	c.li	x24,11	 x24=0x0000000b
     2426562000	    121226	80002840	058f0763	beq	x30,x24,8000288e	 x30:0x00000002 x24:0x0000000b
     2427422000	    121269	80002844	4c05	c.li	x24,1	 x24=0x00000001
     2427782000	    121287	80002846	358f0363	beq	x30,x24,80002b8c	 x30:0x00000002 x24:0x00000001
     2428622000	    121329	8000284a	4c15	c.li	x24,5	 x24=0x00000005
     2428662000	    121331	8000284c	638f0a63	beq	x30,x24,80002e80	 x30:0x00000002 x24:0x00000005
     2429402000	    121368	80002850	4c1d	c.li	x24,7	 x24=0x00000007
     2429842000	    121390	80002852	158f0ce3	beq	x30,x24,800031aa	 x30:0x00000002 x24:0x00000007
     2430562000	    121426	80002856	4c31	c.li	x24,12	 x24=0x0000000c
     2430642000	    121430	80002858	018f1463	bne	x30,x24,80002860	 x30:0x00000002 x24:0x0000000c
     2438382000	    121817	80002860	4c35	c.li	x24,13	 x24=0x0000000d
     2438462000	    121821	80002862	018f1463	bne	x30,x24,8000286a	 x30:0x00000002 x24:0x0000000d
     2438522000	    121824	8000286a	4c3d	c.li	x24,15	 x24=0x0000000f
     2438562000	    121826	8000286c	018f1463	bne	x30,x24,80002874	 x30:0x00000002 x24:0x0000000f
     2438862000	    121841	80002874	4c09	c.li	x24,2	 x24=0x00000002
     2439222000	    121859	80002876	018f1463	bne	x30,x24,8000287e	 x30:0x00000002 x24:0x00000002
     2439322000	    121864	8000287a	3740906f	jal	x0,8000bbee	  x0=0x00000000
     2440222000	    121909	8000bbee	90000c37	lui	x24,0x90000	 x24=0x90000000
     2440982000	    121947	8000bbf2	1c71	c.addi	x24,-4	 x24:0x90000000 x24=0x8ffffffc
     2441002000	    121948	8000bbf4	4f29	c.li	x30,10	 x30=0x0000000a
     2441042000	    121950	8000bbf6	0f22	c.slli	x30,0x8	 x30:0x0000000a x30=0x00000a00
     2441062000	    121951	8000bbf8	000f0f13	addi	x30,x30,0	 x30:0x00000a00 x30=0x00000a00
     2441182000	    121957	8000bbfc	01ec2023	sw	x30,0(x24)	 x24:0x8ffffffc x30:0x00000a00 PA:0x8ffffffc store:0x00000a00 load:0xffffffff
     2441202000	    121958	8000bc00	90000c37	lui	x24,0x90000	 x24=0x90000000
     2441242000	    121960	8000bc04	1c71	c.addi	x24,-4	 x24:0x90000000 x24=0x8ffffffc
     2441422000	    121969	8000bc06	34200f13	addi	x30,x0,834	  x0:0x00000000 x30=0x00000342
     2441442000	    121970	8000bc0a	0f22	c.slli	x30,0x8	 x30:0x00000342 x30=0x00034200
     2441722000	    121984	8000bc0c	0f0d	c.addi	x30,3	 x30:0x00034200 x30=0x00034203
     2442522000	    122024	8000bc0e	01ec2023	sw	x30,0(x24)	 x24:0x8ffffffc x30:0x00034203 PA:0x8ffffffc store:0x00034203 load:0xffffffff
     2442602000	    122028	8000bc12	34202f73	csrrs	x30,mcause,x0	  x0:0x00000000 x30=0x00000002
     2442702000	    122033	8000bc16	01ec2023	sw	x30,0(x24)	 x24:0x8ffffffc x30:0x00000002 PA:0x8ffffffc store:0x00000002 load:0xffffffff
     2442742000	    122035	8000bc1a	34102f73	csrrs	x30,mepc,x0	  x0:0x00000000 x30=0x8000b7bc
     2442762000	    122036	8000bc1e	0f11	c.addi	x30,4	 x30:0x8000b7bc x30=0x8000b7c0
     2442802000	    122038	8000bc20	341f1073	csrrw	x0,mepc,x30	 x30:0x8000b7c0  x0=0x00000000
     2442822000	    122039	8000bc24	00028bb3	add	x23,x5,x0	  x5:0x80025c60  x0:0x00000000 x23=0x80025c60
     2443642000	    122080	8000bc28	004ba083	lw	x1,4(x23)	 x23:0x80025c60  x1=0x00000078 PA:0x80025c64 load:0x00000078
     2443662000	    122081	8000bc2c	008ba103	lw	x2,8(x23)	 x23:0x80025c60  x2=0x447646f1 PA:0x80025c68 load:0x447646f1
     2444802000	    122138	8000bc30	00cba183	lw	x3,12(x23)	 x23:0x80025c60  x3=0x0f0f0f0f PA:0x80025c6c load:0x0f0f0f0f
     2444862000	    122141	8000bc34	010ba203	lw	x4,16(x23)	 x23:0x80025c60  x4=0x00681da9 PA:0x80025c70 load:0x00681da9
     2445042000	    122150	8000bc38	014ba283	lw	x5,20(x23)	 x23:0x80025c60  x5=0x80025ce0 PA:0x80025c74 load:0x80025ce0
     2446702000	    122233	8000bc3c	018ba303	lw	x6,24(x23)	 x23:0x80025c60  x6=0x0000000f PA:0x80025c78 load:0x0000000f
     2446762000	    122236	8000bc40	01cba383	lw	x7,28(x23)	 x23:0x80025c60  x7=0xfffffe7e PA:0x80025c7c load:0xfffffe7e
     2446782000	    122237	8000bc44	020ba403	lw	x8,32(x23)	 x23:0x80025c60  x8=0x2e4b32b0 PA:0x80025c80 load:0x2e4b32b0
     2446822000	    122239	8000bc48	024ba483	lw	x9,36(x23)	 x23:0x80025c60  x9=0x80021df8 PA:0x80025c84 load:0x80021df8
     2447202000	    122258	8000bc4c	028ba503	lw	x10,40(x23)	 x23:0x80025c60 x10=0x0f0f0f0f PA:0x80025c88 load:0x0f0f0f0f
     2447482000	    122272	8000bc50	02cba583	lw	x11,44(x23)	 x23:0x80025c60 x11=0x00000100 PA:0x80025c8c load:0x00000100
     2447602000	    122278	8000bc54	030ba603	lw	x12,48(x23)	 x23:0x80025c60 x12=0x00000100 PA:0x80025c90 load:0x00000100
     2447862000	    122291	8000bc58	034ba683	lw	x13,52(x23)	 x23:0x80025c60 x13=0x0000e000 PA:0x80025c94 load:0x0000e000
     2448662000	    122331	8000bc5c	038ba703	lw	x14,56(x23)	 x23:0x80025c60 x14=0x00000000 PA:0x80025c98 load:0x00000000
     2448742000	    122335	8000bc60	03cba783	lw	x15,60(x23)	 x23:0x80025c60 x15=0x00000000 PA:0x80025c9c load:0x00000000
     2448802000	    122338	8000bc64	040ba803	lw	x16,64(x23)	 x23:0x80025c60 x16=0x00000000 PA:0x80025ca0 load:0x00000000
     2449602000	    122378	8000bc68	044ba883	lw	x17,68(x23)	 x23:0x80025c60 x17=0x00000001 PA:0x80025ca4 load:0x00000001
     2450162000	    122406	8000bc6c	048ba903	lw	x18,72(x23)	 x23:0x80025c60 x18=0x00000000 PA:0x80025ca8 load:0x00000000
     2450262000	    122411	8000bc70	04cba983	lw	x19,76(x23)	 x23:0x80025c60 x19=0xffff1906 PA:0x80025cac load:0xffff1906
     2451362000	    122466	8000bc74	050baa03	lw	x20,80(x23)	 x23:0x80025c60 x20=0x0b0f0f0f PA:0x80025cb0 load:0x0b0f0f0f
     2451422000	    122469	8000bc78	054baa83	lw	x21,84(x23)	 x23:0x80025c60 x21=0xffffffff PA:0x80025cb4 load:0xffffffff
     2451462000	    122471	8000bc7c	058bab03	lw	x22,88(x23)	 x23:0x80025c60 x22=0x00000020 PA:0x80025cb8 load:0x00000020
     2451542000	    122475	8000bc80	05cbab83	lw	x23,92(x23)	 x23:0x80025c60 x23=0x80025c60 PA:0x80025cbc load:0x80025c60
     2451622000	    122479	8000bc84	060bac03	lw	x24,96(x23)	 x23:0x80025c60 x24=0x00000001 PA:0x80025cc0 load:0x00000001
     2452442000	    122520	8000bc88	064bac83	lw	x25,100(x23)	 x23:0x80025c60 x25=0x00000101 PA:0x80025cc4 load:0x00000101
     2452462000	    122521	8000bc8c	068bad03	lw	x26,104(x23)	 x23:0x80025c60 x26=0x00000001 PA:0x80025cc8 load:0x00000001
     2452542000	    122525	8000bc90	06cbad83	lw	x27,108(x23)	 x23:0x80025c60 x27=0x04000000 PA:0x80025ccc load:0x04000000
     2452622000	    122529	8000bc94	070bae03	lw	x28,112(x23)	 x23:0x80025c60 x28=0x9e8ea000 PA:0x80025cd0 load:0x9e8ea000
     2453002000	    122548	8000bc98	074bae83	lw	x29,116(x23)	 x23:0x80025c60 x29=0xd03b5289 PA:0x80025cd4 load:0xd03b5289
     2453062000	    122551	8000bc9c	078baf03	lw	x30,120(x23)	 x23:0x80025c60 x30=0x26af2000 PA:0x80025cd8 load:0x26af2000
     2453162000	    122556	8000bca0	07cbaf83	lw	x31,124(x23)	 x23:0x80025c60 x31=0xc5c96757 PA:0x80025cdc load:0xc5c96757
     2453182000	    122557	8000bca4	080b8b93	addi	x23,x23,128	 x23:0x80025c60 x23=0x80025ce0
     2453222000	    122559	8000bca8	000b82b3	add	x5,x23,x0	 x23:0x80025ce0  x0:0x00000000  x5=0x80025ce0
     2453662000	    122581	8000bcac	0002ab83	lw	x23,0(x5)	  x5:0x80025ce0 x23=0x80021df8 PA:0x80025ce0 load:0x80021df8
     2453682000	    122582	8000bcb0	0291	c.addi	x5,4	  x5:0x80025ce0  x5=0x80025ce4
     2453702000	    122583	8000bcb2	30200073	mret	
     2454522000	    122624	8000b7c0	0210f8b3	remu	x17,x1,x1	  x1:0x00000078  x1:0x00000078 x17=0x00000000
     2454542000	    122625	8000b7c4	b0309df3	csrrw	x27,mhpmcounter3,x1	  x1:0x00000078 x27=0x000007a5
     2454602000	    122628	8000b7c8	8122	c.mv	x2,x8	  x0:0x00000000  x8:0x2e4b32b0  x2=0x2e4b32b0
     2455362000	    122666	8000b7ca	1efd	c.addi	x29,-1	 x29:0xd03b5289 x29=0xd03b5288
     2455422000	    122669	8000b7cc	0321d163	bge	x3,x18,8000b7ee	  x3:0x0f0f0f0f x18:0x00000000
     2455942000	    122695	8000b7ee	b85075f3	csrrci	x11,mhpmcounter5h,0	 x11=0x00000000
     2456122000	    122704	8000b7f2	03a13cb3	mulhu	x25,x2,x26	  x2:0x2e4b32b0 x26:0x00000001 x25=0x00000000
     2456142000	    122705	8000b7f6	8f6d	c.and	x14,x11	 x14:0x00000000 x11:0x00000000 x14=0x00000000
     2456482000	    122722	8000b7f8	01c118b3	sll	x17,x2,x28	  x2:0x2e4b32b0 x28:0x9e8ea000 x17=0x2e4b32b0
     2456542000	    122725	8000b7fc	029d7463	bgeu	x26,x9,8000b824	 x26:0x00000001  x9:0x80021df8
     2457402000	    122768	8000b800	0190d133	srl	x2,x1,x25	  x1:0x00000078 x25:0x00000000  x2=0x00000078
     2458182000	    122807	8000b804	03a1c763	blt	x3,x26,8000b832	  x3:0x0f0f0f0f x26:0x00000001
     2458262000	    122811	8000b808	177d	c.addi	x14,-1	 x14:0x00000000 x14=0xffffffff
     2459062000	    122851	8000b80a	c489	c.beqz	x9,8000b814	  x9:0x80021df8
     2459142000	    122855	8000b80c	01fe8933	add	x18,x29,x31	 x29:0xd03b5288 x31:0xc5c96757 x18=0x9604b9df
     2459162000	    122856	8000b810	8561	c.srai	x10,0x18	 x10:0x0f0f0f0f x10=0x0000000f
     2459182000	    122857	8000b812	1e98	c.addi4spn	x14,x2,880	 x14=0x000003e8
     2459522000	    122874	8000b814	8d9d	c.sub	x11,x15	 x11:0x00000000 x15:0x00000000 x11=0x00000000
     2459842000	    122890	8000b816	01c99013	slli	x0,x19,0x1c	 x19:0xffff1906  x0=0x00000000
     2459922000	    122894	8000b81a	00dd0563	beq	x26,x13,8000b824	 x26:0x00000001 x13:0x0000e000
     2460002000	    122898	8000b81e	850d	c.srai	x10,0x3	 x10:0x0000000f x10=0x00000001
     2460062000	    122901	8000b820	c711	c.beqz	x14,8000b82c	 x14:0x000003e8
     2460502000	    122923	8000b822	8a75	c.andi	x12,29	 x12:0x00000100 x12=0x00000000
     2460542000	    122925	8000b824	00291333	sll	x6,x18,x2	 x18:0x9604b9df  x2:0x00000078  x6=0xdf000000
     2460722000	    122934	8000b828	7f6ace13	xori	x28,x21,2038	 x21:0xffffffff x28=0xfffff809
     2460782000	    122937	8000b82c	8f45	c.or	x14,x9	 x14:0x000003e8  x9:0x80021df8 x14=0x80021ff8
     2460802000	    122938	8000b82e	fc666513	ori	x10,x12,-58	 x12:0x00000000 x10=0xffffffc6
     2462322000	    123014	8000b832	40e803b3	sub	x7,x16,x14	 x16:0x00000000 x14:0x80021ff8  x7=0x7ffde008
     2462342000	    123015	8000b836	00f89b33	sll	x22,x17,x15	 x17:0x2e4b32b0 x15:0x00000000 x22=0x2e4b32b0
     2462382000	    123017	8000b83a	0281b233	mulhu	x4,x3,x8	  x3:0x0f0f0f0f  x8:0x2e4b32b0  x4=0x02b92119
     2463162000	    123056	8000b83e	7c102273	csrrs	x4,0x7c1,x0	  x0:0x00000000  x4=0x00000000
     2463182000	    123057	8000b842	552d3f13	sltiu	x30,x26,1362	 x26:0x00000001 x30=0x00000001
     2463222000	    123059	8000b846	0001	c.addi	x0,0	  x0:0x00000000  x0=0x00000000
     2463962000	    123096	8000b848	02fe43b3	div	x7,x28,x15	 x28:0xfffff809 x15:0x00000000  x7=0xffffffff
     2464002000	    123098	8000b84c	d86aad93	slti	x27,x21,-634	 x21:0xffffffff x27=0x00000000
     2464022000	    123099	8000b850	0001	c.addi	x0,0	  x0:0x00000000  x0=0x00000000
     2464062000	    123101	8000b852	8d95	c.sub	x11,x13	 x11:0x00000000 x13:0x0000e000 x11=0xffff2000
     2464102000	    123103	8000b854	1f00	c.addi4spn	x8,x2,944	  x8=0x00000428
     2464122000	    123104	8000b856	0001	c.addi	x0,0	  x0:0x00000000  x0=0x00000000
     2464142000	    123105	8000b858	0000100f	fence.i	
     2464502000	    123123	8000b85c	8d95	c.sub	x11,x13	 x11:0xffff2000 x13:0x0000e000 x11=0xfffe4000
     2464942000	    123145	8000b85e	05ef0063	beq	x30,x30,8000b89e	 x30:0x00000001 x30:0x00000001
     2465822000	    123189	8000b89e	17291897	auipc	x17,0x17291	 x17=0x9729c89e
     2465842000	    123190	8000b8a2	0001	c.addi	x0,0	  x0:0x00000000  x0=0x00000000
     2465882000	    123192	8000b8a4	66bd	c.lui	x13,0xf	 x13=0x0000f000
     2466642000	    123230	8000b8a6	41f4d193	srai	x3,x9,0x1f	  x9:0x80021df8  x3=0xffffffff
     2466682000	    123232	8000b8aa	02f7b6b3	mulhu	x13,x15,x15	 x15:0x00000000 x15:0x00000000 x13=0x00000000
     2466722000	    123234	8000b8ae	02d11463	bne	x2,x13,8000b8d6	  x2:0x00000078 x13:0x00000000
     2466842000	    123240	8000b8d6	8c19	c.sub	x8,x14	  x8:0x00000428 x14:0x80021ff8  x8=0x7ffde430
     2466882000	    123242	8000b8d8	411486b3	sub	x13,x9,x17	  x9:0x80021df8 x17:0x9729c89e x13=0xe8d8555a
     2466942000	    123245	8000b8dc	390e1c17	auipc	x24,0x390e1	 x24=0xb90ec8dc
     2467062000	    123251	8000b8e0	b0a26c73	csrrsi	x24,mhpmcounter10,4	 x24=0x00000288
     2467282000	    123262	8000b8e4	00721563	bne	x4,x7,8000b8ee	  x4:0x00000000  x7:0xffffffff
     2467642000	    123280	8000b8ee	8e45	c.or	x12,x9	 x12:0x00000000  x9:0x80021df8 x12=0x80021df8
     2467702000	    123283	8000b8f0	053ff563	bgeu	x31,x19,8000b93a	 x31:0xc5c96757 x19:0xffff1906
     2468222000	    123309	8000b8f4	9ad6dab7	lui	x21,0x9ad6d	 x21=0x9ad6d000
     2468502000	    123323	8000b8f8	15ff3513	sltiu	x10,x30,351	 x30:0x00000001 x10=0x00000001
     2468522000	    123324	8000b8fc	0000100f	fence.i	
     2468862000	    123341	8000b900	01186cb3	or	x25,x16,x17	 x16:0x00000000 x17:0x9729c89e x25=0x9729c89e
     2468942000	    123345	8000b904	8d01	c.sub	x10,x8	 x10:0x00000001  x8:0x7ffde430 x10=0x80021bd1
     2468962000	    123346	8000b906	40060b33	sub	x22,x12,x0	 x12:0x80021df8  x0:0x00000000 x22=0x80021df8
     2469002000	    123348	8000b90a	ef11	c.bnez	x14,8000b926	 x14:0x80021ff8
     2469482000	    123372	8000b926	974afd93	andi	x27,x21,-1676	 x21:0x9ad6d000 x27=0x9ad6d000
     2470382000	    123417	8000b92a	02bfd1b3	divu	x3,x31,x11	 x31:0xc5c96757 x11:0xfffe4000  x3=0x00000000
     2470442000	    123420	8000b92e	03519733	mulh	x14,x3,x21	  x3:0x00000000 x21:0x9ad6d000 x14=0x00000000
     2471182000	    123457	8000b932	0208cf33	div	x30,x17,x0	 x17:0x9729c89e  x0:0x00000000 x30=0xffffffff
     2471202000	    123458	8000b936	00928f33	add	x30,x5,x9	  x5:0x80025ce4  x9:0x80021df8 x30=0x00047adc
     2471242000	    123460	8000b93a	cb462c93	slti	x25,x12,-844	 x12:0x80021df8 x25=0x00000001
     2472022000	    123499	8000b93e	03f67c63	bgeu	x12,x31,8000b976	 x12:0x80021df8 x31:0xc5c96757
     2472122000	    123504	8000b942	0181d8b3	srl	x17,x3,x24	  x3:0x00000000 x24:0x00000288 x17=0x00000000
     2472562000	    123526	8000b946	3421d9f3	csrrwi	x19,mcause,3	 x19=0x00000002
     2472622000	    123529	8000b94a	416ed533	sra	x10,x29,x22	 x29:0xd03b5288 x22:0x80021df8 x10=0xffffffd0
     2500062000	    124901	8000b94e	40bdd633	sra	x12,x27,x11	 x27:0x9ad6d000 x11:0xfffe4000 x12=0x9ad6d000
     2500082000	    124902	8000b952	b9dd8913	addi	x18,x27,-1123	 x27:0x9ad6d000 x18=0x9ad6cb9d
     2500162000	    124906	8000b956	02ce90b3	mulh	x1,x29,x12	 x29:0xd03b5288 x12:0x9ad6d000  x1=0x12e047e5
     2500182000	    124907	8000b95a	004444b3	xor	x9,x8,x4	  x8:0x7ffde430  x4:0x00000000  x9=0x7ffde430
     2500222000	    124909	8000b95e	011ad693	srli	x13,x21,0x11	 x21:0x9ad6d000 x13=0x00004d6b
     2500262000	    124911	8000b962	297e2013	slti	x0,x28,663	 x28:0xfffff809  x0=0x00000000
     2500302000	    124913	8000b966	9332	c.add	x6,x12	  x6:0xdf000000 x12:0x9ad6d000  x6=0x79d6d000
     2500322000	    124914	8000b968	6435	c.lui	x8,0xd	  x8=0x0000d000
     2500342000	    124915	8000b96a	00938cb3	add	x25,x7,x9	  x7:0xffffffff  x9:0x7ffde430 x25=0x7ffde42f
     2501122000	    124954	8000b96e	0171ec63	bltu	x3,x23,8000b986	  x3:0x00000000 x23:0x80021df8
     2501402000	    124968	8000b986	8f2d	c.xor	x14,x11	 x14:0x00000000 x11:0xfffe4000 x14=0xfffe4000
     2501422000	    124969	8000b988	30402cf3	csrrs	x25,mie,x0	  x0:0x00000000 x25=0x00000000
     2501502000	    124973	8000b98c	b183fc13	andi	x24,x7,-1256	  x7:0xffffffff x24=0xfffffb18
     2501522000	    124974	8000b990	41178233	sub	x4,x15,x17	 x15:0x00000000 x17:0x00000000  x4=0x00000000
     2501622000	    124979	8000b994	0100b133	sltu	x2,x1,x16	  x1:0x12e047e5 x16:0x00000000  x2=0x00000000
     2502042000	    125000	8000b998	05fac163	blt	x21,x31,8000b9da	 x21:0x9ad6d000 x31:0xc5c96757
     2502682000	    125032	8000b9da	02df7d63	bgeu	x30,x13,8000ba14	 x30:0x00047adc x13:0x00004d6b
     2502982000	    125047	8000ba14	8e4d	c.or	x12,x11	 x12:0x9ad6d000 x11:0xfffe4000 x12=0xfffed000
     2503022000	    125049	8000ba16	009a2233	slt	x4,x20,x9	 x20:0x0b0f0f0f  x9:0x7ffde430  x4=0x00000001
     2504202000	    125108	8000ba1a	03faf3b3	remu	x7,x21,x31	 x21:0x9ad6d000 x31:0xc5c96757  x7=0x9ad6d000
     2504242000	    125110	8000ba1e	03fc4d63	blt	x24,x31,8000ba58	 x24:0xfffffb18 x31:0xc5c96757
     2504902000	    125143	8000ba22	9e190d13	addi	x26,x18,-1567	 x18:0x9ad6cb9d x26=0x9ad6c57e
     2504922000	    125144	8000ba26	1a8c	c.addi4spn	x11,x2,368	 x11=0x00000170
     2505082000	    125152	8000ba28	071a	c.slli	x14,0x6	 x14:0xfffe4000 x14=0xff900000
     2505122000	    125154	8000ba2a	547d	c.li	x8,-1	  x8=0xffffffff
     2505202000	    125158	8000ba2c	00638563	beq	x7,x6,8000ba36	  x7:0x9ad6d000  x6:0x79d6d000
     2505942000	    125195	8000ba30	50fd	c.li	x1,-1	  x1=0xffffffff
     2506002000	    125198	8000ba32	3060c593	xori	x11,x1,774	  x1:0xffffffff x11=0xfffffcf9
     2506022000	    125199	8000ba36	7a106c73	csrrsi	x24,tdata1,0	 x24=0x28001048
     2506042000	    125200	8000ba3a	fdb97c93	andi	x25,x18,-37	 x18:0x9ad6cb9d x25=0x9ad6cb99
     2506802000	    125238	8000ba3e	8cb5	c.xor	x9,x13	  x9:0x7ffde430 x13:0x00004d6b  x9=0x7ffda95b
     2507542000	    125275	8000ba40	0350e133	rem	x2,x1,x21	  x1:0xffffffff x21:0x9ad6d000  x2=0xffffffff
     2507582000	    125277	8000ba44	f1331473	csrrw	x0,mimpid,x0	  x0:0x00000000  x0=0x00000000
     2507722000	    125284	80002700	0800006f	jal	x0,80002780	  x0=0x00000000
     2507942000	    125295	80002780	12f1	c.addi	x5,-4	  x5:0x80025ce4  x5=0x80025ce0
     2508302000	    125313	80002782	0172a023	sw	x23,0(x5)	  x5:0x80025ce0 x23:0x80021df8 PA:0x80025ce0 store:0x80021df8 load:0xffffffff
     2508342000	    125315	80002786	00028bb3	add	x23,x5,x0	  x5:0x80025ce0  x0:0x00000000 x23=0x80025ce0
     2508402000	    125318	8000278a	f80b8b93	addi	x23,x23,-128	 x23:0x80025ce0 x23=0x80025c60
     2508602000	    125328	8000278e	001ba223	sw	x1,4(x23)	 x23:0x80025c60  x1:0xffffffff PA:0x80025c64 store:0xffffffff load:0xffffffff
     2508662000	    125331	80002792	002ba423	sw	x2,8(x23)	 x23:0x80025c60  x2:0xffffffff PA:0x80025c68 store:0xffffffff load:0xffffffff
     2508702000	    125333	80002796	003ba623	sw	x3,12(x23)	 x23:0x80025c60  x3:0x00000000 PA:0x80025c6c store:0x00000000 load:0xffffffff
     2509042000	    125350	8000279a	004ba823	sw	x4,16(x23)	 x23:0x80025c60  x4:0x00000001 PA:0x80025c70 store:0x00000001 load:0xffffffff
     2509082000	    125352	8000279e	005baa23	sw	x5,20(x23)	 x23:0x80025c60  x5:0x80025ce0 PA:0x80025c74 store:0x80025ce0 load:0xffffffff
     2509262000	    125361	800027a2	006bac23	sw	x6,24(x23)	 x23:0x80025c60  x6:0x79d6d000 PA:0x80025c78 store:0x79d6d000 load:0xffffffff
     2509782000	    125387	800027a6	007bae23	sw	x7,28(x23)	 x23:0x80025c60  x7:0x9ad6d000 PA:0x80025c7c store:0x9ad6d000 load:0xffffffff
     2509842000	    125390	800027aa	028ba023	sw	x8,32(x23)	 x23:0x80025c60  x8:0xffffffff PA:0x80025c80 store:0xffffffff load:0xffffffff
     2510702000	    125433	800027ae	029ba223	sw	x9,36(x23)	 x23:0x80025c60  x9:0x7ffda95b PA:0x80025c84 store:0x7ffda95b load:0xffffffff
     2510822000	    125439	800027b2	02aba423	sw	x10,40(x23)	 x23:0x80025c60 x10:0xffffffd0 PA:0x80025c88 store:0xffffffd0 load:0xffffffff
     2510942000	    125445	800027b6	02bba623	sw	x11,44(x23)	 x23:0x80025c60 x11:0xfffffcf9 PA:0x80025c8c store:0xfffffcf9 load:0xffffffff
     2511182000	    125457	800027ba	02cba823	sw	x12,48(x23)	 x23:0x80025c60 x12:0xfffed000 PA:0x80025c90 store:0xfffed000 load:0xffffffff
     2511642000	    125480	800027be	02dbaa23	sw	x13,52(x23)	 x23:0x80025c60 x13:0x00004d6b PA:0x80025c94 store:0x00004d6b load:0xffffffff
     2511702000	    125483	800027c2	02ebac23	sw	x14,56(x23)	 x23:0x80025c60 x14:0xff900000 PA:0x80025c98 store:0xff900000 load:0xffffffff
     2512502000	    125523	800027c6	02fbae23	sw	x15,60(x23)	 x23:0x80025c60 x15:0x00000000 PA:0x80025c9c store:0x00000000 load:0xffffffff
     2512802000	    125538	800027ca	050ba023	sw	x16,64(x23)	 x23:0x80025c60 x16:0x00000000 PA:0x80025ca0 store:0x00000000 load:0xffffffff
     2512882000	    125542	800027ce	051ba223	sw	x17,68(x23)	 x23:0x80025c60 x17:0x00000000 PA:0x80025ca4 store:0x00000000 load:0xffffffff
     2513282000	    125562	800027d2	052ba423	sw	x18,72(x23)	 x23:0x80025c60 x18:0x9ad6cb9d PA:0x80025ca8 store:0x9ad6cb9d load:0xffffffff
     2513822000	    125589	800027d6	053ba623	sw	x19,76(x23)	 x23:0x80025c60 x19:0x00000002 PA:0x80025cac store:0x00000002 load:0xffffffff
     2514002000	    125598	800027da	054ba823	sw	x20,80(x23)	 x23:0x80025c60 x20:0x0b0f0f0f PA:0x80025cb0 store:0x0b0f0f0f load:0xffffffff
     2514242000	    125610	800027de	055baa23	sw	x21,84(x23)	 x23:0x80025c60 x21:0x9ad6d000 PA:0x80025cb4 store:0x9ad6d000 load:0xffffffff
     2514422000	    125619	800027e2	056bac23	sw	x22,88(x23)	 x23:0x80025c60 x22:0x80021df8 PA:0x80025cb8 store:0x80021df8 load:0xffffffff
     2514702000	    125633	800027e6	057bae23	sw	x23,92(x23)	 x23:0x80025c60 x23:0x80025c60 PA:0x80025cbc store:0x80025c60 load:0xffffffff
     2515042000	    125650	800027ea	078ba023	sw	x24,96(x23)	 x23:0x80025c60 x24:0x28001048 PA:0x80025cc0 store:0x28001048 load:0xffffffff
     2515282000	    125662	800027ee	079ba223	sw	x25,100(x23)	 x23:0x80025c60 x25:0x9ad6cb99 PA:0x80025cc4 store:0x9ad6cb99 load:0xffffffff
     2515762000	    125686	800027f2	07aba423	sw	x26,104(x23)	 x23:0x80025c60 x26:0x9ad6c57e PA:0x80025cc8 store:0x9ad6c57e load:0xffffffff
     2516142000	    125705	800027f6	07bba623	sw	x27,108(x23)	 x23:0x80025c60 x27:0x9ad6d000 PA:0x80025ccc store:0x9ad6d000 load:0xffffffff
     2516242000	    125710	800027fa	07cba823	sw	x28,112(x23)	 x23:0x80025c60 x28:0xfffff809 PA:0x80025cd0 store:0xfffff809 load:0xffffffff
     2516462000	    125721	800027fe	07dbaa23	sw	x29,116(x23)	 x23:0x80025c60 x29:0xd03b5288 PA:0x80025cd4 store:0xd03b5288 load:0xffffffff
     2517382000	    125767	80002802	07ebac23	sw	x30,120(x23)	 x23:0x80025c60 x30:0x00047adc PA:0x80025cd8 store:0x00047adc load:0xffffffff
     2518242000	    125810	80002806	07fbae23	sw	x31,124(x23)	 x23:0x80025c60 x31:0xc5c96757 PA:0x80025cdc store:0xc5c96757 load:0xffffffff
     2518282000	    125812	8000280a	000b82b3	add	x5,x23,x0	 x23:0x80025c60  x0:0x00000000  x5=0x80025c60
     2518302000	    125813	8000280e	90000c37	lui	x24,0x90000	 x24=0x90000000
     2519062000	    125851	80002812	1c71	c.addi	x24,-4	 x24:0x90000000 x24=0x8ffffffc
     2519082000	    125852	80002814	4f21	c.li	x30,8	 x30=0x00000008
     2519122000	    125854	80002816	0f22	c.slli	x30,0x8	 x30:0x00000008 x30=0x00000800
     2519142000	    125855	80002818	000f0f13	addi	x30,x30,0	 x30:0x00000800 x30=0x00000800
     2519502000	    125873	8000281c	01ec2023	sw	x30,0(x24)	 x24:0x8ffffffc x30:0x00000800 PA:0x8ffffffc store:0x00000800 load:0xffffffff
     2519542000	    125875	80002820	34102f73	csrrs	x30,mepc,x0	  x0:0x00000000 x30=0x8000ba44
     2519562000	    125876	80002824	34202f73	csrrs	x30,mcause,x0	  x0:0x00000000 x30=0x00000002
     2519602000	    125878	80002828	4c0d	c.li	x24,3	 x24=0x00000003
     2519662000	    125881	8000282a	018f1463	bne	x30,x24,80002832	 x30:0x00000002 x24:0x00000003
     2519702000	    125883	80002832	4c21	c.li	x24,8	 x24=0x00000008
     2519742000	    125885	80002834	058f0d63	beq	x30,x24,8000288e	 x30:0x00000002 x24:0x00000008
     2519802000	    125888	80002838	4c25	c.li	x24,9	 x24=0x00000009
     2519842000	    125890	8000283a	058f0a63	beq	x30,x24,8000288e	 x30:0x00000002 x24:0x00000009
     2521062000	    125951	8000283e	4c2d	c.li	x24,11	 x24=0x0000000b
     2521102000	    125953	80002840	058f0763	beq	x30,x24,8000288e	 x30:0x00000002 x24:0x0000000b
     2521562000	    125976	80002844	4c05	c.li	x24,1	 x24=0x00000001
     2521762000	    125986	80002846	358f0363	beq	x30,x24,80002b8c	 x30:0x00000002 x24:0x00000001
     2522382000	    126017	8000284a	4c15	c.li	x24,5	 x24=0x00000005
     2522462000	    126021	8000284c	638f0a63	beq	x30,x24,80002e80	 x30:0x00000002 x24:0x00000005
     2522562000	    126026	80002850	4c1d	c.li	x24,7	 x24=0x00000007
     2522862000	    126041	80002852	158f0ce3	beq	x30,x24,800031aa	 x30:0x00000002 x24:0x00000007
     2524222000	    126109	80002856	4c31	c.li	x24,12	 x24=0x0000000c
     2524262000	    126111	80002858	018f1463	bne	x30,x24,80002860	 x30:0x00000002 x24:0x0000000c
     2524542000	    126125	80002860	4c35	c.li	x24,13	 x24=0x0000000d
     2524582000	    126127	80002862	018f1463	bne	x30,x24,8000286a	 x30:0x00000002 x24:0x0000000d
     2525262000	    126161	8000286a	4c3d	c.li	x24,15	 x24=0x0000000f
     2525322000	    126164	8000286c	018f1463	bne	x30,x24,80002874	 x30:0x00000002 x24:0x0000000f
     2525422000	    126169	80002874	4c09	c.li	x24,2	 x24=0x00000002
     2525502000	    126173	80002876	018f1463	bne	x30,x24,8000287e	 x30:0x00000002 x24:0x00000002
     2525822000	    126189	8000287a	3740906f	jal	x0,8000bbee	  x0=0x00000000
     2526582000	    126227	8000bbee	90000c37	lui	x24,0x90000	 x24=0x90000000
     2527382000	    126267	8000bbf2	1c71	c.addi	x24,-4	 x24:0x90000000 x24=0x8ffffffc
     2527402000	    126268	8000bbf4	4f29	c.li	x30,10	 x30=0x0000000a
     2527462000	    126271	8000bbf6	0f22	c.slli	x30,0x8	 x30:0x0000000a x30=0x00000a00
     2527502000	    126273	8000bbf8	000f0f13	addi	x30,x30,0	 x30:0x00000a00 x30=0x00000a00
     2527562000	    126276	8000bbfc	01ec2023	sw	x30,0(x24)	 x24:0x8ffffffc x30:0x00000a00 PA:0x8ffffffc store:0x00000a00 load:0xffffffff
     2527582000	    126277	8000bc00	90000c37	lui	x24,0x90000	 x24=0x90000000
     2527642000	    126280	8000bc04	1c71	c.addi	x24,-4	 x24:0x90000000 x24=0x8ffffffc
     2527702000	    126283	8000bc06	34200f13	addi	x30,x0,834	  x0:0x00000000 x30=0x00000342
     2527742000	    126285	8000bc0a	0f22	c.slli	x30,0x8	 x30:0x00000342 x30=0x00034200
     2527782000	    126287	8000bc0c	0f0d	c.addi	x30,3	 x30:0x00034200 x30=0x00034203
     2527842000	    126290	8000bc0e	01ec2023	sw	x30,0(x24)	 x24:0x8ffffffc x30:0x00034203 PA:0x8ffffffc store:0x00034203 load:0xffffffff
     2527962000	    126296	8000bc12	34202f73	csrrs	x30,mcause,x0	  x0:0x00000000 x30=0x00000002
     2528062000	    126301	8000bc16	01ec2023	sw	x30,0(x24)	 x24:0x8ffffffc x30:0x00000002 PA:0x8ffffffc store:0x00000002 load:0xffffffff
     2528342000	    126315	8000bc1a	34102f73	csrrs	x30,mepc,x0	  x0:0x00000000 x30=0x8000ba44
     2528362000	    126316	8000bc1e	0f11	c.addi	x30,4	 x30:0x8000ba44 x30=0x8000ba48
     2529142000	    126355	8000bc20	341f1073	csrrw	x0,mepc,x30	 x30:0x8000ba48  x0=0x00000000
     2529162000	    126356	8000bc24	00028bb3	add	x23,x5,x0	  x5:0x80025c60  x0:0x00000000 x23=0x80025c60
     2529362000	    126366	8000bc28	004ba083	lw	x1,4(x23)	 x23:0x80025c60  x1=0xffffffff PA:0x80025c64 load:0xffffffff
     2529422000	    126369	8000bc2c	008ba103	lw	x2,8(x23)	 x23:0x80025c60  x2=0xffffffff PA:0x80025c68 load:0xffffffff
     2529622000	    126379	8000bc30	00cba183	lw	x3,12(x23)	 x23:0x80025c60  x3=0x00000000 PA:0x80025c6c load:0x00000000
     2530622000	    126429	8000bc34	010ba203	lw	x4,16(x23)	 x23:0x80025c60  x4=0x00000001 PA:0x80025c70 load:0x00000001
     2538582000	    126827	8000bc38	014ba283	lw	x5,20(x23)	 x23:0x80025c60  x5=0x80025ce0 PA:0x80025c74 load:0x80025ce0
     2538982000	    126847	8000bc3c	018ba303	lw	x6,24(x23)	 x23:0x80025c60  x6=0x79d6d000 PA:0x80025c78 load:0x79d6d000
     2539782000	    126887	8000bc40	01cba383	lw	x7,28(x23)	 x23:0x80025c60  x7=0x9ad6d000 PA:0x80025c7c load:0x9ad6d000
     2539842000	    126890	8000bc44	020ba403	lw	x8,32(x23)	 x23:0x80025c60  x8=0xffffffff PA:0x80025c80 load:0xffffffff
     2539922000	    126894	8000bc48	024ba483	lw	x9,36(x23)	 x23:0x80025c60  x9=0x7ffda95b PA:0x80025c84 load:0x7ffda95b
     2540102000	    126903	8000bc4c	028ba503	lw	x10,40(x23)	 x23:0x80025c60 x10=0xffffffd0 PA:0x80025c88 load:0xffffffd0
     2540322000	    126914	8000bc50	02cba583	lw	x11,44(x23)	 x23:0x80025c60 x11=0xfffffcf9 PA:0x80025c8c load:0xfffffcf9
     2540342000	    126915	8000bc54	030ba603	lw	x12,48(x23)	 x23:0x80025c60 x12=0xfffed000 PA:0x80025c90 load:0xfffed000
     2540382000	    126917	8000bc58	034ba683	lw	x13,52(x23)	 x23:0x80025c60 x13=0x00004d6b PA:0x80025c94 load:0x00004d6b
     2540662000	    126931	8000bc5c	038ba703	lw	x14,56(x23)	 x23:0x80025c60 x14=0xff900000 PA:0x80025c98 load:0xff900000
     2540962000	    126946	8000bc60	03cba783	lw	x15,60(x23)	 x23:0x80025c60 x15=0x00000000 PA:0x80025c9c load:0x00000000
     2541462000	    126971	8000bc64	040ba803	lw	x16,64(x23)	 x23:0x80025c60 x16=0x00000000 PA:0x80025ca0 load:0x00000000
     2541522000	    126974	8000bc68	044ba883	lw	x17,68(x23)	 x23:0x80025c60 x17=0x00000000 PA:0x80025ca4 load:0x00000000
     2541942000	    126995	8000bc6c	048ba903	lw	x18,72(x23)	 x23:0x80025c60 x18=0x9ad6cb9d PA:0x80025ca8 load:0x9ad6cb9d
     2542002000	    126998	8000bc70	04cba983	lw	x19,76(x23)	 x23:0x80025c60 x19=0x00000002 PA:0x80025cac load:0x00000002
     2542242000	    127010	8000bc74	050baa03	lw	x20,80(x23)	 x23:0x80025c60 x20=0x0b0f0f0f PA:0x80025cb0 load:0x0b0f0f0f
     2542422000	    127019	8000bc78	054baa83	lw	x21,84(x23)	 x23:0x80025c60 x21=0x9ad6d000 PA:0x80025cb4 load:0x9ad6d000
     2542642000	    127030	8000bc7c	058bab03	lw	x22,88(x23)	 x23:0x80025c60 x22=0x80021df8 PA:0x80025cb8 load:0x80021df8
     2542682000	    127032	8000bc80	05cbab83	lw	x23,92(x23)	 x23:0x80025c60 x23=0x80025c60 PA:0x80025cbc load:0x80025c60
     2542902000	    127043	8000bc84	060bac03	lw	x24,96(x23)	 x23:0x80025c60 x24=0x28001048 PA:0x80025cc0 load:0x28001048
     2542962000	    127046	8000bc88	064bac83	lw	x25,100(x23)	 x23:0x80025c60 x25=0x9ad6cb99 PA:0x80025cc4 load:0x9ad6cb99
     2543662000	    127081	8000bc8c	068bad03	lw	x26,104(x23)	 x23:0x80025c60 x26=0x9ad6c57e PA:0x80025cc8 load:0x9ad6c57e
     2544102000	    127103	8000bc90	06cbad83	lw	x27,108(x23)	 x23:0x80025c60 x27=0x9ad6d000 PA:0x80025ccc load:0x9ad6d000
     2544362000	    127116	8000bc94	070bae03	lw	x28,112(x23)	 x23:0x80025c60 x28=0xfffff809 PA:0x80025cd0 load:0xfffff809
     2544562000	    127126	8000bc98	074bae83	lw	x29,116(x23)	 x23:0x80025c60 x29=0xd03b5288 PA:0x80025cd4 load:0xd03b5288
     2544802000	    127138	8000bc9c	078baf03	lw	x30,120(x23)	 x23:0x80025c60 x30=0x00047adc PA:0x80025cd8 load:0x00047adc
     2545022000	    127149	8000bca0	07cbaf83	lw	x31,124(x23)	 x23:0x80025c60 x31=0xc5c96757 PA:0x80025cdc load:0xc5c96757
     2545082000	    127152	8000bca4	080b8b93	addi	x23,x23,128	 x23:0x80025c60 x23=0x80025ce0
     2545102000	    127153	8000bca8	000b82b3	add	x5,x23,x0	 x23:0x80025ce0  x0:0x00000000  x5=0x80025ce0
     2545602000	    127178	8000bcac	0002ab83	lw	x23,0(x5)	  x5:0x80025ce0 x23=0x80021df8 PA:0x80025ce0 load:0x80021df8
     2545642000	    127180	8000bcb0	0291	c.addi	x5,4	  x5:0x80025ce0  x5=0x80025ce4
     2545682000	    127182	8000bcb2	30200073	mret	
     2545822000	    127189	8000ba48	3a302ef3	csrrs	x29,pmpcfg3,x0	  x0:0x00000000 x29=0x0f0f0f0f
     2546082000	    127202	8000ba4c	81bd	c.srli	x11,0xf	 x11:0xfffffcf9 x11=0x0001ffff
     2546102000	    127203	8000ba4e	8e31	c.xor	x12,x12	 x12:0xfffed000 x12:0xfffed000 x12=0x00000000
     2546142000	    127205	8000ba50	031b0233	mul	x4,x22,x17	 x22:0x80021df8 x17:0x00000000  x4=0x00000000
     2546162000	    127206	8000ba54	0000100f	fence.i	
     2546542000	    127225	8000ba58	01a89c63	bne	x17,x26,8000ba70	 x17:0x00000000 x26:0x9ad6c57e
     2546722000	    127234	8000ba70	01812433	slt	x8,x2,x24	  x2:0xffffffff x24:0x28001048  x8=0x00000001
     2546742000	    127235	8000ba74	414f0d33	sub	x26,x30,x20	 x30:0x00047adc x20:0x0b0f0f0f x26=0xf4f56bcd
     2546822000	    127239	8000ba78	8c59	c.or	x8,x14	  x8:0x00000001 x14:0xff900000  x8=0xff900001
     2546862000	    127241	8000ba7a	03152033	mulhsu	x0,x10,x17	 x10:0xffffffd0 x17:0x00000000  x0=0x00000000
     2546902000	    127243	8000ba7e	46ec6593	ori	x11,x24,1134	 x24:0x28001048 x11=0x2800146e
     2548382000	    127317	8000ba82	02cc5633	divu	x12,x24,x12	 x24:0x28001048 x12:0x00000000 x12=0xffffffff
     2548422000	    127319	8000ba86	03a0ee63	bltu	x1,x26,8000bac2	  x1:0xffffffff x26:0xf4f56bcd
     2548542000	    127325	8000ba8a	018cf863	bgeu	x25,x24,8000ba9a	 x25:0x9ad6cb99 x24:0x28001048
     2549682000	    127382	8000ba9a	035ded33	rem	x26,x27,x21	 x27:0x9ad6d000 x21:0x9ad6d000 x26=0x00000000
     2550442000	    127420	8000ba9e	02bc43b3	div	x7,x24,x11	 x24:0x28001048 x11:0x2800146e  x7=0x00000000
     2550482000	    127422	8000baa2	00cbe133	or	x2,x23,x12	 x23:0x80021df8 x12:0xffffffff  x2=0xffffffff
     2551262000	    127461	8000baa6	717d	c.addi16sp	x2,-16	  x2:0xffffffff  x2=0xffffffef
     2551282000	    127462	8000baa8	8d2ebc13	sltiu	x24,x29,-1838	 x29:0x0f0f0f0f x24=0x00000001
     2551302000	    127463	8000baac	000bfeb3	and	x29,x23,x0	 x23:0x80021df8  x0:0x00000000 x29=0x00000000
     2551342000	    127465	8000bab0	00b571b3	and	x3,x10,x11	 x10:0xffffffd0 x11:0x2800146e  x3=0x28001440
     2551362000	    127466	8000bab4	8ce9	c.and	x9,x10	  x9:0x7ffda95b x10:0xffffffd0  x9=0x7ffda950
     2552142000	    127505	8000bab6	01011863	bne	x2,x16,8000bac6	  x2:0xffffffef x16:0x00000000
     2552302000	    127513	8000bac6	5e7d	c.li	x28,-1	 x28=0xffffffff
     2552442000	    127520	8000bac8	0001	c.addi	x0,0	  x0:0x00000000  x0=0x00000000
     2553382000	    127567	8000baca	0222f3b3	remu	x7,x5,x2	  x5:0x80025ce4  x2:0xffffffef  x7=0x80025ce4
     2553402000	    127568	8000bace	00c49f93	slli	x31,x9,0xc	  x9:0x7ffda950 x31=0xda950000
     2554142000	    127605	8000bad2	02c9c8b3	div	x17,x19,x12	 x19:0x00000002 x12:0xffffffff x17=0xfffffffe
     2554902000	    127643	8000bad6	997d	c.andi	x10,-1	 x10:0xffffffd0 x10=0xffffffd0
     2554982000	    127647	8000bad8	00f19113	slli	x2,x3,0xf	  x3:0x28001440  x2=0x0a200000
     2555022000	    127649	8000badc	02019063	bne	x3,x0,8000bafc	  x3:0x28001440  x0:0x00000000
     2555822000	    127689	8000bafc	02834133	div	x2,x6,x8	  x6:0x79d6d000  x8:0xff900001  x2=0xfffffeea
     2555842000	    127690	8000bb00	8dc9	c.or	x11,x10	 x11:0x2800146e x10:0xffffffd0 x11=0xfffffffe
     2555882000	    127692	8000bb02	8c49	c.or	x8,x10	  x8:0xff900001 x10:0xffffffd0  x8=0xffffffd1
     2555962000	    127696	8000bb04	004ba203	lw	x4,4(x23)	 x23:0x80021df8  x4=0x800038ee PA:0x80021dfc load:0x800038ee
     2555982000	    127697	8000bb08	0bf1	c.addi	x23,28	 x23:0x80021df8 x23=0x80021e14
     2556022000	    127699	8000bb0a	09ae	c.slli	x19,0xb	 x19:0x00000002 x19=0x00001000
     2556042000	    127700	8000bb0c	00120f93	addi	x31,x4,1	  x4:0x800038ee x31=0x800038ef
     2556062000	    127701	8000bb10	8f82	c.jr	x31	 x31:0x800038ef
     2556382000	    127717	800038ee	7c03d973	csrrwi	x18,0x7c0,7	 x18=0x00000106
     2556442000	    127720	800038f2	f14aec73	csrrsi	x0,mhartid,21	  x0=0x00000000
     2557182000	    127757	80002700	0800006f	jal	x0,80002780	  x0=0x00000000
     2558822000	    127839	80002780	12f1	c.addi	x5,-4	  x5:0x80025ce4  x5=0x80025ce0
     2558882000	    127842	80002782	0172a023	sw	x23,0(x5)	  x5:0x80025ce0 x23:0x80021e14 PA:0x80025ce0 store:0x80021e14 load:0xffffffff
     2558982000	    127847	80002786	00028bb3	add	x23,x5,x0	  x5:0x80025ce0  x0:0x00000000 x23=0x80025ce0
     2559162000	    127856	8000278a	f80b8b93	addi	x23,x23,-128	 x23:0x80025ce0 x23=0x80025c60
     2559262000	    127861	8000278e	001ba223	sw	x1,4(x23)	 x23:0x80025c60  x1:0xffffffff PA:0x80025c64 store:0xffffffff load:0xffffffff
     2559642000	    127880	80002792	002ba423	sw	x2,8(x23)	 x23:0x80025c60  x2:0xfffffeea PA:0x80025c68 store:0xfffffeea load:0xffffffff
     2559782000	    127887	80002796	003ba623	sw	x3,12(x23)	 x23:0x80025c60  x3:0x28001440 PA:0x80025c6c store:0x28001440 load:0xffffffff
     2560202000	    127908	8000279a	004ba823	sw	x4,16(x23)	 x23:0x80025c60  x4:0x800038ee PA:0x80025c70 store:0x800038ee load:0xffffffff
     2561162000	    127956	8000279e	005baa23	sw	x5,20(x23)	 x23:0x80025c60  x5:0x80025ce0 PA:0x80025c74 store:0x80025ce0 load:0xffffffff
     2561282000	    127962	800027a2	006bac23	sw	x6,24(x23)	 x23:0x80025c60  x6:0x79d6d000 PA:0x80025c78 store:0x79d6d000 load:0xffffffff
     2561322000	    127964	800027a6	007bae23	sw	x7,28(x23)	 x23:0x80025c60  x7:0x80025ce4 PA:0x80025c7c store:0x80025ce4 load:0xffffffff
     2561362000	    127966	800027aa	028ba023	sw	x8,32(x23)	 x23:0x80025c60  x8:0xffffffd1 PA:0x80025c80 store:0xffffffd1 load:0xffffffff
     2562182000	    128007	800027ae	029ba223	sw	x9,36(x23)	 x23:0x80025c60  x9:0x7ffda950 PA:0x80025c84 store:0x7ffda950 load:0xffffffff
     2562282000	    128012	800027b2	02aba423	sw	x10,40(x23)	 x23:0x80025c60 x10:0xffffffd0 PA:0x80025c88 store:0xffffffd0 load:0xffffffff
     2562462000	    128021	800027b6	02bba623	sw	x11,44(x23)	 x23:0x80025c60 x11:0xfffffffe PA:0x80025c8c store:0xfffffffe load:0xffffffff
     2562682000	    128032	800027ba	02cba823	sw	x12,48(x23)	 x23:0x80025c60 x12:0xffffffff PA:0x80025c90 store:0xffffffff load:0xffffffff
     2562802000	    128038	800027be	02dbaa23	sw	x13,52(x23)	 x23:0x80025c60 x13:0x00004d6b PA:0x80025c94 store:0x00004d6b load:0xffffffff
     2562882000	    128042	800027c2	02ebac23	sw	x14,56(x23)	 x23:0x80025c60 x14:0xff900000 PA:0x80025c98 store:0xff900000 load:0xffffffff
     2562922000	    128044	800027c6	02fbae23	sw	x15,60(x23)	 x23:0x80025c60 x15:0x00000000 PA:0x80025c9c store:0x00000000 load:0xffffffff
     2562942000	    128045	800027ca	050ba023	sw	x16,64(x23)	 x23:0x80025c60 x16:0x00000000 PA:0x80025ca0 store:0x00000000 load:0xffffffff
     2563382000	    128067	800027ce	051ba223	sw	x17,68(x23)	 x23:0x80025c60 x17:0xfffffffe PA:0x80025ca4 store:0xfffffffe load:0xffffffff
     2563862000	    128091	800027d2	052ba423	sw	x18,72(x23)	 x23:0x80025c60 x18:0x00000106 PA:0x80025ca8 store:0x00000106 load:0xffffffff
     2563942000	    128095	800027d6	053ba623	sw	x19,76(x23)	 x23:0x80025c60 x19:0x00001000 PA:0x80025cac store:0x00001000 load:0xffffffff
     2563982000	    128097	800027da	054ba823	sw	x20,80(x23)	 x23:0x80025c60 x20:0x0b0f0f0f PA:0x80025cb0 store:0x0b0f0f0f load:0xffffffff
     2564022000	    128099	800027de	055baa23	sw	x21,84(x23)	 x23:0x80025c60 x21:0x9ad6d000 PA:0x80025cb4 store:0x9ad6d000 load:0xffffffff
     2564062000	    128101	800027e2	056bac23	sw	x22,88(x23)	 x23:0x80025c60 x22:0x80021df8 PA:0x80025cb8 store:0x80021df8 load:0xffffffff
     2564502000	    128123	800027e6	057bae23	sw	x23,92(x23)	 x23:0x80025c60 x23:0x80025c60 PA:0x80025cbc store:0x80025c60 load:0xffffffff
     2564982000	    128147	800027ea	078ba023	sw	x24,96(x23)	 x23:0x80025c60 x24:0x00000001 PA:0x80025cc0 store:0x00000001 load:0xffffffff
     2565042000	    128150	800027ee	079ba223	sw	x25,100(x23)	 x23:0x80025c60 x25:0x9ad6cb99 PA:0x80025cc4 store:0x9ad6cb99 load:0xffffffff
     2565102000	    128153	800027f2	07aba423	sw	x26,104(x23)	 x23:0x80025c60 x26:0x00000000 PA:0x80025cc8 store:0x00000000 load:0xffffffff
     2565902000	    128193	800027f6	07bba623	sw	x27,108(x23)	 x23:0x80025c60 x27:0x9ad6d000 PA:0x80025ccc store:0x9ad6d000 load:0xffffffff
     2566022000	    128199	800027fa	07cba823	sw	x28,112(x23)	 x23:0x80025c60 x28:0xffffffff PA:0x80025cd0 store:0xffffffff load:0xffffffff
     2566082000	    128202	800027fe	07dbaa23	sw	x29,116(x23)	 x23:0x80025c60 x29:0x00000000 PA:0x80025cd4 store:0x00000000 load:0xffffffff
     2566302000	    128213	80002802	07ebac23	sw	x30,120(x23)	 x23:0x80025c60 x30:0x00047adc PA:0x80025cd8 store:0x00047adc load:0xffffffff
     2566802000	    128238	80002806	07fbae23	sw	x31,124(x23)	 x23:0x80025c60 x31:0x800038ef PA:0x80025cdc store:0x800038ef load:0xffffffff
     2566822000	    128239	8000280a	000b82b3	add	x5,x23,x0	 x23:0x80025c60  x0:0x00000000  x5=0x80025c60
     2566862000	    128241	8000280e	90000c37	lui	x24,0x90000	 x24=0x90000000
     2566882000	    128242	80002812	1c71	c.addi	x24,-4	 x24:0x90000000 x24=0x8ffffffc
     2566902000	    128243	80002814	4f21	c.li	x30,8	 x30=0x00000008
     2567702000	    128283	80002816	0f22	c.slli	x30,0x8	 x30:0x00000008 x30=0x00000800
     2567722000	    128284	80002818	000f0f13	addi	x30,x30,0	 x30:0x00000800 x30=0x00000800
     2567782000	    128287	8000281c	01ec2023	sw	x30,0(x24)	 x24:0x8ffffffc x30:0x00000800 PA:0x8ffffffc store:0x00000800 load:0xffffffff
     2567822000	    128289	80002820	34102f73	csrrs	x30,mepc,x0	  x0:0x00000000 x30=0x800038f2
     2567842000	    128290	80002824	34202f73	csrrs	x30,mcause,x0	  x0:0x00000000 x30=0x00000002
     2567882000	    128292	80002828	4c0d	c.li	x24,3	 x24=0x00000003
     2567942000	    128295	8000282a	018f1463	bne	x30,x24,80002832	 x30:0x00000002 x24:0x00000003
     2568342000	    128315	80002832	4c21	c.li	x24,8	 x24=0x00000008
     2568522000	    128324	80002834	058f0d63	beq	x30,x24,8000288e	 x30:0x00000002 x24:0x00000008
     2568562000	    128326	80002838	4c25	c.li	x24,9	 x24=0x00000009
     2568602000	    128328	8000283a	058f0a63	beq	x30,x24,8000288e	 x30:0x00000002 x24:0x00000009
     2568762000	    128336	8000283e	4c2d	c.li	x24,11	 x24=0x0000000b
     2568842000	    128340	80002840	058f0763	beq	x30,x24,8000288e	 x30:0x00000002 x24:0x0000000b
     2568902000	    128343	80002844	4c05	c.li	x24,1	 x24=0x00000001
     2569442000	    128370	80002846	358f0363	beq	x30,x24,80002b8c	 x30:0x00000002 x24:0x00000001
     2570262000	    128411	8000284a	4c15	c.li	x24,5	 x24=0x00000005
     2570302000	    128413	8000284c	638f0a63	beq	x30,x24,80002e80	 x30:0x00000002 x24:0x00000005
     2571082000	    128452	80002850	4c1d	c.li	x24,7	 x24=0x00000007
     2571122000	    128454	80002852	158f0ce3	beq	x30,x24,800031aa	 x30:0x00000002 x24:0x00000007
     2571202000	    128458	80002856	4c31	c.li	x24,12	 x24=0x0000000c
     2572002000	    128498	80002858	018f1463	bne	x30,x24,80002860	 x30:0x00000002 x24:0x0000000c
     2572042000	    128500	80002860	4c35	c.li	x24,13	 x24=0x0000000d
     2572822000	    128539	80002862	018f1463	bne	x30,x24,8000286a	 x30:0x00000002 x24:0x0000000d
     2573602000	    128578	8000286a	4c3d	c.li	x24,15	 x24=0x0000000f
     2573642000	    128580	8000286c	018f1463	bne	x30,x24,80002874	 x30:0x00000002 x24:0x0000000f
     2574442000	    128620	80002874	4c09	c.li	x24,2	 x24=0x00000002
     2574482000	    128622	80002876	018f1463	bne	x30,x24,8000287e	 x30:0x00000002 x24:0x00000002
     2574542000	    128625	8000287a	3740906f	jal	x0,8000bbee	  x0=0x00000000
     2575262000	    128661	8000bbee	90000c37	lui	x24,0x90000	 x24=0x90000000
     2575282000	    128662	8000bbf2	1c71	c.addi	x24,-4	 x24:0x90000000 x24=0x8ffffffc
     2575302000	    128663	8000bbf4	4f29	c.li	x30,10	 x30=0x0000000a
     2575362000	    128666	8000bbf6	0f22	c.slli	x30,0x8	 x30:0x0000000a x30=0x00000a00
     2575382000	    128667	8000bbf8	000f0f13	addi	x30,x30,0	 x30:0x00000a00 x30=0x00000a00
     2575442000	    128670	8000bbfc	01ec2023	sw	x30,0(x24)	 x24:0x8ffffffc x30:0x00000a00 PA:0x8ffffffc store:0x00000a00 load:0xffffffff
     2575742000	    128685	8000bc00	90000c37	lui	x24,0x90000	 x24=0x90000000
     2575762000	    128686	8000bc04	1c71	c.addi	x24,-4	 x24:0x90000000 x24=0x8ffffffc
     2575782000	    128687	8000bc06	34200f13	addi	x30,x0,834	  x0:0x00000000 x30=0x00000342
     2575822000	    128689	8000bc0a	0f22	c.slli	x30,0x8	 x30:0x00000342 x30=0x00034200
     2576202000	    128708	8000bc0c	0f0d	c.addi	x30,3	 x30:0x00034200 x30=0x00034203
     2576362000	    128716	8000bc0e	01ec2023	sw	x30,0(x24)	 x24:0x8ffffffc x30:0x00034203 PA:0x8ffffffc store:0x00034203 load:0xffffffff
     2576462000	    128721	8000bc12	34202f73	csrrs	x30,mcause,x0	  x0:0x00000000 x30=0x00000002
     2577102000	    128753	8000bc16	01ec2023	sw	x30,0(x24)	 x24:0x8ffffffc x30:0x00000002 PA:0x8ffffffc store:0x00000002 load:0xffffffff
     2577142000	    128755	8000bc1a	34102f73	csrrs	x30,mepc,x0	  x0:0x00000000 x30=0x800038f2
     2577162000	    128756	8000bc1e	0f11	c.addi	x30,4	 x30:0x800038f2 x30=0x800038f6
     2577202000	    128758	8000bc20	341f1073	csrrw	x0,mepc,x30	 x30:0x800038f6  x0=0x00000000
     2577222000	    128759	8000bc24	00028bb3	add	x23,x5,x0	  x5:0x80025c60  x0:0x00000000 x23=0x80025c60
     2577282000	    128762	8000bc28	004ba083	lw	x1,4(x23)	 x23:0x80025c60  x1=0xffffffff PA:0x80025c64 load:0xffffffff
     2578222000	    128809	8000bc2c	008ba103	lw	x2,8(x23)	 x23:0x80025c60  x2=0xfffffeea PA:0x80025c68 load:0xfffffeea
     2578262000	    128811	8000bc30	00cba183	lw	x3,12(x23)	 x23:0x80025c60  x3=0x28001440 PA:0x80025c6c load:0x28001440
     2578302000	    128813	8000bc34	010ba203	lw	x4,16(x23)	 x23:0x80025c60  x4=0x800038ee PA:0x80025c70 load:0x800038ee
     2579122000	    128854	8000bc38	014ba283	lw	x5,20(x23)	 x23:0x80025c60  x5=0x80025ce0 PA:0x80025c74 load:0x80025ce0
     2579142000	    128855	8000bc3c	018ba303	lw	x6,24(x23)	 x23:0x80025c60  x6=0x79d6d000 PA:0x80025c78 load:0x79d6d000
     2579362000	    128866	8000bc40	01cba383	lw	x7,28(x23)	 x23:0x80025c60  x7=0x80025ce4 PA:0x80025c7c load:0x80025ce4
     2580182000	    128907	8000bc44	020ba403	lw	x8,32(x23)	 x23:0x80025c60  x8=0xffffffd1 PA:0x80025c80 load:0xffffffd1
     2580202000	    128908	8000bc48	024ba483	lw	x9,36(x23)	 x23:0x80025c60  x9=0x7ffda950 PA:0x80025c84 load:0x7ffda950
     2580222000	    128909	8000bc4c	028ba503	lw	x10,40(x23)	 x23:0x80025c60 x10=0xffffffd0 PA:0x80025c88 load:0xffffffd0
     2581042000	    128950	8000bc50	02cba583	lw	x11,44(x23)	 x23:0x80025c60 x11=0xfffffffe PA:0x80025c8c load:0xfffffffe
     2581142000	    128955	8000bc54	030ba603	lw	x12,48(x23)	 x23:0x80025c60 x12=0xffffffff PA:0x80025c90 load:0xffffffff
     2581282000	    128962	8000bc58	034ba683	lw	x13,52(x23)	 x23:0x80025c60 x13=0x00004d6b PA:0x80025c94 load:0x00004d6b
     2581342000	    128965	8000bc5c	038ba703	lw	x14,56(x23)	 x23:0x80025c60 x14=0xff900000 PA:0x80025c98 load:0xff900000
     2581702000	    128983	8000bc60	03cba783	lw	x15,60(x23)	 x23:0x80025c60 x15=0x00000000 PA:0x80025c9c load:0x00000000
     2581782000	    128987	8000bc64	040ba803	lw	x16,64(x23)	 x23:0x80025c60 x16=0x00000000 PA:0x80025ca0 load:0x00000000
     2581882000	    128992	8000bc68	044ba883	lw	x17,68(x23)	 x23:0x80025c60 x17=0xfffffffe PA:0x80025ca4 load:0xfffffffe
     2582062000	    129001	8000bc6c	048ba903	lw	x18,72(x23)	 x23:0x80025c60 x18=0x00000106 PA:0x80025ca8 load:0x00000106
     2582442000	    129020	8000bc70	04cba983	lw	x19,76(x23)	 x23:0x80025c60 x19=0x00001000 PA:0x80025cac load:0x00001000
     2582502000	    129023	8000bc74	050baa03	lw	x20,80(x23)	 x23:0x80025c60 x20=0x0b0f0f0f PA:0x80025cb0 load:0x0b0f0f0f
     2582642000	    129030	8000bc78	054baa83	lw	x21,84(x23)	 x23:0x80025c60 x21=0x9ad6d000 PA:0x80025cb4 load:0x9ad6d000
     2584202000	    129108	8000bc7c	058bab03	lw	x22,88(x23)	 x23:0x80025c60 x22=0x80021df8 PA:0x80025cb8 load:0x80021df8
     2584462000	    129121	8000bc80	05cbab83	lw	x23,92(x23)	 x23:0x80025c60 x23=0x80025c60 PA:0x80025cbc load:0x80025c60
     2585342000	    129165	8000bc84	060bac03	lw	x24,96(x23)	 x23:0x80025c60 x24=0x00000001 PA:0x80025cc0 load:0x00000001
     2585402000	    129168	8000bc88	064bac83	lw	x25,100(x23)	 x23:0x80025c60 x25=0x9ad6cb99 PA:0x80025cc4 load:0x9ad6cb99
     2585702000	    129183	8000bc8c	068bad03	lw	x26,104(x23)	 x23:0x80025c60 x26=0x00000000 PA:0x80025cc8 load:0x00000000
     2585822000	    129189	8000bc90	06cbad83	lw	x27,108(x23)	 x23:0x80025c60 x27=0x9ad6d000 PA:0x80025ccc load:0x9ad6d000
     2585842000	    129190	8000bc94	070bae03	lw	x28,112(x23)	 x23:0x80025c60 x28=0xffffffff PA:0x80025cd0 load:0xffffffff
     2585982000	    129197	8000bc98	074bae83	lw	x29,116(x23)	 x23:0x80025c60 x29=0x00000000 PA:0x80025cd4 load:0x00000000
     2586302000	    129213	8000bc9c	078baf03	lw	x30,120(x23)	 x23:0x80025c60 x30=0x00047adc PA:0x80025cd8 load:0x00047adc
     2587102000	    129253	8000bca0	07cbaf83	lw	x31,124(x23)	 x23:0x80025c60 x31=0x800038ef PA:0x80025cdc load:0x800038ef
     2587122000	    129254	8000bca4	080b8b93	addi	x23,x23,128	 x23:0x80025c60 x23=0x80025ce0
     2587142000	    129255	8000bca8	000b82b3	add	x5,x23,x0	 x23:0x80025ce0  x0:0x00000000  x5=0x80025ce0
     2587282000	    129262	8000bcac	0002ab83	lw	x23,0(x5)	  x5:0x80025ce0 x23=0x80021e14 PA:0x80025ce0 load:0x80021e14
     2587302000	    129263	8000bcb0	0291	c.addi	x5,4	  x5:0x80025ce0  x5=0x80025ce4
     2587322000	    129264	8000bcb2	30200073	mret	
     2588082000	    129302	800038f6	004f5313	srli	x6,x30,0x4	 x30:0x00047adc  x6=0x000047ad
     2588122000	    129304	800038fa	ea81	c.bnez	x13,8000390a	 x13:0x00004d6b
     2588722000	    129334	8000390a	0001	c.addi	x0,0	  x0:0x00000000  x0=0x00000000
     2589502000	    129373	8000390c	826d	c.srli	x12,0x1b	 x12:0xffffffff x12=0x0000001f
     2589542000	    129375	8000390e	02213433	mulhu	x8,x2,x2	  x2:0xfffffeea  x2:0xfffffeea  x8=0xfffffdd4
     2589562000	    129376	80003912	6dad	c.lui	x27,0xb	 x27=0x0000b000
     2590342000	    129415	80003914	01c17263	bgeu	x2,x28,80003918	  x2:0xfffffeea x28:0xffffffff
     2590382000	    129417	80003918	32c024f3	csrrs	x9,mhpmevent12,x0	  x0:0x00000000  x9=0x00000200
     2590422000	    129419	8000391c	3b606573	csrrsi	x10,pmpaddr6,0	 x10=0x3999a6c8
     2590442000	    129420	80003920	0116d4b3	srl	x9,x13,x17	 x13:0x00004d6b x17:0xfffffffe  x9=0x00000000
     2590502000	    129423	80003924	408e0eb3	sub	x29,x28,x8	 x28:0xffffffff  x8:0xfffffdd4 x29=0x0000022b
     2590662000	    129431	80003928	8ec1	c.or	x13,x8	 x13:0x00004d6b  x8:0xfffffdd4 x13=0xfffffdff
     2590682000	    129432	8000392a	4855	c.li	x16,21	 x16=0x00000015
     2590722000	    129434	8000392c	8ca1	c.xor	x9,x8	  x9:0x00000000  x8:0xfffffdd4  x9=0xfffffdd4
     2591082000	    129452	8000392e	f1507ff3	csrrci	x31,0xf15,0	 x31=0x00000000
     2591102000	    129453	80003932	01019c93	slli	x25,x3,0x10	  x3:0x28001440 x25=0x14400000
     2591422000	    129469	80003936	004ba203	lw	x4,4(x23)	 x23:0x80021e14  x4=0x80003830 PA:0x80021e18 load:0x80003830
     2591462000	    129471	8000393a	7c149373	csrrw	x6,0x7c1,x9	  x9:0xfffffdd4  x6=0x00000000
     2591522000	    129474	8000393e	987d	c.andi	x8,-1	  x8:0xfffffdd4  x8=0xfffffdd4
     2591602000	    129478	80003940	024b8b93	addi	x23,x23,36	 x23:0x80021e14 x23=0x80021e38
     2592362000	    129516	80003944	03f45433	divu	x8,x8,x31	  x8:0xfffffdd4 x31:0x00000000  x8=0xffffffff
     2592382000	    129517	80003948	00020613	addi	x12,x4,0	  x4:0x80003830 x12=0x80003830
     2592402000	    129518	8000394c	00060667	jalr	x12,0(x12)	 x12:0x80003830 x12=0x80003950
     2592622000	    129529	80003830	65eb0813	addi	x16,x22,1630	 x22:0x80021df8 x16=0x80022456
     2592702000	    129533	80003834	026983b3	mul	x7,x19,x6	 x19:0x00001000  x6:0x00000000  x7=0x00000000
     2592822000	    129539	80003838	748c6593	ori	x11,x24,1864	 x24:0x00000001 x11=0x00000749
     2593242000	    129560	8000383c	0ff0000f	fence	iorw,iorw	
     2593262000	    129561	80003840	74707e73	csrrci	x28,0x747,0	 x28=0x00000004
     2593402000	    129568	80003844	033d1733	mulh	x14,x26,x19	 x26:0x00000000 x19:0x00001000 x14=0x00000000
     2593442000	    129570	80003848	881a	c.mv	x16,x6	  x0:0x00000000  x6:0x00000000 x16=0x00000000
     2593462000	    129571	8000384a	8021	c.srli	x8,0x8	  x8:0xffffffff  x8=0x00ffffff
     2593502000	    129573	8000384c	019f0d63	beq	x30,x25,80003866	 x30:0x00047adc x25:0x14400000
     2593542000	    129575	80003850	006dcdb3	xor	x27,x27,x6	 x27:0x0000b000  x6:0x00000000 x27=0x0000b000
     2593562000	    129576	80003854	008514b3	sll	x9,x10,x8	 x10:0x3999a6c8  x8:0x00ffffff  x9=0x00000000
     2593882000	    129592	80003858	6269	c.lui	x4,0x1a	  x4=0x0001a000
     2594162000	    129606	8000385a	003605b3	add	x11,x12,x3	 x12:0x80003950  x3:0x28001440 x11=0xa8004d90
     2594182000	    129607	8000385e	8cd5	c.or	x9,x13	  x9:0x00000000 x13:0xfffffdff  x9=0xfffffdff
     2594202000	    129608	80003860	4089	c.li	x1,2	  x1=0x00000002
     2594382000	    129617	80003862	0008f763	bgeu	x17,x0,80003870	 x17:0xfffffffe  x0:0x00000000
     2595462000	    129671	80003870	022609b3	mul	x19,x12,x2	 x12:0x80003950  x2:0xfffffeea x19=0xffc1c320
     2595762000	    129686	80003874	8c05	c.sub	x8,x9	  x8:0x00ffffff  x9:0xfffffdff  x8=0x01000200
     2595842000	    129690	80003876	b0607173	csrrci	x2,mhpmcounter6,0	  x2=0x000002b1
     2595862000	    129691	8000387a	1a7d	c.addi	x20,-1	 x20:0x0b0f0f0f x20=0x0b0f0f0e
     2596122000	    129704	8000387c	005cd993	srli	x19,x25,0x5	 x25:0x14400000 x19=0x00a20000
     2596902000	    129743	80003880	03731f33	mulh	x30,x6,x23	  x6:0x00000000 x23:0x80021e38 x30=0x00000000
     2596942000	    129745	80003884	026d8433	mul	x8,x27,x6	 x27:0x0000b000  x6:0x00000000  x8=0x00000000
     2596962000	    129746	80003888	0031b033	sltu	x0,x3,x3	  x3:0x28001440  x3:0x28001440  x0=0x00000000
     2597022000	    129749	8000388c	01d0e463	bltu	x1,x29,80003894	  x1:0x00000002 x29:0x0000022b
     2597102000	    129753	80003894	018f4863	blt	x30,x24,800038a4	 x30:0x00000000 x24:0x00000001
     2597482000	    129772	800038a4	0b243fb7	lui	x31,0xb243	 x31=0x0b243000
     2597742000	    129785	800038a8	00a28133	add	x2,x5,x10	  x5:0x80025ce4 x10:0x3999a6c8  x2=0xb99c03ac
     2598122000	    129804	800038ac	004ba203	lw	x4,4(x23)	 x23:0x80021e38  x4=0x8000361a PA:0x80021e3c load:0x8000361a
     2598882000	    129842	800038b0	02cb8b93	addi	x23,x23,44	 x23:0x80021e38 x23=0x80021e64
     2598902000	    129843	800038b4	0ff0000f	fence	iorw,iorw	
     2599662000	    129881	800038b8	8e51	c.or	x12,x12	 x12:0x80003950 x12:0x80003950 x12=0x80003950
     2599702000	    129883	800038ba	00120613	addi	x12,x4,1	  x4:0x8000361a x12=0x8000361b
     2599722000	    129884	800038be	8602	c.jr	x12	 x12:0x8000361b
     2599802000	    129888	8000361a	5c7d	c.li	x24,-1	 x24=0xffffffff
     2599842000	    129890	8000361c	02ce1963	bne	x28,x12,8000364e	 x28:0x00000004 x12:0x8000361b
     2600242000	    129910	8000364e	038891b3	mulh	x3,x17,x24	 x17:0xfffffffe x24:0xffffffff  x3=0x00000000
     2601102000	    129953	80003652	021b4433	div	x8,x22,x1	 x22:0x80021df8  x1:0x00000002  x8=0xc0010efc
     2601142000	    129955	80003656	41075513	srai	x10,x14,0x10	 x14:0x00000000 x10=0x00000000
     2601182000	    129957	8000365a	03e31933	mulh	x18,x6,x30	  x6:0x00000000 x30:0x00000000 x18=0x00000000
     2601202000	    129958	8000365e	00d71f93	slli	x31,x14,0xd	 x14:0x00000000 x31=0x00000000
     2601262000	    129961	80003662	03460433	mul	x8,x12,x20	 x12:0x8000361b x20:0x0b0f0f0e  x8=0x57c38a7a
     2602022000	    129999	80003666	8e79	c.and	x12,x14	 x12:0x8000361b x14:0x00000000 x12=0x00000000
     2602042000	    130000	80003668	00f900b3	add	x1,x18,x15	 x18:0x00000000 x15:0x00000000  x1=0x00000000
     2602062000	    130001	8000366c	b0c06573	csrrsi	x10,mhpmcounter12,0	 x10=0x0000778a
     2602122000	    130004	80003670	01bee263	bltu	x29,x27,80003674	 x29:0x0000022b x27:0x0000b000
     2602902000	    130043	80003674	00658cb3	add	x25,x11,x6	 x11:0xa8004d90  x6:0x00000000 x25=0xa8004d90
     2602922000	    130044	80003678	ffffd797	auipc	x15,0xffffd	 x15=0x80000678
     2602942000	    130045	8000367c	cdc78793	addi	x15,x15,-804	 x15:0x80000678 x15=0x80000354
     2603702000	    130083	80003680	00078067	jalr	x0,0(x15)	 x15:0x80000354  x0=0x00000000
     2604062000	    130101	80000354	90000c37	lui	x24,0x90000	 x24=0x90000000
     2604202000	    130108	80000358	1c61	c.addi	x24,-8	 x24:0x90000000 x24=0x8ffffff8
     2604222000	    130109	8000035a	4f01	c.li	x30,0	 x30=0x00000000
     2604242000	    130110	8000035c	0f22	c.slli	x30,0x8	 x30:0x00000000 x30=0x00000000
     2604282000	    130112	8000035e	0f05	c.addi	x30,1	 x30:0x00000000 x30=0x00000001
     2604482000	    130122	80000360	01ec2023	sw	x30,0(x24)	 x24:0x8ffffff8 x30:0x00000001 PA:0x8ffffff8 store:0x00000001 load:0xffffffff
     2604502000	    130123	80000364	00000073	ecall	
     2604562000	    130126	80002700	0800006f	jal	x0,80002780	  x0=0x00000000
     2604622000	    130129	80002780	12f1	c.addi	x5,-4	  x5:0x80025ce4  x5=0x80025ce0
     2605062000	    130151	80002782	0172a023	sw	x23,0(x5)	  x5:0x80025ce0 x23:0x80021e64 PA:0x80025ce0 store:0x80021e64 load:0xffffffff
     2608862000	    130341	80002786	00028bb3	add	x23,x5,x0	  x5:0x80025ce0  x0:0x00000000 x23=0x80025ce0
     2608882000	    130342	8000278a	f80b8b93	addi	x23,x23,-128	 x23:0x80025ce0 x23=0x80025c60
     2608942000	    130345	8000278e	001ba223	sw	x1,4(x23)	 x23:0x80025c60  x1:0x00000000 PA:0x80025c64 store:0x00000000 load:0xffffffff
     2609802000	    130388	80002792	002ba423	sw	x2,8(x23)	 x23:0x80025c60  x2:0xb99c03ac PA:0x80025c68 store:0xb99c03ac load:0xffffffff
     2610102000	    130403	80002796	003ba623	sw	x3,12(x23)	 x23:0x80025c60  x3:0x00000000 PA:0x80025c6c store:0x00000000 load:0xffffffff
     2610182000	    130407	8000279a	004ba823	sw	x4,16(x23)	 x23:0x80025c60  x4:0x8000361a PA:0x80025c70 store:0x8000361a load:0xffffffff
     2611082000	    130452	8000279e	005baa23	sw	x5,20(x23)	 x23:0x80025c60  x5:0x80025ce0 PA:0x80025c74 store:0x80025ce0 load:0xffffffff
     2611322000	    130464	800027a2	006bac23	sw	x6,24(x23)	 x23:0x80025c60  x6:0x00000000 PA:0x80025c78 store:0x00000000 load:0xffffffff
     2611422000	    130469	800027a6	007bae23	sw	x7,28(x23)	 x23:0x80025c60  x7:0x00000000 PA:0x80025c7c store:0x00000000 load:0xffffffff
     2611502000	    130473	800027aa	028ba023	sw	x8,32(x23)	 x23:0x80025c60  x8:0x57c38a7a PA:0x80025c80 store:0x57c38a7a load:0xffffffff
     2611922000	    130494	800027ae	029ba223	sw	x9,36(x23)	 x23:0x80025c60  x9:0xfffffdff PA:0x80025c84 store:0xfffffdff load:0xffffffff
     2612182000	    130507	800027b2	02aba423	sw	x10,40(x23)	 x23:0x80025c60 x10:0x0000778a PA:0x80025c88 store:0x0000778a load:0xffffffff
     2612442000	    130520	800027b6	02bba623	sw	x11,44(x23)	 x23:0x80025c60 x11:0xa8004d90 PA:0x80025c8c store:0xa8004d90 load:0xffffffff
     2612482000	    130522	800027ba	02cba823	sw	x12,48(x23)	 x23:0x80025c60 x12:0x00000000 PA:0x80025c90 store:0x00000000 load:0xffffffff
     2612522000	    130524	800027be	02dbaa23	sw	x13,52(x23)	 x23:0x80025c60 x13:0xfffffdff PA:0x80025c94 store:0xfffffdff load:0xffffffff
     2612542000	    130525	800027c2	02ebac23	sw	x14,56(x23)	 x23:0x80025c60 x14:0x00000000 PA:0x80025c98 store:0x00000000 load:0xffffffff
     2613342000	    130565	800027c6	02fbae23	sw	x15,60(x23)	 x23:0x80025c60 x15:0x80000354 PA:0x80025c9c store:0x80000354 load:0xffffffff
     2613362000	    130566	800027ca	050ba023	sw	x16,64(x23)	 x23:0x80025c60 x16:0x00000000 PA:0x80025ca0 store:0x00000000 load:0xffffffff
     2613722000	    130584	800027ce	051ba223	sw	x17,68(x23)	 x23:0x80025c60 x17:0xfffffffe PA:0x80025ca4 store:0xfffffffe load:0xffffffff
     2614702000	    130633	800027d2	052ba423	sw	x18,72(x23)	 x23:0x80025c60 x18:0x00000000 PA:0x80025ca8 store:0x00000000 load:0xffffffff
     2614862000	    130641	800027d6	053ba623	sw	x19,76(x23)	 x23:0x80025c60 x19:0x00a20000 PA:0x80025cac store:0x00a20000 load:0xffffffff
     2615122000	    130654	800027da	054ba823	sw	x20,80(x23)	 x23:0x80025c60 x20:0x0b0f0f0e PA:0x80025cb0 store:0x0b0f0f0e load:0xffffffff
     2615202000	    130658	800027de	055baa23	sw	x21,84(x23)	 x23:0x80025c60 x21:0x9ad6d000 PA:0x80025cb4 store:0x9ad6d000 load:0xffffffff
     2615422000	    130669	800027e2	056bac23	sw	x22,88(x23)	 x23:0x80025c60 x22:0x80021df8 PA:0x80025cb8 store:0x80021df8 load:0xffffffff
     2615522000	    130674	800027e6	057bae23	sw	x23,92(x23)	 x23:0x80025c60 x23:0x80025c60 PA:0x80025cbc store:0x80025c60 load:0xffffffff
     2615562000	    130676	800027ea	078ba023	sw	x24,96(x23)	 x23:0x80025c60 x24:0x8ffffff8 PA:0x80025cc0 store:0x8ffffff8 load:0xffffffff
     2615702000	    130683	800027ee	079ba223	sw	x25,100(x23)	 x23:0x80025c60 x25:0xa8004d90 PA:0x80025cc4 store:0xa8004d90 load:0xffffffff
     2615902000	    130693	800027f2	07aba423	sw	x26,104(x23)	 x23:0x80025c60 x26:0x00000000 PA:0x80025cc8 store:0x00000000 load:0xffffffff
     2616002000	    130698	800027f6	07bba623	sw	x27,108(x23)	 x23:0x80025c60 x27:0x0000b000 PA:0x80025ccc store:0x0000b000 load:0xffffffff
     2616802000	    130738	800027fa	07cba823	sw	x28,112(x23)	 x23:0x80025c60 x28:0x00000004 PA:0x80025cd0 store:0x00000004 load:0xffffffff
     2617642000	    130780	800027fe	07dbaa23	sw	x29,116(x23)	 x23:0x80025c60 x29:0x0000022b PA:0x80025cd4 store:0x0000022b load:0xffffffff
     2617662000	    130781	80002802	07ebac23	sw	x30,120(x23)	 x23:0x80025c60 x30:0x00000001 PA:0x80025cd8 store:0x00000001 load:0xffffffff
     2617782000	    130787	80002806	07fbae23	sw	x31,124(x23)	 x23:0x80025c60 x31:0x00000000 PA:0x80025cdc store:0x00000000 load:0xffffffff
     2617802000	    130788	8000280a	000b82b3	add	x5,x23,x0	 x23:0x80025c60  x0:0x00000000  x5=0x80025c60
     2617842000	    130790	8000280e	90000c37	lui	x24,0x90000	 x24=0x90000000
     2617862000	    130791	80002812	1c71	c.addi	x24,-4	 x24:0x90000000 x24=0x8ffffffc
     2617882000	    130792	80002814	4f21	c.li	x30,8	 x30=0x00000008
     2617942000	    130795	80002816	0f22	c.slli	x30,0x8	 x30:0x00000008 x30=0x00000800
     2617962000	    130796	80002818	000f0f13	addi	x30,x30,0	 x30:0x00000800 x30=0x00000800
     2618022000	    130799	8000281c	01ec2023	sw	x30,0(x24)	 x24:0x8ffffffc x30:0x00000800 PA:0x8ffffffc store:0x00000800 load:0xffffffff
     2618782000	    130837	80002820	34102f73	csrrs	x30,mepc,x0	  x0:0x00000000 x30=0x80000364
     2618802000	    130838	80002824	34202f73	csrrs	x30,mcause,x0	  x0:0x00000000 x30=0x0000000b
     2618842000	    130840	80002828	4c0d	c.li	x24,3	 x24=0x00000003
     2618882000	    130842	8000282a	018f1463	bne	x30,x24,80002832	 x30:0x0000000b x24:0x00000003
     2620442000	    130920	80002832	4c21	c.li	x24,8	 x24=0x00000008
     2620482000	    130922	80002834	058f0d63	beq	x30,x24,8000288e	 x30:0x0000000b x24:0x00000008
     2620522000	    130924	80002838	4c25	c.li	x24,9	 x24=0x00000009
     2620562000	    130926	8000283a	058f0a63	beq	x30,x24,8000288e	 x30:0x0000000b x24:0x00000009
     2620602000	    130928	8000283e	4c2d	c.li	x24,11	 x24=0x0000000b
     2621402000	    130968	80002840	058f0763	beq	x30,x24,8000288e	 x30:0x0000000b x24:0x0000000b
     2621502000	    130973	8000288e	90000c37	lui	x24,0x90000	 x24=0x90000000
     2621522000	    130974	80002892	1c71	c.addi	x24,-4	 x24:0x90000000 x24=0x8ffffffc
     2621562000	    130976	80002894	6f05	c.lui	x30,0x1	 x30=0x00001000
     2621822000	    130989	80002896	b00f0f13	addi	x30,x30,-1280	 x30:0x00001000 x30=0x00000b00
     2621842000	    130990	8000289a	0f22	c.slli	x30,0x8	 x30:0x00000b00 x30=0x000b0000
     2622062000	    131001	8000289c	0f0d	c.addi	x30,3	 x30:0x000b0000 x30=0x000b0003
     2623162000	    131056	8000289e	01ec2023	sw	x30,0(x24)	 x24:0x8ffffffc x30:0x000b0003 PA:0x8ffffffc store:0x000b0003 load:0xffffffff
     2623202000	    131058	800028a2	b0002f73	csrrs	x30,mcycle,x0	  x0:0x00000000 x30=0x0001ffed
     2623722000	    131084	800028a6	01ec2023	sw	x30,0(x24)	 x24:0x8ffffffc x30:0x0001ffed PA:0x8ffffffc store:0x0001ffed load:0xffffffff
     2623742000	    131085	800028aa	90000c37	lui	x24,0x90000	 x24=0x90000000
     2623762000	    131086	800028ae	1c71	c.addi	x24,-4	 x24:0x90000000 x24=0x8ffffffc
     2623802000	    131088	800028b0	6f05	c.lui	x30,0x1	 x30=0x00001000
     2623822000	    131089	800028b2	b80f0f13	addi	x30,x30,-1152	 x30:0x00001000 x30=0x00000b80
     2623862000	    131091	800028b6	0f22	c.slli	x30,0x8	 x30:0x00000b80 x30=0x000b8000
     2623922000	    131094	800028b8	0f0d	c.addi	x30,3	 x30:0x000b8000 x30=0x000b8003
     2624402000	    131118	800028ba	01ec2023	sw	x30,0(x24)	 x24:0x8ffffffc x30:0x000b8003 PA:0x8ffffffc store:0x000b8003 load:0xffffffff
     2624422000	    131119	800028be	b8002f73	csrrs	x30,mcycleh,x0	  x0:0x00000000 x30=0x00000000
     2626202000	    131208	800028c2	01ec2023	sw	x30,0(x24)	 x24:0x8ffffffc x30:0x00000000 PA:0x8ffffffc store:0x00000000 load:0xffffffff
     2626222000	    131209	800028c6	90000c37	lui	x24,0x90000	 x24=0x90000000
     2626262000	    131211	800028ca	1c71	c.addi	x24,-4	 x24:0x90000000 x24=0x8ffffffc
     2626282000	    131212	800028cc	6f05	c.lui	x30,0x1	 x30=0x00001000
     2627042000	    131250	800028ce	b03f0f13	addi	x30,x30,-1277	 x30:0x00001000 x30=0x00000b03
     2627062000	    131251	800028d2	0f22	c.slli	x30,0x8	 x30:0x00000b03 x30=0x000b0300
     2627862000	    131291	800028d4	0f0d	c.addi	x30,3	 x30:0x000b0300 x30=0x000b0303
     2627922000	    131294	800028d6	01ec2023	sw	x30,0(x24)	 x24:0x8ffffffc x30:0x000b0303 PA:0x8ffffffc store:0x000b0303 load:0xffffffff
     2627942000	    131295	800028da	b0302f73	csrrs	x30,mhpmcounter3,x0	  x0:0x00000000 x30=0x0000030d
     2628022000	    131299	800028de	01ec2023	sw	x30,0(x24)	 x24:0x8ffffffc x30:0x0000030d PA:0x8ffffffc store:0x0000030d load:0xffffffff
     2628042000	    131300	800028e2	90000c37	lui	x24,0x90000	 x24=0x90000000
     2628062000	    131301	800028e6	1c71	c.addi	x24,-4	 x24:0x90000000 x24=0x8ffffffc
     2628862000	    131341	800028e8	6f05	c.lui	x30,0x1	 x30=0x00001000
     2628882000	    131342	800028ea	b83f0f13	addi	x30,x30,-1149	 x30:0x00001000 x30=0x00000b83
     2628902000	    131343	800028ee	0f22	c.slli	x30,0x8	 x30:0x00000b83 x30=0x000b8300
     2628942000	    131345	800028f0	0f0d	c.addi	x30,3	 x30:0x000b8300 x30=0x000b8303
     2629542000	    131375	800028f2	01ec2023	sw	x30,0(x24)	 x24:0x8ffffffc x30:0x000b8303 PA:0x8ffffffc store:0x000b8303 load:0xffffffff
     2629582000	    131377	800028f6	b8302f73	csrrs	x30,mhpmcounter3h,x0	  x0:0x00000000 x30=0x00000000
     2629822000	    131389	800028fa	01ec2023	sw	x30,0(x24)	 x24:0x8ffffffc x30:0x00000000 PA:0x8ffffffc store:0x00000000 load:0xffffffff
     2629882000	    131392	800028fe	90000c37	lui	x24,0x90000	 x24=0x90000000
     2629902000	    131393	80002902	1c71	c.addi	x24,-4	 x24:0x90000000 x24=0x8ffffffc
     2629922000	    131394	80002904	6f05	c.lui	x30,0x1	 x30=0x00001000
     2629962000	    131396	80002906	b04f0f13	addi	x30,x30,-1276	 x30:0x00001000 x30=0x00000b04
     2630722000	    131434	8000290a	0f22	c.slli	x30,0x8	 x30:0x00000b04 x30=0x000b0400
     2630742000	    131435	8000290c	0f0d	c.addi	x30,3	 x30:0x000b0400 x30=0x000b0403
     2631542000	    131475	8000290e	01ec2023	sw	x30,0(x24)	 x24:0x8ffffffc x30:0x000b0403 PA:0x8ffffffc store:0x000b0403 load:0xffffffff
     2631562000	    131476	80002912	b0402f73	csrrs	x30,mhpmcounter4,x0	  x0:0x00000000 x30=0x00007b81
     2631582000	    131477	80002916	01ec2023	sw	x30,0(x24)	 x24:0x8ffffffc x30:0x00007b81 PA:0x8ffffffc store:0x00007b81 load:0xffffffff
     2632362000	    131516	8000291a	90000c37	lui	x24,0x90000	 x24=0x90000000
     2632382000	    131517	8000291e	1c71	c.addi	x24,-4	 x24:0x90000000 x24=0x8ffffffc
     2632422000	    131519	80002920	6f05	c.lui	x30,0x1	 x30=0x00001000
     2632442000	    131520	80002922	b84f0f13	addi	x30,x30,-1148	 x30:0x00001000 x30=0x00000b84
     2632502000	    131523	80002926	0f22	c.slli	x30,0x8	 x30:0x00000b84 x30=0x000b8400
     2632522000	    131524	80002928	0f0d	c.addi	x30,3	 x30:0x000b8400 x30=0x000b8403
     2632802000	    131538	8000292a	01ec2023	sw	x30,0(x24)	 x24:0x8ffffffc x30:0x000b8403 PA:0x8ffffffc store:0x000b8403 load:0xffffffff
     2632842000	    131540	8000292e	b8402f73	csrrs	x30,mhpmcounter4h,x0	  x0:0x00000000 x30=0x00000000
     2633302000	    131563	80002932	01ec2023	sw	x30,0(x24)	 x24:0x8ffffffc x30:0x00000000 PA:0x8ffffffc store:0x00000000 load:0xffffffff
     2633322000	    131564	80002936	90000c37	lui	x24,0x90000	 x24=0x90000000
     2633362000	    131566	8000293a	1c71	c.addi	x24,-4	 x24:0x90000000 x24=0x8ffffffc
     2633402000	    131568	8000293c	6f05	c.lui	x30,0x1	 x30=0x00001000
     2633422000	    131569	8000293e	b05f0f13	addi	x30,x30,-1275	 x30:0x00001000 x30=0x00000b05
     2633442000	    131570	80002942	0f22	c.slli	x30,0x8	 x30:0x00000b05 x30=0x000b0500
     2633482000	    131572	80002944	0f0d	c.addi	x30,3	 x30:0x000b0500 x30=0x000b0503
     2633542000	    131575	80002946	01ec2023	sw	x30,0(x24)	 x24:0x8ffffffc x30:0x000b0503 PA:0x8ffffffc store:0x000b0503 load:0xffffffff
     2633582000	    131577	8000294a	b0502f73	csrrs	x30,mhpmcounter5,x0	  x0:0x00000000 x30=0x000000b0
     2633922000	    131594	8000294e	01ec2023	sw	x30,0(x24)	 x24:0x8ffffffc x30:0x000000b0 PA:0x8ffffffc store:0x000000b0 load:0xffffffff
     2634682000	    131632	80002952	90000c37	lui	x24,0x90000	 x24=0x90000000
     2634702000	    131633	80002956	1c71	c.addi	x24,-4	 x24:0x90000000 x24=0x8ffffffc
     2634722000	    131634	80002958	6f05	c.lui	x30,0x1	 x30=0x00001000
     2634762000	    131636	8000295a	b85f0f13	addi	x30,x30,-1147	 x30:0x00001000 x30=0x00000b85
     2635522000	    131674	8000295e	0f22	c.slli	x30,0x8	 x30:0x00000b85 x30=0x000b8500
     2635542000	    131675	80002960	0f0d	c.addi	x30,3	 x30:0x000b8500 x30=0x000b8503
     2635642000	    131680	80002962	01ec2023	sw	x30,0(x24)	 x24:0x8ffffffc x30:0x000b8503 PA:0x8ffffffc store:0x000b8503 load:0xffffffff
     2635662000	    131681	80002966	b8502f73	csrrs	x30,mhpmcounter5h,x0	  x0:0x00000000 x30=0x00000000
     2635742000	    131685	8000296a	01ec2023	sw	x30,0(x24)	 x24:0x8ffffffc x30:0x00000000 PA:0x8ffffffc store:0x00000000 load:0xffffffff
     2636522000	    131724	8000296e	90000c37	lui	x24,0x90000	 x24=0x90000000
     2637282000	    131762	80002972	1c71	c.addi	x24,-4	 x24:0x90000000 x24=0x8ffffffc
     2637302000	    131763	80002974	6f05	c.lui	x30,0x1	 x30=0x00001000
     2637342000	    131765	80002976	b06f0f13	addi	x30,x30,-1274	 x30:0x00001000 x30=0x00000b06
     2637382000	    131767	8000297a	0f22	c.slli	x30,0x8	 x30:0x00000b06 x30=0x000b0600
     2637402000	    131768	8000297c	0f0d	c.addi	x30,3	 x30:0x000b0600 x30=0x000b0603
     2637722000	    131784	8000297e	01ec2023	sw	x30,0(x24)	 x24:0x8ffffffc x30:0x000b0603 PA:0x8ffffffc store:0x000b0603 load:0xffffffff
     2637742000	    131785	80002982	b0602f73	csrrs	x30,mhpmcounter6,x0	  x0:0x00000000 x30=0x000002e4
     2637822000	    131789	80002986	01ec2023	sw	x30,0(x24)	 x24:0x8ffffffc x30:0x000002e4 PA:0x8ffffffc store:0x000002e4 load:0xffffffff
     2637842000	    131790	8000298a	90000c37	lui	x24,0x90000	 x24=0x90000000
     2637862000	    131791	8000298e	1c71	c.addi	x24,-4	 x24:0x90000000 x24=0x8ffffffc
     2638622000	    131829	80002990	6f05	c.lui	x30,0x1	 x30=0x00001000
     2638662000	    131831	80002992	b86f0f13	addi	x30,x30,-1146	 x30:0x00001000 x30=0x00000b86
     2638682000	    131832	80002996	0f22	c.slli	x30,0x8	 x30:0x00000b86 x30=0x000b8600
     2638702000	    131833	80002998	0f0d	c.addi	x30,3	 x30:0x000b8600 x30=0x000b8603
     2638822000	    131839	8000299a	01ec2023	sw	x30,0(x24)	 x24:0x8ffffffc x30:0x000b8603 PA:0x8ffffffc store:0x000b8603 load:0xffffffff
     2638842000	    131840	8000299e	b8602f73	csrrs	x30,mhpmcounter6h,x0	  x0:0x00000000 x30=0x00000000
     2639722000	    131884	800029a2	01ec2023	sw	x30,0(x24)	 x24:0x8ffffffc x30:0x00000000 PA:0x8ffffffc store:0x00000000 load:0xffffffff
     2639742000	    131885	800029a6	90000c37	lui	x24,0x90000	 x24=0x90000000
     2640502000	    131923	800029aa	1c71	c.addi	x24,-4	 x24:0x90000000 x24=0x8ffffffc
     2640522000	    131924	800029ac	6f05	c.lui	x30,0x1	 x30=0x00001000
     2640542000	    131925	800029ae	b07f0f13	addi	x30,x30,-1273	 x30:0x00001000 x30=0x00000b07
     2640582000	    131927	800029b2	0f22	c.slli	x30,0x8	 x30:0x00000b07 x30=0x000b0700
     2640602000	    131928	800029b4	0f0d	c.addi	x30,3	 x30:0x000b0700 x30=0x000b0703
     2641542000	    131975	800029b6	01ec2023	sw	x30,0(x24)	 x24:0x8ffffffc x30:0x000b0703 PA:0x8ffffffc store:0x000b0703 load:0xffffffff
     2641562000	    131976	800029ba	b0702f73	csrrs	x30,mhpmcounter7,x0	  x0:0x00000000 x30=0x0000008d
     2641802000	    131988	800029be	01ec2023	sw	x30,0(x24)	 x24:0x8ffffffc x30:0x0000008d PA:0x8ffffffc store:0x0000008d load:0xffffffff
     2641822000	    131989	800029c2	90000c37	lui	x24,0x90000	 x24=0x90000000
     2641862000	    131991	800029c6	1c71	c.addi	x24,-4	 x24:0x90000000 x24=0x8ffffffc
     2641882000	    131992	800029c8	6f05	c.lui	x30,0x1	 x30=0x00001000
     2641902000	    131993	800029ca	b87f0f13	addi	x30,x30,-1145	 x30:0x00001000 x30=0x00000b87
     2642662000	    132031	800029ce	0f22	c.slli	x30,0x8	 x30:0x00000b87 x30=0x000b8700
     2642682000	    132032	800029d0	0f0d	c.addi	x30,3	 x30:0x000b8700 x30=0x000b8703
     2643142000	    132055	800029d2	01ec2023	sw	x30,0(x24)	 x24:0x8ffffffc x30:0x000b8703 PA:0x8ffffffc store:0x000b8703 load:0xffffffff
     2643182000	    132057	800029d6	b8702f73	csrrs	x30,mhpmcounter7h,x0	  x0:0x00000000 x30=0x00000000
     2644242000	    132110	800029da	01ec2023	sw	x30,0(x24)	 x24:0x8ffffffc x30:0x00000000 PA:0x8ffffffc store:0x00000000 load:0xffffffff
     2644282000	    132112	800029de	90000c37	lui	x24,0x90000	 x24=0x90000000
     2644302000	    132113	800029e2	1c71	c.addi	x24,-4	 x24:0x90000000 x24=0x8ffffffc
     2644342000	    132115	800029e4	6f05	c.lui	x30,0x1	 x30=0x00001000
     2644362000	    132116	800029e6	b08f0f13	addi	x30,x30,-1272	 x30:0x00001000 x30=0x00000b08
     2644402000	    132118	800029ea	0f22	c.slli	x30,0x8	 x30:0x00000b08 x30=0x000b0800
     2644442000	    132120	800029ec	0f0d	c.addi	x30,3	 x30:0x000b0800 x30=0x000b0803
     2644582000	    132127	800029ee	01ec2023	sw	x30,0(x24)	 x24:0x8ffffffc x30:0x000b0803 PA:0x8ffffffc store:0x000b0803 load:0xffffffff
     2644602000	    132128	800029f2	b0802f73	csrrs	x30,mhpmcounter8,x0	  x0:0x00000000 x30=0x00000068
     2645402000	    132168	800029f6	01ec2023	sw	x30,0(x24)	 x24:0x8ffffffc x30:0x00000068 PA:0x8ffffffc store:0x00000068 load:0xffffffff
     2645442000	    132170	800029fa	90000c37	lui	x24,0x90000	 x24=0x90000000
     2646202000	    132208	800029fe	1c71	c.addi	x24,-4	 x24:0x90000000 x24=0x8ffffffc
     2646222000	    132209	80002a00	6f05	c.lui	x30,0x1	 x30=0x00001000
     2646262000	    132211	80002a02	b88f0f13	addi	x30,x30,-1144	 x30:0x00001000 x30=0x00000b88
     2646282000	    132212	80002a06	0f22	c.slli	x30,0x8	 x30:0x00000b88 x30=0x000b8800
     2646302000	    132213	80002a08	0f0d	c.addi	x30,3	 x30:0x000b8800 x30=0x000b8803
     2646582000	    132227	80002a0a	01ec2023	sw	x30,0(x24)	 x24:0x8ffffffc x30:0x000b8803 PA:0x8ffffffc store:0x000b8803 load:0xffffffff
     2646602000	    132228	80002a0e	b8802f73	csrrs	x30,mhpmcounter8h,x0	  x0:0x00000000 x30=0x00000000
     2646662000	    132231	80002a12	01ec2023	sw	x30,0(x24)	 x24:0x8ffffffc x30:0x00000000 PA:0x8ffffffc store:0x00000000 load:0xffffffff
     2646702000	    132233	80002a16	90000c37	lui	x24,0x90000	 x24=0x90000000
     2646722000	    132234	80002a1a	1c71	c.addi	x24,-4	 x24:0x90000000 x24=0x8ffffffc
     2646762000	    132236	80002a1c	6f05	c.lui	x30,0x1	 x30=0x00001000
