Time	Cycle	PC	Insn	Decoded instruction	Register and memory contents
        2197000	         8	80000080	40001937	lui	x18,0x40001	 x18=0x40001000
        2217000	         9	80000084	10690913	addi	x18,x18,262	 x18:0x40001000 x18=0x40001106
        2237000	        10	80000088	30191073	csrrw	x0,misa,x18	 x18:0x40001106  x0=0x00000000
        2297000	        13	8000008c	00026697	auipc	x13,0x26	 x13=0x8002608c
        2317000	        14	80000090	c5868693	addi	x13,x13,-936	 x13:0x8002608c x13=0x80025ce4
        2417000	        19	80000094	00002917	auipc	x18,0x2	 x18=0x80002094
        2837000	        40	80000098	46c90913	addi	x18,x18,1132	 x18:0x80002094 x18=0x80002500
        2857000	        41	8000009c	00196913	ori	x18,x18,1	 x18:0x80002500 x18=0x80002501
        2877000	        42	800000a0	30591073	csrrw	x0,mtvec,x18	 x18:0x80002501  x0=0x00000000
        2937000	        45	800000a4	74725073	csrrwi	x0,0x747,4	  x0=0x00000000
        3017000	        49	800000a8	00003397	auipc	x7,0x3	  x7=0x800030a8
        3037000	        50	800000ac	1fc38393	addi	x7,x7,508	  x7:0x800030a8  x7=0x800032a4
        3197000	        58	800000b0	4901	c.li	x18,0	 x18=0x00000000
        3217000	        59	800000b2	93ca	c.add	x7,x18	  x7:0x800032a4 x18:0x00000000  x7=0x800032a4
        3237000	        60	800000b4	0023d393	srli	x7,x7,0x2	  x7:0x800032a4  x7=0x20000ca9
        3257000	        61	800000b8	3b039073	csrrw	x0,pmpaddr0,x7	  x7:0x20000ca9  x0=0x00000000
        3317000	        64	800000bc	00003397	auipc	x7,0x3	  x7=0x800030bc
        3377000	        67	800000c0	1e838393	addi	x7,x7,488	  x7:0x800030bc  x7=0x800032a4
        3397000	        68	800000c4	11111937	lui	x18,0x11111	 x18=0x11111000
        3497000	        73	800000c8	11190913	addi	x18,x18,273	 x18:0x11111000 x18=0x11111111
        3557000	        76	800000cc	93ca	c.add	x7,x18	  x7:0x800032a4 x18:0x11111111  x7=0x911143b5
        3577000	        77	800000ce	0023d393	srli	x7,x7,0x2	  x7:0x911143b5  x7=0x244450ed
        3997000	        98	800000d2	3b139073	csrrw	x0,pmpaddr1,x7	  x7:0x244450ed  x0=0x00000000
        4057000	       101	800000d6	00003397	auipc	x7,0x3	  x7=0x800030d6
        4077000	       102	800000da	1ce38393	addi	x7,x7,462	  x7:0x800030d6  x7=0x800032a4
        4377000	       117	800000de	22222937	lui	x18,0x22222	 x18=0x22222000
        4397000	       118	800000e2	22290913	addi	x18,x18,546	 x18:0x22222000 x18=0x22222222
        4417000	       119	800000e6	93ca	c.add	x7,x18	  x7:0x800032a4 x18:0x22222222  x7=0xa22254c6
        4817000	       139	800000e8	0023d393	srli	x7,x7,0x2	  x7:0xa22254c6  x7=0x28889531
        5237000	       160	800000ec	3b239073	csrrw	x0,pmpaddr2,x7	  x7:0x28889531  x0=0x00000000
        5657000	       181	800000f0	00003397	auipc	x7,0x3	  x7=0x800030f0
        5837000	       190	800000f4	1b438393	addi	x7,x7,436	  x7:0x800030f0  x7=0x800032a4
        5977000	       197	800000f8	33333937	lui	x18,0x33333	 x18=0x33333000
        6137000	       205	800000fc	33390913	addi	x18,x18,819	 x18:0x33333000 x18=0x33333333
        6257000	       211	80000100	93ca	c.add	x7,x18	  x7:0x800032a4 x18:0x33333333  x7=0xb33365d7
        6677000	       232	80000102	0023d393	srli	x7,x7,0x2	  x7:0xb33365d7  x7=0x2cccd975
        6697000	       233	80000106	3b339073	csrrw	x0,pmpaddr3,x7	  x7:0x2cccd975  x0=0x00000000
        7117000	       254	8000010a	0f0f13b7	lui	x7,0xf0f1	  x7=0x0f0f1000
        7497000	       273	8000010e	f0f38393	addi	x7,x7,-241	  x7:0x0f0f1000  x7=0x0f0f0f0f
        7837000	       290	80000112	3a039073	csrrw	x0,pmpcfg0,x7	  x7:0x0f0f0f0f  x0=0x00000000
        7897000	       293	80000116	00003397	auipc	x7,0x3	  x7=0x80003116
        7917000	       294	8000011a	18e38393	addi	x7,x7,398	  x7:0x80003116  x7=0x800032a4
        8037000	       300	8000011e	44444937	lui	x18,0x44444	 x18=0x44444000
        8217000	       309	80000122	44490913	addi	x18,x18,1092	 x18:0x44444000 x18=0x44444444
        8237000	       310	80000126	93ca	c.add	x7,x18	  x7:0x800032a4 x18:0x44444444  x7=0xc44476e8
        8277000	       312	80000128	0023d393	srli	x7,x7,0x2	  x7:0xc44476e8  x7=0x31111dba
        8537000	       325	8000012c	3b439073	csrrw	x0,pmpaddr4,x7	  x7:0x31111dba  x0=0x00000000
        8597000	       328	80000130	00003397	auipc	x7,0x3	  x7=0x80003130
        8617000	       329	80000134	17438393	addi	x7,x7,372	  x7:0x80003130  x7=0x800032a4
        8637000	       330	80000138	55555937	lui	x18,0x55555	 x18=0x55555000
        8657000	       331	8000013c	55590913	addi	x18,x18,1365	 x18:0x55555000 x18=0x55555555
        8877000	       342	80000140	93ca	c.add	x7,x18	  x7:0x800032a4 x18:0x55555555  x7=0xd55587f9
        8897000	       343	80000142	0023d393	srli	x7,x7,0x2	  x7:0xd55587f9  x7=0x355561fe
        8917000	       344	80000146	3b539073	csrrw	x0,pmpaddr5,x7	  x7:0x355561fe  x0=0x00000000
        8977000	       347	8000014a	00003397	auipc	x7,0x3	  x7=0x8000314a
        9377000	       367	8000014e	15a38393	addi	x7,x7,346	  x7:0x8000314a  x7=0x800032a4
        9397000	       368	80000152	66666937	lui	x18,0x66666	 x18=0x66666000
        9417000	       369	80000156	66690913	addi	x18,x18,1638	 x18:0x66666000 x18=0x66666666
        9437000	       370	8000015a	93ca	c.add	x7,x18	  x7:0x800032a4 x18:0x66666666  x7=0xe666990a
        9457000	       371	8000015c	0023d393	srli	x7,x7,0x2	  x7:0xe666990a  x7=0x3999a642
        9477000	       372	80000160	3b639073	csrrw	x0,pmpaddr6,x7	  x7:0x3999a642  x0=0x00000000
        9597000	       378	80000164	00003397	auipc	x7,0x3	  x7=0x80003164
        9617000	       379	80000168	14038393	addi	x7,x7,320	  x7:0x80003164  x7=0x800032a4
        9637000	       380	8000016c	77777937	lui	x18,0x77777	 x18=0x77777000
        9797000	       388	80000170	77790913	addi	x18,x18,1911	 x18:0x77777000 x18=0x77777777
        9977000	       397	80000174	93ca	c.add	x7,x18	  x7:0x800032a4 x18:0x77777777  x7=0xf777aa1b
        9997000	       398	80000176	0023d393	srli	x7,x7,0x2	  x7:0xf777aa1b  x7=0x3dddea86
       10017000	       399	8000017a	3b739073	csrrw	x0,pmpaddr7,x7	  x7:0x3dddea86  x0=0x00000000
       10137000	       405	8000017e	0f0f13b7	lui	x7,0xf0f1	  x7=0x0f0f1000
       10557000	       426	80000182	f0f38393	addi	x7,x7,-241	  x7:0x0f0f1000  x7=0x0f0f0f0f
       10617000	       429	80000186	3a139073	csrrw	x0,pmpcfg1,x7	  x7:0x0f0f0f0f  x0=0x00000000
       10677000	       432	8000018a	00003397	auipc	x7,0x3	  x7=0x8000318a
       10697000	       433	8000018e	11a38393	addi	x7,x7,282	  x7:0x8000318a  x7=0x800032a4
       10717000	       434	80000192	88889937	lui	x18,0x88889	 x18=0x88889000
       10877000	       442	80000196	88890913	addi	x18,x18,-1912	 x18:0x88889000 x18=0x88888888
       10897000	       443	8000019a	93ca	c.add	x7,x18	  x7:0x800032a4 x18:0x88888888  x7=0x0888bb2c
       11237000	       460	8000019c	0023d393	srli	x7,x7,0x2	  x7:0x0888bb2c  x7=0x02222ecb
       11337000	       465	800001a0	3b839073	csrrw	x0,pmpaddr8,x7	  x7:0x02222ecb  x0=0x00000000
       11657000	       481	800001a4	00003397	auipc	x7,0x3	  x7=0x800031a4
       11937000	       495	800001a8	10038393	addi	x7,x7,256	  x7:0x800031a4  x7=0x800032a4
       12117000	       504	800001ac	9999a937	lui	x18,0x9999a	 x18=0x9999a000
       12157000	       506	800001b0	99990913	addi	x18,x18,-1639	 x18:0x9999a000 x18=0x99999999
       12177000	       507	800001b4	93ca	c.add	x7,x18	  x7:0x800032a4 x18:0x99999999  x7=0x1999cc3d
       12597000	       528	800001b6	0023d393	srli	x7,x7,0x2	  x7:0x1999cc3d  x7=0x0666730f
       12617000	       529	800001ba	3b939073	csrrw	x0,pmpaddr9,x7	  x7:0x0666730f  x0=0x00000000
       12677000	       532	800001be	00003397	auipc	x7,0x3	  x7=0x800031be
       12697000	       533	800001c2	0e638393	addi	x7,x7,230	  x7:0x800031be  x7=0x800032a4
       12717000	       534	800001c6	aaaab937	lui	x18,0xaaaab	 x18=0xaaaab000
       12737000	       535	800001ca	aaa90913	addi	x18,x18,-1366	 x18:0xaaaab000 x18=0xaaaaaaaa
       12757000	       536	800001ce	93ca	c.add	x7,x18	  x7:0x800032a4 x18:0xaaaaaaaa  x7=0x2aaadd4e
       12777000	       537	800001d0	0023d393	srli	x7,x7,0x2	  x7:0x2aaadd4e  x7=0x0aaab753
       12897000	       543	800001d4	3ba39073	csrrw	x0,pmpaddr10,x7	  x7:0x0aaab753  x0=0x00000000
       12957000	       546	800001d8	00003397	auipc	x7,0x3	  x7=0x800031d8
       12977000	       547	800001dc	0cc38393	addi	x7,x7,204	  x7:0x800031d8  x7=0x800032a4
       13137000	       555	800001e0	bbbbc937	lui	x18,0xbbbbc	 x18=0xbbbbc000
       13157000	       556	800001e4	bbb90913	addi	x18,x18,-1093	 x18:0xbbbbc000 x18=0xbbbbbbbb
       13177000	       557	800001e8	93ca	c.add	x7,x18	  x7:0x800032a4 x18:0xbbbbbbbb  x7=0x3bbbee5f
       13197000	       558	800001ea	0023d393	srli	x7,x7,0x2	  x7:0x3bbbee5f  x7=0x0eeefb97
       13297000	       563	800001ee	3bb39073	csrrw	x0,pmpaddr11,x7	  x7:0x0eeefb97  x0=0x00000000
       13397000	       568	800001f2	0f0f13b7	lui	x7,0xf0f1	  x7=0x0f0f1000
       13817000	       589	800001f6	f0f38393	addi	x7,x7,-241	  x7:0x0f0f1000  x7=0x0f0f0f0f
       13837000	       590	800001fa	3a239073	csrrw	x0,pmpcfg2,x7	  x7:0x0f0f0f0f  x0=0x00000000
       14257000	       611	800001fe	00003397	auipc	x7,0x3	  x7=0x800031fe
       14337000	       615	80000202	0a638393	addi	x7,x7,166	  x7:0x800031fe  x7=0x800032a4
       14497000	       623	80000206	ccccd937	lui	x18,0xccccd	 x18=0xccccd000
       14557000	       626	8000020a	ccc90913	addi	x18,x18,-820	 x18:0xccccd000 x18=0xcccccccc
       14577000	       627	8000020e	93ca	c.add	x7,x18	  x7:0x800032a4 x18:0xcccccccc  x7=0x4cccff70
       14977000	       647	80000210	0023d393	srli	x7,x7,0x2	  x7:0x4cccff70  x7=0x13333fdc
       14997000	       648	80000214	3bc39073	csrrw	x0,pmpaddr12,x7	  x7:0x13333fdc  x0=0x00000000
       15417000	       669	80000218	00003397	auipc	x7,0x3	  x7=0x80003218
       15437000	       670	8000021c	08c38393	addi	x7,x7,140	  x7:0x80003218  x7=0x800032a4
       15457000	       671	80000220	dddde937	lui	x18,0xdddde	 x18=0xdddde000
       15877000	       692	80000224	ddd90913	addi	x18,x18,-547	 x18:0xdddde000 x18=0xdddddddd
       15897000	       693	80000228	93ca	c.add	x7,x18	  x7:0x800032a4 x18:0xdddddddd  x7=0x5dde1081
       15917000	       694	8000022a	0023d393	srli	x7,x7,0x2	  x7:0x5dde1081  x7=0x17778420
       15937000	       695	8000022e	3bd39073	csrrw	x0,pmpaddr13,x7	  x7:0x17778420  x0=0x00000000
       15997000	       698	80000232	00003397	auipc	x7,0x3	  x7=0x80003232
       16057000	       701	80000236	07238393	addi	x7,x7,114	  x7:0x80003232  x7=0x800032a4
       16077000	       702	8000023a	eeeef937	lui	x18,0xeeeef	 x18=0xeeeef000
       16497000	       723	8000023e	eee90913	addi	x18,x18,-274	 x18:0xeeeef000 x18=0xeeeeeeee
       16517000	       724	80000242	93ca	c.add	x7,x18	  x7:0x800032a4 x18:0xeeeeeeee  x7=0x6eef2192
       16537000	       725	80000244	0023d393	srli	x7,x7,0x2	  x7:0x6eef2192  x7=0x1bbbc864
       16557000	       726	80000248	3be39073	csrrw	x0,pmpaddr14,x7	  x7:0x1bbbc864  x0=0x00000000
       16617000	       729	8000024c	00003397	auipc	x7,0x3	  x7=0x8000324c
       16637000	       730	80000250	05838393	addi	x7,x7,88	  x7:0x8000324c  x7=0x800032a4
       16957000	       746	80000254	fff00913	addi	x18,x0,-1	  x0:0x00000000 x18=0xffffffff
       16977000	       747	80000258	93ca	c.add	x7,x18	  x7:0x800032a4 x18:0xffffffff  x7=0x800032a3
       17137000	       755	8000025a	0023d393	srli	x7,x7,0x2	  x7:0x800032a3  x7=0x20000ca8
       17197000	       758	8000025e	3bf39073	csrrw	x0,pmpaddr15,x7	  x7:0x20000ca8  x0=0x00000000
       17257000	       761	80000262	0f0f13b7	lui	x7,0xf0f1	  x7=0x0f0f1000
       17497000	       773	80000266	f0f38393	addi	x7,x7,-241	  x7:0x0f0f1000  x7=0x0f0f0f0f
       17537000	       775	8000026a	3a339073	csrrw	x0,pmpcfg3,x7	  x7:0x0f0f0f0f  x0=0x00000000
       17957000	       796	8000026e	00000917	auipc	x18,0x0	 x18=0x8000026e
       17977000	       797	80000272	05890913	addi	x18,x18,88	 x18:0x8000026e x18=0x800002c6
       18397000	       818	80000276	34191073	csrrw	x0,mepc,x18	 x18:0x800002c6  x0=0x00000000
       18417000	       819	8000027a	7c00d073	csrrwi	x0,0x7c0,1	  x0=0x00000000
       18477000	       822	8000027e	6909	c.lui	x18,0x2	 x18=0x00002000
       18497000	       823	80000280	80090913	addi	x18,x18,-2048	 x18:0x00002000 x18=0x00001800
       18797000	       838	80000284	30091073	csrrw	x0,mstatus,x18	 x18:0x00001800  x0=0x00000000
       18857000	       841	80000288	4901	c.li	x18,0	 x18=0x00000000
       18877000	       842	8000028a	30491073	csrrw	x0,mie,x18	 x18:0x00000000  x0=0x00000000
       18937000	       845	8000028e	90000db7	lui	x27,0x90000	 x27=0x90000000
       18957000	       846	80000292	1df1	c.addi	x27,-4	 x27:0x90000000 x27=0x8ffffffc
       18977000	       847	80000294	30000913	addi	x18,x0,768	  x0:0x00000000 x18=0x00000300
       19417000	       869	80000298	0922	c.slli	x18,0x8	 x18:0x00000300 x18=0x00030000
       19437000	       870	8000029a	090d	c.addi	x18,3	 x18:0x00030000 x18=0x00030003
       19897000	       893	8000029c	012da023	sw	x18,0(x27)	 x27:0x8ffffffc x18:0x00030003 PA:0x8ffffffc store:0x00030003 load:0xffffffff
       19917000	       894	800002a0	30002973	csrrs	x18,mstatus,x0	  x0:0x00000000 x18=0x00001800
       19977000	       897	800002a4	012da023	sw	x18,0(x27)	 x27:0x8ffffffc x18:0x00001800 PA:0x8ffffffc store:0x00001800 load:0xffffffff
       19997000	       898	800002a8	90000db7	lui	x27,0x90000	 x27=0x90000000
       20017000	       899	800002ac	1df1	c.addi	x27,-4	 x27:0x90000000 x27=0x8ffffffc
       20037000	       900	800002ae	30400913	addi	x18,x0,772	  x0:0x00000000 x18=0x00000304
       20057000	       901	800002b2	0922	c.slli	x18,0x8	 x18:0x00000304 x18=0x00030400
       20077000	       902	800002b4	090d	c.addi	x18,3	 x18:0x00030400 x18=0x00030403
       20297000	       913	800002b6	012da023	sw	x18,0(x27)	 x27:0x8ffffffc x18:0x00030403 PA:0x8ffffffc store:0x00030403 load:0xffffffff
       20317000	       914	800002ba	30402973	csrrs	x18,mie,x0	  x0:0x00000000 x18=0x00000000
       20617000	       929	800002be	012da023	sw	x18,0(x27)	 x27:0x8ffffffc x18:0x00000000 PA:0x8ffffffc store:0x00000000 load:0xffffffff
       20637000	       930	800002c2	30200073	mret	
       20937000	       945	800002c6	fc8e0037	lui	x0,0xfc8e0	  x0=0x00000000
       20957000	       946	800002ca	b0400013	addi	x0,x0,-1276	  x0:0x00000000  x0=0x00000000
       20977000	       947	800002ce	4081	c.li	x1,0	  x1=0x00000000
       21637000	       980	800002d0	80000137	lui	x2,0x80000	  x2=0x80000000
       21657000	       981	800002d4	4195	c.li	x3,5	  x3=0x00000005
       21677000	       982	800002d6	80000237	lui	x4,0x80000	  x4=0x80000000
       21697000	       983	800002da	b9cf72b7	lui	x5,0xb9cf7	  x5=0xb9cf7000
       22137000	      1005	800002de	f4f28293	addi	x5,x5,-177	  x5:0xb9cf7000  x5=0xb9cf6f4f
       22157000	      1006	800002e2	4321	c.li	x6,8	  x6=0x00000008
       22337000	      1015	800002e4	4381	c.li	x7,0	  x7=0x00000000
       22357000	      1016	800002e6	4435	c.li	x8,13	  x8=0x0000000d
       22477000	      1022	800002e8	4481	c.li	x9,0	  x9=0x00000000
       22517000	      1024	800002ea	80000537	lui	x10,0x80000	 x10=0x80000000
       22817000	      1039	800002ee	feae4637	lui	x12,0xfeae4	 x12=0xfeae4000
       22837000	      1040	800002f2	50460613	addi	x12,x12,1284	 x12:0xfeae4000 x12=0xfeae4504
       22857000	      1041	800002f6	f2401737	lui	x14,0xf2401	 x14=0xf2401000
       22997000	      1048	800002fa	04670713	addi	x14,x14,70	 x14:0xf2401000 x14=0xf2401046
       23017000	      1049	800002fe	800007b7	lui	x15,0x80000	 x15=0x80000000
       23037000	      1050	80000302	ff2a5837	lui	x16,0xff2a5	 x16=0xff2a5000
       23237000	      1060	80000306	d8c80813	addi	x16,x16,-628	 x16:0xff2a5000 x16=0xff2a4d8c
       23257000	      1061	8000030a	4881	c.li	x17,0	 x17=0x00000000
       23657000	      1081	8000030c	4901	c.li	x18,0	 x18=0x00000000
       23677000	      1082	8000030e	4991	c.li	x19,4	 x19=0x00000004
       23697000	      1083	80000310	4a01	c.li	x20,0	 x20=0x00000000
       23717000	      1084	80000312	80000ab7	lui	x21,0x80000	 x21=0x80000000
       23737000	      1085	80000316	4b31	c.li	x22,12	 x22=0x0000000c
       23757000	      1086	80000318	4b81	c.li	x23,0	 x23=0x00000000
       23877000	      1092	8000031a	80000c37	lui	x24,0x80000	 x24=0x80000000
       23897000	      1093	8000031e	9bbefcb7	lui	x25,0x9bbef	 x25=0x9bbef000
       24277000	      1112	80000322	230c8c93	addi	x25,x25,560	 x25:0x9bbef000 x25=0x9bbef230
       24297000	      1113	80000326	4d01	c.li	x26,0	 x26=0x00000000
       24317000	      1114	80000328	5a709db7	lui	x27,0x5a709	 x27=0x5a709000
       24437000	      1120	8000032c	21fd8d93	addi	x27,x27,543	 x27:0x5a709000 x27=0x5a70921f
       24457000	      1121	80000330	77c6ee37	lui	x28,0x77c6e	 x28=0x77c6e000
       24497000	      1123	80000334	408e0e13	addi	x28,x28,1032	 x28:0x77c6e000 x28=0x77c6e408
       24517000	      1124	80000338	4e81	c.li	x29,0	 x29=0x00000000
       24937000	      1145	8000033a	7be08f37	lui	x30,0x7be08	 x30=0x7be08000
       25357000	      1166	8000033e	446f0f13	addi	x30,x30,1094	 x30:0x7be08000 x30=0x7be08446
       25377000	      1167	80000342	4fb9	c.li	x31,14	 x31=0x0000000e
       25397000	      1168	80000344	00022597	auipc	x11,0x22	 x11=0x80022344
       57077000	      2752	80000348	b2058593	addi	x11,x11,-1248	 x11:0x80022344 x11=0x80021e64
       57097000	      2753	8000034c	90000db7	lui	x27,0x90000	 x27=0x90000000
       57117000	      2754	80000350	1df1	c.addi	x27,-4	 x27:0x90000000 x27=0x8ffffffc
       57137000	      2755	80000352	4901	c.li	x18,0	 x18=0x00000000
       57157000	      2756	80000354	0922	c.slli	x18,0x8	 x18:0x00000000 x18=0x00000000
       57177000	      2757	80000356	00090913	addi	x18,x18,0	 x18:0x00000000 x18=0x00000000
       57377000	      2767	8000035a	012da023	sw	x18,0(x27)	 x27:0x8ffffffc x18:0x00000000 PA:0x8ffffffc store:0x00000000 load:0xffffffff
       57597000	      2778	8000035e	7470206f	jal	x0,800032a4	  x0=0x00000000
       58037000	      2800	800032a4	0001	c.addi	x0,0	  x0:0x00000000  x0=0x00000000
       58077000	      2802	800032a6	80eb7013	andi	x0,x22,-2034	 x22:0x0000000c  x0=0x00000000
       58097000	      2803	800032aa	8491	c.srai	x9,0x4	  x9:0x00000000  x9=0x00000000
       58197000	      2808	800032ac	e39b3d93	sltiu	x27,x22,-455	 x22:0x0000000c x27=0x00000001
       58217000	      2809	800032b0	05ef1163	bne	x30,x30,800032f2	 x30:0x7be08446 x30:0x7be08446
       58237000	      2810	800032b4	4145dc33	sra	x24,x11,x20	 x11:0x80021e64 x20:0x00000000 x24=0x80021e64
       58257000	      2811	800032b8	6898c813	xori	x16,x17,1673	 x17:0x00000000 x16=0x00000689
       58277000	      2812	800032bc	8f65	c.and	x14,x9	 x14:0xf2401046  x9:0x00000000 x14=0x00000000
       58377000	      2817	800032be	e6f64497	auipc	x9,0xe6f64	  x9=0x66f672be
       58937000	      2845	800032c2	04a1c063	blt	x3,x10,80003302	  x3:0x00000005 x10:0x80000000
       59357000	      2866	800032c6	0019d213	srli	x4,x19,0x1	 x19:0x00000004  x4=0x00000002
       59377000	      2867	800032ca	6d15	c.lui	x26,0x5	 x26=0x00005000
       59397000	      2868	800032cc	80128f93	addi	x31,x5,-2047	  x5:0xb9cf6f4f x31=0xb9cf6750
       59797000	      2888	800032d0	d3d8ad13	slti	x26,x17,-707	 x17:0x00000000 x26=0x00000000
       59817000	      2889	800032d4	3b907ef3	csrrci	x29,pmpaddr9,0	 x29=0x0666730f
       59837000	      2890	800032d8	00de2033	slt	x0,x28,x13	 x28:0x77c6e408 x13:0x80025ce4  x0=0x00000000
       59857000	      2891	800032dc	8a3d	c.andi	x12,15	 x12:0xfeae4504 x12=0x00000004
       59877000	      2892	800032de	00f73933	sltu	x18,x14,x15	 x14:0x00000000 x15:0x80000000 x18=0x00000001
       60717000	      2934	800032e2	0236fa33	remu	x20,x13,x3	 x13:0x80025ce4  x3:0x00000005 x20=0x00000000
       60737000	      2935	800032e6	8ff5	c.and	x15,x13	 x15:0x80000000 x13:0x80025ce4 x15=0x80000000
       60757000	      2936	800032e8	8bba	c.mv	x23,x14	  x0:0x00000000 x14:0x00000000 x23=0x00000000
       60777000	      2937	800032ea	0cde	c.slli	x25,0x17	 x25:0x9bbef230 x25=0x18000000
       60817000	      2939	800032ec	03453b33	mulhu	x22,x10,x20	 x10:0x80000000 x20:0x00000000 x22=0x00000000
       60837000	      2940	800032f0	6139	c.addi16sp	x2,448	  x2:0x80000000  x2=0x800001c0
       61577000	      2977	800032f2	03ce44b3	div	x9,x28,x28	 x28:0x77c6e408 x28:0x77c6e408  x9=0x00000001
       61597000	      2978	800032f6	03289063	bne	x17,x18,80003316	 x17:0x00000000 x18:0x00000001
       62237000	      3010	80003316	79f4c813	xori	x16,x9,1951	  x9:0x00000001 x16=0x0000079e
       62397000	      3018	8000331a	8e966993	ori	x19,x12,-1815	 x12:0x00000004 x19=0xfffff8ed
       62417000	      3019	8000331e	8cc5	c.or	x9,x9	  x9:0x00000001  x9:0x00000001  x9=0x00000001
       62437000	      3020	80003320	8bf9	c.andi	x15,30	 x15:0x80000000 x15=0x00000000
       62457000	      3021	80003322	1b08	c.addi4spn	x10,x2,432	 x10=0x80000370
       62837000	      3040	80003324	7b206573	csrrsi	x0,dscratch,0	  x0=0x00000000
       63517000	      3074	80002500	0800006f	jal	x0,80002580	  x0=0x00000000
       64357000	      3116	80002580	16f1	c.addi	x13,-4	 x13:0x80025ce4 x13=0x80025ce0
       64697000	      3133	80002582	c28c	c.sw	x11,0(x13)	 x13:0x80025ce0 x11:0x80021e64 PA:0x80025ce0 store:0x80021e64 load:0xffffffff
       64717000	      3134	80002584	000685b3	add	x11,x13,x0	 x13:0x80025ce0  x0:0x00000000 x11=0x80025ce0
       64737000	      3135	80002588	f8058593	addi	x11,x11,-128	 x11:0x80025ce0 x11=0x80025c60
       65017000	      3149	8000258c	0015a223	sw	x1,4(x11)	 x11:0x80025c60  x1:0x00000000 PA:0x80025c64 store:0x00000000 load:0xffffffff
       65037000	      3150	80002590	0025a423	sw	x2,8(x11)	 x11:0x80025c60  x2:0x800001c0 PA:0x80025c68 store:0x800001c0 load:0xffffffff
       65417000	      3169	80002594	0035a623	sw	x3,12(x11)	 x11:0x80025c60  x3:0x00000005 PA:0x80025c6c store:0x00000005 load:0xffffffff
       65677000	      3182	80002598	0045a823	sw	x4,16(x11)	 x11:0x80025c60  x4:0x00000002 PA:0x80025c70 store:0x00000002 load:0xffffffff
       66097000	      3203	8000259c	0055aa23	sw	x5,20(x11)	 x11:0x80025c60  x5:0xb9cf6f4f PA:0x80025c74 store:0xb9cf6f4f load:0xffffffff
       66157000	      3206	800025a0	0065ac23	sw	x6,24(x11)	 x11:0x80025c60  x6:0x00000008 PA:0x80025c78 store:0x00000008 load:0xffffffff
       66397000	      3218	800025a4	0075ae23	sw	x7,28(x11)	 x11:0x80025c60  x7:0x00000000 PA:0x80025c7c store:0x00000000 load:0xffffffff
       66417000	      3219	800025a8	d180	c.sw	x8,32(x11)	 x11:0x80025c60  x8:0x0000000d PA:0x80025c80 store:0x0000000d load:0xffffffff
       66717000	      3234	800025aa	d1c4	c.sw	x9,36(x11)	 x11:0x80025c60  x9:0x00000001 PA:0x80025c84 store:0x00000001 load:0xffffffff
       66837000	      3240	800025ac	d588	c.sw	x10,40(x11)	 x11:0x80025c60 x10:0x80000370 PA:0x80025c88 store:0x80000370 load:0xffffffff
       67497000	      3273	800025ae	d5cc	c.sw	x11,44(x11)	 x11:0x80025c60 x11:0x80025c60 PA:0x80025c8c store:0x80025c60 load:0xffffffff
       67557000	      3276	800025b0	d990	c.sw	x12,48(x11)	 x11:0x80025c60 x12:0x00000004 PA:0x80025c90 store:0x00000004 load:0xffffffff
       67877000	      3292	800025b2	d9d4	c.sw	x13,52(x11)	 x11:0x80025c60 x13:0x80025ce0 PA:0x80025c94 store:0x80025ce0 load:0xffffffff
       68337000	      3315	800025b4	dd98	c.sw	x14,56(x11)	 x11:0x80025c60 x14:0x00000000 PA:0x80025c98 store:0x00000000 load:0xffffffff
       68797000	      3338	800025b6	dddc	c.sw	x15,60(x11)	 x11:0x80025c60 x15:0x00000000 PA:0x80025c9c store:0x00000000 load:0xffffffff
       69037000	      3350	800025b8	0505a023	sw	x16,64(x11)	 x11:0x80025c60 x16:0x0000079e PA:0x80025ca0 store:0x0000079e load:0xffffffff
       69297000	      3363	800025bc	0515a223	sw	x17,68(x11)	 x11:0x80025c60 x17:0x00000000 PA:0x80025ca4 store:0x00000000 load:0xffffffff
       69497000	      3373	800025c0	0525a423	sw	x18,72(x11)	 x11:0x80025c60 x18:0x00000001 PA:0x80025ca8 store:0x00000001 load:0xffffffff
       69557000	      3376	800025c4	0535a623	sw	x19,76(x11)	 x11:0x80025c60 x19:0xfffff8ed PA:0x80025cac store:0xfffff8ed load:0xffffffff
       69577000	      3377	800025c8	0545a823	sw	x20,80(x11)	 x11:0x80025c60 x20:0x00000000 PA:0x80025cb0 store:0x00000000 load:0xffffffff
       69957000	      3396	800025cc	0555aa23	sw	x21,84(x11)	 x11:0x80025c60 x21:0x80000000 PA:0x80025cb4 store:0x80000000 load:0xffffffff
       70197000	      3408	800025d0	0565ac23	sw	x22,88(x11)	 x11:0x80025c60 x22:0x00000000 PA:0x80025cb8 store:0x00000000 load:0xffffffff
       70857000	      3441	800025d4	0575ae23	sw	x23,92(x11)	 x11:0x80025c60 x23:0x00000000 PA:0x80025cbc store:0x00000000 load:0xffffffff
       71097000	      3453	800025d8	0785a023	sw	x24,96(x11)	 x11:0x80025c60 x24:0x80021e64 PA:0x80025cc0 store:0x80021e64 load:0xffffffff
       71197000	      3458	800025dc	0795a223	sw	x25,100(x11)	 x11:0x80025c60 x25:0x18000000 PA:0x80025cc4 store:0x18000000 load:0xffffffff
       71617000	      3479	800025e0	07a5a423	sw	x26,104(x11)	 x11:0x80025c60 x26:0x00000000 PA:0x80025cc8 store:0x00000000 load:0xffffffff
       71817000	      3489	800025e4	07b5a623	sw	x27,108(x11)	 x11:0x80025c60 x27:0x00000001 PA:0x80025ccc store:0x00000001 load:0xffffffff
       72037000	      3500	800025e8	07c5a823	sw	x28,112(x11)	 x11:0x80025c60 x28:0x77c6e408 PA:0x80025cd0 store:0x77c6e408 load:0xffffffff
       72297000	      3513	800025ec	07d5aa23	sw	x29,116(x11)	 x11:0x80025c60 x29:0x0666730f PA:0x80025cd4 store:0x0666730f load:0xffffffff
       72317000	      3514	800025f0	07e5ac23	sw	x30,120(x11)	 x11:0x80025c60 x30:0x7be08446 PA:0x80025cd8 store:0x7be08446 load:0xffffffff
       72337000	      3515	800025f4	07f5ae23	sw	x31,124(x11)	 x11:0x80025c60 x31:0xb9cf6750 PA:0x80025cdc store:0xb9cf6750 load:0xffffffff
       72357000	      3516	800025f8	000586b3	add	x13,x11,x0	 x11:0x80025c60  x0:0x00000000 x13=0x80025c60
       72377000	      3517	800025fc	90000db7	lui	x27,0x90000	 x27=0x90000000
       72397000	      3518	80002600	1df1	c.addi	x27,-4	 x27:0x90000000 x27=0x8ffffffc
       72417000	      3519	80002602	4921	c.li	x18,8	 x18=0x00000008
       72437000	      3520	80002604	0922	c.slli	x18,0x8	 x18:0x00000008 x18=0x00000800
       72457000	      3521	80002606	00090913	addi	x18,x18,0	 x18:0x00000800 x18=0x00000800
       72637000	      3530	8000260a	012da023	sw	x18,0(x27)	 x27:0x8ffffffc x18:0x00000800 PA:0x8ffffffc store:0x00000800 load:0xffffffff
       73097000	      3553	8000260e	34102973	csrrs	x18,mepc,x0	  x0:0x00000000 x18=0x80003324
       73257000	      3561	80002612	34202973	csrrs	x18,mcause,x0	  x0:0x00000000 x18=0x00000002
       73277000	      3562	80002616	4d8d	c.li	x27,3	 x27=0x00000003
       73297000	      3563	80002618	01b91463	bne	x18,x27,80002620	 x18:0x00000002 x27:0x00000003
       73717000	      3584	80002620	4da1	c.li	x27,8	 x27=0x00000008
       73737000	      3585	80002622	05b90d63	beq	x18,x27,8000267c	 x18:0x00000002 x27:0x00000008
       73757000	      3586	80002626	4da5	c.li	x27,9	 x27=0x00000009
       73777000	      3587	80002628	05b90a63	beq	x18,x27,8000267c	 x18:0x00000002 x27:0x00000009
       73937000	      3595	8000262c	4dad	c.li	x27,11	 x27=0x0000000b
       73957000	      3596	8000262e	05b90763	beq	x18,x27,8000267c	 x18:0x00000002 x27:0x0000000b
       73977000	      3597	80002632	4d85	c.li	x27,1	 x27=0x00000001
       74157000	      3606	80002634	35b90363	beq	x18,x27,8000297a	 x18:0x00000002 x27:0x00000001
       74357000	      3616	80002638	4d95	c.li	x27,5	 x27=0x00000005
       74377000	      3617	8000263a	63b90963	beq	x18,x27,80002c6c	 x18:0x00000002 x27:0x00000005
       74397000	      3618	8000263e	4d9d	c.li	x27,7	 x27=0x00000007
       74577000	      3627	80002640	15b90ae3	beq	x18,x27,80002f94	 x18:0x00000002 x27:0x00000007
       74997000	      3648	80002644	4db1	c.li	x27,12	 x27=0x0000000c
       75177000	      3657	80002646	01b91463	bne	x18,x27,8000264e	 x18:0x00000002 x27:0x0000000c
       75757000	      3686	8000264e	4db5	c.li	x27,13	 x27=0x0000000d
       75957000	      3696	80002650	01b91463	bne	x18,x27,80002658	 x18:0x00000002 x27:0x0000000d
       75997000	      3698	80002658	4dbd	c.li	x27,15	 x27=0x0000000f
       76017000	      3699	8000265a	01b91463	bne	x18,x27,80002662	 x18:0x00000002 x27:0x0000000f
       76457000	      3721	80002662	4d89	c.li	x27,2	 x27=0x00000002
       76697000	      3733	80002664	01b91463	bne	x18,x27,8000266c	 x18:0x00000002 x27:0x00000002
       76717000	      3734	80002668	45c0906f	jal	x0,8000bac4	  x0=0x00000000
       77277000	      3762	8000bac4	90000db7	lui	x27,0x90000	 x27=0x90000000
       77317000	      3764	8000bac8	1df1	c.addi	x27,-4	 x27:0x90000000 x27=0x8ffffffc
       77337000	      3765	8000baca	4929	c.li	x18,10	 x18=0x0000000a
       77577000	      3777	8000bacc	0922	c.slli	x18,0x8	 x18:0x0000000a x18=0x00000a00
       77597000	      3778	8000bace	00090913	addi	x18,x18,0	 x18:0x00000a00 x18=0x00000a00
       77657000	      3781	8000bad2	012da023	sw	x18,0(x27)	 x27:0x8ffffffc x18:0x00000a00 PA:0x8ffffffc store:0x00000a00 load:0xffffffff
       77737000	      3785	8000bad6	90000db7	lui	x27,0x90000	 x27=0x90000000
       77757000	      3786	8000bada	1df1	c.addi	x27,-4	 x27:0x90000000 x27=0x8ffffffc
       77777000	      3787	8000badc	34200913	addi	x18,x0,834	  x0:0x00000000 x18=0x00000342
       78197000	      3808	8000bae0	0922	c.slli	x18,0x8	 x18:0x00000342 x18=0x00034200
       78217000	      3809	8000bae2	090d	c.addi	x18,3	 x18:0x00034200 x18=0x00034203
       78277000	      3812	8000bae4	012da023	sw	x18,0(x27)	 x27:0x8ffffffc x18:0x00034203 PA:0x8ffffffc store:0x00034203 load:0xffffffff
       78337000	      3815	8000bae8	34202973	csrrs	x18,mcause,x0	  x0:0x00000000 x18=0x00000002
       78597000	      3828	8000baec	012da023	sw	x18,0(x27)	 x27:0x8ffffffc x18:0x00000002 PA:0x8ffffffc store:0x00000002 load:0xffffffff
       78617000	      3829	8000baf0	34102973	csrrs	x18,mepc,x0	  x0:0x00000000 x18=0x80003324
       78637000	      3830	8000baf4	0911	c.addi	x18,4	 x18:0x80003324 x18=0x80003328
       78657000	      3831	8000baf6	34191073	csrrw	x0,mepc,x18	 x18:0x80003328  x0=0x00000000
       78677000	      3832	8000bafa	000685b3	add	x11,x13,x0	 x13:0x80025c60  x0:0x00000000 x11=0x80025c60
       78877000	      3842	8000bafe	0045a083	lw	x1,4(x11)	 x11:0x80025c60  x1=0x00000000 PA:0x80025c64 load:0x00000000
       78957000	      3846	8000bb02	0085a103	lw	x2,8(x11)	 x11:0x80025c60  x2=0x800001c0 PA:0x80025c68 load:0x800001c0
       79297000	      3863	8000bb06	00c5a183	lw	x3,12(x11)	 x11:0x80025c60  x3=0x00000005 PA:0x80025c6c load:0x00000005
       79717000	      3884	8000bb0a	0105a203	lw	x4,16(x11)	 x11:0x80025c60  x4=0x00000002 PA:0x80025c70 load:0x00000002
       79737000	      3885	8000bb0e	0145a283	lw	x5,20(x11)	 x11:0x80025c60  x5=0xb9cf6f4f PA:0x80025c74 load:0xb9cf6f4f
       83297000	      4063	8000bb12	0185a303	lw	x6,24(x11)	 x11:0x80025c60  x6=0x00000008 PA:0x80025c78 load:0x00000008
       83377000	      4067	8000bb16	01c5a383	lw	x7,28(x11)	 x11:0x80025c60  x7=0x00000000 PA:0x80025c7c load:0x00000000
       83537000	      4075	8000bb1a	5180	c.lw	x8,32(x11)	 x11:0x80025c60  x8=0x0000000d PA:0x80025c80 load:0x0000000d
       83597000	      4078	8000bb1c	51c4	c.lw	x9,36(x11)	 x11:0x80025c60  x9=0x00000001 PA:0x80025c84 load:0x00000001
       83717000	      4084	8000bb1e	5588	c.lw	x10,40(x11)	 x11:0x80025c60 x10=0x80000370 PA:0x80025c88 load:0x80000370
       83737000	      4085	8000bb20	55cc	c.lw	x11,44(x11)	 x11:0x80025c60 x11=0x80025c60 PA:0x80025c8c load:0x80025c60
       83997000	      4098	8000bb22	5990	c.lw	x12,48(x11)	 x11:0x80025c60 x12=0x00000004 PA:0x80025c90 load:0x00000004
       84057000	      4101	8000bb24	59d4	c.lw	x13,52(x11)	 x11:0x80025c60 x13=0x80025ce0 PA:0x80025c94 load:0x80025ce0
       84317000	      4114	8000bb26	5d98	c.lw	x14,56(x11)	 x11:0x80025c60 x14=0x00000000 PA:0x80025c98 load:0x00000000
       84657000	      4131	8000bb28	5ddc	c.lw	x15,60(x11)	 x11:0x80025c60 x15=0x00000000 PA:0x80025c9c load:0x00000000
       84717000	      4134	8000bb2a	0405a803	lw	x16,64(x11)	 x11:0x80025c60 x16=0x0000079e PA:0x80025ca0 load:0x0000079e
       84817000	      4139	8000bb2e	0445a883	lw	x17,68(x11)	 x11:0x80025c60 x17=0x00000000 PA:0x80025ca4 load:0x00000000
       85077000	      4152	8000bb32	0485a903	lw	x18,72(x11)	 x11:0x80025c60 x18=0x00000001 PA:0x80025ca8 load:0x00000001
       85097000	      4153	8000bb36	04c5a983	lw	x19,76(x11)	 x11:0x80025c60 x19=0xfffff8ed PA:0x80025cac load:0xfffff8ed
       85117000	      4154	8000bb3a	0505aa03	lw	x20,80(x11)	 x11:0x80025c60 x20=0x00000000 PA:0x80025cb0 load:0x00000000
       85697000	      4183	8000bb3e	0545aa83	lw	x21,84(x11)	 x11:0x80025c60 x21=0x80000000 PA:0x80025cb4 load:0x80000000
       85837000	      4190	8000bb42	0585ab03	lw	x22,88(x11)	 x11:0x80025c60 x22=0x00000000 PA:0x80025cb8 load:0x00000000
       85957000	      4196	8000bb46	05c5ab83	lw	x23,92(x11)	 x11:0x80025c60 x23=0x00000000 PA:0x80025cbc load:0x00000000
       86057000	      4201	8000bb4a	0605ac03	lw	x24,96(x11)	 x11:0x80025c60 x24=0x80021e64 PA:0x80025cc0 load:0x80021e64
       86517000	      4224	8000bb4e	0645ac83	lw	x25,100(x11)	 x11:0x80025c60 x25=0x18000000 PA:0x80025cc4 load:0x18000000
       86617000	      4229	8000bb52	0685ad03	lw	x26,104(x11)	 x11:0x80025c60 x26=0x00000000 PA:0x80025cc8 load:0x00000000
       87057000	      4251	8000bb56	06c5ad83	lw	x27,108(x11)	 x11:0x80025c60 x27=0x00000001 PA:0x80025ccc load:0x00000001
       87137000	      4255	8000bb5a	0705ae03	lw	x28,112(x11)	 x11:0x80025c60 x28=0x77c6e408 PA:0x80025cd0 load:0x77c6e408
       87197000	      4258	8000bb5e	0745ae83	lw	x29,116(x11)	 x11:0x80025c60 x29=0x0666730f PA:0x80025cd4 load:0x0666730f
       87297000	      4263	8000bb62	0785af03	lw	x30,120(x11)	 x11:0x80025c60 x30=0x7be08446 PA:0x80025cd8 load:0x7be08446
       87357000	      4266	8000bb66	07c5af83	lw	x31,124(x11)	 x11:0x80025c60 x31=0xb9cf6750 PA:0x80025cdc load:0xb9cf6750
       87377000	      4267	8000bb6a	08058593	addi	x11,x11,128	 x11:0x80025c60 x11=0x80025ce0
       87397000	      4268	8000bb6e	000586b3	add	x13,x11,x0	 x11:0x80025ce0  x0:0x00000000 x13=0x80025ce0
       87857000	      4291	8000bb72	428c	c.lw	x11,0(x13)	 x13:0x80025ce0 x11=0x80021e64 PA:0x80025ce0 load:0x80021e64
       87877000	      4292	8000bb74	0691	c.addi	x13,4	 x13:0x80025ce0 x13=0x80025ce4
       87897000	      4293	8000bb76	30200073	mret	
       87957000	      4296	80003328	f1415ff3	csrrwi	x0,mhartid,2	  x0=0x00000000
       88037000	      4300	80002500	0800006f	jal	x0,80002580	  x0=0x00000000
       88077000	      4302	80002580	16f1	c.addi	x13,-4	 x13:0x80025ce4 x13=0x80025ce0
       88137000	      4305	80002582	c28c	c.sw	x11,0(x13)	 x13:0x80025ce0 x11:0x80021e64 PA:0x80025ce0 store:0x80021e64 load:0xffffffff
       88157000	      4306	80002584	000685b3	add	x11,x13,x0	 x13:0x80025ce0  x0:0x00000000 x11=0x80025ce0
       88177000	      4307	80002588	f8058593	addi	x11,x11,-128	 x11:0x80025ce0 x11=0x80025c60
       88377000	      4317	8000258c	0015a223	sw	x1,4(x11)	 x11:0x80025c60  x1:0x00000000 PA:0x80025c64 store:0x00000000 load:0xffffffff
       88897000	      4343	80002590	0025a423	sw	x2,8(x11)	 x11:0x80025c60  x2:0x800001c0 PA:0x80025c68 store:0x800001c0 load:0xffffffff
       88957000	      4346	80002594	0035a623	sw	x3,12(x11)	 x11:0x80025c60  x3:0x00000005 PA:0x80025c6c store:0x00000005 load:0xffffffff
       89077000	      4352	80002598	0045a823	sw	x4,16(x11)	 x11:0x80025c60  x4:0x00000002 PA:0x80025c70 store:0x00000002 load:0xffffffff
       89277000	      4362	8000259c	0055aa23	sw	x5,20(x11)	 x11:0x80025c60  x5:0xb9cf6f4f PA:0x80025c74 store:0xb9cf6f4f load:0xffffffff
       89337000	      4365	800025a0	0065ac23	sw	x6,24(x11)	 x11:0x80025c60  x6:0x00000008 PA:0x80025c78 store:0x00000008 load:0xffffffff
       89557000	      4376	800025a4	0075ae23	sw	x7,28(x11)	 x11:0x80025c60  x7:0x00000000 PA:0x80025c7c store:0x00000000 load:0xffffffff
       89697000	      4383	800025a8	d180	c.sw	x8,32(x11)	 x11:0x80025c60  x8:0x0000000d PA:0x80025c80 store:0x0000000d load:0xffffffff
       89797000	      4388	800025aa	d1c4	c.sw	x9,36(x11)	 x11:0x80025c60  x9:0x00000001 PA:0x80025c84 store:0x00000001 load:0xffffffff
       89857000	      4391	800025ac	d588	c.sw	x10,40(x11)	 x11:0x80025c60 x10:0x80000370 PA:0x80025c88 store:0x80000370 load:0xffffffff
       89877000	      4392	800025ae	d5cc	c.sw	x11,44(x11)	 x11:0x80025c60 x11:0x80025c60 PA:0x80025c8c store:0x80025c60 load:0xffffffff
       89917000	      4394	800025b0	d990	c.sw	x12,48(x11)	 x11:0x80025c60 x12:0x00000004 PA:0x80025c90 store:0x00000004 load:0xffffffff
       90097000	      4403	800025b2	d9d4	c.sw	x13,52(x11)	 x11:0x80025c60 x13:0x80025ce0 PA:0x80025c94 store:0x80025ce0 load:0xffffffff
       90397000	      4418	800025b4	dd98	c.sw	x14,56(x11)	 x11:0x80025c60 x14:0x00000000 PA:0x80025c98 store:0x00000000 load:0xffffffff
       90737000	      4435	800025b6	dddc	c.sw	x15,60(x11)	 x11:0x80025c60 x15:0x00000000 PA:0x80025c9c store:0x00000000 load:0xffffffff
       91197000	      4458	800025b8	0505a023	sw	x16,64(x11)	 x11:0x80025c60 x16:0x0000079e PA:0x80025ca0 store:0x0000079e load:0xffffffff
       91317000	      4464	800025bc	0515a223	sw	x17,68(x11)	 x11:0x80025c60 x17:0x00000000 PA:0x80025ca4 store:0x00000000 load:0xffffffff
       91557000	      4476	800025c0	0525a423	sw	x18,72(x11)	 x11:0x80025c60 x18:0x00000001 PA:0x80025ca8 store:0x00000001 load:0xffffffff
       91637000	      4480	800025c4	0535a623	sw	x19,76(x11)	 x11:0x80025c60 x19:0xfffff8ed PA:0x80025cac store:0xfffff8ed load:0xffffffff
       91677000	      4482	800025c8	0545a823	sw	x20,80(x11)	 x11:0x80025c60 x20:0x00000000 PA:0x80025cb0 store:0x00000000 load:0xffffffff
       91697000	      4483	800025cc	0555aa23	sw	x21,84(x11)	 x11:0x80025c60 x21:0x80000000 PA:0x80025cb4 store:0x80000000 load:0xffffffff
       91737000	      4485	800025d0	0565ac23	sw	x22,88(x11)	 x11:0x80025c60 x22:0x00000000 PA:0x80025cb8 store:0x00000000 load:0xffffffff
       92117000	      4504	800025d4	0575ae23	sw	x23,92(x11)	 x11:0x80025c60 x23:0x00000000 PA:0x80025cbc store:0x00000000 load:0xffffffff
       92177000	      4507	800025d8	0785a023	sw	x24,96(x11)	 x11:0x80025c60 x24:0x80021e64 PA:0x80025cc0 store:0x80021e64 load:0xffffffff
       92437000	      4520	800025dc	0795a223	sw	x25,100(x11)	 x11:0x80025c60 x25:0x18000000 PA:0x80025cc4 store:0x18000000 load:0xffffffff
       92857000	      4541	800025e0	07a5a423	sw	x26,104(x11)	 x11:0x80025c60 x26:0x00000000 PA:0x80025cc8 store:0x00000000 load:0xffffffff
       92917000	      4544	800025e4	07b5a623	sw	x27,108(x11)	 x11:0x80025c60 x27:0x00000001 PA:0x80025ccc store:0x00000001 load:0xffffffff
       93237000	      4560	800025e8	07c5a823	sw	x28,112(x11)	 x11:0x80025c60 x28:0x77c6e408 PA:0x80025cd0 store:0x77c6e408 load:0xffffffff
       93297000	      4563	800025ec	07d5aa23	sw	x29,116(x11)	 x11:0x80025c60 x29:0x0666730f PA:0x80025cd4 store:0x0666730f load:0xffffffff
       93317000	      4564	800025f0	07e5ac23	sw	x30,120(x11)	 x11:0x80025c60 x30:0x7be08446 PA:0x80025cd8 store:0x7be08446 load:0xffffffff
       93737000	      4585	800025f4	07f5ae23	sw	x31,124(x11)	 x11:0x80025c60 x31:0xb9cf6750 PA:0x80025cdc store:0xb9cf6750 load:0xffffffff
       93757000	      4586	800025f8	000586b3	add	x13,x11,x0	 x11:0x80025c60  x0:0x00000000 x13=0x80025c60
       93777000	      4587	800025fc	90000db7	lui	x27,0x90000	 x27=0x90000000
       93797000	      4588	80002600	1df1	c.addi	x27,-4	 x27:0x90000000 x27=0x8ffffffc
       93817000	      4589	80002602	4921	c.li	x18,8	 x18=0x00000008
       93837000	      4590	80002604	0922	c.slli	x18,0x8	 x18:0x00000008 x18=0x00000800
       93857000	      4591	80002606	00090913	addi	x18,x18,0	 x18:0x00000800 x18=0x00000800
       94337000	      4615	8000260a	012da023	sw	x18,0(x27)	 x27:0x8ffffffc x18:0x00000800 PA:0x8ffffffc store:0x00000800 load:0xffffffff
       94357000	      4616	8000260e	34102973	csrrs	x18,mepc,x0	  x0:0x00000000 x18=0x80003328
       94377000	      4617	80002612	34202973	csrrs	x18,mcause,x0	  x0:0x00000000 x18=0x00000002
       94397000	      4618	80002616	4d8d	c.li	x27,3	 x27=0x00000003
       94417000	      4619	80002618	01b91463	bne	x18,x27,80002620	 x18:0x00000002 x27:0x00000003
       94457000	      4621	80002620	4da1	c.li	x27,8	 x27=0x00000008
       94477000	      4622	80002622	05b90d63	beq	x18,x27,8000267c	 x18:0x00000002 x27:0x00000008
       94497000	      4623	80002626	4da5	c.li	x27,9	 x27=0x00000009
       94517000	      4624	80002628	05b90a63	beq	x18,x27,8000267c	 x18:0x00000002 x27:0x00000009
       94537000	      4625	8000262c	4dad	c.li	x27,11	 x27=0x0000000b
       94557000	      4626	8000262e	05b90763	beq	x18,x27,8000267c	 x18:0x00000002 x27:0x0000000b
       94577000	      4627	80002632	4d85	c.li	x27,1	 x27=0x00000001
       94597000	      4628	80002634	35b90363	beq	x18,x27,8000297a	 x18:0x00000002 x27:0x00000001
       94617000	      4629	80002638	4d95	c.li	x27,5	 x27=0x00000005
       94637000	      4630	8000263a	63b90963	beq	x18,x27,80002c6c	 x18:0x00000002 x27:0x00000005
       94657000	      4631	8000263e	4d9d	c.li	x27,7	 x27=0x00000007
       94677000	      4632	80002640	15b90ae3	beq	x18,x27,80002f94	 x18:0x00000002 x27:0x00000007
       94697000	      4633	80002644	4db1	c.li	x27,12	 x27=0x0000000c
       94717000	      4634	80002646	01b91463	bne	x18,x27,8000264e	 x18:0x00000002 x27:0x0000000c
       94757000	      4636	8000264e	4db5	c.li	x27,13	 x27=0x0000000d
       94777000	      4637	80002650	01b91463	bne	x18,x27,80002658	 x18:0x00000002 x27:0x0000000d
       94817000	      4639	80002658	4dbd	c.li	x27,15	 x27=0x0000000f
       94837000	      4640	8000265a	01b91463	bne	x18,x27,80002662	 x18:0x00000002 x27:0x0000000f
       94877000	      4642	80002662	4d89	c.li	x27,2	 x27=0x00000002
       94897000	      4643	80002664	01b91463	bne	x18,x27,8000266c	 x18:0x00000002 x27:0x00000002
       94917000	      4644	80002668	45c0906f	jal	x0,8000bac4	  x0=0x00000000
       94957000	      4646	8000bac4	90000db7	lui	x27,0x90000	 x27=0x90000000
       94977000	      4647	8000bac8	1df1	c.addi	x27,-4	 x27:0x90000000 x27=0x8ffffffc
       94997000	      4648	8000baca	4929	c.li	x18,10	 x18=0x0000000a
       95017000	      4649	8000bacc	0922	c.slli	x18,0x8	 x18:0x0000000a x18=0x00000a00
       95037000	      4650	8000bace	00090913	addi	x18,x18,0	 x18:0x00000a00 x18=0x00000a00
       95257000	      4661	8000bad2	012da023	sw	x18,0(x27)	 x27:0x8ffffffc x18:0x00000a00 PA:0x8ffffffc store:0x00000a00 load:0xffffffff
       95277000	      4662	8000bad6	90000db7	lui	x27,0x90000	 x27=0x90000000
       95297000	      4663	8000bada	1df1	c.addi	x27,-4	 x27:0x90000000 x27=0x8ffffffc
       95317000	      4664	8000badc	34200913	addi	x18,x0,834	  x0:0x00000000 x18=0x00000342
       95337000	      4665	8000bae0	0922	c.slli	x18,0x8	 x18:0x00000342 x18=0x00034200
       95357000	      4666	8000bae2	090d	c.addi	x18,3	 x18:0x00034200 x18=0x00034203
       95417000	      4669	8000bae4	012da023	sw	x18,0(x27)	 x27:0x8ffffffc x18:0x00034203 PA:0x8ffffffc store:0x00034203 load:0xffffffff
       95437000	      4670	8000bae8	34202973	csrrs	x18,mcause,x0	  x0:0x00000000 x18=0x00000002
       95677000	      4682	8000baec	012da023	sw	x18,0(x27)	 x27:0x8ffffffc x18:0x00000002 PA:0x8ffffffc store:0x00000002 load:0xffffffff
       95697000	      4683	8000baf0	34102973	csrrs	x18,mepc,x0	  x0:0x00000000 x18=0x80003328
       95717000	      4684	8000baf4	0911	c.addi	x18,4	 x18:0x80003328 x18=0x8000332c
       95737000	      4685	8000baf6	34191073	csrrw	x0,mepc,x18	 x18:0x8000332c  x0=0x00000000
       95757000	      4686	8000bafa	000685b3	add	x11,x13,x0	 x13:0x80025c60  x0:0x00000000 x11=0x80025c60
       95877000	      4692	8000bafe	0045a083	lw	x1,4(x11)	 x11:0x80025c60  x1=0x00000000 PA:0x80025c64 load:0x00000000
       96337000	      4715	8000bb02	0085a103	lw	x2,8(x11)	 x11:0x80025c60  x2=0x800001c0 PA:0x80025c68 load:0x800001c0
       96397000	      4718	8000bb06	00c5a183	lw	x3,12(x11)	 x11:0x80025c60  x3=0x00000005 PA:0x80025c6c load:0x00000005
       96417000	      4719	8000bb0a	0105a203	lw	x4,16(x11)	 x11:0x80025c60  x4=0x00000002 PA:0x80025c70 load:0x00000002
       96437000	      4720	8000bb0e	0145a283	lw	x5,20(x11)	 x11:0x80025c60  x5=0xb9cf6f4f PA:0x80025c74 load:0xb9cf6f4f
       96697000	      4733	8000bb12	0185a303	lw	x6,24(x11)	 x11:0x80025c60  x6=0x00000008 PA:0x80025c78 load:0x00000008
       96757000	      4736	8000bb16	01c5a383	lw	x7,28(x11)	 x11:0x80025c60  x7=0x00000000 PA:0x80025c7c load:0x00000000
       97297000	      4763	8000bb1a	5180	c.lw	x8,32(x11)	 x11:0x80025c60  x8=0x0000000d PA:0x80025c80 load:0x0000000d
       97357000	      4766	8000bb1c	51c4	c.lw	x9,36(x11)	 x11:0x80025c60  x9=0x00000001 PA:0x80025c84 load:0x00000001
       97377000	      4767	8000bb1e	5588	c.lw	x10,40(x11)	 x11:0x80025c60 x10=0x80000370 PA:0x80025c88 load:0x80000370
       97397000	      4768	8000bb20	55cc	c.lw	x11,44(x11)	 x11:0x80025c60 x11=0x80025c60 PA:0x80025c8c load:0x80025c60
       97577000	      4777	8000bb22	5990	c.lw	x12,48(x11)	 x11:0x80025c60 x12=0x00000004 PA:0x80025c90 load:0x00000004
       97757000	      4786	8000bb24	59d4	c.lw	x13,52(x11)	 x11:0x80025c60 x13=0x80025ce0 PA:0x80025c94 load:0x80025ce0
       97817000	      4789	8000bb26	5d98	c.lw	x14,56(x11)	 x11:0x80025c60 x14=0x00000000 PA:0x80025c98 load:0x00000000
       97837000	      4790	8000bb28	5ddc	c.lw	x15,60(x11)	 x11:0x80025c60 x15=0x00000000 PA:0x80025c9c load:0x00000000
       98017000	      4799	8000bb2a	0405a803	lw	x16,64(x11)	 x11:0x80025c60 x16=0x0000079e PA:0x80025ca0 load:0x0000079e
       98177000	      4807	8000bb2e	0445a883	lw	x17,68(x11)	 x11:0x80025c60 x17=0x00000000 PA:0x80025ca4 load:0x00000000
       98297000	      4813	8000bb32	0485a903	lw	x18,72(x11)	 x11:0x80025c60 x18=0x00000001 PA:0x80025ca8 load:0x00000001
       98537000	      4825	8000bb36	04c5a983	lw	x19,76(x11)	 x11:0x80025c60 x19=0xfffff8ed PA:0x80025cac load:0xfffff8ed
       98597000	      4828	8000bb3a	0505aa03	lw	x20,80(x11)	 x11:0x80025c60 x20=0x00000000 PA:0x80025cb0 load:0x00000000
       98617000	      4829	8000bb3e	0545aa83	lw	x21,84(x11)	 x11:0x80025c60 x21=0x80000000 PA:0x80025cb4 load:0x80000000
       98637000	      4830	8000bb42	0585ab03	lw	x22,88(x11)	 x11:0x80025c60 x22=0x00000000 PA:0x80025cb8 load:0x00000000
       98657000	      4831	8000bb46	05c5ab83	lw	x23,92(x11)	 x11:0x80025c60 x23=0x00000000 PA:0x80025cbc load:0x00000000
       98677000	      4832	8000bb4a	0605ac03	lw	x24,96(x11)	 x11:0x80025c60 x24=0x80021e64 PA:0x80025cc0 load:0x80021e64
       98797000	      4838	8000bb4e	0645ac83	lw	x25,100(x11)	 x11:0x80025c60 x25=0x18000000 PA:0x80025cc4 load:0x18000000
       98857000	      4841	8000bb52	0685ad03	lw	x26,104(x11)	 x11:0x80025c60 x26=0x00000000 PA:0x80025cc8 load:0x00000000
       99077000	      4852	8000bb56	06c5ad83	lw	x27,108(x11)	 x11:0x80025c60 x27=0x00000001 PA:0x80025ccc load:0x00000001
       99097000	      4853	8000bb5a	0705ae03	lw	x28,112(x11)	 x11:0x80025c60 x28=0x77c6e408 PA:0x80025cd0 load:0x77c6e408
       99277000	      4862	8000bb5e	0745ae83	lw	x29,116(x11)	 x11:0x80025c60 x29=0x0666730f PA:0x80025cd4 load:0x0666730f
       99337000	      4865	8000bb62	0785af03	lw	x30,120(x11)	 x11:0x80025c60 x30=0x7be08446 PA:0x80025cd8 load:0x7be08446
       99537000	      4875	8000bb66	07c5af83	lw	x31,124(x11)	 x11:0x80025c60 x31=0xb9cf6750 PA:0x80025cdc load:0xb9cf6750
       99557000	      4876	8000bb6a	08058593	addi	x11,x11,128	 x11:0x80025c60 x11=0x80025ce0
       99577000	      4877	8000bb6e	000586b3	add	x13,x11,x0	 x11:0x80025ce0  x0:0x00000000 x13=0x80025ce0
      100237000	      4910	8000bb72	428c	c.lw	x11,0(x13)	 x13:0x80025ce0 x11=0x80021e64 PA:0x80025ce0 load:0x80021e64
      100257000	      4911	8000bb74	0691	c.addi	x13,4	 x13:0x80025ce0 x13=0x80025ce4
      100277000	      4912	8000bb76	30200073	mret	
      101057000	      4951	8000332c	03395c33	divu	x24,x18,x19	 x18:0x00000001 x19:0xfffff8ed x24=0x00000000
      101077000	      4952	80003330	02630533	mul	x10,x6,x6	  x6:0x00000008  x6:0x00000008 x10=0x00000040
      101097000	      4953	80003334	0043c463	blt	x7,x4,8000333c	  x7:0x00000000  x4:0x00000002
      101137000	      4955	8000333c	3ba07273	csrrci	x4,pmpaddr10,0	  x4=0x0aaab753
      101697000	      4983	80003340	98fd	c.andi	x9,-1	  x9:0x00000001  x9=0x00000001
      101877000	      4992	80003342	02feda63	bge	x29,x15,80003376	 x29:0x0666730f x15:0x00000000
      102337000	      5015	80003376	b8309c73	csrrw	x24,mhpmcounter3h,x1	  x1:0x00000000 x24=0x00000000
      102477000	      5022	8000337a	02bc0263	beq	x24,x11,8000339e	 x24:0x00000000 x11:0x80021e64
      102557000	      5026	8000337e	6cdfa413	slti	x8,x31,1741	 x31:0xb9cf6750  x8=0x00000001
      102577000	      5027	80003382	01b06033	or	x0,x0,x27	  x0:0x00000000 x27:0x00000001  x0=0x00000000
      102997000	      5048	80003386	71136313	ori	x6,x6,1809	  x6:0x00000008  x6=0x00000719
      103017000	      5049	8000338a	008f94b3	sll	x9,x31,x8	 x31:0xb9cf6750  x8:0x00000001  x9=0x739ecea0
      103037000	      5050	8000338e	0000100f	fence.i	
      103697000	      5083	80003392	611f9f37	lui	x30,0x611f9	 x30=0x611f9000
      103757000	      5086	80003396	00c4ec63	bltu	x9,x12,800033ae	  x9:0x739ecea0 x12:0x00000004
      103777000	      5087	8000339a	005bcc63	blt	x23,x5,800033b2	 x23:0x00000000  x5:0xb9cf6f4f
      103797000	      5088	8000339e	b0302173	csrrs	x2,mhpmcounter3,x0	  x0:0x00000000  x2=0x000002d2
      103817000	      5089	800033a2	8e65	c.and	x12,x9	 x12:0x00000004  x9:0x739ecea0 x12=0x00000000
      103837000	      5090	800033a4	00c95e13	srli	x28,x18,0xc	 x18:0x00000001 x28=0x00000000
      103917000	      5094	800033a8	03ac9ab3	mulh	x21,x25,x26	 x25:0x18000000 x26:0x00000000 x21=0x00000000
      104037000	      5100	800033ac	87f5	c.srai	x15,0x1d	 x15:0x00000000 x15=0x00000000
      104197000	      5108	800033ae	01663cb3	sltu	x25,x12,x22	 x12:0x00000000 x22:0x00000000 x25=0x00000000
      104217000	      5109	800033b2	8ce1	c.and	x9,x8	  x9:0x739ecea0  x8:0x00000001  x9=0x00000000
      104397000	      5118	800033b4	00aa8bb3	add	x23,x21,x10	 x21:0x00000000 x10:0x00000040 x23=0x00000040
      104417000	      5119	800033b8	408b0233	sub	x4,x22,x8	 x22:0x00000000  x8:0x00000001  x4=0xffffffff
      104457000	      5121	800033bc	027db1b3	mulhu	x3,x27,x7	 x27:0x00000001  x7:0x00000000  x3=0x00000000
      104797000	      5138	800033c0	0141d2b3	srl	x5,x3,x20	  x3:0x00000000 x20:0x00000000  x5=0x00000000
      104837000	      5140	800033c4	02e31d33	mulh	x26,x6,x14	  x6:0x00000719 x14:0x00000000 x26=0x00000000
      104997000	      5148	800033c8	0227fd63	bgeu	x15,x2,80003402	 x15:0x00000000  x2:0x000002d2
      105417000	      5169	800033cc	3435d873	csrrwi	x16,mtval,11	 x16=0xf1415ff3
      105837000	      5190	800033d0	cc4d6d93	ori	x27,x26,-828	 x26:0x00000000 x27=0xfffffcc4
      105857000	      5191	800033d4	91aa	c.add	x3,x10	  x3:0x00000000 x10:0x00000040  x3=0x00000040
      105877000	      5192	800033d6	62e1	c.lui	x5,0x18	  x5=0x00018000
      106617000	      5229	800033d8	028a6d33	rem	x26,x20,x8	 x20:0x00000000  x8:0x00000001 x26=0x00000000
      106637000	      5230	800033dc	3b802373	csrrs	x6,pmpaddr8,x0	  x0:0x00000000  x6=0x02222ecb
      106657000	      5231	800033e0	6135	c.addi16sp	x2,352	  x2:0x000002d2  x2=0x00000432
      106677000	      5232	800033e2	8e41	c.or	x12,x8	 x12:0x00000000  x8:0x00000001 x12=0x00000001
      106697000	      5233	800033e4	b8ac6273	csrrsi	x4,mhpmcounter10h,24	  x4=0x00000000
      106757000	      5236	800033e8	b5312d13	slti	x26,x2,-1197	  x2:0x00000432 x26=0x00000000
      106777000	      5237	800033ec	00e83db3	sltu	x27,x16,x14	 x16:0xf1415ff3 x14:0x00000000 x27=0x00000000
      106877000	      5242	800033f0	32b021f3	csrrs	x3,mhpmevent11,x0	  x0:0x00000000  x3=0x00000100
      106897000	      5243	800033f4	8c85	c.sub	x9,x9	  x9:0x00000000  x9:0x00000000  x9=0x00000000
      106917000	      5244	800033f6	41888c33	sub	x24,x17,x24	 x17:0x00000000 x24:0x00000000 x24=0x00000000
      107017000	      5249	800033fa	0ff0000f	fence	iorw,iorw	
      107137000	      5255	800033fe	00e48cb3	add	x25,x9,x14	  x9:0x00000000 x14:0x00000000 x25=0x00000000
      107157000	      5256	80003402	8c91	c.sub	x9,x12	  x9:0x00000000 x12:0x00000001  x9=0xffffffff
      107197000	      5258	80003404	038addb3	divu	x27,x21,x24	 x21:0x00000000 x24:0x00000000 x27=0xffffffff
      107337000	      5265	80003408	01b0cd33	xor	x26,x1,x27	  x1:0x00000000 x27:0xffffffff x26=0xffffffff
      107357000	      5266	8000340c	01171793	slli	x15,x14,0x11	 x14:0x00000000 x15=0x00000000
      107457000	      5271	80003410	d8d2ec97	auipc	x25,0xd8d2e	 x25=0x58d31410
      107617000	      5279	80003414	8bc9	c.andi	x15,18	 x15:0x00000000 x15=0x00000000
      107637000	      5280	80003416	6ca9	c.lui	x25,0xa	 x25=0x0000a000
      107657000	      5281	80003418	03f91b63	bne	x18,x31,8000344e	 x18:0x00000001 x31:0xb9cf6750
      108037000	      5300	8000344e	03151333	mulh	x6,x10,x17	 x10:0x00000040 x17:0x00000000  x6=0x00000000
      108057000	      5301	80003452	028fef63	bltu	x31,x8,80003490	 x31:0xb9cf6750  x8:0x00000001
      108077000	      5302	80003456	8f91	c.sub	x15,x12	 x15:0x00000000 x12:0x00000001 x15=0xffffffff
      108237000	      5310	80003458	0358edb3	rem	x27,x17,x21	 x17:0x00000000 x21:0x00000000 x27=0x00000000
      108417000	      5319	8000345c	30051cf3	csrrw	x25,mstatus,x10	 x10:0x00000040 x25=0x00000080
      108477000	      5322	80003460	32502c73	csrrs	x24,mhpmevent5,x0	  x0:0x00000000 x24=0x00000004
      108497000	      5323	80003464	8531	c.srai	x10,0xc	 x10:0x00000040 x10=0x00000000
      108897000	      5343	80003466	31007bf3	csrrci	x23,0x310,0	 x23=0x00000000
      108917000	      5344	8000346a	40185813	srai	x16,x16,0x1	 x16:0xf1415ff3 x16=0xf8a0aff9
      108937000	      5345	8000346e	003f5e13	srli	x28,x30,0x3	 x30:0x611f9000 x28=0x0c23f200
      109177000	      5357	80003472	01fd5c33	srl	x24,x26,x31	 x26:0xffffffff x31:0xb9cf6750 x24=0x0000ffff
      109197000	      5358	80003476	078e	c.slli	x15,0x3	 x15:0xffffffff x15=0xfffffff8
      109217000	      5359	80003478	b8837893	andi	x17,x6,-1144	  x6:0x00000000 x17=0x00000000
      109237000	      5360	8000347c	8d4d	c.or	x10,x11	 x10:0x00000000 x11:0x80021e64 x10=0x80021e64
      110357000	      5416	8000347e	022dd1b3	divu	x3,x27,x2	 x27:0x00000000  x2:0x00000432  x3=0x00000000
      110377000	      5417	80003482	021e	c.slli	x4,0x7	  x4:0x00000000  x4=0x00000000
      110397000	      5418	80003484	8f31	c.xor	x14,x12	 x14:0x00000000 x12:0x00000001 x14=0x00000001
      110417000	      5419	80003486	e3a9	c.bnez	x15,800034c8	 x15:0xfffffff8
      110677000	      5432	800034c8	8a36	c.mv	x20,x13	  x0:0x00000000 x13:0x80025ce4 x20=0x80025ce4
      110697000	      5433	800034ca	00b2	c.slli	x1,0xc	  x1:0x00000000  x1=0x00000000
      110717000	      5434	800034cc	01d86a63	bltu	x16,x29,800034e0	 x16:0xf8a0aff9 x29:0x0666730f
      110737000	      5435	800034d0	e891	c.bnez	x9,800034e4	  x9:0xffffffff
      111197000	      5458	800034e4	b314ef13	ori	x30,x9,-1231	  x9:0xffffffff x30=0xffffffff
      111717000	      5484	800034e8	3bc02673	csrrs	x12,pmpaddr12,x0	  x0:0x00000000 x12=0x13333fdc
      111817000	      5489	800034ec	03669263	bne	x13,x22,80003510	 x13:0x80025ce4 x22:0x00000000
      112717000	      5534	80003510	01b3cab3	xor	x21,x7,x27	  x7:0x00000000 x27:0x00000000 x21=0x00000000
      112737000	      5535	80003514	03db1a63	bne	x22,x29,80003548	 x22:0x00000000 x29:0x0666730f
      113077000	      5552	80003548	8815	c.andi	x8,5	  x8:0x00000001  x8=0x00000001
      113097000	      5553	8000354a	b3bda993	slti	x19,x27,-1221	 x27:0x00000000 x19=0x00000000
      113117000	      5554	8000354e	32007ff3	csrrci	x31,mcountinhibit,0	 x31=0x00000000
      113357000	      5566	80003552	0031d763	bge	x3,x3,80003560	  x3:0x00000000  x3:0x00000000
      114057000	      5601	80003560	6a35	c.lui	x20,0xd	 x20=0x0000d000
      114257000	      5611	80003562	02bb14b3	mulh	x9,x22,x11	 x22:0x00000000 x11:0x80021e64  x9=0x00000000
      114277000	      5612	80003566	6171	c.addi16sp	x2,336	  x2:0x00000432  x2=0x00000582
      114397000	      5618	80003568	012d9533	sll	x10,x27,x18	 x27:0x00000000 x18:0x00000001 x10=0x00000000
      114557000	      5626	8000356c	01a85fb3	srl	x31,x16,x26	 x16:0xf8a0aff9 x26:0xffffffff x31=0x00000001
      114897000	      5643	80003570	8c19	c.sub	x8,x14	  x8:0x00000001 x14:0x00000001  x8=0x00000000
      114917000	      5644	80003572	1b5b4e93	xori	x29,x22,437	 x22:0x00000000 x29=0x000001b5
      114937000	      5645	80003576	010fd933	srl	x18,x31,x16	 x31:0x00000001 x16:0xf8a0aff9 x18=0x00000000
      114957000	      5646	8000357a	92b2	c.add	x5,x12	  x5:0x00018000 x12:0x13333fdc  x5=0x1334bfdc
      114977000	      5647	8000357c	013fec63	bltu	x31,x19,80003594	 x31:0x00000001 x19:0x00000000
      114997000	      5648	80003580	01186433	or	x8,x16,x17	 x16:0xf8a0aff9 x17:0x00000000  x8=0xf8a0aff9
      115177000	      5657	80003584	66174d17	auipc	x26,0x66174	 x26=0xe6177584
      115197000	      5658	80003588	8c7d	c.and	x8,x15	  x8:0xf8a0aff9 x15:0xfffffff8  x8=0xf8a0aff8
      115217000	      5659	8000358a	005b6233	or	x4,x22,x5	 x22:0x00000000  x5:0x1334bfdc  x4=0x1334bfdc
      115297000	      5663	8000358e	01eee9b3	or	x19,x29,x30	 x29:0x000001b5 x30:0xffffffff x19=0xffffffff
      115317000	      5664	80003592	8fb5	c.xor	x15,x13	 x15:0xfffffff8 x13:0x80025ce4 x15=0x7ffda31c
      115357000	      5666	80003594	02126ab3	rem	x21,x4,x1	  x4:0x1334bfdc  x1:0x00000000 x21=0x1334bfdc
      115537000	      5675	80003598	03c67e63	bgeu	x12,x28,800035d4	 x12:0x13333fdc x28:0x0c23f200
      116277000	      5712	800035d4	41b9ddb3	sra	x27,x19,x27	 x19:0xffffffff x27:0x00000000 x27=0xffffffff
      116717000	      5734	800035d8	557d	c.li	x10,-1	 x10=0xffffffff
      116737000	      5735	800035da	00cf7d33	and	x26,x30,x12	 x30:0xffffffff x12:0x13333fdc x26=0x13333fdc
      116757000	      5736	800035de	0001	c.addi	x0,0	  x0:0x00000000  x0=0x00000000
      117117000	      5754	800035e0	11d24c93	xori	x25,x4,285	  x4:0x1334bfdc x25=0x1334bec1
      117157000	      5756	800035e4	92773d13	sltiu	x26,x14,-1753	 x14:0x00000001 x26=0x00000001
      117257000	      5761	800035e8	00326133	or	x2,x4,x3	  x4:0x1334bfdc  x3:0x00000000  x2=0x1334bfdc
      117377000	      5767	800035ec	b3c3f093	andi	x1,x7,-1220	  x7:0x00000000  x1=0x00000000
      117517000	      5774	800035f0	02e5f563	bgeu	x11,x14,8000361a	 x11:0x80021e64 x14:0x00000001
      117937000	      5795	8000361a	01a35e93	srli	x29,x6,0x1a	  x6:0x00000000 x29=0x00000000
      117957000	      5796	8000361e	340711f3	csrrw	x3,mscratch,x14	 x14:0x00000001  x3=0x00000000
      117977000	      5797	80003622	02065a63	bge	x12,x0,80003656	 x12:0x13333fdc  x0:0x00000000
      118517000	      5824	80003656	0001	c.addi	x0,0	  x0:0x00000000  x0=0x00000000
      118617000	      5829	80003658	01ed5bb3	srl	x23,x26,x30	 x26:0x00000001 x30:0xffffffff x23=0x00000000
      118637000	      5830	8000365c	325061f3	csrrsi	x3,mhpmevent5,0	  x3=0x00000004
      118657000	      5831	80003660	05f3cf13	xori	x30,x7,95	  x7:0x00000000 x30=0x0000005f
      118717000	      5834	80003664	cdd33893	sltiu	x17,x6,-803	  x6:0x00000000 x17=0x00000001
      119637000	      5880	80003668	03f66b33	rem	x22,x12,x31	 x12:0x13333fdc x31:0x00000001 x22=0x00000000
      119657000	      5881	8000366c	01a88833	add	x16,x17,x26	 x17:0x00000001 x26:0x00000001 x16=0x00000002
      119677000	      5882	80003670	40e0d833	sra	x16,x1,x14	  x1:0x00000000 x14:0x00000001 x16=0x00000000
      119697000	      5883	80003674	c611	c.beqz	x12,80003680	 x12:0x13333fdc
      119717000	      5884	80003676	0ff0000f	fence	iorw,iorw	
      119737000	      5885	8000367a	8cad	c.xor	x9,x11	  x9:0x00000000 x11:0x80021e64  x9=0x80021e64
      120477000	      5922	8000367c	03fb5133	divu	x2,x22,x31	 x22:0x00000000 x31:0x00000001  x2=0x00000000
      120497000	      5923	80003680	974ac913	xori	x18,x21,-1676	 x21:0x1334bfdc x18=0xeccb46a8
      120517000	      5924	80003684	1cba3413	sltiu	x8,x20,459	 x20:0x0000d000  x8=0x00000000
      120537000	      5925	80003688	6e59	c.lui	x28,0x16	 x28=0x00016000
      120557000	      5926	8000368a	00469863	bne	x13,x4,8000369a	 x13:0x80025ce4  x4:0x1334bfdc
      120897000	      5943	8000369a	8fcd	c.or	x15,x11	 x15:0x7ffda31c x11:0x80021e64 x15=0xffffbf7c
      130837000	      6440	8000369c	b8acd8f3	csrrwi	x17,mhpmcounter10h,25	 x17=0x00000000
      130897000	      6443	800036a0	02ea4b63	blt	x20,x14,800036d6	 x20:0x0000d000 x14:0x00000001
      130917000	      6444	800036a4	31061373	csrrw	x6,0x310,x12	 x12:0x13333fdc  x6=0x00000000
      130977000	      6447	800036a8	00576f63	bltu	x14,x5,800036c6	 x14:0x00000001  x5:0x1334bfdc
      132917000	      6544	800036c6	021472b3	remu	x5,x8,x1	  x8:0x00000000  x1:0x00000000  x5=0x00000000
      133237000	      6560	800036ca	04440263	beq	x8,x4,8000370e	  x8:0x00000000  x4:0x1334bfdc
      133257000	      6561	800036ce	873d	c.srai	x14,0xf	 x14:0x00000001 x14=0x00000000
      133277000	      6562	800036d0	0d62	c.slli	x26,0x18	 x26:0x00000001 x26=0x01000000
      133637000	      6580	800036d2	32b030f3	csrrc	x1,mhpmevent11,x0	  x0:0x00000000  x1=0x00000100
      134377000	      6617	800036d6	02cf72b3	remu	x5,x30,x12	 x30:0x0000005f x12:0x13333fdc  x5=0x0000005f
      134397000	      6618	800036da	3267dd73	csrrwi	x26,mhpmevent6,15	 x26=0x00000008
      134457000	      6621	800036de	006e4533	xor	x10,x28,x6	 x28:0x00016000  x6:0x00000000 x10=0x00016000
      134477000	      6622	800036e2	016c7f33	and	x30,x24,x22	 x24:0x0000ffff x22:0x00000000 x30=0x00000000
      134517000	      6624	800036e6	03eea633	mulhsu	x12,x29,x30	 x29:0x00000000 x30:0x00000000 x12=0x00000000
      134537000	      6625	800036ea	9772	c.add	x14,x28	 x14:0x00000000 x28:0x00016000 x14=0x00016000
      134577000	      6627	800036ec	03459eb3	mulh	x29,x11,x20	 x11:0x80021e64 x20:0x0000d000 x29=0xffff9801
      134717000	      6634	800036f0	02e7f963	bgeu	x15,x14,80003722	 x15:0xffffbf7c x14:0x00016000
      135337000	      6665	80003722	03359d63	bne	x11,x19,8000375c	 x11:0x80021e64 x19:0xffffffff
      136017000	      6699	8000375c	32a759f3	csrrwi	x19,mhpmevent10,14	 x19=0x00000080
      136797000	      6738	80003760	717d	c.addi16sp	x2,-16	  x2:0x00000000  x2=0xfffffff0
      136837000	      6740	80003762	0306f4b3	remu	x9,x13,x16	 x13:0x80025ce4 x16:0x00000000  x9=0x80025ce4
      137217000	      6759	80003766	3b6021f3	csrrs	x3,pmpaddr6,x0	  x0:0x00000000  x3=0x3999a642
      137637000	      6780	8000376a	02e08633	mul	x12,x1,x14	  x1:0x00000100 x14:0x00016000 x12=0x01600000
      137657000	      6781	8000376e	03b58a33	mul	x20,x11,x27	 x11:0x80021e64 x27:0xffffffff x20=0x7ffde19c
      137677000	      6782	80003772	1118	c.addi4spn	x14,x2,160	 x14=0x00000090
      137837000	      6790	80003774	014ec9b3	xor	x19,x29,x20	 x29:0xffff9801 x20:0x7ffde19c x19=0x8002799d
      137857000	      6791	80003778	6209	c.lui	x4,0x2	  x4=0x00002000
      138757000	      6836	8000377a	029ed8b3	divu	x17,x29,x9	 x29:0xffff9801  x9:0x80025ce4 x17=0x00000001
      138777000	      6837	8000377e	41d35313	srai	x6,x6,0x1d	  x6:0x00000000  x6=0x00000000
      138797000	      6838	80003782	00bc9933	sll	x18,x25,x11	 x25:0x1334bec1 x11:0x80021e64 x18=0x334bec10
      138817000	      6839	80003786	cd0b6a13	ori	x20,x22,-816	 x22:0x00000000 x20=0xfffffcd0
      138837000	      6840	8000378a	4165d713	srai	x14,x11,0x16	 x11:0x80021e64 x14=0xfffffe00
      138857000	      6841	8000378e	909e	c.add	x1,x7	  x1:0x00000100  x7:0x00000000  x1=0x00000100
      138997000	      6848	80003790	7a306873	csrrsi	x16,tdata3,0	 x16=0x00000000
      139017000	      6849	80003794	0000100f	fence.i	
      139237000	      6860	80003798	8f2d	c.xor	x14,x11	 x14:0xfffffe00 x11:0x80021e64 x14=0x7ffde064
      139417000	      6869	8000379a	31095073	csrrwi	x0,0x310,18	  x0=0x00000000
      139517000	      6874	8000379e	0fdd69b7	lui	x19,0xfdd6	 x19=0x0fdd6000
      139537000	      6875	800037a2	01ec1f13	slli	x30,x24,0x1e	 x24:0x0000ffff x30=0xc0000000
      139557000	      6876	800037a6	0124cf33	xor	x30,x9,x18	  x9:0x80025ce4 x18:0x334bec10 x30=0xb349b0f4
      139577000	      6877	800037aa	8c4d	c.or	x8,x11	  x8:0x00000000 x11:0x80021e64  x8=0x80021e64
      139597000	      6878	800037ac	de71b793	sltiu	x15,x3,-537	  x3:0x3999a642 x15=0x00000001
      139997000	      6898	800037b0	00970a33	add	x20,x14,x9	 x14:0x7ffde064  x9:0x80025ce4 x20=0x00003d48
      140277000	      6912	800037b4	536f8717	auipc	x14,0x536f8	 x14=0xd36fb7b4
      140297000	      6913	800037b8	8f4d	c.or	x14,x11	 x14:0xd36fb7b4 x11:0x80021e64 x14=0xd36fbff4
      140377000	      6917	800037ba	03a9c363	blt	x19,x26,800037e0	 x19:0x0fdd6000 x26:0x00000008
      140397000	      6918	800037be	6f15ca13	xori	x20,x11,1777	 x11:0x80021e64 x20=0x80021895
      140417000	      6919	800037c2	8d19	c.sub	x10,x14	 x10:0x00016000 x14:0xd36fbff4 x10=0x2c91a00c
      140597000	      6928	800037c4	6155	c.addi16sp	x2,304	  x2:0xfffffff0  x2=0x00000120
      140617000	      6929	800037c6	b84a90f3	csrrw	x1,mhpmcounter4h,x21	 x21:0x1334bfdc  x1=0x00000000
      140697000	      6933	800037ca	02f51ab3	mulh	x21,x10,x15	 x10:0x2c91a00c x15:0x00000001 x21=0x00000000
      140717000	      6934	800037ce	e76a0b37	lui	x22,0xe76a0	 x22=0xe76a0000
      140737000	      6935	800037d2	9b72c797	auipc	x15,0x9b72c	 x15=0x1b72f7d2
      140757000	      6936	800037d6	c819	c.beqz	x8,800037ec	  x8:0x80021e64
      141097000	      6953	800037d8	40020db3	sub	x27,x4,x0	  x4:0x00002000  x0:0x00000000 x27=0x00002000
      141277000	      6962	800037dc	01ca39b3	sltu	x19,x20,x28	 x20:0x80021895 x28:0x00016000 x19=0x00000000
      141357000	      6966	800037e0	b8b07ff3	csrrci	x31,mhpmcounter11h,0	 x31=0x00000000
      141377000	      6967	800037e4	32341f73	csrrw	x30,mhpmevent3,x8	  x8:0x80021e64 x30=0x00000001
      141437000	      6970	800037e8	01e16eb3	or	x29,x2,x30	  x2:0x00000120 x30:0x00000001 x29=0x00000121
      141457000	      6971	800037ec	00d7d463	bge	x15,x13,800037f4	 x15:0x1b72f7d2 x13:0x80025ce4
      142317000	      7014	800037f4	986e	c.add	x16,x27	 x16:0x00000000 x27:0x00002000 x16=0x00002000
      142357000	      7016	800037f6	3de1f913	andi	x18,x3,990	  x3:0x3999a642 x18=0x00000242
      142377000	      7017	800037fa	9b7d	c.andi	x14,-1	 x14:0xd36fbff4 x14=0xd36fbff4
      143117000	      7054	800037fc	0382e033	rem	x0,x5,x24	  x5:0x0000005f x24:0x0000ffff  x0=0x00000000
      143137000	      7055	80003800	0ff0000f	fence	iorw,iorw	
      143157000	      7056	80003804	c4fc0137	lui	x2,0xc4fc0	  x2=0xc4fc0000
      143317000	      7064	80003808	89592b93	slti	x23,x18,-1899	 x18:0x00000242 x23=0x00000000
      143337000	      7065	8000380c	f1203773	csrrc	x14,marchid,x0	  x0:0x00000000 x14=0x00000016
      143537000	      7075	80003810	41e887b3	sub	x15,x17,x30	 x17:0x00000001 x30:0x00000001 x15=0x00000000
      143557000	      7076	80003814	8e1d	c.sub	x12,x15	 x12:0x01600000 x15:0x00000000 x12=0x01600000
      143577000	      7077	80003816	00875463	bge	x14,x8,8000381e	 x14:0x00000016  x8:0x80021e64
      144237000	      7110	8000381e	0ff0000f	fence	iorw,iorw	
      144977000	      7147	80003822	022859b3	divu	x19,x16,x2	 x16:0x00002000  x2:0xc4fc0000 x19=0x00000000
      144997000	      7148	80003826	00f38c63	beq	x7,x15,8000383e	  x7:0x00000000 x15:0x00000000
      145037000	      7150	8000383e	84b5	c.srai	x9,0xd	  x9:0x80025ce4  x9=0xfffc0012
      145137000	      7155	80003840	8149	c.srli	x10,0x12	 x10:0x2c91a00c x10=0x00000b24
      145157000	      7156	80003842	0159f533	and	x10,x19,x21	 x19:0x00000000 x21:0x00000000 x10=0x00000000
      145457000	      7171	80003846	40208ab3	sub	x21,x1,x2	  x1:0x00000000  x2:0xc4fc0000 x21=0x3b040000
      145477000	      7172	8000384a	59fd	c.li	x19,-1	 x19=0xffffffff
      145717000	      7184	8000384c	0001	c.addi	x0,0	  x0:0x00000000  x0=0x00000000
      145737000	      7185	8000384e	8139	c.srli	x10,0xe	 x10:0x00000000 x10=0x00000000
      145757000	      7186	80003850	8fd1	c.or	x15,x12	 x15:0x00000000 x12:0x01600000 x15=0x01600000
      146497000	      7223	80003852	02db6a33	rem	x20,x22,x13	 x22:0xe76a0000 x13:0x80025ce4 x20=0xe76a0000
      146517000	      7224	80003856	0349	c.addi	x6,18	  x6:0x00000000  x6=0x00000012
      146537000	      7225	80003858	02307d63	bgeu	x0,x3,80003892	  x0:0x00000000  x3:0x3999a642
      146557000	      7226	8000385c	0e45	c.addi	x28,17	 x28:0x00016000 x28=0x00016011
      146577000	      7227	8000385e	41ba50b3	sra	x1,x20,x27	 x20:0xe76a0000 x27:0x00002000  x1=0xe76a0000
      146597000	      7228	80003862	19100713	addi	x14,x0,401	  x0:0x00000000 x14=0x00000191
      146617000	      7229	80003866	3b0077f3	csrrci	x15,pmpaddr0,0	 x15=0x20000ca9
      146637000	      7230	8000386a	101c	c.addi4spn	x15,x2,32	 x15=0xc4fc0020
      146657000	      7231	8000386c	0001	c.addi	x0,0	  x0:0x00000000  x0=0x00000000
      146677000	      7232	8000386e	0071e133	or	x2,x3,x7	  x3:0x3999a642  x7:0x00000000  x2=0x3999a642
      147097000	      7253	80003872	008f20b3	slt	x1,x30,x8	 x30:0x00000001  x8:0x80021e64  x1=0x00000000
      147117000	      7254	80003876	b6fa6993	ori	x19,x20,-1169	 x20:0xe76a0000 x19=0xfffffb6f
      147537000	      7275	8000387a	004d1a13	slli	x20,x26,0x4	 x26:0x00000008 x20=0x00000080
      147557000	      7276	8000387e	0001	c.addi	x0,0	  x0:0x00000000  x0=0x00000000
      147957000	      7296	80003880	717d	c.addi16sp	x2,-16	  x2:0x3999a642  x2=0x3999a632
      147977000	      7297	80003882	717d	c.addi16sp	x2,-16	  x2:0x3999a632  x2=0x3999a622
      148077000	      7302	80003884	3bc07f73	csrrci	x30,pmpaddr12,0	 x30=0x13333fdc
      148097000	      7303	80003888	0001	c.addi	x0,0	  x0:0x00000000  x0=0x00000000
      148117000	      7304	8000388a	41cd5eb3	sra	x29,x26,x28	 x26:0x00000008 x28:0x00016011 x29=0x00000000
      148137000	      7305	8000388e	00a4c2b3	xor	x5,x9,x10	  x9:0xfffc0012 x10:0x00000000  x5=0xfffc0012
      148157000	      7306	80003892	0001	c.addi	x0,0	  x0:0x00000000  x0=0x00000000
      148897000	      7343	80003894	0354c933	div	x18,x9,x21	  x9:0xfffc0012 x21:0x3b040000 x18=0x00000000
      148917000	      7344	80003898	78f6e493	ori	x9,x13,1935	 x13:0x80025ce4  x9=0x80025fef
      148937000	      7345	8000389c	00a778b3	and	x17,x14,x10	 x14:0x00000191 x10:0x00000000 x17=0x00000000
      148957000	      7346	800038a0	0001	c.addi	x0,0	  x0:0x00000000  x0=0x00000000
      148977000	      7347	800038a2	8ca1	c.xor	x9,x8	  x9:0x80025fef  x8:0x80021e64  x9=0x0000418b
      148997000	      7348	800038a4	40615493	srai	x9,x2,0x6	  x2:0x3999a622  x9=0x00e66698
      149017000	      7349	800038a8	28430813	addi	x16,x6,644	  x6:0x00000012 x16=0x00000296
      149217000	      7359	800038ac	8fdd	c.or	x15,x15	 x15:0xc4fc0020 x15:0xc4fc0020 x15=0xc4fc0020
      149637000	      7380	800038ae	01a34833	xor	x16,x6,x26	  x6:0x00000012 x26:0x00000008 x16=0x0000001a
      150377000	      7417	800038b2	03a6d7b3	divu	x15,x13,x26	 x13:0x80025ce4 x26:0x00000008 x15=0x10004b9c
      150397000	      7418	800038b6	00456e33	or	x28,x10,x4	 x10:0x00000000  x4:0x00002000 x28=0x00002000
      150417000	      7419	800038ba	407dddb3	sra	x27,x27,x7	 x27:0x00002000  x7:0x00000000 x27=0x00002000
      150457000	      7421	800038be	02af6d33	rem	x26,x30,x10	 x30:0x13333fdc x10:0x00000000 x26=0x13333fdc
      150477000	      7422	800038c2	8169	c.srli	x10,0x1a	 x10:0x00000000 x10=0x00000000
      150497000	      7423	800038c4	0000100f	fence.i	
      150577000	      7427	800038c8	e3a1	c.bnez	x15,80003908	 x15:0x10004b9c
      150717000	      7434	80003908	46c4ae37	lui	x28,0x46c4a	 x28=0x46c4a000
      150737000	      7435	8000390c	1f90	c.addi4spn	x12,x2,1008	 x12=0x3999aa12
      150817000	      7439	8000390e	0ff0000f	fence	iorw,iorw	
      150937000	      7445	80003912	0387ba33	mulhu	x20,x15,x24	 x15:0x10004b9c x24:0x0000ffff x20=0x00001000
      150957000	      7446	80003916	039d0f63	beq	x26,x25,80003954	 x26:0x13333fdc x25:0x1334bec1
      151357000	      7466	8000391a	02018963	beq	x3,x0,8000394c	  x3:0x3999a642  x0:0x00000000
      151377000	      7467	8000391e	0001	c.addi	x0,0	  x0:0x00000000  x0=0x00000000
      152257000	      7511	80003920	02ddca33	div	x20,x27,x13	 x27:0x00002000 x13:0x80025ce4 x20=0x00000000
      152277000	      7512	80003924	02538f63	beq	x7,x5,80003962	  x7:0x00000000  x5:0xfffc0012
      152377000	      7517	80003928	6365	c.lui	x6,0x19	  x6=0x00019000
      152397000	      7518	8000392a	3b202973	csrrs	x18,pmpaddr2,x0	  x0:0x00000000 x18=0x28889531
      152817000	      7539	8000392e	67c72493	slti	x9,x14,1660	 x14:0x00000191  x9=0x00000001
      152877000	      7542	80003932	0122e763	bltu	x5,x18,80003940	  x5:0xfffc0012 x18:0x28889531
      152917000	      7544	80003936	01e25433	srl	x8,x4,x30	  x4:0x00002000 x30:0x13333fdc  x8=0x00000000
      152937000	      7545	8000393a	8c25	c.xor	x8,x9	  x8:0x00000000  x9:0x00000001  x8=0x00000001
      152957000	      7546	8000393c	32b03273	csrrc	x4,mhpmevent11,x0	  x0:0x00000000  x4=0x00000100
      153357000	      7566	80003940	02cf6763	bltu	x30,x12,8000396e	 x30:0x13333fdc x12:0x3999aa12
      153837000	      7590	8000396e	55012493	slti	x9,x2,1360	  x2:0x3999a622  x9=0x00000000
      153857000	      7591	80003972	8e6d	c.and	x12,x11	 x12:0x3999aa12 x11:0x80021e64 x12=0x00000a00
      153877000	      7592	80003974	0429c063	blt	x19,x2,800039b4	 x19:0xfffffb6f  x2:0x3999a622
      154117000	      7604	800039b4	00955993	srli	x19,x10,0x9	 x10:0x00000000 x19=0x00000000
      154377000	      7617	800039b8	01928333	add	x6,x5,x25	  x5:0xfffc0012 x25:0x1334bec1  x6=0x1330bed3
      154397000	      7618	800039bc	b0c07c73	csrrci	x24,mhpmcounter12,0	 x24=0x00000222
      154597000	      7628	800039c0	409cd533	sra	x10,x25,x9	 x25:0x1334bec1  x9:0x00000000 x10=0x1334bec1
      154857000	      7641	800039c4	03b24e63	blt	x4,x27,80003a00	  x4:0x00000100 x27:0x00002000
      155317000	      7664	80003a00	03cc8f63	beq	x25,x28,80003a3e	 x25:0x1334bec1 x28:0x46c4a000
      155337000	      7665	80003a04	b897eff3	csrrsi	x31,mhpmcounter9h,15	 x31=0x00000000
      155497000	      7673	80003a08	41888a33	sub	x20,x17,x24	 x17:0x00000000 x24:0x00000222 x20=0xfffffdde
      155517000	      7674	80003a0c	09fd	c.addi	x19,31	 x19:0x00000000 x19=0x0000001f
      155857000	      7691	80003a0e	b926c093	xori	x1,x13,-1134	 x13:0x80025ce4  x1=0x7ffda776
      156037000	      7700	80003a12	0000100f	fence.i	
      156557000	      7726	80003a16	00451c13	slli	x24,x10,0x4	 x10:0x1334bec1 x24=0x334bec10
      156577000	      7727	80003a1a	8c59	c.or	x8,x14	  x8:0x00000001 x14:0x00000191  x8=0x00000191
      156597000	      7728	80003a1c	0ff0000f	fence	iorw,iorw	
      156997000	      7748	80003a20	00911413	slli	x8,x2,0x9	  x2:0x3999a622  x8=0x334c4400
      157017000	      7749	80003a24	00e7dc63	bge	x15,x14,80003a3c	 x15:0x10004b9c x14:0x00000191
      157677000	      7782	80003a3c	6f95	c.lui	x31,0x5	 x31=0x00005000
      157697000	      7783	80003a3e	021f8963	beq	x31,x1,80003a70	 x31:0x00005000  x1:0x7ffda776
      157717000	      7784	80003a42	0001	c.addi	x0,0	  x0:0x00000000  x0=0x00000000
      158117000	      7804	80003a44	0001	c.addi	x0,0	  x0:0x00000000  x0=0x00000000
      158277000	      7812	80003a46	40f7d833	sra	x16,x15,x15	 x15:0x10004b9c x15:0x10004b9c x16=0x00000001
      158297000	      7813	80003a4a	34119df3	csrrw	x27,mepc,x3	  x3:0x3999a642 x27=0x8000332c
      158317000	      7814	80003a4e	01c86333	or	x6,x16,x28	 x16:0x00000001 x28:0x46c4a000  x6=0x46c4a001
      158337000	      7815	80003a52	3b603cf3	csrrc	x25,pmpaddr6,x0	  x0:0x00000000 x25=0x3999a642
      158357000	      7816	80003a56	01c80ab3	add	x21,x16,x28	 x16:0x00000001 x28:0x46c4a000 x21=0x46c4a001
      158377000	      7817	80003a5a	30402ff3	csrrs	x31,mie,x0	  x0:0x00000000 x31=0x00000000
      158417000	      7819	80003a5e	f118f573	csrrci	x0,mvendorid,17	  x0=0x00000000
      158637000	      7830	80002500	0800006f	jal	x0,80002580	  x0=0x00000000
      159797000	      7888	80002580	16f1	c.addi	x13,-4	 x13:0x80025ce4 x13=0x80025ce0
      159857000	      7891	80002582	c28c	c.sw	x11,0(x13)	 x13:0x80025ce0 x11:0x80021e64 PA:0x80025ce0 store:0x80021e64 load:0xffffffff
      160217000	      7909	80002584	000685b3	add	x11,x13,x0	 x13:0x80025ce0  x0:0x00000000 x11=0x80025ce0
      160337000	      7915	80002588	f8058593	addi	x11,x11,-128	 x11:0x80025ce0 x11=0x80025c60
      161137000	      7955	8000258c	0015a223	sw	x1,4(x11)	 x11:0x80025c60  x1:0x7ffda776 PA:0x80025c64 store:0x7ffda776 load:0xffffffff
      161677000	      7982	80002590	0025a423	sw	x2,8(x11)	 x11:0x80025c60  x2:0x3999a622 PA:0x80025c68 store:0x3999a622 load:0xffffffff
      161977000	      7997	80002594	0035a623	sw	x3,12(x11)	 x11:0x80025c60  x3:0x3999a642 PA:0x80025c6c store:0x3999a642 load:0xffffffff
      162037000	      8000	80002598	0045a823	sw	x4,16(x11)	 x11:0x80025c60  x4:0x00000100 PA:0x80025c70 store:0x00000100 load:0xffffffff
      162237000	      8010	8000259c	0055aa23	sw	x5,20(x11)	 x11:0x80025c60  x5:0xfffc0012 PA:0x80025c74 store:0xfffc0012 load:0xffffffff
      162317000	      8014	800025a0	0065ac23	sw	x6,24(x11)	 x11:0x80025c60  x6:0x46c4a001 PA:0x80025c78 store:0x46c4a001 load:0xffffffff
      162337000	      8015	800025a4	0075ae23	sw	x7,28(x11)	 x11:0x80025c60  x7:0x00000000 PA:0x80025c7c store:0x00000000 load:0xffffffff
      162357000	      8016	800025a8	d180	c.sw	x8,32(x11)	 x11:0x80025c60  x8:0x334c4400 PA:0x80025c80 store:0x334c4400 load:0xffffffff
      162497000	      8023	800025aa	d1c4	c.sw	x9,36(x11)	 x11:0x80025c60  x9:0x00000000 PA:0x80025c84 store:0x00000000 load:0xffffffff
      162957000	      8046	800025ac	d588	c.sw	x10,40(x11)	 x11:0x80025c60 x10:0x1334bec1 PA:0x80025c88 store:0x1334bec1 load:0xffffffff
      163217000	      8059	800025ae	d5cc	c.sw	x11,44(x11)	 x11:0x80025c60 x11:0x80025c60 PA:0x80025c8c store:0x80025c60 load:0xffffffff
      163237000	      8060	800025b0	d990	c.sw	x12,48(x11)	 x11:0x80025c60 x12:0x00000a00 PA:0x80025c90 store:0x00000a00 load:0xffffffff
      163257000	      8061	800025b2	d9d4	c.sw	x13,52(x11)	 x11:0x80025c60 x13:0x80025ce0 PA:0x80025c94 store:0x80025ce0 load:0xffffffff
      163277000	      8062	800025b4	dd98	c.sw	x14,56(x11)	 x11:0x80025c60 x14:0x00000191 PA:0x80025c98 store:0x00000191 load:0xffffffff
      163357000	      8066	800025b6	dddc	c.sw	x15,60(x11)	 x11:0x80025c60 x15:0x10004b9c PA:0x80025c9c store:0x10004b9c load:0xffffffff
      163717000	      8084	800025b8	0505a023	sw	x16,64(x11)	 x11:0x80025c60 x16:0x00000001 PA:0x80025ca0 store:0x00000001 load:0xffffffff
      163777000	      8087	800025bc	0515a223	sw	x17,68(x11)	 x11:0x80025c60 x17:0x00000000 PA:0x80025ca4 store:0x00000000 load:0xffffffff
      163797000	      8088	800025c0	0525a423	sw	x18,72(x11)	 x11:0x80025c60 x18:0x28889531 PA:0x80025ca8 store:0x28889531 load:0xffffffff
      164097000	      8103	800025c4	0535a623	sw	x19,76(x11)	 x11:0x80025c60 x19:0x0000001f PA:0x80025cac store:0x0000001f load:0xffffffff
      164157000	      8106	800025c8	0545a823	sw	x20,80(x11)	 x11:0x80025c60 x20:0xfffffdde PA:0x80025cb0 store:0xfffffdde load:0xffffffff
      164497000	      8123	800025cc	0555aa23	sw	x21,84(x11)	 x11:0x80025c60 x21:0x46c4a001 PA:0x80025cb4 store:0x46c4a001 load:0xffffffff
      164937000	      8145	800025d0	0565ac23	sw	x22,88(x11)	 x11:0x80025c60 x22:0xe76a0000 PA:0x80025cb8 store:0xe76a0000 load:0xffffffff
      165197000	      8158	800025d4	0575ae23	sw	x23,92(x11)	 x11:0x80025c60 x23:0x00000000 PA:0x80025cbc store:0x00000000 load:0xffffffff
      165277000	      8162	800025d8	0785a023	sw	x24,96(x11)	 x11:0x80025c60 x24:0x334bec10 PA:0x80025cc0 store:0x334bec10 load:0xffffffff
      165297000	      8163	800025dc	0795a223	sw	x25,100(x11)	 x11:0x80025c60 x25:0x3999a642 PA:0x80025cc4 store:0x3999a642 load:0xffffffff
      165737000	      8185	800025e0	07a5a423	sw	x26,104(x11)	 x11:0x80025c60 x26:0x13333fdc PA:0x80025cc8 store:0x13333fdc load:0xffffffff
      166157000	      8206	800025e4	07b5a623	sw	x27,108(x11)	 x11:0x80025c60 x27:0x8000332c PA:0x80025ccc store:0x8000332c load:0xffffffff
      166337000	      8215	800025e8	07c5a823	sw	x28,112(x11)	 x11:0x80025c60 x28:0x46c4a000 PA:0x80025cd0 store:0x46c4a000 load:0xffffffff
      166397000	      8218	800025ec	07d5aa23	sw	x29,116(x11)	 x11:0x80025c60 x29:0x00000000 PA:0x80025cd4 store:0x00000000 load:0xffffffff
      166417000	      8219	800025f0	07e5ac23	sw	x30,120(x11)	 x11:0x80025c60 x30:0x13333fdc PA:0x80025cd8 store:0x13333fdc load:0xffffffff
      166737000	      8235	800025f4	07f5ae23	sw	x31,124(x11)	 x11:0x80025c60 x31:0x00000000 PA:0x80025cdc store:0x00000000 load:0xffffffff
      166757000	      8236	800025f8	000586b3	add	x13,x11,x0	 x11:0x80025c60  x0:0x00000000 x13=0x80025c60
      185837000	      9190	800025fc	90000db7	lui	x27,0x90000	 x27=0x90000000
      185857000	      9191	80002600	1df1	c.addi	x27,-4	 x27:0x90000000 x27=0x8ffffffc
      185877000	      9192	80002602	4921	c.li	x18,8	 x18=0x00000008
      185897000	      9193	80002604	0922	c.slli	x18,0x8	 x18:0x00000008 x18=0x00000800
      185917000	      9194	80002606	00090913	addi	x18,x18,0	 x18:0x00000800 x18=0x00000800
      185977000	      9197	8000260a	012da023	sw	x18,0(x27)	 x27:0x8ffffffc x18:0x00000800 PA:0x8ffffffc store:0x00000800 load:0xffffffff
      186437000	      9220	8000260e	34102973	csrrs	x18,mepc,x0	  x0:0x00000000 x18=0x80003a5e
      186637000	      9230	80002612	34202973	csrrs	x18,mcause,x0	  x0:0x00000000 x18=0x00000002
      186657000	      9231	80002616	4d8d	c.li	x27,3	 x27=0x00000003
      186677000	      9232	80002618	01b91463	bne	x18,x27,80002620	 x18:0x00000002 x27:0x00000003
      186757000	      9236	80002620	4da1	c.li	x27,8	 x27=0x00000008
      186957000	      9246	80002622	05b90d63	beq	x18,x27,8000267c	 x18:0x00000002 x27:0x00000008
      186977000	      9247	80002626	4da5	c.li	x27,9	 x27=0x00000009
      186997000	      9248	80002628	05b90a63	beq	x18,x27,8000267c	 x18:0x00000002 x27:0x00000009
      187397000	      9268	8000262c	4dad	c.li	x27,11	 x27=0x0000000b
      187597000	      9278	8000262e	05b90763	beq	x18,x27,8000267c	 x18:0x00000002 x27:0x0000000b
      187617000	      9279	80002632	4d85	c.li	x27,1	 x27=0x00000001
      187637000	      9280	80002634	35b90363	beq	x18,x27,8000297a	 x18:0x00000002 x27:0x00000001
      187797000	      9288	80002638	4d95	c.li	x27,5	 x27=0x00000005
      187817000	      9289	8000263a	63b90963	beq	x18,x27,80002c6c	 x18:0x00000002 x27:0x00000005
      187837000	      9290	8000263e	4d9d	c.li	x27,7	 x27=0x00000007
      188237000	      9310	80002640	15b90ae3	beq	x18,x27,80002f94	 x18:0x00000002 x27:0x00000007
      188277000	      9312	80002644	4db1	c.li	x27,12	 x27=0x0000000c
      188297000	      9313	80002646	01b91463	bne	x18,x27,8000264e	 x18:0x00000002 x27:0x0000000c
      188777000	      9337	8000264e	4db5	c.li	x27,13	 x27=0x0000000d
      189217000	      9359	80002650	01b91463	bne	x18,x27,80002658	 x18:0x00000002 x27:0x0000000d
      189957000	      9396	80002658	4dbd	c.li	x27,15	 x27=0x0000000f
      190237000	      9410	8000265a	01b91463	bne	x18,x27,80002662	 x18:0x00000002 x27:0x0000000f
      190437000	      9420	80002662	4d89	c.li	x27,2	 x27=0x00000002
      190457000	      9421	80002664	01b91463	bne	x18,x27,8000266c	 x18:0x00000002 x27:0x00000002
      190797000	      9438	80002668	45c0906f	jal	x0,8000bac4	  x0=0x00000000
      191057000	      9451	8000bac4	90000db7	lui	x27,0x90000	 x27=0x90000000
      191617000	      9479	8000bac8	1df1	c.addi	x27,-4	 x27:0x90000000 x27=0x8ffffffc
      191637000	      9480	8000baca	4929	c.li	x18,10	 x18=0x0000000a
      191777000	      9487	8000bacc	0922	c.slli	x18,0x8	 x18:0x0000000a x18=0x00000a00
      191897000	      9493	8000bace	00090913	addi	x18,x18,0	 x18:0x00000a00 x18=0x00000a00
      192557000	      9526	8000bad2	012da023	sw	x18,0(x27)	 x27:0x8ffffffc x18:0x00000a00 PA:0x8ffffffc store:0x00000a00 load:0xffffffff
      192577000	      9527	8000bad6	90000db7	lui	x27,0x90000	 x27=0x90000000
      192597000	      9528	8000bada	1df1	c.addi	x27,-4	 x27:0x90000000 x27=0x8ffffffc
      192617000	      9529	8000badc	34200913	addi	x18,x0,834	  x0:0x00000000 x18=0x00000342
      192637000	      9530	8000bae0	0922	c.slli	x18,0x8	 x18:0x00000342 x18=0x00034200
      192657000	      9531	8000bae2	090d	c.addi	x18,3	 x18:0x00034200 x18=0x00034203
      193017000	      9549	8000bae4	012da023	sw	x18,0(x27)	 x27:0x8ffffffc x18:0x00034203 PA:0x8ffffffc store:0x00034203 load:0xffffffff
      193037000	      9550	8000bae8	34202973	csrrs	x18,mcause,x0	  x0:0x00000000 x18=0x00000002
      193257000	      9561	8000baec	012da023	sw	x18,0(x27)	 x27:0x8ffffffc x18:0x00000002 PA:0x8ffffffc store:0x00000002 load:0xffffffff
      193277000	      9562	8000baf0	34102973	csrrs	x18,mepc,x0	  x0:0x00000000 x18=0x80003a5e
      193297000	      9563	8000baf4	0911	c.addi	x18,4	 x18:0x80003a5e x18=0x80003a62
      193317000	      9564	8000baf6	34191073	csrrw	x0,mepc,x18	 x18:0x80003a62  x0=0x00000000
      193337000	      9565	8000bafa	000685b3	add	x11,x13,x0	 x13:0x80025c60  x0:0x00000000 x11=0x80025c60
      193497000	      9573	8000bafe	0045a083	lw	x1,4(x11)	 x11:0x80025c60  x1=0x7ffda776 PA:0x80025c64 load:0x7ffda776
      193557000	      9576	8000bb02	0085a103	lw	x2,8(x11)	 x11:0x80025c60  x2=0x3999a622 PA:0x80025c68 load:0x3999a622
      194137000	      9605	8000bb06	00c5a183	lw	x3,12(x11)	 x11:0x80025c60  x3=0x3999a642 PA:0x80025c6c load:0x3999a642
      194277000	      9612	8000bb0a	0105a203	lw	x4,16(x11)	 x11:0x80025c60  x4=0x00000100 PA:0x80025c70 load:0x00000100
      194437000	      9620	8000bb0e	0145a283	lw	x5,20(x11)	 x11:0x80025c60  x5=0xfffc0012 PA:0x80025c74 load:0xfffc0012
      194457000	      9621	8000bb12	0185a303	lw	x6,24(x11)	 x11:0x80025c60  x6=0x46c4a001 PA:0x80025c78 load:0x46c4a001
      194477000	      9622	8000bb16	01c5a383	lw	x7,28(x11)	 x11:0x80025c60  x7=0x00000000 PA:0x80025c7c load:0x00000000
      194497000	      9623	8000bb1a	5180	c.lw	x8,32(x11)	 x11:0x80025c60  x8=0x334c4400 PA:0x80025c80 load:0x334c4400
      194577000	      9627	8000bb1c	51c4	c.lw	x9,36(x11)	 x11:0x80025c60  x9=0x00000000 PA:0x80025c84 load:0x00000000
      194657000	      9631	8000bb1e	5588	c.lw	x10,40(x11)	 x11:0x80025c60 x10=0x1334bec1 PA:0x80025c88 load:0x1334bec1
      195077000	      9652	8000bb20	55cc	c.lw	x11,44(x11)	 x11:0x80025c60 x11=0x80025c60 PA:0x80025c8c load:0x80025c60
      195297000	      9663	8000bb22	5990	c.lw	x12,48(x11)	 x11:0x80025c60 x12=0x00000a00 PA:0x80025c90 load:0x00000a00
      195617000	      9679	8000bb24	59d4	c.lw	x13,52(x11)	 x11:0x80025c60 x13=0x80025ce0 PA:0x80025c94 load:0x80025ce0
      195677000	      9682	8000bb26	5d98	c.lw	x14,56(x11)	 x11:0x80025c60 x14=0x00000191 PA:0x80025c98 load:0x00000191
      195777000	      9687	8000bb28	5ddc	c.lw	x15,60(x11)	 x11:0x80025c60 x15=0x10004b9c PA:0x80025c9c load:0x10004b9c
      196197000	      9708	8000bb2a	0405a803	lw	x16,64(x11)	 x11:0x80025c60 x16=0x00000001 PA:0x80025ca0 load:0x00000001
      196457000	      9721	8000bb2e	0445a883	lw	x17,68(x11)	 x11:0x80025c60 x17=0x00000000 PA:0x80025ca4 load:0x00000000
      196477000	      9722	8000bb32	0485a903	lw	x18,72(x11)	 x11:0x80025c60 x18=0x28889531 PA:0x80025ca8 load:0x28889531
      196537000	      9725	8000bb36	04c5a983	lw	x19,76(x11)	 x11:0x80025c60 x19=0x0000001f PA:0x80025cac load:0x0000001f
      196997000	      9748	8000bb3a	0505aa03	lw	x20,80(x11)	 x11:0x80025c60 x20=0xfffffdde PA:0x80025cb0 load:0xfffffdde
      197057000	      9751	8000bb3e	0545aa83	lw	x21,84(x11)	 x11:0x80025c60 x21=0x46c4a001 PA:0x80025cb4 load:0x46c4a001
      197257000	      9761	8000bb42	0585ab03	lw	x22,88(x11)	 x11:0x80025c60 x22=0xe76a0000 PA:0x80025cb8 load:0xe76a0000
      197457000	      9771	8000bb46	05c5ab83	lw	x23,92(x11)	 x11:0x80025c60 x23=0x00000000 PA:0x80025cbc load:0x00000000
      197597000	      9778	8000bb4a	0605ac03	lw	x24,96(x11)	 x11:0x80025c60 x24=0x334bec10 PA:0x80025cc0 load:0x334bec10
      197657000	      9781	8000bb4e	0645ac83	lw	x25,100(x11)	 x11:0x80025c60 x25=0x3999a642 PA:0x80025cc4 load:0x3999a642
      197737000	      9785	8000bb52	0685ad03	lw	x26,104(x11)	 x11:0x80025c60 x26=0x13333fdc PA:0x80025cc8 load:0x13333fdc
      198057000	      9801	8000bb56	06c5ad83	lw	x27,108(x11)	 x11:0x80025c60 x27=0x8000332c PA:0x80025ccc load:0x8000332c
      198117000	      9804	8000bb5a	0705ae03	lw	x28,112(x11)	 x11:0x80025c60 x28=0x46c4a000 PA:0x80025cd0 load:0x46c4a000
      198137000	      9805	8000bb5e	0745ae83	lw	x29,116(x11)	 x11:0x80025c60 x29=0x00000000 PA:0x80025cd4 load:0x00000000
      198157000	      9806	8000bb62	0785af03	lw	x30,120(x11)	 x11:0x80025c60 x30=0x13333fdc PA:0x80025cd8 load:0x13333fdc
      198777000	      9837	8000bb66	07c5af83	lw	x31,124(x11)	 x11:0x80025c60 x31=0x00000000 PA:0x80025cdc load:0x00000000
      198797000	      9838	8000bb6a	08058593	addi	x11,x11,128	 x11:0x80025c60 x11=0x80025ce0
      198817000	      9839	8000bb6e	000586b3	add	x13,x11,x0	 x11:0x80025ce0  x0:0x00000000 x13=0x80025ce0
      198877000	      9842	8000bb72	428c	c.lw	x11,0(x13)	 x13:0x80025ce0 x11=0x80021e64 PA:0x80025ce0 load:0x80021e64
      198897000	      9843	8000bb74	0691	c.addi	x13,4	 x13:0x80025ce0 x13=0x80025ce4
      198917000	      9844	8000bb76	30200073	mret	
      199277000	      9862	80003a62	6145	c.addi16sp	x2,48	  x2:0x3999a622  x2=0x3999a652
      199417000	      9869	80003a64	3b7029f3	csrrs	x19,pmpaddr7,x0	  x0:0x00000000 x19=0x3dddea86
      199837000	      9890	80003a68	ca09	c.beqz	x12,80003a7a	 x12:0x00000a00
      199857000	      9891	80003a6a	004e5113	srli	x2,x28,0x4	 x28:0x46c4a000  x2=0x046c4a00
      199877000	      9892	80003a6e	8f69	c.and	x14,x10	 x14:0x00000191 x10:0x1334bec1 x14=0x00000081
      200277000	      9912	80003a70	817d	c.srli	x10,0x1f	 x10:0x1334bec1 x10=0x00000000
      200297000	      9913	80003a72	01723cb3	sltu	x25,x4,x23	  x4:0x00000100 x23:0x00000000 x25=0x00000000
      200317000	      9914	80003a76	0154bcb3	sltu	x25,x9,x21	  x9:0x00000000 x21:0x46c4a001 x25=0x00000001
      200357000	      9916	80003a7a	0338e663	bltu	x17,x19,80003aa6	 x17:0x00000000 x19:0x3dddea86
      201917000	      9994	80003aa6	035e7533	remu	x10,x28,x21	 x28:0x46c4a000 x21:0x46c4a001 x10=0x46c4a000
      201937000	      9995	80003aaa	8429	c.srai	x8,0xa	  x8:0x334c4400  x8=0x000cd311
      201957000	      9996	80003aac	3b6022f3	csrrs	x5,pmpaddr6,x0	  x0:0x00000000  x5=0x3999a642
      201977000	      9997	80003ab0	06fa7293	andi	x5,x20,111	 x20:0xfffffdde  x5=0x0000004e
      201997000	      9998	80003ab4	b094d773	csrrwi	x14,mhpmcounter9,9	 x14=0x00000025
      202057000	     10001	80003ab8	987d	c.andi	x8,-1	  x8:0x000cd311  x8=0x000cd311
      202077000	     10002	80003aba	8c7d	c.and	x8,x15	  x8:0x000cd311 x15:0x10004b9c  x8=0x00004310
      202097000	     10003	80003abc	12fd	c.addi	x5,-1	  x5:0x0000004e  x5=0x0000004d
      202177000	     10007	80003abe	f1549773	csrrw	x0,0xf15,x0	  x0:0x00000000  x0=0x00000000
      202897000	     10043	80002500	0800006f	jal	x0,80002580	  x0=0x00000000
      203837000	     10090	80002580	16f1	c.addi	x13,-4	 x13:0x80025ce4 x13=0x80025ce0
      204037000	     10100	80002582	c28c	c.sw	x11,0(x13)	 x13:0x80025ce0 x11:0x80021e64 PA:0x80025ce0 store:0x80021e64 load:0xffffffff
      204057000	     10101	80002584	000685b3	add	x11,x13,x0	 x13:0x80025ce0  x0:0x00000000 x11=0x80025ce0
      204077000	     10102	80002588	f8058593	addi	x11,x11,-128	 x11:0x80025ce0 x11=0x80025c60
      204277000	     10112	8000258c	0015a223	sw	x1,4(x11)	 x11:0x80025c60  x1:0x7ffda776 PA:0x80025c64 store:0x7ffda776 load:0xffffffff
      204337000	     10115	80002590	0025a423	sw	x2,8(x11)	 x11:0x80025c60  x2:0x046c4a00 PA:0x80025c68 store:0x046c4a00 load:0xffffffff
      204497000	     10123	80002594	0035a623	sw	x3,12(x11)	 x11:0x80025c60  x3:0x3999a642 PA:0x80025c6c store:0x3999a642 load:0xffffffff
      204717000	     10134	80002598	0045a823	sw	x4,16(x11)	 x11:0x80025c60  x4:0x00000100 PA:0x80025c70 store:0x00000100 load:0xffffffff
      204777000	     10137	8000259c	0055aa23	sw	x5,20(x11)	 x11:0x80025c60  x5:0x0000004d PA:0x80025c74 store:0x0000004d load:0xffffffff
      204797000	     10138	800025a0	0065ac23	sw	x6,24(x11)	 x11:0x80025c60  x6:0x46c4a001 PA:0x80025c78 store:0x46c4a001 load:0xffffffff
      204817000	     10139	800025a4	0075ae23	sw	x7,28(x11)	 x11:0x80025c60  x7:0x00000000 PA:0x80025c7c store:0x00000000 load:0xffffffff
      204837000	     10140	800025a8	d180	c.sw	x8,32(x11)	 x11:0x80025c60  x8:0x00004310 PA:0x80025c80 store:0x00004310 load:0xffffffff
      204857000	     10141	800025aa	d1c4	c.sw	x9,36(x11)	 x11:0x80025c60  x9:0x00000000 PA:0x80025c84 store:0x00000000 load:0xffffffff
      204917000	     10144	800025ac	d588	c.sw	x10,40(x11)	 x11:0x80025c60 x10:0x46c4a000 PA:0x80025c88 store:0x46c4a000 load:0xffffffff
      204977000	     10147	800025ae	d5cc	c.sw	x11,44(x11)	 x11:0x80025c60 x11:0x80025c60 PA:0x80025c8c store:0x80025c60 load:0xffffffff
      205117000	     10154	800025b0	d990	c.sw	x12,48(x11)	 x11:0x80025c60 x12:0x00000a00 PA:0x80025c90 store:0x00000a00 load:0xffffffff
      205397000	     10168	800025b2	d9d4	c.sw	x13,52(x11)	 x11:0x80025c60 x13:0x80025ce0 PA:0x80025c94 store:0x80025ce0 load:0xffffffff
      205517000	     10174	800025b4	dd98	c.sw	x14,56(x11)	 x11:0x80025c60 x14:0x00000025 PA:0x80025c98 store:0x00000025 load:0xffffffff
      205577000	     10177	800025b6	dddc	c.sw	x15,60(x11)	 x11:0x80025c60 x15:0x10004b9c PA:0x80025c9c store:0x10004b9c load:0xffffffff
      205597000	     10178	800025b8	0505a023	sw	x16,64(x11)	 x11:0x80025c60 x16:0x00000001 PA:0x80025ca0 store:0x00000001 load:0xffffffff
      205617000	     10179	800025bc	0515a223	sw	x17,68(x11)	 x11:0x80025c60 x17:0x00000000 PA:0x80025ca4 store:0x00000000 load:0xffffffff
      206037000	     10200	800025c0	0525a423	sw	x18,72(x11)	 x11:0x80025c60 x18:0x28889531 PA:0x80025ca8 store:0x28889531 load:0xffffffff
      206097000	     10203	800025c4	0535a623	sw	x19,76(x11)	 x11:0x80025c60 x19:0x3dddea86 PA:0x80025cac store:0x3dddea86 load:0xffffffff
      206117000	     10204	800025c8	0545a823	sw	x20,80(x11)	 x11:0x80025c60 x20:0xfffffdde PA:0x80025cb0 store:0xfffffdde load:0xffffffff
      206137000	     10205	800025cc	0555aa23	sw	x21,84(x11)	 x11:0x80025c60 x21:0x46c4a001 PA:0x80025cb4 store:0x46c4a001 load:0xffffffff
      206237000	     10210	800025d0	0565ac23	sw	x22,88(x11)	 x11:0x80025c60 x22:0xe76a0000 PA:0x80025cb8 store:0xe76a0000 load:0xffffffff
      206297000	     10213	800025d4	0575ae23	sw	x23,92(x11)	 x11:0x80025c60 x23:0x00000000 PA:0x80025cbc store:0x00000000 load:0xffffffff
      206317000	     10214	800025d8	0785a023	sw	x24,96(x11)	 x11:0x80025c60 x24:0x334bec10 PA:0x80025cc0 store:0x334bec10 load:0xffffffff
      206637000	     10230	800025dc	0795a223	sw	x25,100(x11)	 x11:0x80025c60 x25:0x00000001 PA:0x80025cc4 store:0x00000001 load:0xffffffff
      206997000	     10248	800025e0	07a5a423	sw	x26,104(x11)	 x11:0x80025c60 x26:0x13333fdc PA:0x80025cc8 store:0x13333fdc load:0xffffffff
      207457000	     10271	800025e4	07b5a623	sw	x27,108(x11)	 x11:0x80025c60 x27:0x8000332c PA:0x80025ccc store:0x8000332c load:0xffffffff
      207617000	     10279	800025e8	07c5a823	sw	x28,112(x11)	 x11:0x80025c60 x28:0x46c4a000 PA:0x80025cd0 store:0x46c4a000 load:0xffffffff
      207677000	     10282	800025ec	07d5aa23	sw	x29,116(x11)	 x11:0x80025c60 x29:0x00000000 PA:0x80025cd4 store:0x00000000 load:0xffffffff
      207697000	     10283	800025f0	07e5ac23	sw	x30,120(x11)	 x11:0x80025c60 x30:0x13333fdc PA:0x80025cd8 store:0x13333fdc load:0xffffffff
      207957000	     10296	800025f4	07f5ae23	sw	x31,124(x11)	 x11:0x80025c60 x31:0x00000000 PA:0x80025cdc store:0x00000000 load:0xffffffff
      207977000	     10297	800025f8	000586b3	add	x13,x11,x0	 x11:0x80025c60  x0:0x00000000 x13=0x80025c60
      207997000	     10298	800025fc	90000db7	lui	x27,0x90000	 x27=0x90000000
      208017000	     10299	80002600	1df1	c.addi	x27,-4	 x27:0x90000000 x27=0x8ffffffc
      208037000	     10300	80002602	4921	c.li	x18,8	 x18=0x00000008
      208057000	     10301	80002604	0922	c.slli	x18,0x8	 x18:0x00000008 x18=0x00000800
      208077000	     10302	80002606	00090913	addi	x18,x18,0	 x18:0x00000800 x18=0x00000800
      208137000	     10305	8000260a	012da023	sw	x18,0(x27)	 x27:0x8ffffffc x18:0x00000800 PA:0x8ffffffc store:0x00000800 load:0xffffffff
      208157000	     10306	8000260e	34102973	csrrs	x18,mepc,x0	  x0:0x00000000 x18=0x80003abe
      208177000	     10307	80002612	34202973	csrrs	x18,mcause,x0	  x0:0x00000000 x18=0x00000002
      208197000	     10308	80002616	4d8d	c.li	x27,3	 x27=0x00000003
      208217000	     10309	80002618	01b91463	bne	x18,x27,80002620	 x18:0x00000002 x27:0x00000003
      208257000	     10311	80002620	4da1	c.li	x27,8	 x27=0x00000008
      208277000	     10312	80002622	05b90d63	beq	x18,x27,8000267c	 x18:0x00000002 x27:0x00000008
      208297000	     10313	80002626	4da5	c.li	x27,9	 x27=0x00000009
      208317000	     10314	80002628	05b90a63	beq	x18,x27,8000267c	 x18:0x00000002 x27:0x00000009
      208337000	     10315	8000262c	4dad	c.li	x27,11	 x27=0x0000000b
      208357000	     10316	8000262e	05b90763	beq	x18,x27,8000267c	 x18:0x00000002 x27:0x0000000b
      208377000	     10317	80002632	4d85	c.li	x27,1	 x27=0x00000001
      208397000	     10318	80002634	35b90363	beq	x18,x27,8000297a	 x18:0x00000002 x27:0x00000001
      208417000	     10319	80002638	4d95	c.li	x27,5	 x27=0x00000005
      208437000	     10320	8000263a	63b90963	beq	x18,x27,80002c6c	 x18:0x00000002 x27:0x00000005
      208457000	     10321	8000263e	4d9d	c.li	x27,7	 x27=0x00000007
      208477000	     10322	80002640	15b90ae3	beq	x18,x27,80002f94	 x18:0x00000002 x27:0x00000007
      208497000	     10323	80002644	4db1	c.li	x27,12	 x27=0x0000000c
      208517000	     10324	80002646	01b91463	bne	x18,x27,8000264e	 x18:0x00000002 x27:0x0000000c
      208557000	     10326	8000264e	4db5	c.li	x27,13	 x27=0x0000000d
      208577000	     10327	80002650	01b91463	bne	x18,x27,80002658	 x18:0x00000002 x27:0x0000000d
      208617000	     10329	80002658	4dbd	c.li	x27,15	 x27=0x0000000f
      208637000	     10330	8000265a	01b91463	bne	x18,x27,80002662	 x18:0x00000002 x27:0x0000000f
      208697000	     10333	80002662	4d89	c.li	x27,2	 x27=0x00000002
      208717000	     10334	80002664	01b91463	bne	x18,x27,8000266c	 x18:0x00000002 x27:0x00000002
      208737000	     10335	80002668	45c0906f	jal	x0,8000bac4	  x0=0x00000000
      208777000	     10337	8000bac4	90000db7	lui	x27,0x90000	 x27=0x90000000
      208797000	     10338	8000bac8	1df1	c.addi	x27,-4	 x27:0x90000000 x27=0x8ffffffc
      208817000	     10339	8000baca	4929	c.li	x18,10	 x18=0x0000000a
      208837000	     10340	8000bacc	0922	c.slli	x18,0x8	 x18:0x0000000a x18=0x00000a00
      208857000	     10341	8000bace	00090913	addi	x18,x18,0	 x18:0x00000a00 x18=0x00000a00
      208917000	     10344	8000bad2	012da023	sw	x18,0(x27)	 x27:0x8ffffffc x18:0x00000a00 PA:0x8ffffffc store:0x00000a00 load:0xffffffff
      208937000	     10345	8000bad6	90000db7	lui	x27,0x90000	 x27=0x90000000
      208957000	     10346	8000bada	1df1	c.addi	x27,-4	 x27:0x90000000 x27=0x8ffffffc
      208977000	     10347	8000badc	34200913	addi	x18,x0,834	  x0:0x00000000 x18=0x00000342
      208997000	     10348	8000bae0	0922	c.slli	x18,0x8	 x18:0x00000342 x18=0x00034200
      209017000	     10349	8000bae2	090d	c.addi	x18,3	 x18:0x00034200 x18=0x00034203
      209077000	     10352	8000bae4	012da023	sw	x18,0(x27)	 x27:0x8ffffffc x18:0x00034203 PA:0x8ffffffc store:0x00034203 load:0xffffffff
      213997000	     10598	8000bae8	34202973	csrrs	x18,mcause,x0	  x0:0x00000000 x18=0x00000002
      214117000	     10604	8000baec	012da023	sw	x18,0(x27)	 x27:0x8ffffffc x18:0x00000002 PA:0x8ffffffc store:0x00000002 load:0xffffffff
      214137000	     10605	8000baf0	34102973	csrrs	x18,mepc,x0	  x0:0x00000000 x18=0x80003abe
      214157000	     10606	8000baf4	0911	c.addi	x18,4	 x18:0x80003abe x18=0x80003ac2
      214177000	     10607	8000baf6	34191073	csrrw	x0,mepc,x18	 x18:0x80003ac2  x0=0x00000000
      214197000	     10608	8000bafa	000685b3	add	x11,x13,x0	 x13:0x80025c60  x0:0x00000000 x11=0x80025c60
      214297000	     10613	8000bafe	0045a083	lw	x1,4(x11)	 x11:0x80025c60  x1=0x7ffda776 PA:0x80025c64 load:0x7ffda776
      214357000	     10616	8000bb02	0085a103	lw	x2,8(x11)	 x11:0x80025c60  x2=0x046c4a00 PA:0x80025c68 load:0x046c4a00
      214757000	     10636	8000bb06	00c5a183	lw	x3,12(x11)	 x11:0x80025c60  x3=0x3999a642 PA:0x80025c6c load:0x3999a642
      215317000	     10664	8000bb0a	0105a203	lw	x4,16(x11)	 x11:0x80025c60  x4=0x00000100 PA:0x80025c70 load:0x00000100
      215777000	     10687	8000bb0e	0145a283	lw	x5,20(x11)	 x11:0x80025c60  x5=0x0000004d PA:0x80025c74 load:0x0000004d
      215977000	     10697	8000bb12	0185a303	lw	x6,24(x11)	 x11:0x80025c60  x6=0x46c4a001 PA:0x80025c78 load:0x46c4a001
      216077000	     10702	8000bb16	01c5a383	lw	x7,28(x11)	 x11:0x80025c60  x7=0x00000000 PA:0x80025c7c load:0x00000000
      216357000	     10716	8000bb1a	5180	c.lw	x8,32(x11)	 x11:0x80025c60  x8=0x00004310 PA:0x80025c80 load:0x00004310
      216417000	     10719	8000bb1c	51c4	c.lw	x9,36(x11)	 x11:0x80025c60  x9=0x00000000 PA:0x80025c84 load:0x00000000
      216837000	     10740	8000bb1e	5588	c.lw	x10,40(x11)	 x11:0x80025c60 x10=0x46c4a000 PA:0x80025c88 load:0x46c4a000
      216897000	     10743	8000bb20	55cc	c.lw	x11,44(x11)	 x11:0x80025c60 x11=0x80025c60 PA:0x80025c8c load:0x80025c60
      216937000	     10745	8000bb22	5990	c.lw	x12,48(x11)	 x11:0x80025c60 x12=0x00000a00 PA:0x80025c90 load:0x00000a00
      217017000	     10749	8000bb24	59d4	c.lw	x13,52(x11)	 x11:0x80025c60 x13=0x80025ce0 PA:0x80025c94 load:0x80025ce0
      217397000	     10768	8000bb26	5d98	c.lw	x14,56(x11)	 x11:0x80025c60 x14=0x00000025 PA:0x80025c98 load:0x00000025
      217517000	     10774	8000bb28	5ddc	c.lw	x15,60(x11)	 x11:0x80025c60 x15=0x10004b9c PA:0x80025c9c load:0x10004b9c
      217577000	     10777	8000bb2a	0405a803	lw	x16,64(x11)	 x11:0x80025c60 x16=0x00000001 PA:0x80025ca0 load:0x00000001
      217697000	     10783	8000bb2e	0445a883	lw	x17,68(x11)	 x11:0x80025c60 x17=0x00000000 PA:0x80025ca4 load:0x00000000
      217757000	     10786	8000bb32	0485a903	lw	x18,72(x11)	 x11:0x80025c60 x18=0x28889531 PA:0x80025ca8 load:0x28889531
      217877000	     10792	8000bb36	04c5a983	lw	x19,76(x11)	 x11:0x80025c60 x19=0x3dddea86 PA:0x80025cac load:0x3dddea86
      218137000	     10805	8000bb3a	0505aa03	lw	x20,80(x11)	 x11:0x80025c60 x20=0xfffffdde PA:0x80025cb0 load:0xfffffdde
      218197000	     10808	8000bb3e	0545aa83	lw	x21,84(x11)	 x11:0x80025c60 x21=0x46c4a001 PA:0x80025cb4 load:0x46c4a001
      218397000	     10818	8000bb42	0585ab03	lw	x22,88(x11)	 x11:0x80025c60 x22=0xe76a0000 PA:0x80025cb8 load:0xe76a0000
      218457000	     10821	8000bb46	05c5ab83	lw	x23,92(x11)	 x11:0x80025c60 x23=0x00000000 PA:0x80025cbc load:0x00000000
      218877000	     10842	8000bb4a	0605ac03	lw	x24,96(x11)	 x11:0x80025c60 x24=0x334bec10 PA:0x80025cc0 load:0x334bec10
      218937000	     10845	8000bb4e	0645ac83	lw	x25,100(x11)	 x11:0x80025c60 x25=0x00000001 PA:0x80025cc4 load:0x00000001
      219097000	     10853	8000bb52	0685ad03	lw	x26,104(x11)	 x11:0x80025c60 x26=0x13333fdc PA:0x80025cc8 load:0x13333fdc
      219157000	     10856	8000bb56	06c5ad83	lw	x27,108(x11)	 x11:0x80025c60 x27=0x8000332c PA:0x80025ccc load:0x8000332c
      219577000	     10877	8000bb5a	0705ae03	lw	x28,112(x11)	 x11:0x80025c60 x28=0x46c4a000 PA:0x80025cd0 load:0x46c4a000
      219637000	     10880	8000bb5e	0745ae83	lw	x29,116(x11)	 x11:0x80025c60 x29=0x00000000 PA:0x80025cd4 load:0x00000000
      219657000	     10881	8000bb62	0785af03	lw	x30,120(x11)	 x11:0x80025c60 x30=0x13333fdc PA:0x80025cd8 load:0x13333fdc
      220077000	     10902	8000bb66	07c5af83	lw	x31,124(x11)	 x11:0x80025c60 x31=0x00000000 PA:0x80025cdc load:0x00000000
      220097000	     10903	8000bb6a	08058593	addi	x11,x11,128	 x11:0x80025c60 x11=0x80025ce0
      220117000	     10904	8000bb6e	000586b3	add	x13,x11,x0	 x11:0x80025ce0  x0:0x00000000 x13=0x80025ce0
      220317000	     10914	8000bb72	428c	c.lw	x11,0(x13)	 x13:0x80025ce0 x11=0x80021e64 PA:0x80025ce0 load:0x80021e64
      220337000	     10915	8000bb74	0691	c.addi	x13,4	 x13:0x80025ce0 x13=0x80025ce4
      220357000	     10916	8000bb76	30200073	mret	
      220437000	     10920	80003ac2	0ff0000f	fence	iorw,iorw	
      220457000	     10921	80003ac6	324bda73	csrrwi	x20,mhpmevent4,23	 x20=0x00000002
      220517000	     10924	80003aca	0375d863	bge	x11,x23,80003afa	 x11:0x80021e64 x23:0x00000000
      221257000	     10961	80003ace	02de40b3	div	x1,x28,x13	 x28:0x46c4a000 x13:0x80025ce4  x1=0x00000000
      221297000	     10963	80003ad2	031a3bb3	mulhu	x23,x20,x17	 x20:0x00000002 x17:0x00000000 x23=0x00000000
      221317000	     10964	80003ad6	1f9c	c.addi4spn	x15,x2,1008	 x15=0x046c4df0
      221337000	     10965	80003ad8	0885	c.addi	x17,1	 x17:0x00000000 x17=0x00000001
      221357000	     10966	80003ada	04ede563	bltu	x27,x14,80003b24	 x27:0x8000332c x14:0x00000025
      221377000	     10967	80003ade	82b08413	addi	x8,x1,-2005	  x1:0x00000000  x8=0xfffff82b
      221397000	     10968	80003ae2	03ca7763	bgeu	x20,x28,80003b10	 x20:0x00000002 x28:0x46c4a000
      221457000	     10971	80003ae6	554d90b7	lui	x1,0x554d9	  x1=0x554d9000
      221477000	     10972	80003aea	b24f8e93	addi	x29,x31,-1244	 x31:0x00000000 x29=0xfffffb24
      221497000	     10973	80003aee	00762e33	slt	x28,x12,x7	 x12:0x00000a00  x7:0x00000000 x28=0x00000000
      222237000	     11010	80003af2	034b7db3	remu	x27,x22,x20	 x22:0xe76a0000 x20:0x00000002 x27=0x00000000
      222257000	     11011	80003af6	414fd9b3	sra	x19,x31,x20	 x31:0x00000000 x20:0x00000002 x19=0x00000000
      222277000	     11012	80003afa	ea7fae97	auipc	x29,0xea7fa	 x29=0x6a7fdafa
      222297000	     11013	80003afe	01b71333	sll	x6,x14,x27	 x14:0x00000025 x27:0x00000000  x6=0x00000025
      222317000	     11014	80003b02	04f3c363	blt	x7,x15,80003b48	  x7:0x00000000 x15:0x046c4df0
      223217000	     11059	80003b48	0565	c.addi	x10,25	 x10:0x46c4a000 x10=0x46c4a019
      223237000	     11060	80003b4a	34307bf3	csrrci	x23,mtval,0	 x23=0xf1549773
      223257000	     11061	80003b4e	1e7d	c.addi	x28,-1	 x28:0x00000000 x28=0xffffffff
      223277000	     11062	80003b50	1d7d	c.addi	x26,-1	 x26:0x13333fdc x26=0x13333fdb
      223297000	     11063	80003b52	b84074f3	csrrci	x9,mhpmcounter4h,0	  x9=0x00000000
      223417000	     11069	80003b56	03ed7e63	bgeu	x26,x30,80003b92	 x26:0x13333fdb x30:0x13333fdc
      223437000	     11070	80003b5a	83b5	c.srli	x15,0xd	 x15:0x046c4df0 x15=0x00002362
      223457000	     11071	80003b5c	9bfd	c.andi	x15,-1	 x15:0x00002362 x15=0x00002362
      223857000	     11091	80003b5e	97ebf313	andi	x6,x23,-1666	 x23:0xf1549773  x6=0xf1549172
      224277000	     11112	80003b62	01215863	bge	x2,x18,80003b72	  x2:0x046c4a00 x18:0x28889531
      225017000	     11149	80003b66	037dc333	div	x6,x27,x23	 x27:0x00000000 x23:0xf1549773  x6=0x00000000
      225037000	     11150	80003b6a	8c05b493	sltiu	x9,x11,-1856	 x11:0x80021e64  x9=0x00000001
      225057000	     11151	80003b6e	003951b3	srl	x3,x18,x3	 x18:0x28889531  x3:0x3999a642  x3=0x0a22254c
      225077000	     11152	80003b72	0197cbb3	xor	x23,x15,x25	 x15:0x00002362 x25:0x00000001 x23=0x00002363
      225097000	     11153	80003b76	9d42	c.add	x26,x16	 x26:0x13333fdb x16:0x00000001 x26=0x13333fdc
      225117000	     11154	80003b78	01ebabb3	slt	x23,x23,x30	 x23:0x00002363 x30:0x13333fdc x23=0x00000001
      225217000	     11159	80003b7c	00243033	sltu	x0,x8,x2	  x8:0xfffff82b  x2:0x046c4a00  x0=0x00000000
      225257000	     11161	80003b80	40d25a13	srai	x20,x4,0xd	  x4:0x00000100 x20=0x00000000
      225277000	     11162	80003b84	8e55	c.or	x12,x13	 x12:0x00000a00 x13:0x80025ce4 x12=0x80025ee4
      225597000	     11178	80003b86	009e7133	and	x2,x28,x9	 x28:0xffffffff  x9:0x00000001  x2=0x00000001
      225617000	     11179	80003b8a	015d48b3	xor	x17,x26,x21	 x26:0x13333fdc x21:0x46c4a001 x17=0x55f79fdd
      225637000	     11180	80003b8e	05a6f063	bgeu	x13,x26,80003bce	 x13:0x80025ce4 x26:0x13333fdc
      226237000	     11210	80003bce	b07264f3	csrrsi	x9,mhpmcounter7,4	  x9=0x0000000d
      226297000	     11213	80003bd2	8461	c.srai	x8,0x18	  x8:0xfffff82b  x8=0xffffffff
      226317000	     11214	80003bd4	011efc63	bgeu	x29,x17,80003bec	 x29:0x6a7fdafa x17:0x55f79fdd
      226457000	     11221	80003bec	7267ca13	xori	x20,x15,1830	 x15:0x00002362 x20=0x00002444
      227257000	     11261	80003bf0	6169	c.addi16sp	x2,208	  x2:0x00000001  x2=0x000000d1
      227437000	     11270	80003bf2	02ecfc63	bgeu	x25,x14,80003c2a	 x25:0x00000001 x14:0x00000025
      227537000	     11275	80003bf6	3b4029f3	csrrs	x19,pmpaddr4,x0	  x0:0x00000000 x19=0x31111dba
      227557000	     11276	80003bfa	8bf9	c.andi	x15,30	 x15:0x00002362 x15=0x00000002
      227877000	     11292	80003bfc	00ef4b63	blt	x30,x14,80003c12	 x30:0x13333fdc x14:0x00000025
      228097000	     11303	80003c00	003ccf33	xor	x30,x25,x3	 x25:0x00000001  x3:0x0a22254c x30=0x0a22254d
      228117000	     11304	80003c04	05330063	beq	x6,x19,80003c44	  x6:0x00000000 x19:0x31111dba
      228297000	     11313	80003c08	036b0433	mul	x8,x22,x22	 x22:0xe76a0000 x22:0xe76a0000  x8=0x00000000
      228477000	     11322	80003c0c	0001	c.addi	x0,0	  x0:0x00000000  x0=0x00000000
      228597000	     11328	80003c0e	6db53493	sltiu	x9,x10,1755	 x10:0x46c4a019  x9=0x00000000
      228617000	     11329	80003c12	8061	c.srli	x8,0x18	  x8:0x00000000  x8=0x00000000
      229017000	     11349	80003c14	0001	c.addi	x0,0	  x0:0x00000000  x0=0x00000000
      229037000	     11350	80003c16	4ea2fd93	andi	x27,x5,1258	  x5:0x0000004d x27=0x00000048
      229057000	     11351	80003c1a	6169	c.addi16sp	x2,208	  x2:0x000000d1  x2=0x000001a1
      229077000	     11352	80003c1c	0001	c.addi	x0,0	  x0:0x00000000  x0=0x00000000
      229097000	     11353	80003c1e	b047bb73	csrrc	x22,mhpmcounter4,x15	 x15:0x00000002 x22=0x00000f96
      229157000	     11356	80003c22	80e9	c.srli	x9,0x1a	  x9:0x00000000  x9=0x00000000
      229177000	     11357	80003c24	b00db2f3	csrrc	x5,mcycle,x27	 x27:0x00000048  x5=0x00002c5a
      229237000	     11360	80003c28	e811	c.bnez	x8,80003c3c	  x8:0x00000000
      229257000	     11361	80003c2a	00a60433	add	x8,x12,x10	 x12:0x80025ee4 x10:0x46c4a019  x8=0xc6c6fefd
      229277000	     11362	80003c2e	3ba031f3	csrrc	x3,pmpaddr10,x0	  x0:0x00000000  x3=0x0aaab753
      229297000	     11363	80003c32	0003dab3	srl	x21,x7,x0	  x7:0x00000000  x0:0x00000000 x21=0x00000000
      229377000	     11367	80003c36	01d73733	sltu	x14,x14,x29	 x14:0x00000025 x29:0x6a7fdafa x14=0x00000001
      229397000	     11368	80003c3a	0001	c.addi	x0,0	  x0:0x00000000  x0=0x00000000
      229757000	     11386	80003c3c	03de0d63	beq	x28,x29,80003c76	 x28:0xffffffff x29:0x6a7fdafa
      229777000	     11387	80003c40	e6203193	sltiu	x3,x0,-414	  x0:0x00000000  x3=0x00000001
      229797000	     11388	80003c44	8c41	c.or	x8,x8	  x8:0xc6c6fefd  x8:0xc6c6fefd  x8=0xc6c6fefd
      230197000	     11408	80003c46	41c5e417	auipc	x8,0x41c5e	  x8=0xc1c61c46
      230337000	     11415	80003c4a	02a2f763	bgeu	x5,x10,80003c78	  x5:0x00002c5a x10:0x46c4a019
      231477000	     11472	80003c4e	0312cfb3	div	x31,x5,x17	  x5:0x00002c5a x17:0x55f79fdd x31=0x00000000
      232217000	     11509	80003c52	024dd833	divu	x16,x27,x4	 x27:0x00000048  x4:0x00000100 x16=0x00000000
      232237000	     11510	80003c56	03c41063	bne	x8,x28,80003c76	  x8:0xc1c61c46 x28:0xffffffff
      232457000	     11521	80003c76	4ca5	c.li	x25,9	 x25=0x00000009
      233217000	     11559	80003c78	03d94133	div	x2,x18,x29	 x18:0x28889531 x29:0x6a7fdafa  x2=0x00000000
      233257000	     11561	80003c7c	028db2b3	mulhu	x5,x27,x8	 x27:0x00000048  x8:0xc1c61c46  x5=0x00000036
      233277000	     11562	80003c80	717d	c.addi16sp	x2,-16	  x2:0x00000000  x2=0xfffffff0
      233317000	     11564	80003c82	020bcfb3	div	x31,x23,x0	 x23:0x00000001  x0:0x00000000 x31=0xffffffff
      233337000	     11565	80003c86	197cc893	xori	x17,x25,407	 x25:0x00000009 x17=0x0000019e
      233357000	     11566	80003c8a	822d	c.srli	x12,0xb	 x12:0x80025ee4 x12=0x0010004b
      233377000	     11567	80003c8c	8cb5	c.xor	x9,x13	  x9:0x00000000 x13:0x80025ce4  x9=0x80025ce4
      233397000	     11568	80003c8e	c7653513	sltiu	x10,x10,-906	 x10:0x46c4a019 x10=0x00000001
      233417000	     11569	80003c92	0000100f	fence.i	
      233897000	     11593	80003c96	0000100f	fence.i	
      234357000	     11616	80003c9a	4ad96e93	ori	x29,x18,1197	 x18:0x28889531 x29=0x288895bd
      234377000	     11617	80003c9e	3a3031f3	csrrc	x3,pmpcfg3,x0	  x0:0x00000000  x3=0x0f0f0f0f
      234397000	     11618	80003ca2	8fed	c.and	x15,x11	 x15:0x00000002 x11:0x80021e64 x15=0x00000000
      234517000	     11624	80003ca4	6ad83297	auipc	x5,0x6ad83	  x5=0xead86ca4
      234617000	     11629	80003ca8	0ff0000f	fence	iorw,iorw	
      234637000	     11630	80003cac	6325	c.lui	x6,0x9	  x6=0x00009000
      234657000	     11631	80003cae	8762	c.mv	x14,x24	  x0:0x00000000 x24:0x334bec10 x14=0x334bec10
      234677000	     11632	80003cb0	0001	c.addi	x0,0	  x0:0x00000000  x0=0x00000000
      234717000	     11634	80003cb2	02d4b8b3	mulhu	x17,x9,x13	  x9:0x80025ce4 x13:0x80025ce4 x17=0x40025ce9
      234737000	     11635	80003cb6	013d6033	or	x0,x26,x19	 x26:0x13333fdc x19:0x31111dba  x0=0x00000000
      234757000	     11636	80003cba	8b81	c.andi	x15,0	 x15:0x00000000 x15=0x00000000
      234777000	     11637	80003cbc	019d1893	slli	x17,x26,0x19	 x26:0x13333fdc x17=0xb8000000
      234797000	     11638	80003cc0	835d	c.srli	x14,0x17	 x14:0x334bec10 x14=0x00000066
      234817000	     11639	80003cc2	f12cd873	csrrwi	x0,marchid,25	  x0=0x00000000
      235577000	     11677	80002500	0800006f	jal	x0,80002580	  x0=0x00000000
      236197000	     11708	80002580	16f1	c.addi	x13,-4	 x13:0x80025ce4 x13=0x80025ce0
      236257000	     11711	80002582	c28c	c.sw	x11,0(x13)	 x13:0x80025ce0 x11:0x80021e64 PA:0x80025ce0 store:0x80021e64 load:0xffffffff
      236537000	     11725	80002584	000685b3	add	x11,x13,x0	 x13:0x80025ce0  x0:0x00000000 x11=0x80025ce0
      236557000	     11726	80002588	f8058593	addi	x11,x11,-128	 x11:0x80025ce0 x11=0x80025c60
      236757000	     11736	8000258c	0015a223	sw	x1,4(x11)	 x11:0x80025c60  x1:0x554d9000 PA:0x80025c64 store:0x554d9000 load:0xffffffff
      237137000	     11755	80002590	0025a423	sw	x2,8(x11)	 x11:0x80025c60  x2:0xfffffff0 PA:0x80025c68 store:0xfffffff0 load:0xffffffff
      237277000	     11762	80002594	0035a623	sw	x3,12(x11)	 x11:0x80025c60  x3:0x0f0f0f0f PA:0x80025c6c store:0x0f0f0f0f load:0xffffffff
      237337000	     11765	80002598	0045a823	sw	x4,16(x11)	 x11:0x80025c60  x4:0x00000100 PA:0x80025c70 store:0x00000100 load:0xffffffff
      237617000	     11779	8000259c	0055aa23	sw	x5,20(x11)	 x11:0x80025c60  x5:0xead86ca4 PA:0x80025c74 store:0xead86ca4 load:0xffffffff
      237877000	     11792	800025a0	0065ac23	sw	x6,24(x11)	 x11:0x80025c60  x6:0x00009000 PA:0x80025c78 store:0x00009000 load:0xffffffff
      237917000	     11794	800025a4	0075ae23	sw	x7,28(x11)	 x11:0x80025c60  x7:0x00000000 PA:0x80025c7c store:0x00000000 load:0xffffffff
      238157000	     11806	800025a8	d180	c.sw	x8,32(x11)	 x11:0x80025c60  x8:0xc1c61c46 PA:0x80025c80 store:0xc1c61c46 load:0xffffffff
      238397000	     11818	800025aa	d1c4	c.sw	x9,36(x11)	 x11:0x80025c60  x9:0x80025ce4 PA:0x80025c84 store:0x80025ce4 load:0xffffffff
      238457000	     11821	800025ac	d588	c.sw	x10,40(x11)	 x11:0x80025c60 x10:0x00000001 PA:0x80025c88 store:0x00000001 load:0xffffffff
      238777000	     11837	800025ae	d5cc	c.sw	x11,44(x11)	 x11:0x80025c60 x11:0x80025c60 PA:0x80025c8c store:0x80025c60 load:0xffffffff
      239037000	     11850	800025b0	d990	c.sw	x12,48(x11)	 x11:0x80025c60 x12:0x0010004b PA:0x80025c90 store:0x0010004b load:0xffffffff
      239257000	     11861	800025b2	d9d4	c.sw	x13,52(x11)	 x11:0x80025c60 x13:0x80025ce0 PA:0x80025c94 store:0x80025ce0 load:0xffffffff
      239617000	     11879	800025b4	dd98	c.sw	x14,56(x11)	 x11:0x80025c60 x14:0x00000066 PA:0x80025c98 store:0x00000066 load:0xffffffff
      239677000	     11882	800025b6	dddc	c.sw	x15,60(x11)	 x11:0x80025c60 x15:0x00000000 PA:0x80025c9c store:0x00000000 load:0xffffffff
      239697000	     11883	800025b8	0505a023	sw	x16,64(x11)	 x11:0x80025c60 x16:0x00000000 PA:0x80025ca0 store:0x00000000 load:0xffffffff
      239717000	     11884	800025bc	0515a223	sw	x17,68(x11)	 x11:0x80025c60 x17:0xb8000000 PA:0x80025ca4 store:0xb8000000 load:0xffffffff
      240057000	     11901	800025c0	0525a423	sw	x18,72(x11)	 x11:0x80025c60 x18:0x28889531 PA:0x80025ca8 store:0x28889531 load:0xffffffff
      240397000	     11918	800025c4	0535a623	sw	x19,76(x11)	 x11:0x80025c60 x19:0x31111dba PA:0x80025cac store:0x31111dba load:0xffffffff
      249937000	     12395	800025c8	0545a823	sw	x20,80(x11)	 x11:0x80025c60 x20:0x00002444 PA:0x80025cb0 store:0x00002444 load:0xffffffff
      249997000	     12398	800025cc	0555aa23	sw	x21,84(x11)	 x11:0x80025c60 x21:0x00000000 PA:0x80025cb4 store:0x00000000 load:0xffffffff
      250377000	     12417	800025d0	0565ac23	sw	x22,88(x11)	 x11:0x80025c60 x22:0x00000f96 PA:0x80025cb8 store:0x00000f96 load:0xffffffff
      250437000	     12420	800025d4	0575ae23	sw	x23,92(x11)	 x11:0x80025c60 x23:0x00000001 PA:0x80025cbc store:0x00000001 load:0xffffffff
      250477000	     12422	800025d8	0785a023	sw	x24,96(x11)	 x11:0x80025c60 x24:0x334bec10 PA:0x80025cc0 store:0x334bec10 load:0xffffffff
      250497000	     12423	800025dc	0795a223	sw	x25,100(x11)	 x11:0x80025c60 x25:0x00000009 PA:0x80025cc4 store:0x00000009 load:0xffffffff
      250637000	     12430	800025e0	07a5a423	sw	x26,104(x11)	 x11:0x80025c60 x26:0x13333fdc PA:0x80025cc8 store:0x13333fdc load:0xffffffff
      250857000	     12441	800025e4	07b5a623	sw	x27,108(x11)	 x11:0x80025c60 x27:0x00000048 PA:0x80025ccc store:0x00000048 load:0xffffffff
      251077000	     12452	800025e8	07c5a823	sw	x28,112(x11)	 x11:0x80025c60 x28:0xffffffff PA:0x80025cd0 store:0xffffffff load:0xffffffff
      251137000	     12455	800025ec	07d5aa23	sw	x29,116(x11)	 x11:0x80025c60 x29:0x288895bd PA:0x80025cd4 store:0x288895bd load:0xffffffff
      251157000	     12456	800025f0	07e5ac23	sw	x30,120(x11)	 x11:0x80025c60 x30:0x0a22254d PA:0x80025cd8 store:0x0a22254d load:0xffffffff
      251437000	     12470	800025f4	07f5ae23	sw	x31,124(x11)	 x11:0x80025c60 x31:0xffffffff PA:0x80025cdc store:0xffffffff load:0xffffffff
      251457000	     12471	800025f8	000586b3	add	x13,x11,x0	 x11:0x80025c60  x0:0x00000000 x13=0x80025c60
      251477000	     12472	800025fc	90000db7	lui	x27,0x90000	 x27=0x90000000
      251497000	     12473	80002600	1df1	c.addi	x27,-4	 x27:0x90000000 x27=0x8ffffffc
      251517000	     12474	80002602	4921	c.li	x18,8	 x18=0x00000008
      251537000	     12475	80002604	0922	c.slli	x18,0x8	 x18:0x00000008 x18=0x00000800
      251557000	     12476	80002606	00090913	addi	x18,x18,0	 x18:0x00000800 x18=0x00000800
      251837000	     12490	8000260a	012da023	sw	x18,0(x27)	 x27:0x8ffffffc x18:0x00000800 PA:0x8ffffffc store:0x00000800 load:0xffffffff
      251857000	     12491	8000260e	34102973	csrrs	x18,mepc,x0	  x0:0x00000000 x18=0x80003cc2
      251877000	     12492	80002612	34202973	csrrs	x18,mcause,x0	  x0:0x00000000 x18=0x00000002
      251897000	     12493	80002616	4d8d	c.li	x27,3	 x27=0x00000003
      251917000	     12494	80002618	01b91463	bne	x18,x27,80002620	 x18:0x00000002 x27:0x00000003
      252597000	     12528	80002620	4da1	c.li	x27,8	 x27=0x00000008
      252697000	     12533	80002622	05b90d63	beq	x18,x27,8000267c	 x18:0x00000002 x27:0x00000008
      252717000	     12534	80002626	4da5	c.li	x27,9	 x27=0x00000009
      252797000	     12538	80002628	05b90a63	beq	x18,x27,8000267c	 x18:0x00000002 x27:0x00000009
      252817000	     12539	8000262c	4dad	c.li	x27,11	 x27=0x0000000b
      253237000	     12560	8000262e	05b90763	beq	x18,x27,8000267c	 x18:0x00000002 x27:0x0000000b
      253257000	     12561	80002632	4d85	c.li	x27,1	 x27=0x00000001
      253417000	     12569	80002634	35b90363	beq	x18,x27,8000297a	 x18:0x00000002 x27:0x00000001
      253437000	     12570	80002638	4d95	c.li	x27,5	 x27=0x00000005
      253457000	     12571	8000263a	63b90963	beq	x18,x27,80002c6c	 x18:0x00000002 x27:0x00000005
      253477000	     12572	8000263e	4d9d	c.li	x27,7	 x27=0x00000007
      253497000	     12573	80002640	15b90ae3	beq	x18,x27,80002f94	 x18:0x00000002 x27:0x00000007
      253637000	     12580	80002644	4db1	c.li	x27,12	 x27=0x0000000c
      253657000	     12581	80002646	01b91463	bne	x18,x27,8000264e	 x18:0x00000002 x27:0x0000000c
      253797000	     12588	8000264e	4db5	c.li	x27,13	 x27=0x0000000d
      254017000	     12599	80002650	01b91463	bne	x18,x27,80002658	 x18:0x00000002 x27:0x0000000d
      254537000	     12625	80002658	4dbd	c.li	x27,15	 x27=0x0000000f
      254957000	     12646	8000265a	01b91463	bne	x18,x27,80002662	 x18:0x00000002 x27:0x0000000f
      254997000	     12648	80002662	4d89	c.li	x27,2	 x27=0x00000002
      255017000	     12649	80002664	01b91463	bne	x18,x27,8000266c	 x18:0x00000002 x27:0x00000002
      255817000	     12689	80002668	45c0906f	jal	x0,8000bac4	  x0=0x00000000
      256397000	     12718	8000bac4	90000db7	lui	x27,0x90000	 x27=0x90000000
      256557000	     12726	8000bac8	1df1	c.addi	x27,-4	 x27:0x90000000 x27=0x8ffffffc
      256577000	     12727	8000baca	4929	c.li	x18,10	 x18=0x0000000a
      256617000	     12729	8000bacc	0922	c.slli	x18,0x8	 x18:0x0000000a x18=0x00000a00
      256737000	     12735	8000bace	00090913	addi	x18,x18,0	 x18:0x00000a00 x18=0x00000a00
      257197000	     12758	8000bad2	012da023	sw	x18,0(x27)	 x27:0x8ffffffc x18:0x00000a00 PA:0x8ffffffc store:0x00000a00 load:0xffffffff
      257357000	     12766	8000bad6	90000db7	lui	x27,0x90000	 x27=0x90000000
      257377000	     12767	8000bada	1df1	c.addi	x27,-4	 x27:0x90000000 x27=0x8ffffffc
      257397000	     12768	8000badc	34200913	addi	x18,x0,834	  x0:0x00000000 x18=0x00000342
      257577000	     12777	8000bae0	0922	c.slli	x18,0x8	 x18:0x00000342 x18=0x00034200
      257597000	     12778	8000bae2	090d	c.addi	x18,3	 x18:0x00034200 x18=0x00034203
      257797000	     12788	8000bae4	012da023	sw	x18,0(x27)	 x27:0x8ffffffc x18:0x00034203 PA:0x8ffffffc store:0x00034203 load:0xffffffff
      257817000	     12789	8000bae8	34202973	csrrs	x18,mcause,x0	  x0:0x00000000 x18=0x00000002
      257837000	     12790	8000baec	012da023	sw	x18,0(x27)	 x27:0x8ffffffc x18:0x00000002 PA:0x8ffffffc store:0x00000002 load:0xffffffff
      257857000	     12791	8000baf0	34102973	csrrs	x18,mepc,x0	  x0:0x00000000 x18=0x80003cc2
      257877000	     12792	8000baf4	0911	c.addi	x18,4	 x18:0x80003cc2 x18=0x80003cc6
      257897000	     12793	8000baf6	34191073	csrrw	x0,mepc,x18	 x18:0x80003cc6  x0=0x00000000
      257917000	     12794	8000bafa	000685b3	add	x11,x13,x0	 x13:0x80025c60  x0:0x00000000 x11=0x80025c60
      258157000	     12806	8000bafe	0045a083	lw	x1,4(x11)	 x11:0x80025c60  x1=0x554d9000 PA:0x80025c64 load:0x554d9000
      258177000	     12807	8000bb02	0085a103	lw	x2,8(x11)	 x11:0x80025c60  x2=0xfffffff0 PA:0x80025c68 load:0xfffffff0
      258357000	     12816	8000bb06	00c5a183	lw	x3,12(x11)	 x11:0x80025c60  x3=0x0f0f0f0f PA:0x80025c6c load:0x0f0f0f0f
      258837000	     12840	8000bb0a	0105a203	lw	x4,16(x11)	 x11:0x80025c60  x4=0x00000100 PA:0x80025c70 load:0x00000100
      258977000	     12847	8000bb0e	0145a283	lw	x5,20(x11)	 x11:0x80025c60  x5=0xead86ca4 PA:0x80025c74 load:0xead86ca4
      259137000	     12855	8000bb12	0185a303	lw	x6,24(x11)	 x11:0x80025c60  x6=0x00009000 PA:0x80025c78 load:0x00009000
      259717000	     12884	8000bb16	01c5a383	lw	x7,28(x11)	 x11:0x80025c60  x7=0x00000000 PA:0x80025c7c load:0x00000000
      259857000	     12891	8000bb1a	5180	c.lw	x8,32(x11)	 x11:0x80025c60  x8=0xc1c61c46 PA:0x80025c80 load:0xc1c61c46
      260417000	     12919	8000bb1c	51c4	c.lw	x9,36(x11)	 x11:0x80025c60  x9=0x80025ce4 PA:0x80025c84 load:0x80025ce4
      260497000	     12923	8000bb1e	5588	c.lw	x10,40(x11)	 x11:0x80025c60 x10=0x00000001 PA:0x80025c88 load:0x00000001
      260517000	     12924	8000bb20	55cc	c.lw	x11,44(x11)	 x11:0x80025c60 x11=0x80025c60 PA:0x80025c8c load:0x80025c60
      260597000	     12928	8000bb22	5990	c.lw	x12,48(x11)	 x11:0x80025c60 x12=0x0010004b PA:0x80025c90 load:0x0010004b
      260617000	     12929	8000bb24	59d4	c.lw	x13,52(x11)	 x11:0x80025c60 x13=0x80025ce0 PA:0x80025c94 load:0x80025ce0
      260637000	     12930	8000bb26	5d98	c.lw	x14,56(x11)	 x11:0x80025c60 x14=0x00000066 PA:0x80025c98 load:0x00000066
      260777000	     12937	8000bb28	5ddc	c.lw	x15,60(x11)	 x11:0x80025c60 x15=0x00000000 PA:0x80025c9c load:0x00000000
      261037000	     12950	8000bb2a	0405a803	lw	x16,64(x11)	 x11:0x80025c60 x16=0x00000000 PA:0x80025ca0 load:0x00000000
      261117000	     12954	8000bb2e	0445a883	lw	x17,68(x11)	 x11:0x80025c60 x17=0xb8000000 PA:0x80025ca4 load:0xb8000000
      261217000	     12959	8000bb32	0485a903	lw	x18,72(x11)	 x11:0x80025c60 x18=0x28889531 PA:0x80025ca8 load:0x28889531
      261237000	     12960	8000bb36	04c5a983	lw	x19,76(x11)	 x11:0x80025c60 x19=0x31111dba PA:0x80025cac load:0x31111dba
      261257000	     12961	8000bb3a	0505aa03	lw	x20,80(x11)	 x11:0x80025c60 x20=0x00002444 PA:0x80025cb0 load:0x00002444
      261377000	     12967	8000bb3e	0545aa83	lw	x21,84(x11)	 x11:0x80025c60 x21=0x00000000 PA:0x80025cb4 load:0x00000000
      261477000	     12972	8000bb42	0585ab03	lw	x22,88(x11)	 x11:0x80025c60 x22=0x00000f96 PA:0x80025cb8 load:0x00000f96
      261577000	     12977	8000bb46	05c5ab83	lw	x23,92(x11)	 x11:0x80025c60 x23=0x00000001 PA:0x80025cbc load:0x00000001
      261977000	     12997	8000bb4a	0605ac03	lw	x24,96(x11)	 x11:0x80025c60 x24=0x334bec10 PA:0x80025cc0 load:0x334bec10
      262077000	     13002	8000bb4e	0645ac83	lw	x25,100(x11)	 x11:0x80025c60 x25=0x00000009 PA:0x80025cc4 load:0x00000009
      262597000	     13028	8000bb52	0685ad03	lw	x26,104(x11)	 x11:0x80025c60 x26=0x13333fdc PA:0x80025cc8 load:0x13333fdc
      262657000	     13031	8000bb56	06c5ad83	lw	x27,108(x11)	 x11:0x80025c60 x27=0x00000048 PA:0x80025ccc load:0x00000048
      263037000	     13050	8000bb5a	0705ae03	lw	x28,112(x11)	 x11:0x80025c60 x28=0xffffffff PA:0x80025cd0 load:0xffffffff
      263297000	     13063	8000bb5e	0745ae83	lw	x29,116(x11)	 x11:0x80025c60 x29=0x288895bd PA:0x80025cd4 load:0x288895bd
      263717000	     13084	8000bb62	0785af03	lw	x30,120(x11)	 x11:0x80025c60 x30=0x0a22254d PA:0x80025cd8 load:0x0a22254d
      263777000	     13087	8000bb66	07c5af83	lw	x31,124(x11)	 x11:0x80025c60 x31=0xffffffff PA:0x80025cdc load:0xffffffff
      263817000	     13089	8000bb6a	08058593	addi	x11,x11,128	 x11:0x80025c60 x11=0x80025ce0
      263977000	     13097	8000bb6e	000586b3	add	x13,x11,x0	 x11:0x80025ce0  x0:0x00000000 x13=0x80025ce0
      264437000	     13120	8000bb72	428c	c.lw	x11,0(x13)	 x13:0x80025ce0 x11=0x80021e64 PA:0x80025ce0 load:0x80021e64
      264457000	     13121	8000bb74	0691	c.addi	x13,4	 x13:0x80025ce0 x13=0x80025ce4
      264477000	     13122	8000bb76	30200073	mret	
      264657000	     13131	80003cc6	8ff1	c.and	x15,x12	 x15:0x00000000 x12:0x0010004b x15=0x00000000
      265097000	     13153	80003cc8	8b29	c.andi	x14,10	 x14:0x00000066 x14=0x00000002
      265117000	     13154	80003cca	9f62	c.add	x30,x24	 x30:0x0a22254d x24:0x334bec10 x30=0x3d6e115d
      265137000	     13155	80003ccc	00161713	slli	x14,x12,0x1	 x12:0x0010004b x14=0x00200096
      265197000	     13158	80003cd0	8cf9	c.and	x9,x14	  x9:0x80025ce4 x14:0x00200096  x9=0x00000084
      265937000	     13195	80003cd2	03136533	rem	x10,x6,x17	  x6:0x00009000 x17:0xb8000000 x10=0x00009000
      265957000	     13196	80003cd6	0a98	c.addi4spn	x14,x2,336	 x14=0x00000140
      265977000	     13197	80003cd8	54608493	addi	x9,x1,1350	  x1:0x554d9000  x9=0x554d9546
      265997000	     13198	80003cdc	80c02013	slti	x0,x0,-2036	  x0:0x00000000  x0=0x00000000
      266017000	     13199	80003ce0	84c9	c.srai	x9,0x12	  x9:0x554d9546  x9=0x00001553
      266037000	     13200	80003ce2	0b5e	c.slli	x22,0x17	 x22:0x00000f96 x22=0xcb000000
      266057000	     13201	80003ce4	34107073	csrrci	x0,mepc,0	  x0=0x00000000
      266077000	     13202	80003ce8	414fd233	sra	x4,x31,x20	 x31:0xffffffff x20:0x00002444  x4=0xffffffff
      266097000	     13203	80003cec	301020f3	csrrs	x1,misa,x0	  x0:0x00000000  x1=0x40901104
      266117000	     13204	80003cf0	0308	c.addi4spn	x10,x2,384	 x10=0x00000170
      266137000	     13205	80003cf2	0fd2	c.slli	x31,0x14	 x31:0xffffffff x31=0xfff00000
      266157000	     13206	80003cf4	8f643613	sltiu	x12,x8,-1802	  x8:0xc1c61c46 x12=0x00000001
      266517000	     13224	80003cf8	d543ae93	slti	x29,x7,-684	  x7:0x00000000 x29=0x00000000
      266617000	     13229	80003cfc	02461e63	bne	x12,x4,80003d38	 x12:0x00000001  x4:0xffffffff
      267077000	     13252	80003d38	01a6	c.slli	x3,0x9	  x3:0x0f0f0f0f  x3=0x1e1e1e00
      267097000	     13253	80003d3a	9d22	c.add	x26,x8	 x26:0x13333fdc  x8:0xc1c61c46 x26=0xd4f95c22
      267297000	     13263	80003d3c	6159	c.addi16sp	x2,400	  x2:0xfffffff0  x2=0x00000180
      267377000	     13267	80003d3e	03c04c63	blt	x0,x28,80003d76	  x0:0x00000000 x28:0xffffffff
      267477000	     13272	80003d42	0355dcb3	divu	x25,x11,x21	 x11:0x80021e64 x21:0x00000000 x25=0xffffffff
      267497000	     13273	80003d46	01b858b3	srl	x17,x16,x27	 x16:0x00000000 x27:0x00000048 x17=0x00000000
      267537000	     13275	80003d4a	03df1633	mulh	x12,x30,x29	 x30:0x3d6e115d x29:0x00000000 x12=0x00000000
      267557000	     13276	80003d4e	00dfe833	or	x16,x31,x13	 x31:0xfff00000 x13:0x80025ce4 x16=0xfff25ce4
      267757000	     13286	80003d52	00ca68b3	or	x17,x20,x12	 x20:0x00002444 x12:0x00000000 x17=0x00002444
      268177000	     13307	80003d56	0107f233	and	x4,x15,x16	 x15:0x00000000 x16:0xfff25ce4  x4=0x00000000
      268197000	     13308	80003d5a	865a	c.mv	x12,x22	  x0:0x00000000 x22:0xcb000000 x12=0xcb000000
      268317000	     13314	80003d5c	00bb7233	and	x4,x22,x11	 x22:0xcb000000 x11:0x80021e64  x4=0x80000000
      268337000	     13315	80003d60	00e0c9b3	xor	x19,x1,x14	  x1:0x40901104 x14:0x00000140 x19=0x40901044
      268377000	     13317	80003d64	020a27b3	mulhsu	x15,x20,x0	 x20:0x00002444  x0:0x00000000 x15=0x00000000
      268537000	     13325	80003d68	c785	c.beqz	x15,80003d90	 x15:0x00000000
      269177000	     13357	80003d90	02e6	c.slli	x5,0x19	  x5:0xead86ca4  x5=0x48000000
      269197000	     13358	80003d92	01901db3	sll	x27,x0,x25	  x0:0x00000000 x25:0xffffffff x27=0x00000000
      269217000	     13359	80003d96	00162bb3	slt	x23,x12,x1	 x12:0xcb000000  x1:0x40901104 x23=0x00000001
      269237000	     13360	80003d9a	013d9033	sll	x0,x27,x19	 x27:0x00000000 x19:0x40901044  x0=0x00000000
      269377000	     13367	80003d9e	40515d93	srai	x27,x2,0x5	  x2:0x00000180 x27=0x0000000c
      269397000	     13368	80003da2	8d65	c.and	x10,x9	 x10:0x00000170  x9:0x00001553 x10=0x00000150
      269437000	     13370	80003da4	02941ab3	mulh	x21,x8,x9	  x8:0xc1c61c46  x9:0x00001553 x21=0xfffffad1
      269517000	     13374	80003da8	1a7d	c.addi	x20,-1	 x20:0x00002444 x20=0x00002443
      269537000	     13375	80003daa	01e74463	blt	x14,x30,80003db2	 x14:0x00000140 x30:0x3d6e115d
      270497000	     13423	80003db2	01c0c533	xor	x10,x1,x28	  x1:0x40901104 x28:0xffffffff x10=0xbf6feefb
      270517000	     13424	80003db6	8f11	c.sub	x14,x12	 x14:0x00000140 x12:0xcb000000 x14=0x35000140
      270537000	     13425	80003db8	00676663	bltu	x14,x6,80003dc4	 x14:0x35000140  x6:0x00009000
      270937000	     13445	80003dbc	810d	c.srli	x10,0x3	 x10:0xbf6feefb x10=0x17edfddf
      271357000	     13466	80003dbe	0030b333	sltu	x6,x1,x3	  x1:0x40901104  x3:0x1e1e1e00  x6=0x00000000
      271377000	     13467	80003dc2	8f7d	c.and	x14,x15	 x14:0x35000140 x15:0x00000000 x14=0x00000000
      271397000	     13468	80003dc4	00514b63	blt	x2,x5,80003dda	  x2:0x00000180  x5:0x48000000
      271797000	     13488	80003dda	7fa86f93	ori	x31,x16,2042	 x16:0xfff25ce4 x31=0xfff25ffe
      271817000	     13489	80003dde	567d	c.li	x12,-1	 x12=0xffffffff
      271837000	     13490	80003de0	010898b3	sll	x17,x17,x16	 x17:0x00002444 x16:0xfff25ce4 x17=0x00024440
      271857000	     13491	80003de4	8611	c.srai	x12,0x4	 x12:0xffffffff x12=0xffffffff
      272097000	     13503	80003de6	00d39f63	bne	x7,x13,80003e04	  x7:0x00000000 x13:0x80025ce4
      273317000	     13564	80003e04	c08d	c.beqz	x9,80003e26	  x9:0x00001553
      273337000	     13565	80003e06	9f3e	c.add	x30,x15	 x30:0x3d6e115d x15:0x00000000 x30=0x3d6e115d
      273357000	     13566	80003e08	0018c033	xor	x0,x17,x1	 x17:0x00024440  x1:0x40901104  x0=0x00000000
      273377000	     13567	80003e0c	9bfe	c.add	x23,x31	 x23:0x00000001 x31:0xfff25ffe x23=0xfff25fff
      273397000	     13568	80003e0e	013e8763	beq	x29,x19,80003e1c	 x29:0x00000000 x19:0x40901044
      273517000	     13574	80003e12	cd6c2313	slti	x6,x24,-810	 x24:0x334bec10  x6=0x00000000
      273537000	     13575	80003e16	9b9c3113	sltiu	x2,x24,-1607	 x24:0x334bec10  x2=0x00000001
      273557000	     13576	80003e1a	997d	c.andi	x10,-1	 x10:0x17edfddf x10=0x17edfddf
      273577000	     13577	80003e1c	40d18e33	sub	x28,x3,x13	  x3:0x1e1e1e00 x13:0x80025ce4 x28=0x9e1bc11c
      273617000	     13579	80003e20	0001	c.addi	x0,0	  x0:0x00000000  x0=0x00000000
      273817000	     13589	80003e22	0364ac33	mulhsu	x24,x9,x22	  x9:0x00001553 x22:0xcb000000 x24=0x000010e8
      273837000	     13590	80003e26	3b207173	csrrci	x2,pmpaddr2,0	  x2=0x28889531
      273857000	     13591	80003e2a	4d50db97	auipc	x23,0x4d50d	 x23=0xcd510e2a
      274217000	     13609	80003e2e	03ff1f63	bne	x30,x31,80003e6c	 x30:0x3d6e115d x31:0xfff25ffe
      274877000	     13642	80003e6c	8b75	c.andi	x14,29	 x14:0x00000000 x14=0x00000000
      274897000	     13643	80003e6e	862d	c.srai	x12,0xb	 x12:0xffffffff x12=0xffffffff
      274917000	     13644	80003e70	4027d993	srai	x19,x15,0x2	 x15:0x00000000 x19=0x00000000
      275157000	     13656	80003e74	b82af117	auipc	x2,0xb82af	  x2=0x382b2e74
      275277000	     13662	80003e78	03e01633	mulh	x12,x0,x30	  x0:0x00000000 x30:0x3d6e115d x12=0x00000000
      275297000	     13663	80003e7c	0125de93	srli	x29,x11,0x12	 x11:0x80021e64 x29=0x00002000
      275317000	     13664	80003e80	63767813	andi	x16,x12,1591	 x12:0x00000000 x16=0x00000000
      275477000	     13672	80003e84	008edb13	srli	x22,x29,0x8	 x29:0x00002000 x22=0x00000020
      275497000	     13673	80003e88	0ff0000f	fence	iorw,iorw	
      275857000	     13691	80003e8c	409ed133	sra	x2,x29,x9	 x29:0x00002000  x9:0x00001553  x2=0x00000000
      275877000	     13692	80003e90	0a96	c.slli	x21,0x5	 x21:0xfffffad1 x21=0xffff5a20
      275937000	     13695	80003e92	01c9e333	or	x6,x19,x28	 x19:0x00000000 x28:0x9e1bc11c  x6=0x9e1bc11c
      275957000	     13696	80003e96	f15a14f3	csrrw	x0,0xf15,x0	  x0:0x00000000  x0=0x00000000
      276117000	     13704	80002500	0800006f	jal	x0,80002580	  x0=0x00000000
      276637000	     13730	80002580	16f1	c.addi	x13,-4	 x13:0x80025ce4 x13=0x80025ce0
      276697000	     13733	80002582	c28c	c.sw	x11,0(x13)	 x13:0x80025ce0 x11:0x80021e64 PA:0x80025ce0 store:0x80021e64 load:0xffffffff
      276717000	     13734	80002584	000685b3	add	x11,x13,x0	 x13:0x80025ce0  x0:0x00000000 x11=0x80025ce0
      276737000	     13735	80002588	f8058593	addi	x11,x11,-128	 x11:0x80025ce0 x11=0x80025c60
      276997000	     13748	8000258c	0015a223	sw	x1,4(x11)	 x11:0x80025c60  x1:0x40901104 PA:0x80025c64 store:0x40901104 load:0xffffffff
      277057000	     13751	80002590	0025a423	sw	x2,8(x11)	 x11:0x80025c60  x2:0x00000000 PA:0x80025c68 store:0x00000000 load:0xffffffff
      277657000	     13781	80002594	0035a623	sw	x3,12(x11)	 x11:0x80025c60  x3:0x1e1e1e00 PA:0x80025c6c store:0x1e1e1e00 load:0xffffffff
      277857000	     13791	80002598	0045a823	sw	x4,16(x11)	 x11:0x80025c60  x4:0x80000000 PA:0x80025c70 store:0x80000000 load:0xffffffff
      277877000	     13792	8000259c	0055aa23	sw	x5,20(x11)	 x11:0x80025c60  x5:0x48000000 PA:0x80025c74 store:0x48000000 load:0xffffffff
      277897000	     13793	800025a0	0065ac23	sw	x6,24(x11)	 x11:0x80025c60  x6:0x9e1bc11c PA:0x80025c78 store:0x9e1bc11c load:0xffffffff
      278357000	     13816	800025a4	0075ae23	sw	x7,28(x11)	 x11:0x80025c60  x7:0x00000000 PA:0x80025c7c store:0x00000000 load:0xffffffff
      278777000	     13837	800025a8	d180	c.sw	x8,32(x11)	 x11:0x80025c60  x8:0xc1c61c46 PA:0x80025c80 store:0xc1c61c46 load:0xffffffff
      279017000	     13849	800025aa	d1c4	c.sw	x9,36(x11)	 x11:0x80025c60  x9:0x00001553 PA:0x80025c84 store:0x00001553 load:0xffffffff
      279097000	     13853	800025ac	d588	c.sw	x10,40(x11)	 x11:0x80025c60 x10:0x17edfddf PA:0x80025c88 store:0x17edfddf load:0xffffffff
      279517000	     13874	800025ae	d5cc	c.sw	x11,44(x11)	 x11:0x80025c60 x11:0x80025c60 PA:0x80025c8c store:0x80025c60 load:0xffffffff
      279577000	     13877	800025b0	d990	c.sw	x12,48(x11)	 x11:0x80025c60 x12:0x00000000 PA:0x80025c90 store:0x00000000 load:0xffffffff
      280177000	     13907	800025b2	d9d4	c.sw	x13,52(x11)	 x11:0x80025c60 x13:0x80025ce0 PA:0x80025c94 store:0x80025ce0 load:0xffffffff
      280737000	     13935	800025b4	dd98	c.sw	x14,56(x11)	 x11:0x80025c60 x14:0x00000000 PA:0x80025c98 store:0x00000000 load:0xffffffff
      280797000	     13938	800025b6	dddc	c.sw	x15,60(x11)	 x11:0x80025c60 x15:0x00000000 PA:0x80025c9c store:0x00000000 load:0xffffffff
      280817000	     13939	800025b8	0505a023	sw	x16,64(x11)	 x11:0x80025c60 x16:0x00000000 PA:0x80025ca0 store:0x00000000 load:0xffffffff
      281037000	     13950	800025bc	0515a223	sw	x17,68(x11)	 x11:0x80025c60 x17:0x00024440 PA:0x80025ca4 store:0x00024440 load:0xffffffff
      281457000	     13971	800025c0	0525a423	sw	x18,72(x11)	 x11:0x80025c60 x18:0x28889531 PA:0x80025ca8 store:0x28889531 load:0xffffffff
      281717000	     13984	800025c4	0535a623	sw	x19,76(x11)	 x11:0x80025c60 x19:0x00000000 PA:0x80025cac store:0x00000000 load:0xffffffff
      282037000	     14000	800025c8	0545a823	sw	x20,80(x11)	 x11:0x80025c60 x20:0x00002443 PA:0x80025cb0 store:0x00002443 load:0xffffffff
      282157000	     14006	800025cc	0555aa23	sw	x21,84(x11)	 x11:0x80025c60 x21:0xffff5a20 PA:0x80025cb4 store:0xffff5a20 load:0xffffffff
      282177000	     14007	800025d0	0565ac23	sw	x22,88(x11)	 x11:0x80025c60 x22:0x00000020 PA:0x80025cb8 store:0x00000020 load:0xffffffff
      282597000	     14028	800025d4	0575ae23	sw	x23,92(x11)	 x11:0x80025c60 x23:0xcd510e2a PA:0x80025cbc store:0xcd510e2a load:0xffffffff
      283197000	     14058	800025d8	0785a023	sw	x24,96(x11)	 x11:0x80025c60 x24:0x000010e8 PA:0x80025cc0 store:0x000010e8 load:0xffffffff
      283537000	     14075	800025dc	0795a223	sw	x25,100(x11)	 x11:0x80025c60 x25:0xffffffff PA:0x80025cc4 store:0xffffffff load:0xffffffff
      283997000	     14098	800025e0	07a5a423	sw	x26,104(x11)	 x11:0x80025c60 x26:0xd4f95c22 PA:0x80025cc8 store:0xd4f95c22 load:0xffffffff
      284357000	     14116	800025e4	07b5a623	sw	x27,108(x11)	 x11:0x80025c60 x27:0x0000000c PA:0x80025ccc store:0x0000000c load:0xffffffff
      284557000	     14126	800025e8	07c5a823	sw	x28,112(x11)	 x11:0x80025c60 x28:0x9e1bc11c PA:0x80025cd0 store:0x9e1bc11c load:0xffffffff
      284737000	     14135	800025ec	07d5aa23	sw	x29,116(x11)	 x11:0x80025c60 x29:0x00002000 PA:0x80025cd4 store:0x00002000 load:0xffffffff
      285197000	     14158	800025f0	07e5ac23	sw	x30,120(x11)	 x11:0x80025c60 x30:0x3d6e115d PA:0x80025cd8 store:0x3d6e115d load:0xffffffff
      285357000	     14166	800025f4	07f5ae23	sw	x31,124(x11)	 x11:0x80025c60 x31:0xfff25ffe PA:0x80025cdc store:0xfff25ffe load:0xffffffff
      285377000	     14167	800025f8	000586b3	add	x13,x11,x0	 x11:0x80025c60  x0:0x00000000 x13=0x80025c60
      285397000	     14168	800025fc	90000db7	lui	x27,0x90000	 x27=0x90000000
      285417000	     14169	80002600	1df1	c.addi	x27,-4	 x27:0x90000000 x27=0x8ffffffc
      285437000	     14170	80002602	4921	c.li	x18,8	 x18=0x00000008
      285457000	     14171	80002604	0922	c.slli	x18,0x8	 x18:0x00000008 x18=0x00000800
      285477000	     14172	80002606	00090913	addi	x18,x18,0	 x18:0x00000800 x18=0x00000800
      285617000	     14179	8000260a	012da023	sw	x18,0(x27)	 x27:0x8ffffffc x18:0x00000800 PA:0x8ffffffc store:0x00000800 load:0xffffffff
      285637000	     14180	8000260e	34102973	csrrs	x18,mepc,x0	  x0:0x00000000 x18=0x80003e96
      285657000	     14181	80002612	34202973	csrrs	x18,mcause,x0	  x0:0x00000000 x18=0x00000002
      285677000	     14182	80002616	4d8d	c.li	x27,3	 x27=0x00000003
      285697000	     14183	80002618	01b91463	bne	x18,x27,80002620	 x18:0x00000002 x27:0x00000003
      285737000	     14185	80002620	4da1	c.li	x27,8	 x27=0x00000008
      285757000	     14186	80002622	05b90d63	beq	x18,x27,8000267c	 x18:0x00000002 x27:0x00000008
      285777000	     14187	80002626	4da5	c.li	x27,9	 x27=0x00000009
      285797000	     14188	80002628	05b90a63	beq	x18,x27,8000267c	 x18:0x00000002 x27:0x00000009
      285817000	     14189	8000262c	4dad	c.li	x27,11	 x27=0x0000000b
      285837000	     14190	8000262e	05b90763	beq	x18,x27,8000267c	 x18:0x00000002 x27:0x0000000b
      285857000	     14191	80002632	4d85	c.li	x27,1	 x27=0x00000001
      285877000	     14192	80002634	35b90363	beq	x18,x27,8000297a	 x18:0x00000002 x27:0x00000001
      285897000	     14193	80002638	4d95	c.li	x27,5	 x27=0x00000005
      285917000	     14194	8000263a	63b90963	beq	x18,x27,80002c6c	 x18:0x00000002 x27:0x00000005
      285937000	     14195	8000263e	4d9d	c.li	x27,7	 x27=0x00000007
      285957000	     14196	80002640	15b90ae3	beq	x18,x27,80002f94	 x18:0x00000002 x27:0x00000007
      285977000	     14197	80002644	4db1	c.li	x27,12	 x27=0x0000000c
      285997000	     14198	80002646	01b91463	bne	x18,x27,8000264e	 x18:0x00000002 x27:0x0000000c
      286037000	     14200	8000264e	4db5	c.li	x27,13	 x27=0x0000000d
      286057000	     14201	80002650	01b91463	bne	x18,x27,80002658	 x18:0x00000002 x27:0x0000000d
      286097000	     14203	80002658	4dbd	c.li	x27,15	 x27=0x0000000f
      286117000	     14204	8000265a	01b91463	bne	x18,x27,80002662	 x18:0x00000002 x27:0x0000000f
      286177000	     14207	80002662	4d89	c.li	x27,2	 x27=0x00000002
      286197000	     14208	80002664	01b91463	bne	x18,x27,8000266c	 x18:0x00000002 x27:0x00000002
      286217000	     14209	80002668	45c0906f	jal	x0,8000bac4	  x0=0x00000000
      286257000	     14211	8000bac4	90000db7	lui	x27,0x90000	 x27=0x90000000
      286277000	     14212	8000bac8	1df1	c.addi	x27,-4	 x27:0x90000000 x27=0x8ffffffc
      286297000	     14213	8000baca	4929	c.li	x18,10	 x18=0x0000000a
      286317000	     14214	8000bacc	0922	c.slli	x18,0x8	 x18:0x0000000a x18=0x00000a00
      286337000	     14215	8000bace	00090913	addi	x18,x18,0	 x18:0x00000a00 x18=0x00000a00
      286397000	     14218	8000bad2	012da023	sw	x18,0(x27)	 x27:0x8ffffffc x18:0x00000a00 PA:0x8ffffffc store:0x00000a00 load:0xffffffff
      286417000	     14219	8000bad6	90000db7	lui	x27,0x90000	 x27=0x90000000
      286437000	     14220	8000bada	1df1	c.addi	x27,-4	 x27:0x90000000 x27=0x8ffffffc
      286457000	     14221	8000badc	34200913	addi	x18,x0,834	  x0:0x00000000 x18=0x00000342
      286477000	     14222	8000bae0	0922	c.slli	x18,0x8	 x18:0x00000342 x18=0x00034200
      287117000	     14254	8000bae2	090d	c.addi	x18,3	 x18:0x00034200 x18=0x00034203
      287257000	     14261	8000bae4	012da023	sw	x18,0(x27)	 x27:0x8ffffffc x18:0x00034203 PA:0x8ffffffc store:0x00034203 load:0xffffffff
      287277000	     14262	8000bae8	34202973	csrrs	x18,mcause,x0	  x0:0x00000000 x18=0x00000002
      287337000	     14265	8000baec	012da023	sw	x18,0(x27)	 x27:0x8ffffffc x18:0x00000002 PA:0x8ffffffc store:0x00000002 load:0xffffffff
      287357000	     14266	8000baf0	34102973	csrrs	x18,mepc,x0	  x0:0x00000000 x18=0x80003e96
      287377000	     14267	8000baf4	0911	c.addi	x18,4	 x18:0x80003e96 x18=0x80003e9a
      287397000	     14268	8000baf6	34191073	csrrw	x0,mepc,x18	 x18:0x80003e9a  x0=0x00000000
      287417000	     14269	8000bafa	000685b3	add	x11,x13,x0	 x13:0x80025c60  x0:0x00000000 x11=0x80025c60
      287497000	     14273	8000bafe	0045a083	lw	x1,4(x11)	 x11:0x80025c60  x1=0x40901104 PA:0x80025c64 load:0x40901104
      287517000	     14274	8000bb02	0085a103	lw	x2,8(x11)	 x11:0x80025c60  x2=0x00000000 PA:0x80025c68 load:0x00000000
      287537000	     14275	8000bb06	00c5a183	lw	x3,12(x11)	 x11:0x80025c60  x3=0x1e1e1e00 PA:0x80025c6c load:0x1e1e1e00
      287917000	     14294	8000bb0a	0105a203	lw	x4,16(x11)	 x11:0x80025c60  x4=0x80000000 PA:0x80025c70 load:0x80000000
      288077000	     14302	8000bb0e	0145a283	lw	x5,20(x11)	 x11:0x80025c60  x5=0x48000000 PA:0x80025c74 load:0x48000000
      288137000	     14305	8000bb12	0185a303	lw	x6,24(x11)	 x11:0x80025c60  x6=0x9e1bc11c PA:0x80025c78 load:0x9e1bc11c
      288197000	     14308	8000bb16	01c5a383	lw	x7,28(x11)	 x11:0x80025c60  x7=0x00000000 PA:0x80025c7c load:0x00000000
      288657000	     14331	8000bb1a	5180	c.lw	x8,32(x11)	 x11:0x80025c60  x8=0xc1c61c46 PA:0x80025c80 load:0xc1c61c46
      288837000	     14340	8000bb1c	51c4	c.lw	x9,36(x11)	 x11:0x80025c60  x9=0x00001553 PA:0x80025c84 load:0x00001553
      288857000	     14341	8000bb1e	5588	c.lw	x10,40(x11)	 x11:0x80025c60 x10=0x17edfddf PA:0x80025c88 load:0x17edfddf
      288877000	     14342	8000bb20	55cc	c.lw	x11,44(x11)	 x11:0x80025c60 x11=0x80025c60 PA:0x80025c8c load:0x80025c60
      289077000	     14352	8000bb22	5990	c.lw	x12,48(x11)	 x11:0x80025c60 x12=0x00000000 PA:0x80025c90 load:0x00000000
      289237000	     14360	8000bb24	59d4	c.lw	x13,52(x11)	 x11:0x80025c60 x13=0x80025ce0 PA:0x80025c94 load:0x80025ce0
      289377000	     14367	8000bb26	5d98	c.lw	x14,56(x11)	 x11:0x80025c60 x14=0x00000000 PA:0x80025c98 load:0x00000000
      289557000	     14376	8000bb28	5ddc	c.lw	x15,60(x11)	 x11:0x80025c60 x15=0x00000000 PA:0x80025c9c load:0x00000000
      289617000	     14379	8000bb2a	0405a803	lw	x16,64(x11)	 x11:0x80025c60 x16=0x00000000 PA:0x80025ca0 load:0x00000000
      289637000	     14380	8000bb2e	0445a883	lw	x17,68(x11)	 x11:0x80025c60 x17=0x00024440 PA:0x80025ca4 load:0x00024440
      289857000	     14391	8000bb32	0485a903	lw	x18,72(x11)	 x11:0x80025c60 x18=0x28889531 PA:0x80025ca8 load:0x28889531
      289877000	     14392	8000bb36	04c5a983	lw	x19,76(x11)	 x11:0x80025c60 x19=0x00000000 PA:0x80025cac load:0x00000000
      289897000	     14393	8000bb3a	0505aa03	lw	x20,80(x11)	 x11:0x80025c60 x20=0x00002443 PA:0x80025cb0 load:0x00002443
      290177000	     14407	8000bb3e	0545aa83	lw	x21,84(x11)	 x11:0x80025c60 x21=0xffff5a20 PA:0x80025cb4 load:0xffff5a20
      290617000	     14429	8000bb42	0585ab03	lw	x22,88(x11)	 x11:0x80025c60 x22=0x00000020 PA:0x80025cb8 load:0x00000020
      290877000	     14442	8000bb46	05c5ab83	lw	x23,92(x11)	 x11:0x80025c60 x23=0xcd510e2a PA:0x80025cbc load:0xcd510e2a
      290897000	     14443	8000bb4a	0605ac03	lw	x24,96(x11)	 x11:0x80025c60 x24=0x000010e8 PA:0x80025cc0 load:0x000010e8
      291017000	     14449	8000bb4e	0645ac83	lw	x25,100(x11)	 x11:0x80025c60 x25=0xffffffff PA:0x80025cc4 load:0xffffffff
      291077000	     14452	8000bb52	0685ad03	lw	x26,104(x11)	 x11:0x80025c60 x26=0xd4f95c22 PA:0x80025cc8 load:0xd4f95c22
      291097000	     14453	8000bb56	06c5ad83	lw	x27,108(x11)	 x11:0x80025c60 x27=0x0000000c PA:0x80025ccc load:0x0000000c
      291117000	     14454	8000bb5a	0705ae03	lw	x28,112(x11)	 x11:0x80025c60 x28=0x9e1bc11c PA:0x80025cd0 load:0x9e1bc11c
      291437000	     14470	8000bb5e	0745ae83	lw	x29,116(x11)	 x11:0x80025c60 x29=0x00002000 PA:0x80025cd4 load:0x00002000
      291577000	     14477	8000bb62	0785af03	lw	x30,120(x11)	 x11:0x80025c60 x30=0x3d6e115d PA:0x80025cd8 load:0x3d6e115d
      291637000	     14480	8000bb66	07c5af83	lw	x31,124(x11)	 x11:0x80025c60 x31=0xfff25ffe PA:0x80025cdc load:0xfff25ffe
      291657000	     14481	8000bb6a	08058593	addi	x11,x11,128	 x11:0x80025c60 x11=0x80025ce0
      291677000	     14482	8000bb6e	000586b3	add	x13,x11,x0	 x11:0x80025ce0  x0:0x00000000 x13=0x80025ce0
      291697000	     14483	8000bb72	428c	c.lw	x11,0(x13)	 x13:0x80025ce0 x11=0x80021e64 PA:0x80025ce0 load:0x80021e64
      291717000	     14484	8000bb74	0691	c.addi	x13,4	 x13:0x80025ce0 x13=0x80025ce4
      291737000	     14485	8000bb76	30200073	mret	
      291817000	     14489	80003e9a	01acf463	bgeu	x25,x26,80003ea2	 x25:0xffffffff x26:0xd4f95c22
      291877000	     14492	80003ea2	30106273	csrrsi	x4,misa,0	  x4=0x40901104
      291897000	     14493	80003ea6	4d2d	c.li	x26,11	 x26=0x0000000b
      292317000	     14514	80003ea8	8a06	c.mv	x20,x1	  x0:0x00000000  x1:0x40901104 x20=0x40901104
      292337000	     14515	80003eaa	52fd	c.li	x5,-1	  x5=0xffffffff
      292357000	     14516	80003eac	04160063	beq	x12,x1,80003eec	 x12:0x00000000  x1:0x40901104
      292377000	     14517	80003eb0	02d44f63	blt	x8,x13,80003eee	  x8:0xc1c61c46 x13:0x80025ce4
      292517000	     14524	80003eb4	4d14e213	ori	x4,x9,1233	  x9:0x00001553  x4=0x000015d3
      292797000	     14538	80003eb8	167d	c.addi	x12,-1	 x12:0x00000000 x12=0xffffffff
      292917000	     14544	80003eba	00f3deb3	srl	x29,x7,x15	  x7:0x00000000 x15:0x00000000 x29=0x00000000
      292957000	     14546	80003ebe	04d0e163	bltu	x1,x13,80003f00	  x1:0x40901104 x13:0x80025ce4
      293877000	     14592	80003f00	031af233	remu	x4,x21,x17	 x21:0xffff5a20 x17:0x00024440  x4=0x000119e0
      293897000	     14593	80003f04	1451c993	xori	x19,x3,325	  x3:0x1e1e1e00 x19=0x1e1e1f45
      293917000	     14594	80003f08	8ca9	c.xor	x9,x10	  x9:0x00001553 x10:0x17edfddf  x9=0x17ede88c
      293937000	     14595	80003f0a	3b707773	csrrci	x14,pmpaddr7,0	 x14=0x3dddea86
      293957000	     14596	80003f0e	3a3064f3	csrrsi	x9,pmpcfg3,0	  x9=0x0f0f0f0f
      293977000	     14597	80003f12	8fd1	c.or	x15,x12	 x15:0x00000000 x12:0xffffffff x15=0xffffffff
      294117000	     14604	80003f14	1f00	c.addi4spn	x8,x2,944	  x8=0x000003b0
      294217000	     14609	80003f16	b004e773	csrrsi	x14,mcycle,9	 x14=0x000038c5
      294277000	     14612	80003f1a	0000100f	fence.i	
      295377000	     14667	80003f1e	76503d93	sltiu	x27,x0,1893	  x0:0x00000000 x27=0x00000001
      296197000	     14708	80003f22	02ed6d33	rem	x26,x26,x14	 x26:0x0000000b x14:0x000038c5 x26=0x0000000b
      296217000	     14709	80003f26	98fd	c.andi	x9,-1	  x9:0x0f0f0f0f  x9=0x0f0f0f0f
      296237000	     14710	80003f28	404b0533	sub	x10,x22,x4	 x22:0x00000020  x4:0x000119e0 x10=0xfffee640
      296257000	     14711	80003f2c	8311	c.srli	x14,0x4	 x14:0x000038c5 x14=0x0000038c
      296277000	     14712	80003f2e	00509213	slli	x4,x1,0x5	  x1:0x40901104  x4=0x12022080
      296297000	     14713	80003f32	011aea63	bltu	x21,x17,80003f46	 x21:0xffff5a20 x17:0x00024440
      296317000	     14714	80003f36	8c41	c.or	x8,x8	  x8:0x000003b0  x8:0x000003b0  x8=0x000003b0
      296377000	     14717	80003f38	00824d63	blt	x4,x8,80003f52	  x4:0x12022080  x8:0x000003b0
      296557000	     14726	80003f3c	c031	c.beqz	x8,80003f80	  x8:0x000003b0
      296677000	     14732	80003f3e	40cadd33	sra	x26,x21,x12	 x21:0xffff5a20 x12:0xffffffff x26=0xffffffff
      296837000	     14740	80003f42	8fd7cd13	xori	x26,x15,-1795	 x15:0xffffffff x26=0x00000702
      296877000	     14742	80003f46	05606163	bltu	x0,x22,80003f88	  x0:0x00000000 x22:0x00000020
      297237000	     14760	80003f88	341fdcf3	csrrwi	x25,mepc,31	 x25=0x80003e9a
      297377000	     14767	80003f8c	8e71	c.and	x12,x12	 x12:0xffffffff x12:0xffffffff x12=0xffffffff
      297597000	     14778	80003f8e	02369cb3	mulh	x25,x13,x3	 x13:0x80025ce4  x3:0x1e1e1e00 x25=0xf0f13829
      297617000	     14779	80003f92	b03b1af3	csrrw	x21,mhpmcounter3,x22	 x22:0x00000020 x21=0x000007b6
      297677000	     14782	80003f96	0000100f	fence.i	
      298377000	     14817	80003f9a	017aa0b3	slt	x1,x21,x23	 x21:0x000007b6 x23:0xcd510e2a  x1=0x00000000
      298417000	     14819	80003f9e	036a1133	mulh	x2,x20,x22	 x20:0x40901104 x22:0x00000020  x2=0x00000008
      298597000	     14828	80003fa2	a1def193	andi	x3,x29,-1507	 x29:0x00000000  x3=0x00000000
      298617000	     14829	80003fa6	14fd	c.addi	x9,-1	  x9:0x0f0f0f0f  x9=0x0f0f0f0e
      298637000	     14830	80003fa8	b8a75773	csrrwi	x14,mhpmcounter10h,14	 x14=0x00000000
      298697000	     14833	80003fac	01407eb3	and	x29,x0,x20	  x0:0x00000000 x20:0x40901104 x29=0x00000000
      298717000	     14834	80003fb0	04334993	xori	x19,x6,67	  x6:0x9e1bc11c x19=0x9e1bc15f
      299077000	     14852	80003fb4	9bfd	c.andi	x15,-1	 x15:0xffffffff x15=0xffffffff
      299457000	     14871	80003fb6	05690263	beq	x18,x22,80003ffa	 x18:0x28889531 x22:0x00000020
      299477000	     14872	80003fba	8421	c.srai	x8,0x8	  x8:0x000003b0  x8=0x00000003
      299497000	     14873	80003fbc	417407b3	sub	x15,x8,x23	  x8:0x00000003 x23:0xcd510e2a x15=0x32aef1d9
      299837000	     14890	80003fc0	0172fd63	bgeu	x5,x23,80003fda	  x5:0xffffffff x23:0xcd510e2a
      301077000	     14952	80003fda	01bf5e93	srli	x29,x30,0x1b	 x30:0x3d6e115d x29=0x00000007
      301217000	     14959	80003fde	03370f33	mul	x30,x14,x19	 x14:0x00000000 x19:0x9e1bc15f x30=0x00000000
      301237000	     14960	80003fe2	d7bbb093	sltiu	x1,x23,-645	 x23:0xcd510e2a  x1=0x00000001
      302377000	     15017	80003fe6	039c4a33	div	x20,x24,x25	 x24:0x000010e8 x25:0xf0f13829 x20=0x00000000
      302397000	     15018	80003fea	006c9013	slli	x0,x25,0x6	 x25:0xf0f13829  x0=0x00000000
      302417000	     15019	80003fee	0112c1b3	xor	x3,x5,x17	  x5:0xffffffff x17:0x00024440  x3=0xfffdbbbf
      302437000	     15020	80003ff2	d78ba513	slti	x10,x23,-648	 x23:0xcd510e2a x10=0x00000001
      302457000	     15021	80003ff6	040e8163	beq	x29,x0,80004038	 x29:0x00000007  x0:0x00000000
      302497000	     15023	80003ffa	03e3dbb3	divu	x23,x7,x30	  x7:0x00000000 x30:0x00000000 x23=0xffffffff
      302537000	     15025	80003ffe	034d5333	divu	x6,x26,x20	 x26:0x00000702 x20:0x00000000  x6=0xffffffff
      302717000	     15034	80004002	310c17f3	csrrw	x15,0x310,x24	 x24:0x000010e8 x15=0x00000000
      302777000	     15037	80004006	07c6	c.slli	x15,0x11	 x15:0x00000000 x15=0x00000000
      302837000	     15040	80004008	019db9b3	sltu	x19,x27,x25	 x27:0x00000001 x25:0xf0f13829 x19=0x00000001
      302857000	     15041	8000400c	b8303573	csrrc	x10,mhpmcounter3h,x0	  x0:0x00000000 x10=0x00000000
      302877000	     15042	80004010	833d	c.srli	x14,0xf	 x14:0x00000000 x14=0x00000000
      302897000	     15043	80004012	f15c10f3	csrrw	x0,0xf15,x0	  x0:0x00000000  x0=0x00000000
      303457000	     15071	80002500	0800006f	jal	x0,80002580	  x0=0x00000000
      304357000	     15116	80002580	16f1	c.addi	x13,-4	 x13:0x80025ce4 x13=0x80025ce0
      304417000	     15119	80002582	c28c	c.sw	x11,0(x13)	 x13:0x80025ce0 x11:0x80021e64 PA:0x80025ce0 store:0x80021e64 load:0xffffffff
      304437000	     15120	80002584	000685b3	add	x11,x13,x0	 x13:0x80025ce0  x0:0x00000000 x11=0x80025ce0
      304457000	     15121	80002588	f8058593	addi	x11,x11,-128	 x11:0x80025ce0 x11=0x80025c60
      304637000	     15130	8000258c	0015a223	sw	x1,4(x11)	 x11:0x80025c60  x1:0x00000001 PA:0x80025c64 store:0x00000001 load:0xffffffff
      304837000	     15140	80002590	0025a423	sw	x2,8(x11)	 x11:0x80025c60  x2:0x00000008 PA:0x80025c68 store:0x00000008 load:0xffffffff
      304897000	     15143	80002594	0035a623	sw	x3,12(x11)	 x11:0x80025c60  x3:0xfffdbbbf PA:0x80025c6c store:0xfffdbbbf load:0xffffffff
      304917000	     15144	80002598	0045a823	sw	x4,16(x11)	 x11:0x80025c60  x4:0x12022080 PA:0x80025c70 store:0x12022080 load:0xffffffff
      304937000	     15145	8000259c	0055aa23	sw	x5,20(x11)	 x11:0x80025c60  x5:0xffffffff PA:0x80025c74 store:0xffffffff load:0xffffffff
      304957000	     15146	800025a0	0065ac23	sw	x6,24(x11)	 x11:0x80025c60  x6:0xffffffff PA:0x80025c78 store:0xffffffff load:0xffffffff
      305117000	     15154	800025a4	0075ae23	sw	x7,28(x11)	 x11:0x80025c60  x7:0x00000000 PA:0x80025c7c store:0x00000000 load:0xffffffff
      305137000	     15155	800025a8	d180	c.sw	x8,32(x11)	 x11:0x80025c60  x8:0x00000003 PA:0x80025c80 store:0x00000003 load:0xffffffff
      305557000	     15176	800025aa	d1c4	c.sw	x9,36(x11)	 x11:0x80025c60  x9:0x0f0f0f0e PA:0x80025c84 store:0x0f0f0f0e load:0xffffffff
      305817000	     15189	800025ac	d588	c.sw	x10,40(x11)	 x11:0x80025c60 x10:0x00000000 PA:0x80025c88 store:0x00000000 load:0xffffffff
      305837000	     15190	800025ae	d5cc	c.sw	x11,44(x11)	 x11:0x80025c60 x11:0x80025c60 PA:0x80025c8c store:0x80025c60 load:0xffffffff
      305857000	     15191	800025b0	d990	c.sw	x12,48(x11)	 x11:0x80025c60 x12:0xffffffff PA:0x80025c90 store:0xffffffff load:0xffffffff
      306217000	     15209	800025b2	d9d4	c.sw	x13,52(x11)	 x11:0x80025c60 x13:0x80025ce0 PA:0x80025c94 store:0x80025ce0 load:0xffffffff
      306277000	     15212	800025b4	dd98	c.sw	x14,56(x11)	 x11:0x80025c60 x14:0x00000000 PA:0x80025c98 store:0x00000000 load:0xffffffff
      306517000	     15224	800025b6	dddc	c.sw	x15,60(x11)	 x11:0x80025c60 x15:0x00000000 PA:0x80025c9c store:0x00000000 load:0xffffffff
      306577000	     15227	800025b8	0505a023	sw	x16,64(x11)	 x11:0x80025c60 x16:0x00000000 PA:0x80025ca0 store:0x00000000 load:0xffffffff
      306657000	     15231	800025bc	0515a223	sw	x17,68(x11)	 x11:0x80025c60 x17:0x00024440 PA:0x80025ca4 store:0x00024440 load:0xffffffff
      306717000	     15234	800025c0	0525a423	sw	x18,72(x11)	 x11:0x80025c60 x18:0x28889531 PA:0x80025ca8 store:0x28889531 load:0xffffffff
      307337000	     15265	800025c4	0535a623	sw	x19,76(x11)	 x11:0x80025c60 x19:0x00000001 PA:0x80025cac store:0x00000001 load:0xffffffff
      307397000	     15268	800025c8	0545a823	sw	x20,80(x11)	 x11:0x80025c60 x20:0x00000000 PA:0x80025cb0 store:0x00000000 load:0xffffffff
      307597000	     15278	800025cc	0555aa23	sw	x21,84(x11)	 x11:0x80025c60 x21:0x000007b6 PA:0x80025cb4 store:0x000007b6 load:0xffffffff
      307977000	     15297	800025d0	0565ac23	sw	x22,88(x11)	 x11:0x80025c60 x22:0x00000020 PA:0x80025cb8 store:0x00000020 load:0xffffffff
      308437000	     15320	800025d4	0575ae23	sw	x23,92(x11)	 x11:0x80025c60 x23:0xffffffff PA:0x80025cbc store:0xffffffff load:0xffffffff
      308697000	     15333	800025d8	0785a023	sw	x24,96(x11)	 x11:0x80025c60 x24:0x000010e8 PA:0x80025cc0 store:0x000010e8 load:0xffffffff
      308717000	     15334	800025dc	0795a223	sw	x25,100(x11)	 x11:0x80025c60 x25:0xf0f13829 PA:0x80025cc4 store:0xf0f13829 load:0xffffffff
      309077000	     15352	800025e0	07a5a423	sw	x26,104(x11)	 x11:0x80025c60 x26:0x00000702 PA:0x80025cc8 store:0x00000702 load:0xffffffff
      309317000	     15364	800025e4	07b5a623	sw	x27,108(x11)	 x11:0x80025c60 x27:0x00000001 PA:0x80025ccc store:0x00000001 load:0xffffffff
      309457000	     15371	800025e8	07c5a823	sw	x28,112(x11)	 x11:0x80025c60 x28:0x9e1bc11c PA:0x80025cd0 store:0x9e1bc11c load:0xffffffff
      309477000	     15372	800025ec	07d5aa23	sw	x29,116(x11)	 x11:0x80025c60 x29:0x00000007 PA:0x80025cd4 store:0x00000007 load:0xffffffff
      309717000	     15384	800025f0	07e5ac23	sw	x30,120(x11)	 x11:0x80025c60 x30:0x00000000 PA:0x80025cd8 store:0x00000000 load:0xffffffff
      310137000	     15405	800025f4	07f5ae23	sw	x31,124(x11)	 x11:0x80025c60 x31:0xfff25ffe PA:0x80025cdc store:0xfff25ffe load:0xffffffff
      310157000	     15406	800025f8	000586b3	add	x13,x11,x0	 x11:0x80025c60  x0:0x00000000 x13=0x80025c60
      310177000	     15407	800025fc	90000db7	lui	x27,0x90000	 x27=0x90000000
      310197000	     15408	80002600	1df1	c.addi	x27,-4	 x27:0x90000000 x27=0x8ffffffc
      310217000	     15409	80002602	4921	c.li	x18,8	 x18=0x00000008
      310237000	     15410	80002604	0922	c.slli	x18,0x8	 x18:0x00000008 x18=0x00000800
      310257000	     15411	80002606	00090913	addi	x18,x18,0	 x18:0x00000800 x18=0x00000800
      310517000	     15424	8000260a	012da023	sw	x18,0(x27)	 x27:0x8ffffffc x18:0x00000800 PA:0x8ffffffc store:0x00000800 load:0xffffffff
      310717000	     15434	8000260e	34102973	csrrs	x18,mepc,x0	  x0:0x00000000 x18=0x80004012
      310737000	     15435	80002612	34202973	csrrs	x18,mcause,x0	  x0:0x00000000 x18=0x00000002
      310757000	     15436	80002616	4d8d	c.li	x27,3	 x27=0x00000003
      310777000	     15437	80002618	01b91463	bne	x18,x27,80002620	 x18:0x00000002 x27:0x00000003
      311117000	     15454	80002620	4da1	c.li	x27,8	 x27=0x00000008
      311537000	     15475	80002622	05b90d63	beq	x18,x27,8000267c	 x18:0x00000002 x27:0x00000008
      311557000	     15476	80002626	4da5	c.li	x27,9	 x27=0x00000009
      311577000	     15477	80002628	05b90a63	beq	x18,x27,8000267c	 x18:0x00000002 x27:0x00000009
      311597000	     15478	8000262c	4dad	c.li	x27,11	 x27=0x0000000b
      311997000	     15498	8000262e	05b90763	beq	x18,x27,8000267c	 x18:0x00000002 x27:0x0000000b
      312017000	     15499	80002632	4d85	c.li	x27,1	 x27=0x00000001
      312157000	     15506	80002634	35b90363	beq	x18,x27,8000297a	 x18:0x00000002 x27:0x00000001
      312197000	     15508	80002638	4d95	c.li	x27,5	 x27=0x00000005
      312277000	     15512	8000263a	63b90963	beq	x18,x27,80002c6c	 x18:0x00000002 x27:0x00000005
      312297000	     15513	8000263e	4d9d	c.li	x27,7	 x27=0x00000007
      312317000	     15514	80002640	15b90ae3	beq	x18,x27,80002f94	 x18:0x00000002 x27:0x00000007
      312337000	     15515	80002644	4db1	c.li	x27,12	 x27=0x0000000c
      312377000	     15517	80002646	01b91463	bne	x18,x27,8000264e	 x18:0x00000002 x27:0x0000000c
      312857000	     15541	8000264e	4db5	c.li	x27,13	 x27=0x0000000d
      312897000	     15543	80002650	01b91463	bne	x18,x27,80002658	 x18:0x00000002 x27:0x0000000d
      312997000	     15548	80002658	4dbd	c.li	x27,15	 x27=0x0000000f
      313097000	     15553	8000265a	01b91463	bne	x18,x27,80002662	 x18:0x00000002 x27:0x0000000f
      313837000	     15590	80002662	4d89	c.li	x27,2	 x27=0x00000002
      313857000	     15591	80002664	01b91463	bne	x18,x27,8000266c	 x18:0x00000002 x27:0x00000002
      313877000	     15592	80002668	45c0906f	jal	x0,8000bac4	  x0=0x00000000
      314077000	     15602	8000bac4	90000db7	lui	x27,0x90000	 x27=0x90000000
      314317000	     15614	8000bac8	1df1	c.addi	x27,-4	 x27:0x90000000 x27=0x8ffffffc
      314337000	     15615	8000baca	4929	c.li	x18,10	 x18=0x0000000a
      314357000	     15616	8000bacc	0922	c.slli	x18,0x8	 x18:0x0000000a x18=0x00000a00
      314597000	     15628	8000bace	00090913	addi	x18,x18,0	 x18:0x00000a00 x18=0x00000a00
      314697000	     15633	8000bad2	012da023	sw	x18,0(x27)	 x27:0x8ffffffc x18:0x00000a00 PA:0x8ffffffc store:0x00000a00 load:0xffffffff
      315077000	     15652	8000bad6	90000db7	lui	x27,0x90000	 x27=0x90000000
      315097000	     15653	8000bada	1df1	c.addi	x27,-4	 x27:0x90000000 x27=0x8ffffffc
      315257000	     15661	8000badc	34200913	addi	x18,x0,834	  x0:0x00000000 x18=0x00000342
      315477000	     15672	8000bae0	0922	c.slli	x18,0x8	 x18:0x00000342 x18=0x00034200
      315497000	     15673	8000bae2	090d	c.addi	x18,3	 x18:0x00034200 x18=0x00034203
      315757000	     15686	8000bae4	012da023	sw	x18,0(x27)	 x27:0x8ffffffc x18:0x00034203 PA:0x8ffffffc store:0x00034203 load:0xffffffff
      315917000	     15694	8000bae8	34202973	csrrs	x18,mcause,x0	  x0:0x00000000 x18=0x00000002
      315977000	     15697	8000baec	012da023	sw	x18,0(x27)	 x27:0x8ffffffc x18:0x00000002 PA:0x8ffffffc store:0x00000002 load:0xffffffff
      315997000	     15698	8000baf0	34102973	csrrs	x18,mepc,x0	  x0:0x00000000 x18=0x80004012
      316037000	     15700	8000baf4	0911	c.addi	x18,4	 x18:0x80004012 x18=0x80004016
      316457000	     15721	8000baf6	34191073	csrrw	x0,mepc,x18	 x18:0x80004016  x0=0x00000000
      316877000	     15742	8000bafa	000685b3	add	x11,x13,x0	 x13:0x80025c60  x0:0x00000000 x11=0x80025c60
      317317000	     15764	8000bafe	0045a083	lw	x1,4(x11)	 x11:0x80025c60  x1=0x00000001 PA:0x80025c64 load:0x00000001
      317377000	     15767	8000bb02	0085a103	lw	x2,8(x11)	 x11:0x80025c60  x2=0x00000008 PA:0x80025c68 load:0x00000008
      317517000	     15774	8000bb06	00c5a183	lw	x3,12(x11)	 x11:0x80025c60  x3=0xfffdbbbf PA:0x80025c6c load:0xfffdbbbf
      317597000	     15778	8000bb0a	0105a203	lw	x4,16(x11)	 x11:0x80025c60  x4=0x12022080 PA:0x80025c70 load:0x12022080
      317657000	     15781	8000bb0e	0145a283	lw	x5,20(x11)	 x11:0x80025c60  x5=0xffffffff PA:0x80025c74 load:0xffffffff
      318077000	     15802	8000bb12	0185a303	lw	x6,24(x11)	 x11:0x80025c60  x6=0xffffffff PA:0x80025c78 load:0xffffffff
      318137000	     15805	8000bb16	01c5a383	lw	x7,28(x11)	 x11:0x80025c60  x7=0x00000000 PA:0x80025c7c load:0x00000000
      318437000	     15820	8000bb1a	5180	c.lw	x8,32(x11)	 x11:0x80025c60  x8=0x00000003 PA:0x80025c80 load:0x00000003
      318577000	     15827	8000bb1c	51c4	c.lw	x9,36(x11)	 x11:0x80025c60  x9=0x0f0f0f0e PA:0x80025c84 load:0x0f0f0f0e
      320637000	     15930	8000bb1e	5588	c.lw	x10,40(x11)	 x11:0x80025c60 x10=0x00000000 PA:0x80025c88 load:0x00000000
      321097000	     15953	8000bb20	55cc	c.lw	x11,44(x11)	 x11:0x80025c60 x11=0x80025c60 PA:0x80025c8c load:0x80025c60
      321177000	     15957	8000bb22	5990	c.lw	x12,48(x11)	 x11:0x80025c60 x12=0xffffffff PA:0x80025c90 load:0xffffffff
      321377000	     15967	8000bb24	59d4	c.lw	x13,52(x11)	 x11:0x80025c60 x13=0x80025ce0 PA:0x80025c94 load:0x80025ce0
      321437000	     15970	8000bb26	5d98	c.lw	x14,56(x11)	 x11:0x80025c60 x14=0x00000000 PA:0x80025c98 load:0x00000000
      321517000	     15974	8000bb28	5ddc	c.lw	x15,60(x11)	 x11:0x80025c60 x15=0x00000000 PA:0x80025c9c load:0x00000000
      321537000	     15975	8000bb2a	0405a803	lw	x16,64(x11)	 x11:0x80025c60 x16=0x00000000 PA:0x80025ca0 load:0x00000000
      321557000	     15976	8000bb2e	0445a883	lw	x17,68(x11)	 x11:0x80025c60 x17=0x00024440 PA:0x80025ca4 load:0x00024440
      321757000	     15986	8000bb32	0485a903	lw	x18,72(x11)	 x11:0x80025c60 x18=0x28889531 PA:0x80025ca8 load:0x28889531
      321797000	     15988	8000bb36	04c5a983	lw	x19,76(x11)	 x11:0x80025c60 x19=0x00000001 PA:0x80025cac load:0x00000001
      321817000	     15989	8000bb3a	0505aa03	lw	x20,80(x11)	 x11:0x80025c60 x20=0x00000000 PA:0x80025cb0 load:0x00000000
      321917000	     15994	8000bb3e	0545aa83	lw	x21,84(x11)	 x11:0x80025c60 x21=0x000007b6 PA:0x80025cb4 load:0x000007b6
      322177000	     16007	8000bb42	0585ab03	lw	x22,88(x11)	 x11:0x80025c60 x22=0x00000020 PA:0x80025cb8 load:0x00000020
      322297000	     16013	8000bb46	05c5ab83	lw	x23,92(x11)	 x11:0x80025c60 x23=0xffffffff PA:0x80025cbc load:0xffffffff
      322357000	     16016	8000bb4a	0605ac03	lw	x24,96(x11)	 x11:0x80025c60 x24=0x000010e8 PA:0x80025cc0 load:0x000010e8
      322377000	     16017	8000bb4e	0645ac83	lw	x25,100(x11)	 x11:0x80025c60 x25=0xf0f13829 PA:0x80025cc4 load:0xf0f13829
      322397000	     16018	8000bb52	0685ad03	lw	x26,104(x11)	 x11:0x80025c60 x26=0x00000702 PA:0x80025cc8 load:0x00000702
      322777000	     16037	8000bb56	06c5ad83	lw	x27,108(x11)	 x11:0x80025c60 x27=0x00000001 PA:0x80025ccc load:0x00000001
      322937000	     16045	8000bb5a	0705ae03	lw	x28,112(x11)	 x11:0x80025c60 x28=0x9e1bc11c PA:0x80025cd0 load:0x9e1bc11c
      323337000	     16065	8000bb5e	0745ae83	lw	x29,116(x11)	 x11:0x80025c60 x29=0x00000007 PA:0x80025cd4 load:0x00000007
      323597000	     16078	8000bb62	0785af03	lw	x30,120(x11)	 x11:0x80025c60 x30=0x00000000 PA:0x80025cd8 load:0x00000000
      324017000	     16099	8000bb66	07c5af83	lw	x31,124(x11)	 x11:0x80025c60 x31=0xfff25ffe PA:0x80025cdc load:0xfff25ffe
      324037000	     16100	8000bb6a	08058593	addi	x11,x11,128	 x11:0x80025c60 x11=0x80025ce0
      324057000	     16101	8000bb6e	000586b3	add	x13,x11,x0	 x11:0x80025ce0  x0:0x00000000 x13=0x80025ce0
      324517000	     16124	8000bb72	428c	c.lw	x11,0(x13)	 x13:0x80025ce0 x11=0x80021e64 PA:0x80025ce0 load:0x80021e64
      324537000	     16125	8000bb74	0691	c.addi	x13,4	 x13:0x80025ce0 x13=0x80025ce4
      324557000	     16126	8000bb76	30200073	mret	
      325697000	     16183	80004016	01bf9533	sll	x10,x31,x27	 x31:0xfff25ffe x27:0x00000001 x10=0xffe4bffc
      326017000	     16199	8000401a	b07bdb73	csrrwi	x22,mhpmcounter7,23	 x22=0x00000017
      326077000	     16202	8000401e	40375993	srai	x19,x14,0x3	 x14:0x00000000 x19=0x00000000
      326097000	     16203	80004022	d1afb893	sltiu	x17,x31,-742	 x31:0xfff25ffe x17=0x00000001
      326117000	     16204	80004026	02390733	mul	x14,x18,x3	 x18:0x28889531  x3:0xfffdbbbf x14=0x434f1a8f
      326297000	     16213	8000402a	b07862f3	csrrsi	x5,mhpmcounter7,16	  x5=0x00000017
      327357000	     16266	8000402e	023ceeb3	rem	x29,x25,x3	 x25:0xf0f13829  x3:0xfffdbbbf x29=0xfffe77cd
      327377000	     16267	80004032	8d29	c.xor	x10,x10	 x10:0xffe4bffc x10:0xffe4bffc x10=0x00000000
      327397000	     16268	80004034	0ff0000f	fence	iorw,iorw	
      327417000	     16269	80004038	01b79633	sll	x12,x15,x27	 x15:0x00000000 x27:0x00000001 x12=0x00000000
      327437000	     16270	8000403c	7a102ef3	csrrs	x29,tdata1,x0	  x0:0x00000000 x29=0x28001048
      327457000	     16271	80004040	8d49	c.or	x10,x10	 x10:0x00000000 x10:0x00000000 x10=0x00000000
      327477000	     16272	80004042	415302b3	sub	x5,x6,x21	  x6:0xffffffff x21:0x000007b6  x5=0xfffff849
      327497000	     16273	80004046	987d	c.andi	x8,-1	  x8:0x00000003  x8=0x00000003
      327517000	     16274	80004048	03757a63	bgeu	x10,x23,8000407c	 x10:0x00000000 x23:0xffffffff
      328257000	     16311	8000404c	028c7333	remu	x6,x24,x8	 x24:0x000010e8  x8:0x00000003  x6=0x00000002
      328277000	     16312	80004050	b8661bf3	csrrw	x23,mhpmcounter6h,x12	 x12:0x00000000 x23=0x00000000
      328337000	     16315	80004054	41f6d8b3	sra	x17,x13,x31	 x13:0x80025ce4 x31:0xfff25ffe x17=0xfffffffe
      328517000	     16324	80004058	40635533	sra	x10,x6,x6	  x6:0x00000002  x6:0x00000002 x10=0x00000000
      328937000	     16345	8000405c	9ece	c.add	x29,x19	 x29:0x28001048 x19:0x00000000 x29=0x28001048
      328997000	     16348	8000405e	030affb3	remu	x31,x21,x16	 x21:0x000007b6 x16:0x00000000 x31=0x000007b6
      329077000	     16352	80004062	eed6ca37	lui	x20,0xeed6c	 x20=0xeed6c000
      329117000	     16354	80004066	0228a833	mulhsu	x16,x17,x2	 x17:0xfffffffe  x2:0x00000008 x16=0xffffffff
      329517000	     16374	8000406a	001307b3	add	x15,x6,x1	  x6:0x00000002  x1:0x00000001 x15=0x00000003
      329537000	     16375	8000406e	ef0d	c.bnez	x14,800040a8	 x14:0x434f1a8f
      330357000	     16416	800040a8	8309	c.srli	x14,0x2	 x14:0x434f1a8f x14=0x10d3c6a3
      330377000	     16417	800040aa	0002cc33	xor	x24,x5,x0	  x5:0xfffff849  x0:0x00000000 x24=0xfffff849
      330397000	     16418	800040ae	8c59	c.or	x8,x14	  x8:0x00000003 x14:0x10d3c6a3  x8=0x10d3c6a3
      330417000	     16419	800040b0	0001	c.addi	x0,0	  x0:0x00000000  x0=0x00000000
      330557000	     16426	800040b2	40da0633	sub	x12,x20,x13	 x20:0xeed6c000 x13:0x80025ce4 x12=0x6ed4631c
      330637000	     16430	800040b6	ea364093	xori	x1,x12,-349	 x12:0x6ed4631c  x1=0x912b9dbf
      331377000	     16467	800040ba	03c6f233	remu	x4,x13,x28	 x13:0x80025ce4 x28:0x9e1bc11c  x4=0x80025ce4
      331397000	     16468	800040be	03fa8a33	mul	x20,x21,x31	 x21:0x000007b6 x31:0x000007b6 x20=0x003b7564
      331417000	     16469	800040c2	8e4d	c.or	x12,x11	 x12:0x6ed4631c x11:0x80021e64 x12=0xeed67f7c
      331437000	     16470	800040c4	4e35	c.li	x28,13	 x28=0x0000000d
      331457000	     16471	800040c6	883d	c.andi	x8,15	  x8:0x10d3c6a3  x8=0x00000003
      331477000	     16472	800040c8	894ece17	auipc	x28,0x894ec	 x28=0x094f00c8
      331497000	     16473	800040cc	8265	c.srli	x12,0x19	 x12:0xeed67f7c x12=0x00000077
      331517000	     16474	800040ce	0001	c.addi	x0,0	  x0:0x00000000  x0=0x00000000
      331537000	     16475	800040d0	88e9	c.andi	x9,26	  x9:0x0f0f0f0e  x9=0x0000000a
      331557000	     16476	800040d2	1d80	c.addi4spn	x8,x2,752	  x8=0x000002f8
      331577000	     16477	800040d4	8b75	c.andi	x14,29	 x14:0x10d3c6a3 x14=0x00000001
      331597000	     16478	800040d6	01199d63	bne	x19,x17,800040f0	 x19:0x00000000 x17:0xfffffffe
      332357000	     16516	800040f0	03f16d63	bltu	x2,x31,8000412a	  x2:0x00000008 x31:0x000007b6
      333377000	     16567	8000412a	038fecb3	rem	x25,x31,x24	 x31:0x000007b6 x24:0xfffff849 x25=0x000007b6
      333397000	     16568	8000412e	01a982b3	add	x5,x19,x26	 x19:0x00000000 x26:0x00000702  x5=0x00000702
      333417000	     16569	80004132	e757f493	andi	x9,x15,-395	 x15:0x00000003  x9=0x00000001
      333437000	     16570	80004136	987d	c.andi	x8,-1	  x8:0x000002f8  x8=0x000002f8
      333457000	     16571	80004138	8359	c.srli	x14,0x16	 x14:0x00000001 x14=0x00000000
      333477000	     16572	8000413a	00f0de33	srl	x28,x1,x15	  x1:0x912b9dbf x15:0x00000003 x28=0x122573b7
      333497000	     16573	8000413e	03bae763	bltu	x21,x27,8000416c	 x21:0x000007b6 x27:0x00000001
      333517000	     16574	80004142	00219a63	bne	x3,x2,80004156	  x3:0xfffdbbbf  x2:0x00000008
      333957000	     16596	80004156	b8705ef3	csrrwi	x29,mhpmcounter7h,0	 x29=0x00000000
      334057000	     16601	8000415a	0ff0000f	fence	iorw,iorw	
      334217000	     16609	8000415e	9ee2ee93	ori	x29,x5,-1554	  x5:0x00000702 x29=0xffffffee
      334997000	     16648	80004162	02446d33	rem	x26,x8,x4	  x8:0x000002f8  x4:0x80025ce4 x26=0x000002f8
      335017000	     16649	80004166	0022aab3	slt	x21,x5,x2	  x5:0x00000702  x2:0x00000008 x21=0x00000000
      335037000	     16650	8000416a	717d	c.addi16sp	x2,-16	  x2:0x00000008  x2=0xfffffff8
      335057000	     16651	8000416c	01825f63	bge	x4,x24,8000418a	  x4:0x80025ce4 x24:0xfffff849
      335077000	     16652	80004170	41330233	sub	x4,x6,x19	  x6:0x00000002 x19:0x00000000  x4=0x00000002
      335097000	     16653	80004174	9dfe	c.add	x27,x31	 x27:0x00000001 x31:0x000007b6 x27=0x000007b7
      335957000	     16696	80004176	0211d233	divu	x4,x3,x1	  x3:0xfffdbbbf  x1:0x912b9dbf  x4=0x00000001
      335977000	     16697	8000417a	01932333	slt	x6,x6,x25	  x6:0x00000002 x25:0x000007b6  x6=0x00000001
      335997000	     16698	8000417e	40a852b3	sra	x5,x16,x10	 x16:0xffffffff x10:0x00000000  x5=0xffffffff
      336017000	     16699	80004182	40185bb3	sra	x23,x16,x1	 x16:0xffffffff  x1:0x912b9dbf x23=0xffffffff
      336037000	     16700	80004186	1810	c.addi4spn	x12,x2,48	 x12=0x00000028
      336097000	     16703	80004188	8cbd	c.xor	x9,x15	  x9:0x00000001 x15:0x00000003  x9=0x00000002
      336117000	     16704	8000418a	01691013	slli	x0,x18,0x16	 x18:0x28889531  x0=0x00000000
      336697000	     16733	8000418e	07e8c217	auipc	x4,0x7e8c	  x4=0x87e9018e
      336717000	     16734	80004192	7a302a73	csrrs	x20,tdata3,x0	  x0:0x00000000 x20=0x00000000
      337117000	     16754	80004196	7c1fa993	slti	x19,x31,1985	 x31:0x000007b6 x19=0x00000001
      337857000	     16791	8000419a	021aef33	rem	x30,x21,x1	 x21:0x00000000  x1:0x912b9dbf x30=0x00000000
      337877000	     16792	8000419e	401e50b3	sra	x1,x28,x1	 x28:0x122573b7  x1:0x912b9dbf  x1=0x00000000
      337897000	     16793	800041a2	b8a29473	csrrw	x8,mhpmcounter10h,x5	  x5:0xffffffff  x8=0x00000000
      337957000	     16796	800041a6	8ffd	c.and	x15,x15	 x15:0x00000003 x15:0x00000003 x15=0x00000003
      337977000	     16797	800041a8	57fd	c.li	x15,-1	 x15=0xffffffff
      337997000	     16798	800041aa	0000100f	fence.i	
      338437000	     16820	800041ae	773d2293	slti	x5,x26,1907	 x26:0x000002f8  x5=0x00000001
      338457000	     16821	800041b2	0bbceeb7	lui	x29,0xbbce	 x29=0x0bbce000
      338577000	     16827	800041b6	0065a7b3	slt	x15,x11,x6	 x11:0x80021e64  x6:0x00000001 x15=0x00000001
      339377000	     16867	800041ba	02dfd033	divu	x0,x31,x13	 x31:0x000007b6 x13:0x80025ce4  x0=0x00000000
      339397000	     16868	800041be	4142d013	srai	x0,x5,0x14	  x5:0x00000001  x0=0x00000000
      339417000	     16869	800041c2	8d6d	c.and	x10,x11	 x10:0x00000000 x11:0x80021e64 x10=0x00000000
      339437000	     16870	800041c4	8e15	c.sub	x12,x13	 x12:0x00000028 x13:0x80025ce4 x12=0x7ffda344
      339457000	     16871	800041c6	01c0d213	srli	x4,x1,0x1c	  x1:0x00000000  x4=0x00000000
      339477000	     16872	800041ca	bc157013	andi	x0,x10,-1087	 x10:0x00000000  x0=0x00000000
      339497000	     16873	800041ce	9b6e	c.add	x22,x27	 x22:0x00000017 x27:0x000007b7 x22=0x000007ce
      339517000	     16874	800041d0	b80a6df3	csrrsi	x27,mcycleh,20	 x27=0x00000000
      339797000	     16888	800041d4	408e5333	sra	x6,x28,x8	 x28:0x122573b7  x8:0x00000000  x6=0x122573b7
      339877000	     16892	800041d8	07d6	c.slli	x15,0x15	 x15:0x00000001 x15=0x00200000
      339917000	     16894	800041da	03051133	mulh	x2,x10,x16	 x10:0x00000000 x16:0xffffffff  x2=0x00000000
      340017000	     16899	800041de	0349f133	remu	x2,x19,x20	 x19:0x00000001 x20:0x00000000  x2=0x00000001
      340197000	     16908	800041e2	8a2ba893	slti	x17,x23,-1886	 x23:0xffffffff x17=0x00000000
      340217000	     16909	800041e6	01f16433	or	x8,x2,x31	  x2:0x00000001 x31:0x000007b6  x8=0x000007b7
      340637000	     16930	800041ea	41700233	sub	x4,x0,x23	  x0:0x00000000 x23:0xffffffff  x4=0x00000001
      344817000	     17139	800041ee	0092	c.slli	x1,0x4	  x1:0x00000000  x1=0x00000000
      344837000	     17140	800041f0	9f4a	c.add	x30,x18	 x30:0x00000000 x18:0x28889531 x30=0x28889531
      344877000	     17142	800041f2	03992033	mulhsu	x0,x18,x25	 x18:0x28889531 x25:0x000007b6  x0=0x00000000
      344897000	     17143	800041f6	8b8d	c.andi	x15,3	 x15:0x00200000 x15=0x00000000
      344917000	     17144	800041f8	00c95463	bge	x18,x12,80004200	 x18:0x28889531 x12:0x7ffda344
      344937000	     17145	800041fc	7edeec93	ori	x25,x29,2029	 x29:0x0bbce000 x25=0x0bbce7ed
      345017000	     17149	80004200	30a02573	csrrs	x10,0x30a,x0	  x0:0x00000000 x10=0x00000000
      345037000	     17150	80004204	01845f93	srli	x31,x8,0x18	  x8:0x000007b7 x31=0x00000000
      345397000	     17168	80004208	03b32ab3	mulhsu	x21,x6,x27	  x6:0x122573b7 x27:0x00000000 x21=0x00000000
      345797000	     17188	8000420c	014a	c.slli	x2,0x12	  x2:0x00000001  x2=0x00040000
      345817000	     17189	8000420e	83d1	c.srli	x15,0x14	 x15:0x00000000 x15=0x00000000
      346557000	     17226	80004210	0307c933	div	x18,x15,x16	 x15:0x00000000 x16:0xffffffff x18=0x00000000
      346597000	     17228	80004214	031b49b3	div	x19,x22,x17	 x22:0x000007ce x17:0x00000000 x19=0xffffffff
      346617000	     17229	80004218	41ad0e33	sub	x28,x26,x26	 x26:0x000002f8 x26:0x000002f8 x28=0x00000000
      346637000	     17230	8000421c	6c55	c.lui	x24,0x15	 x24=0x00015000
      346657000	     17231	8000421e	022d0763	beq	x26,x2,8000424c	 x26:0x000002f8  x2:0x00040000
      346677000	     17232	80004222	6f7d	c.lui	x30,0x1f	 x30=0x0001f000
      346697000	     17233	80004224	e511	c.bnez	x10,80004230	 x10:0x00000000
      346897000	     17243	80004226	003b5b13	srli	x22,x22,0x3	 x22:0x000007ce x22=0x000000f9
      346917000	     17244	8000422a	8c25	c.xor	x8,x9	  x8:0x000007b7  x9:0x00000002  x8=0x000007b5
      346957000	     17246	8000422c	02f81063	bne	x16,x15,8000424c	 x16:0xffffffff x15:0x00000000
      347637000	     17280	8000424c	01825f33	srl	x30,x4,x24	  x4:0x00000001 x24:0x00015000 x30=0x00000001
      347697000	     17283	80004250	8c89	c.sub	x9,x10	  x9:0x00000002 x10:0x00000000  x9=0x00000002
      347717000	     17284	80004252	2e28cd13	xori	x26,x17,738	 x17:0x00000000 x26=0x000002e2
      347737000	     17285	80004256	418d	c.li	x3,3	  x3=0x00000003
      347777000	     17287	80004258	8009	c.srli	x8,0x2	  x8:0x000007b5  x8=0x000001ed
      347797000	     17288	8000425a	323ad373	csrrwi	x6,mhpmevent3,21	  x6=0x00000001
      348017000	     17299	8000425e	00891f33	sll	x30,x18,x8	 x18:0x00000000  x8:0x000001ed x30=0x00000000
      348037000	     17300	80004262	04ec5563	bge	x24,x14,800042ac	 x24:0x00015000 x14:0x00000000
      348757000	     17336	800042ac	954e	c.add	x10,x19	 x10:0x00000000 x19:0xffffffff x10=0xffffffff
      348797000	     17338	800042ae	b80adf73	csrrwi	x30,mcycleh,21	 x30=0x00000014
      348997000	     17348	800042b2	0000100f	fence.i	
      349537000	     17375	800042b6	00f21633	sll	x12,x4,x15	  x4:0x00000001 x15:0x00000000 x12=0x00000001
      349717000	     17384	800042ba	03329f63	bne	x5,x19,800042f8	  x5:0x00000001 x19:0xffffffff
      350297000	     17413	800042f8	40925a93	srai	x21,x4,0x9	  x4:0x00000001 x21=0x00000000
      350337000	     17415	800042fc	0089eeb3	or	x29,x19,x8	 x19:0xffffffff  x8:0x000001ed x29=0xffffffff
      350357000	     17416	80004300	02ea0a33	mul	x20,x20,x14	 x20:0x00000000 x14:0x00000000 x20=0x00000000
      350637000	     17430	80004304	006844b3	xor	x9,x16,x6	 x16:0xffffffff  x6:0x00000001  x9=0xfffffffe
      350877000	     17442	80004308	03b1da33	divu	x20,x3,x27	  x3:0x00000003 x27:0x00000000 x20=0xffffffff
      350917000	     17444	8000430c	020b5d33	divu	x26,x22,x0	 x22:0x000000f9  x0:0x00000000 x26=0xffffffff
      350937000	     17445	80004310	026d0e63	beq	x26,x6,8000434c	 x26:0xffffffff  x6:0x00000001
      351057000	     17451	80004314	001fa133	slt	x2,x31,x1	 x31:0x00000000  x1:0x00000000  x2=0x00000000
      351077000	     17452	80004318	00edea33	or	x20,x27,x14	 x27:0x00000000 x14:0x00000000 x20=0x00000000
      351097000	     17453	8000431c	6d85	c.lui	x27,0x1	 x27=0x00001000
      351517000	     17474	8000431e	3439f193	andi	x3,x19,835	 x19:0xffffffff  x3=0x00000343
      351537000	     17475	80004322	ec05	c.bnez	x8,8000435a	  x8:0x000001ed
      352597000	     17528	8000435a	417edd33	sra	x26,x29,x23	 x29:0xffffffff x23:0xffffffff x26=0xffffffff
      352717000	     17534	8000435e	01be5eb3	srl	x29,x28,x27	 x28:0x00000000 x27:0x00001000 x29=0x00000000
      352737000	     17535	80004362	01155233	srl	x4,x10,x17	 x10:0xffffffff x17:0x00000000  x4=0xffffffff
      352757000	     17536	80004366	6d11	c.lui	x26,0x4	 x26=0x00004000
      352937000	     17545	80004368	3a2021f3	csrrs	x3,pmpcfg2,x0	  x0:0x00000000  x3=0x0f0f0f0f
      352957000	     17546	8000436c	0017a533	slt	x10,x15,x1	 x15:0x00000000  x1:0x00000000 x10=0x00000000
      353077000	     17552	80004370	cb91	c.beqz	x15,80004384	 x15:0x00000000
      353957000	     17596	80004384	018b7ab3	and	x21,x22,x24	 x22:0x000000f9 x24:0x00015000 x21=0x00000000
      353977000	     17597	80004388	8c09	c.sub	x8,x10	  x8:0x000001ed x10:0x00000000  x8=0x000001ed
      353997000	     17598	8000438a	88c1	c.andi	x9,16	  x9:0xfffffffe  x9=0x00000010
      354277000	     17612	8000438c	6109	c.addi16sp	x2,128	  x2:0x00000000  x2=0x00000080
      354297000	     17613	8000438e	8f81	c.sub	x15,x8	 x15:0x00000000  x8:0x000001ed x15=0xfffffe13
      354317000	     17614	80004390	0001	c.addi	x0,0	  x0:0x00000000  x0=0x00000000
      354357000	     17616	80004392	0391b4b3	mulhu	x9,x3,x25	  x3:0x0f0f0f0f x25:0x0bbce7ed  x9=0x00b0c259
      354437000	     17620	80004396	05ae9363	bne	x29,x26,800043dc	 x29:0x00000000 x26:0x00004000
      355917000	     17694	800043dc	02fada33	divu	x20,x21,x15	 x21:0x00000000 x15:0xfffffe13 x20=0x00000000
      355937000	     17695	800043e0	8d01	c.sub	x10,x8	 x10:0x00000000  x8:0x000001ed x10=0xfffffe13
      355957000	     17696	800043e2	01f85613	srli	x12,x16,0x1f	 x16:0xffffffff x12=0x00000001
      355977000	     17697	800043e6	0001	c.addi	x0,0	  x0:0x00000000  x0=0x00000000
      355997000	     17698	800043e8	02aa80b3	mul	x1,x21,x10	 x21:0x00000000 x10:0xfffffe13  x1=0x00000000
      356017000	     17699	800043ec	00038133	add	x2,x7,x0	  x7:0x00000000  x0:0x00000000  x2=0x00000000
      356037000	     17700	800043f0	87cd	c.srai	x15,0x13	 x15:0xfffffe13 x15=0xffffffff
      356057000	     17701	800043f2	1dfd	c.addi	x27,-1	 x27:0x00001000 x27=0x00000fff
      356077000	     17702	800043f4	0187ccb3	xor	x25,x15,x24	 x15:0xffffffff x24:0x00015000 x25=0xfffeafff
      356817000	     17739	800043f8	03805d33	divu	x26,x0,x24	  x0:0x00000000 x24:0x00015000 x26=0x00000000
      356837000	     17740	800043fc	40a6d1b3	sra	x3,x13,x10	 x13:0x80025ce4 x10:0xfffffe13  x3=0xfffff000
      356857000	     17741	80004400	41bad7b3	sra	x15,x21,x27	 x21:0x00000000 x27:0x00000fff x15=0x00000000
      356877000	     17742	80004404	b8c02ff3	csrrs	x31,mhpmcounter12h,x0	  x0:0x00000000 x31=0x00000000
      356897000	     17743	80004408	22542193	slti	x3,x8,549	  x8:0x000001ed  x3=0x00000001
      356977000	     17747	8000440c	8515	c.srai	x10,0x5	 x10:0xfffffe13 x10=0xfffffff0
      357137000	     17755	8000440e	00571193	slli	x3,x14,0x5	 x14:0x00000000  x3=0x00000000
      357157000	     17756	80004412	58fd	c.li	x17,-1	 x17=0xffffffff
      357557000	     17776	80004414	413d5d13	srai	x26,x26,0x13	 x26:0x00000000 x26=0x00000000
      357577000	     17777	80004418	7c107373	csrrci	x6,0x7c1,0	  x6=0x00000000
      357997000	     17798	8000441c	e405	c.bnez	x8,80004444	  x8:0x000001ed
      358357000	     17816	80004444	01505533	srl	x10,x0,x21	  x0:0x00000000 x21:0x00000000 x10=0x00000000
      358397000	     17818	80004448	0ff0000f	fence	iorw,iorw	
      358457000	     17821	8000444c	8c2d	c.xor	x8,x11	  x8:0x000001ed x11:0x80021e64  x8=0x80021f89
      358577000	     17827	8000444e	34271673	csrrw	x12,mcause,x14	 x14:0x00000000 x12=0x00000002
      358637000	     17830	80004452	8085	c.srli	x9,0x1	  x9:0x00b0c259  x9=0x0058612c
      358657000	     17831	80004454	0060a733	slt	x14,x1,x6	  x1:0x00000000  x6:0x00000000 x14=0x00000000
      358677000	     17832	80004458	32903f73	csrrc	x30,mhpmevent9,x0	  x0:0x00000000 x30=0x00000040
      358737000	     17835	8000445c	01f4d133	srl	x2,x9,x31	  x9:0x0058612c x31:0x00000000  x2=0x0058612c
      358757000	     17836	80004460	00bc1a93	slli	x21,x24,0xb	 x24:0x00015000 x21=0x0a800000
      358777000	     17837	80004464	4c81a613	slti	x12,x3,1224	  x3:0x00000000 x12=0x00000001
      358797000	     17838	80004468	7a0062f3	csrrsi	x5,tselect,0	  x5=0x00000000
      358877000	     17842	8000446c	0000100f	fence.i	
      359617000	     17879	80004470	ec19	c.bnez	x8,8000448e	  x8:0x80021f89
      360057000	     17901	8000448e	8d75	c.and	x10,x13	 x10:0x00000000 x13:0x80025ce4 x10=0x00000000
      360417000	     17919	80004490	04d30263	beq	x6,x13,800044d4	  x6:0x00000000 x13:0x80025ce4
      360477000	     17922	80004494	02e5c433	div	x8,x11,x14	 x11:0x80021e64 x14:0x00000000  x8=0xffffffff
      360497000	     17923	80004498	0000100f	fence.i	
      360917000	     17944	8000449c	00987933	and	x18,x16,x9	 x16:0xffffffff  x9:0x0058612c x18=0x0058612c
      360957000	     17946	800044a0	329d1373	csrrw	x6,mhpmevent9,x26	 x26:0x00000000  x6=0x00000040
      361157000	     17956	800044a4	000f40b3	xor	x1,x30,x0	 x30:0x00000040  x0:0x00000000  x1=0x00000040
      361897000	     17993	800044a8	030a5bb3	divu	x23,x20,x16	 x20:0x00000000 x16:0xffffffff x23=0x00000000
      361917000	     17994	800044ac	01552233	slt	x4,x10,x21	 x10:0x00000000 x21:0x0a800000  x4=0x00000001
      361937000	     17995	800044b0	010e02b3	add	x5,x28,x16	 x28:0x00000000 x16:0xffffffff  x5=0xffffffff
      361957000	     17996	800044b4	2c346093	ori	x1,x8,707	  x8:0xffffffff  x1=0xffffffff
      362097000	     18003	800044b8	008bc533	xor	x10,x23,x8	 x23:0x00000000  x8:0xffffffff x10=0xffffffff
      362117000	     18004	800044bc	22127213	andi	x4,x4,545	  x4:0x00000001  x4=0x00000001
      362297000	     18013	800044c0	40925513	srai	x10,x4,0x9	  x4:0x00000001 x10=0x00000000
      362317000	     18014	800044c4	0001	c.addi	x0,0	  x0:0x00000000  x0=0x00000000
      362337000	     18015	800044c6	b8629673	csrrw	x12,mhpmcounter6h,x5	  x5:0xffffffff x12=0x00000000
      362397000	     18018	800044ca	096a	c.slli	x18,0x1a	 x18:0x0058612c x18=0xb0000000
      363477000	     18072	800044cc	03e8dbb3	divu	x23,x17,x30	 x17:0xffffffff x30:0x00000040 x23=0x03ffffff
      363497000	     18073	800044d0	2b4a3537	lui	x10,0x2b4a3	 x10=0x2b4a3000
      363517000	     18074	800044d4	49b5	c.li	x19,13	 x19=0x0000000d
      363557000	     18076	800044d6	0217a533	mulhsu	x10,x15,x1	 x15:0x00000000  x1:0xffffffff x10=0x00000000
      363577000	     18077	800044da	1298	c.addi4spn	x14,x2,352	 x14=0x0058628c
      363617000	     18079	800044dc	02ae4db3	div	x27,x28,x10	 x28:0x00000000 x10:0x00000000 x27=0xffffffff
      363637000	     18080	800044e0	b0a79b73	csrrw	x22,mhpmcounter10,x15	 x15:0x00000000 x22=0x0000023d
      363697000	     18083	800044e4	0241cf63	blt	x3,x4,80004522	  x3:0x00000000  x4:0x00000001
      365197000	     18158	80004522	03224a63	blt	x4,x18,80004556	  x4:0x00000001 x18:0xb0000000
      365217000	     18159	80004526	6bed	c.lui	x23,0x1b	 x23=0x0001b000
      365617000	     18179	80004528	0ff0000f	fence	iorw,iorw	
      365737000	     18185	8000452c	034db433	mulhu	x8,x27,x20	 x27:0xffffffff x20:0x00000000  x8=0x00000000
      365777000	     18187	80004530	02371133	mulh	x2,x14,x3	 x14:0x0058628c  x3:0x00000000  x2=0x00000000
      365917000	     18194	80004534	014d48b3	xor	x17,x26,x20	 x26:0x00000000 x20:0x00000000 x17=0x00000000
      365937000	     18195	80004538	0680	c.addi4spn	x8,x2,832	  x8=0x00000340
      365957000	     18196	8000453a	325a6073	csrrsi	x0,mhpmevent5,20	  x0=0x00000000
      366017000	     18199	8000453e	4aa5	c.li	x21,9	 x21=0x00000009
      366197000	     18208	80004540	0001	c.addi	x0,0	  x0:0x00000000  x0=0x00000000
      366437000	     18220	80004542	84538193	addi	x3,x7,-1979	  x7:0x00000000  x3=0xfffff845
      366457000	     18221	80004546	0808	c.addi4spn	x10,x2,16	 x10=0x00000010
      366477000	     18222	80004548	57764093	xori	x1,x12,1399	 x12:0x00000000  x1=0x00000577
      366497000	     18223	8000454c	987d	c.andi	x8,-1	  x8:0x00000340  x8=0x00000340
      366597000	     18228	8000454e	012c9613	slli	x12,x25,0x12	 x25:0xfffeafff x12=0xbffc0000
      366617000	     18229	80004552	4755	c.li	x14,21	 x14=0x00000015
      366637000	     18230	80004554	88e1	c.andi	x9,24	  x9:0x0058612c  x9=0x00000008
      366657000	     18231	80004556	0411d063	bge	x3,x1,80004596	  x3:0xfffff845  x1:0x00000577
      366697000	     18233	8000455a	03ba1ab3	mulh	x21,x20,x27	 x20:0x00000000 x27:0xffffffff x21=0x00000000
      366717000	     18234	8000455e	8009	c.srli	x8,0x2	  x8:0x00000340  x8=0x000000d0
      366737000	     18235	80004560	032adf63	bge	x21,x18,8000459e	 x21:0x00000000 x18:0xb0000000
      368257000	     18311	8000459e	011e1313	slli	x6,x28,0x11	 x28:0x00000000  x6=0x00000000
      368277000	     18312	800045a2	01ca4eb3	xor	x29,x20,x28	 x20:0x00000000 x28:0x00000000 x29=0x00000000
      368417000	     18319	800045a6	329bd473	csrrwi	x8,mhpmevent9,23	  x8=0x00000040
      368477000	     18322	800045aa	e799	c.bnez	x15,800045b8	 x15:0x00000000
      368497000	     18323	800045ac	3b506ef3	csrrsi	x29,pmpaddr5,0	 x29=0x355561fe
      368557000	     18326	800045b0	300e3773	csrrc	x14,mstatus,x28	 x28:0x00000000 x14=0x00000080
      368617000	     18329	800045b4	03884d63	blt	x16,x24,800045ee	 x16:0xffffffff x24:0x00015000
      369237000	     18360	800045ee	411ed893	srai	x17,x29,0x11	 x29:0x355561fe x17=0x00001aaa
      369257000	     18361	800045f2	b2e7c997	auipc	x19,0xb2e7c	 x19=0x32e805f2
      369997000	     18398	800045f6	036e6e33	rem	x28,x28,x22	 x28:0x00000000 x22:0x0000023d x28=0x00000000
      370737000	     18435	800045fa	0323c333	div	x6,x7,x18	  x7:0x00000000 x18:0xb0000000  x6=0x00000000
      370757000	     18436	800045fe	003899b3	sll	x19,x17,x3	 x17:0x00001aaa  x3:0xfffff845 x19=0x00035540
      370777000	     18437	80004602	01453f33	sltu	x30,x10,x20	 x10:0x00000010 x20:0x00000000 x30=0x00000000
      370797000	     18438	80004606	8ff5	c.and	x15,x13	 x15:0x00000000 x13:0x80025ce4 x15=0x00000000
      370817000	     18439	80004608	8621	c.srai	x12,0x8	 x12:0xbffc0000 x12=0xffbffc00
      370857000	     18441	8000460a	0345f0b3	remu	x1,x11,x20	 x11:0x80021e64 x20:0x00000000  x1=0x80021e64
      370877000	     18442	8000460e	0ff0000f	fence	iorw,iorw	
      370977000	     18447	80004612	027aba33	mulhu	x20,x21,x7	 x21:0x00000000  x7:0x00000000 x20=0x00000000
      370997000	     18448	80004616	e588b113	sltiu	x2,x17,-424	 x17:0x00001aaa  x2=0x00000001
      371017000	     18449	8000461a	0391ce63	blt	x3,x25,80004656	  x3:0xfffff845 x25:0xfffeafff
      371137000	     18455	8000461e	01978d33	add	x26,x15,x25	 x15:0x00000000 x25:0xfffeafff x26=0xfffeafff
      371157000	     18456	80004622	8c35	c.xor	x8,x13	  x8:0x00000040 x13:0x80025ce4  x8=0x80025ca4
      371177000	     18457	80004624	032ac463	blt	x21,x18,8000464c	 x21:0x00000000 x18:0xb0000000
      371357000	     18466	80004628	0000100f	fence.i	
      372037000	     18500	8000462c	8d6d	c.and	x10,x11	 x10:0x00000010 x11:0x80021e64 x10=0x00000000
      372077000	     18502	8000462e	30081573	csrrw	x10,mstatus,x16	 x16:0xffffffff x10=0x00000080
      372137000	     18505	80004632	6149	c.addi16sp	x2,144	  x2:0x00000001  x2=0x00000091
      372157000	     18506	80004634	0f1e	c.slli	x30,0x7	 x30:0x00000000 x30=0x00000000
      372177000	     18507	80004636	0c25	c.addi	x24,9	 x24:0x00015000 x24=0x00015009
      372217000	     18509	80004638	cb99	c.beqz	x15,8000464e	 x15:0x00000000
      372957000	     18546	8000464e	01f0dcb3	srl	x25,x1,x31	  x1:0x80021e64 x31:0x00000000 x25=0x80021e64
      373077000	     18552	80004652	12ef2213	slti	x4,x30,302	 x30:0x00000000  x4=0x00000001
      373097000	     18553	80004656	9766	c.add	x14,x25	 x14:0x00000080 x25:0x80021e64 x14=0x80021ee4
      373157000	     18556	80004658	004f9793	slli	x15,x31,0x4	 x31:0x00000000 x15=0x00000000
      373177000	     18557	8000465c	0001	c.addi	x0,0	  x0:0x00000000  x0=0x00000000
      373917000	     18594	8000465e	037b7cb3	remu	x25,x22,x23	 x22:0x0000023d x23:0x0001b000 x25=0x0000023d
      393657000	     19581	80004662	b8a75bf3	csrrwi	x23,mhpmcounter10h,14	 x23=0x00000000
      393717000	     19584	80004666	b0502d73	csrrs	x26,mhpmcounter5,x0	  x0:0x00000000 x26=0x000000e0
      393737000	     19585	8000466a	30403f73	csrrc	x30,mie,x0	  x0:0x00000000 x30=0x00000000
      393757000	     19586	8000466e	8d49	c.or	x10,x10	 x10:0x00000080 x10:0x00000080 x10=0x00000080
      393777000	     19587	80004670	01521e63	bne	x4,x21,8000468c	  x4:0x00000001 x21:0x00000000
      394297000	     19613	8000468c	02636b63	bltu	x6,x6,800046c2	  x6:0x00000000  x6:0x00000000
      394337000	     19615	80004690	2dbffe13	andi	x28,x31,731	 x31:0x00000000 x28=0x00000000
      394357000	     19616	80004694	0ff0000f	fence	iorw,iorw	
      395097000	     19653	80004698	031eddb3	divu	x27,x29,x17	 x29:0x355561fe x17:0x00001aaa x27=0x0002000d
      395117000	     19654	8000469c	28d62413	slti	x8,x12,653	 x12:0xffbffc00  x8=0x00000001
      395137000	     19655	800046a0	98fd	c.andi	x9,-1	  x9:0x00000008  x9=0x00000008
      395157000	     19656	800046a2	ab178613	addi	x12,x15,-1359	 x15:0x00000000 x12=0xfffffab1
      395177000	     19657	800046a6	01b96d33	or	x26,x18,x27	 x18:0xb0000000 x27:0x0002000d x26=0xb002000d
      395197000	     19658	800046aa	01b26b33	or	x22,x4,x27	  x4:0x00000001 x27:0x0002000d x22=0x0002000d
      395437000	     19670	800046ae	87757f17	auipc	x30,0x87757	 x30=0x0775b6ae
      395857000	     19691	800046b2	b05f9073	csrrw	x0,mhpmcounter5,x31	 x31:0x00000000  x0=0x00000000
      396277000	     19712	800046b6	025e5b63	bge	x28,x5,800046ec	 x28:0x00000000  x5:0xffffffff
      396817000	     19739	800046ec	27590613	addi	x12,x18,629	 x18:0xb0000000 x12=0xb0000275
      397057000	     19751	800046f0	304068f3	csrrsi	x17,mie,0	 x17=0x00000000
      397077000	     19752	800046f4	c021	c.beqz	x8,80004734	  x8:0x00000001
      397097000	     19753	800046f6	84e5	c.srai	x9,0x19	  x9:0x00000008  x9=0x00000000
      397117000	     19754	800046f8	0474c363	blt	x9,x7,8000473e	  x9:0x00000000  x7:0x00000000
      397157000	     19756	800046fc	0363b933	mulhu	x18,x7,x22	  x7:0x00000000 x22:0x0002000d x18=0x00000000
      397177000	     19757	80004700	01f4c633	xor	x12,x9,x31	  x9:0x00000000 x31:0x00000000 x12=0x00000000
      397197000	     19758	80004704	34303973	csrrc	x18,mtval,x0	  x0:0x00000000 x18=0xf15c10f3
      397217000	     19759	80004708	415cd733	sra	x14,x25,x21	 x25:0x0000023d x21:0x00000000 x14=0x0000023d
      397637000	     19780	8000470c	db8d2113	slti	x2,x26,-584	 x26:0xb002000d  x2=0x00000001
      398057000	     19801	80004710	9737b013	sltiu	x0,x15,-1677	 x15:0x00000000  x0=0x00000000
      398077000	     19802	80004714	00ef1a93	slli	x21,x30,0xe	 x30:0x0775b6ae x21=0x6dab8000
      398097000	     19803	80004718	98fd	c.andi	x9,-1	  x9:0x00000000  x9=0x00000000
      398117000	     19804	8000471a	007f0a33	add	x20,x30,x7	 x30:0x0775b6ae  x7:0x00000000 x20=0x0775b6ae
      398137000	     19805	8000471e	ebb5ed93	ori	x27,x11,-325	 x11:0x80021e64 x27=0xfffffeff
      398157000	     19806	80004722	00549f93	slli	x31,x9,0x5	  x9:0x00000000 x31=0x00000000
      398457000	     19821	80004726	5150bc13	sltiu	x24,x1,1301	  x1:0x80021e64 x24=0x00000000
      398657000	     19831	8000472a	02141b33	mulh	x22,x8,x1	  x8:0x00000001  x1:0x80021e64 x22=0xffffffff
      398677000	     19832	8000472e	3b503cf3	csrrc	x25,pmpaddr5,x0	  x0:0x00000000 x25=0x355561fe
      398697000	     19833	80004732	8fc1	c.or	x15,x8	 x15:0x00000000  x8:0x00000001 x15=0x00000001
      399677000	     19882	80004734	0258d1b3	divu	x3,x17,x5	 x17:0x00000000  x5:0xffffffff  x3=0x00000000
      399697000	     19883	80004738	8d31	c.xor	x10,x12	 x10:0x00000080 x12:0x00000000 x10=0x00000080
      399737000	     19885	8000473a	0200e633	rem	x12,x1,x0	  x1:0x80021e64  x0:0x00000000 x12=0x80021e64
      399757000	     19886	8000473e	00a690b3	sll	x1,x13,x10	 x13:0x80025ce4 x10:0x00000080  x1=0x80025ce4
      399777000	     19887	80004742	8ca5	c.xor	x9,x9	  x9:0x00000000  x9:0x00000000  x9=0x00000000
      399797000	     19888	80004744	8e29	c.xor	x12,x10	 x12:0x80021e64 x10:0x00000080 x12=0x80021ee4
      399817000	     19889	80004746	6522fe93	andi	x29,x5,1618	  x5:0xffffffff x29=0x00000652
      399837000	     19890	8000474a	b84a1e73	csrrw	x28,mhpmcounter4h,x20	 x20:0x0775b6ae x28=0x00000000
      399917000	     19894	8000474e	03b21fb3	mulh	x31,x4,x27	  x4:0x00000001 x27:0xfffffeff x31=0xffffffff
      399937000	     19895	80004752	0bc6	c.slli	x23,0x11	 x23:0x00000000 x23=0x00000000
      399957000	     19896	80004754	ef15	c.bnez	x14,80004790	 x14:0x0000023d
      400297000	     19913	80004790	02ca8a33	mul	x20,x21,x12	 x21:0x6dab8000 x12:0x80021ee4 x20=0xc5be0000
      400337000	     19915	80004794	038a2a33	mulhsu	x20,x20,x24	 x20:0xc5be0000 x24:0x00000000 x20=0x00000000
      400517000	     19924	80004798	0305b9b3	mulhu	x19,x11,x16	 x11:0x80021e64 x16:0xffffffff x19=0x80021e63
      400537000	     19925	8000479c	03889563	bne	x17,x24,800047c6	 x17:0x00000000 x24:0x00000000
      400937000	     19945	800047a0	01b47f63	bgeu	x8,x27,800047be	  x8:0x00000001 x27:0xfffffeff
      401057000	     19951	800047a4	55bb2893	slti	x17,x22,1371	 x22:0xffffffff x17=0x00000001
      401077000	     19952	800047a8	674d	c.lui	x14,0x13	 x14=0x00013000
      401097000	     19953	800047aa	8c01	c.sub	x8,x8	  x8:0x00000001  x8:0x00000001  x8=0x00000000
      401117000	     19954	800047ac	030daf97	auipc	x31,0x30da	 x31=0x830de7ac
      401137000	     19955	800047b0	342d1273	csrrw	x4,mcause,x26	 x26:0xb002000d  x4=0x00000000
      401197000	     19958	800047b4	717d	c.addi16sp	x2,-16	  x2:0x00000001  x2=0xfffffff1
      401217000	     19959	800047b6	011c2b33	slt	x22,x24,x17	 x24:0x00000000 x17:0x00000001 x22=0x00000001
      401457000	     19971	800047ba	7b207c73	csrrci	x0,dscratch,0	  x0=0x00000000
      402257000	     20011	80002500	0800006f	jal	x0,80002580	  x0=0x00000000
      402377000	     20017	80002580	16f1	c.addi	x13,-4	 x13:0x80025ce4 x13=0x80025ce0
      402437000	     20020	80002582	c28c	c.sw	x11,0(x13)	 x13:0x80025ce0 x11:0x80021e64 PA:0x80025ce0 store:0x80021e64 load:0xffffffff
      402457000	     20021	80002584	000685b3	add	x11,x13,x0	 x13:0x80025ce0  x0:0x00000000 x11=0x80025ce0
      402477000	     20022	80002588	f8058593	addi	x11,x11,-128	 x11:0x80025ce0 x11=0x80025c60
      402537000	     20025	8000258c	0015a223	sw	x1,4(x11)	 x11:0x80025c60  x1:0x80025ce4 PA:0x80025c64 store:0x80025ce4 load:0xffffffff
      402777000	     20037	80002590	0025a423	sw	x2,8(x11)	 x11:0x80025c60  x2:0xfffffff1 PA:0x80025c68 store:0xfffffff1 load:0xffffffff
      402877000	     20042	80002594	0035a623	sw	x3,12(x11)	 x11:0x80025c60  x3:0x00000000 PA:0x80025c6c store:0x00000000 load:0xffffffff
      403517000	     20074	80002598	0045a823	sw	x4,16(x11)	 x11:0x80025c60  x4:0x00000000 PA:0x80025c70 store:0x00000000 load:0xffffffff
      403897000	     20093	8000259c	0055aa23	sw	x5,20(x11)	 x11:0x80025c60  x5:0xffffffff PA:0x80025c74 store:0xffffffff load:0xffffffff
      404357000	     20116	800025a0	0065ac23	sw	x6,24(x11)	 x11:0x80025c60  x6:0x00000000 PA:0x80025c78 store:0x00000000 load:0xffffffff
      404517000	     20124	800025a4	0075ae23	sw	x7,28(x11)	 x11:0x80025c60  x7:0x00000000 PA:0x80025c7c store:0x00000000 load:0xffffffff
      404577000	     20127	800025a8	d180	c.sw	x8,32(x11)	 x11:0x80025c60  x8:0x00000000 PA:0x80025c80 store:0x00000000 load:0xffffffff
      404797000	     20138	800025aa	d1c4	c.sw	x9,36(x11)	 x11:0x80025c60  x9:0x00000000 PA:0x80025c84 store:0x00000000 load:0xffffffff
      405097000	     20153	800025ac	d588	c.sw	x10,40(x11)	 x11:0x80025c60 x10:0x00000080 PA:0x80025c88 store:0x00000080 load:0xffffffff
      405457000	     20171	800025ae	d5cc	c.sw	x11,44(x11)	 x11:0x80025c60 x11:0x80025c60 PA:0x80025c8c store:0x80025c60 load:0xffffffff
      405517000	     20174	800025b0	d990	c.sw	x12,48(x11)	 x11:0x80025c60 x12:0x80021ee4 PA:0x80025c90 store:0x80021ee4 load:0xffffffff
      405577000	     20177	800025b2	d9d4	c.sw	x13,52(x11)	 x11:0x80025c60 x13:0x80025ce0 PA:0x80025c94 store:0x80025ce0 load:0xffffffff
      405657000	     20181	800025b4	dd98	c.sw	x14,56(x11)	 x11:0x80025c60 x14:0x00013000 PA:0x80025c98 store:0x00013000 load:0xffffffff
      405677000	     20182	800025b6	dddc	c.sw	x15,60(x11)	 x11:0x80025c60 x15:0x00000001 PA:0x80025c9c store:0x00000001 load:0xffffffff
      406117000	     20204	800025b8	0505a023	sw	x16,64(x11)	 x11:0x80025c60 x16:0xffffffff PA:0x80025ca0 store:0xffffffff load:0xffffffff
      406277000	     20212	800025bc	0515a223	sw	x17,68(x11)	 x11:0x80025c60 x17:0x00000001 PA:0x80025ca4 store:0x00000001 load:0xffffffff
      406617000	     20229	800025c0	0525a423	sw	x18,72(x11)	 x11:0x80025c60 x18:0xf15c10f3 PA:0x80025ca8 store:0xf15c10f3 load:0xffffffff
      407077000	     20252	800025c4	0535a623	sw	x19,76(x11)	 x11:0x80025c60 x19:0x80021e63 PA:0x80025cac store:0x80021e63 load:0xffffffff
      407137000	     20255	800025c8	0545a823	sw	x20,80(x11)	 x11:0x80025c60 x20:0x00000000 PA:0x80025cb0 store:0x00000000 load:0xffffffff
      407157000	     20256	800025cc	0555aa23	sw	x21,84(x11)	 x11:0x80025c60 x21:0x6dab8000 PA:0x80025cb4 store:0x6dab8000 load:0xffffffff
      407257000	     20261	800025d0	0565ac23	sw	x22,88(x11)	 x11:0x80025c60 x22:0x00000001 PA:0x80025cb8 store:0x00000001 load:0xffffffff
      407517000	     20274	800025d4	0575ae23	sw	x23,92(x11)	 x11:0x80025c60 x23:0x00000000 PA:0x80025cbc store:0x00000000 load:0xffffffff
      407537000	     20275	800025d8	0785a023	sw	x24,96(x11)	 x11:0x80025c60 x24:0x00000000 PA:0x80025cc0 store:0x00000000 load:0xffffffff
      407697000	     20283	800025dc	0795a223	sw	x25,100(x11)	 x11:0x80025c60 x25:0x355561fe PA:0x80025cc4 store:0x355561fe load:0xffffffff
      407757000	     20286	800025e0	07a5a423	sw	x26,104(x11)	 x11:0x80025c60 x26:0xb002000d PA:0x80025cc8 store:0xb002000d load:0xffffffff
      407837000	     20290	800025e4	07b5a623	sw	x27,108(x11)	 x11:0x80025c60 x27:0xfffffeff PA:0x80025ccc store:0xfffffeff load:0xffffffff
      407897000	     20293	800025e8	07c5a823	sw	x28,112(x11)	 x11:0x80025c60 x28:0x00000000 PA:0x80025cd0 store:0x00000000 load:0xffffffff
      408317000	     20314	800025ec	07d5aa23	sw	x29,116(x11)	 x11:0x80025c60 x29:0x00000652 PA:0x80025cd4 store:0x00000652 load:0xffffffff
      408557000	     20326	800025f0	07e5ac23	sw	x30,120(x11)	 x11:0x80025c60 x30:0x0775b6ae PA:0x80025cd8 store:0x0775b6ae load:0xffffffff
      408597000	     20328	800025f4	07f5ae23	sw	x31,124(x11)	 x11:0x80025c60 x31:0x830de7ac PA:0x80025cdc store:0x830de7ac load:0xffffffff
      408617000	     20329	800025f8	000586b3	add	x13,x11,x0	 x11:0x80025c60  x0:0x00000000 x13=0x80025c60
      408637000	     20330	800025fc	90000db7	lui	x27,0x90000	 x27=0x90000000
      408657000	     20331	80002600	1df1	c.addi	x27,-4	 x27:0x90000000 x27=0x8ffffffc
      408677000	     20332	80002602	4921	c.li	x18,8	 x18=0x00000008
      408697000	     20333	80002604	0922	c.slli	x18,0x8	 x18:0x00000008 x18=0x00000800
      408717000	     20334	80002606	00090913	addi	x18,x18,0	 x18:0x00000800 x18=0x00000800
      408977000	     20347	8000260a	012da023	sw	x18,0(x27)	 x27:0x8ffffffc x18:0x00000800 PA:0x8ffffffc store:0x00000800 load:0xffffffff
      408997000	     20348	8000260e	34102973	csrrs	x18,mepc,x0	  x0:0x00000000 x18=0x800047ba
      409017000	     20349	80002612	34202973	csrrs	x18,mcause,x0	  x0:0x00000000 x18=0x00000002
      409037000	     20350	80002616	4d8d	c.li	x27,3	 x27=0x00000003
      409057000	     20351	80002618	01b91463	bne	x18,x27,80002620	 x18:0x00000002 x27:0x00000003
      409917000	     20394	80002620	4da1	c.li	x27,8	 x27=0x00000008
      409997000	     20398	80002622	05b90d63	beq	x18,x27,8000267c	 x18:0x00000002 x27:0x00000008
      410017000	     20399	80002626	4da5	c.li	x27,9	 x27=0x00000009
      410037000	     20400	80002628	05b90a63	beq	x18,x27,8000267c	 x18:0x00000002 x27:0x00000009
      410057000	     20401	8000262c	4dad	c.li	x27,11	 x27=0x0000000b
      410077000	     20402	8000262e	05b90763	beq	x18,x27,8000267c	 x18:0x00000002 x27:0x0000000b
      410097000	     20403	80002632	4d85	c.li	x27,1	 x27=0x00000001
      410477000	     20422	80002634	35b90363	beq	x18,x27,8000297a	 x18:0x00000002 x27:0x00000001
      410497000	     20423	80002638	4d95	c.li	x27,5	 x27=0x00000005
      410637000	     20430	8000263a	63b90963	beq	x18,x27,80002c6c	 x18:0x00000002 x27:0x00000005
      410657000	     20431	8000263e	4d9d	c.li	x27,7	 x27=0x00000007
      410677000	     20432	80002640	15b90ae3	beq	x18,x27,80002f94	 x18:0x00000002 x27:0x00000007
      410697000	     20433	80002644	4db1	c.li	x27,12	 x27=0x0000000c
      410737000	     20435	80002646	01b91463	bne	x18,x27,8000264e	 x18:0x00000002 x27:0x0000000c
      411377000	     20467	8000264e	4db5	c.li	x27,13	 x27=0x0000000d
      411557000	     20476	80002650	01b91463	bne	x18,x27,80002658	 x18:0x00000002 x27:0x0000000d
      411737000	     20485	80002658	4dbd	c.li	x27,15	 x27=0x0000000f
      411857000	     20491	8000265a	01b91463	bne	x18,x27,80002662	 x18:0x00000002 x27:0x0000000f
      412357000	     20516	80002662	4d89	c.li	x27,2	 x27=0x00000002
      412377000	     20517	80002664	01b91463	bne	x18,x27,8000266c	 x18:0x00000002 x27:0x00000002
      412477000	     20522	80002668	45c0906f	jal	x0,8000bac4	  x0=0x00000000
      413077000	     20552	8000bac4	90000db7	lui	x27,0x90000	 x27=0x90000000
      413117000	     20554	8000bac8	1df1	c.addi	x27,-4	 x27:0x90000000 x27=0x8ffffffc
      413137000	     20555	8000baca	4929	c.li	x18,10	 x18=0x0000000a
      413157000	     20556	8000bacc	0922	c.slli	x18,0x8	 x18:0x0000000a x18=0x00000a00
      413317000	     20564	8000bace	00090913	addi	x18,x18,0	 x18:0x00000a00 x18=0x00000a00
      413377000	     20567	8000bad2	012da023	sw	x18,0(x27)	 x27:0x8ffffffc x18:0x00000a00 PA:0x8ffffffc store:0x00000a00 load:0xffffffff
      413757000	     20586	8000bad6	90000db7	lui	x27,0x90000	 x27=0x90000000
      413777000	     20587	8000bada	1df1	c.addi	x27,-4	 x27:0x90000000 x27=0x8ffffffc
      413957000	     20596	8000badc	34200913	addi	x18,x0,834	  x0:0x00000000 x18=0x00000342
      414217000	     20609	8000bae0	0922	c.slli	x18,0x8	 x18:0x00000342 x18=0x00034200
      414237000	     20610	8000bae2	090d	c.addi	x18,3	 x18:0x00034200 x18=0x00034203
      414597000	     20628	8000bae4	012da023	sw	x18,0(x27)	 x27:0x8ffffffc x18:0x00034203 PA:0x8ffffffc store:0x00034203 load:0xffffffff
      414617000	     20629	8000bae8	34202973	csrrs	x18,mcause,x0	  x0:0x00000000 x18=0x00000002
      414637000	     20630	8000baec	012da023	sw	x18,0(x27)	 x27:0x8ffffffc x18:0x00000002 PA:0x8ffffffc store:0x00000002 load:0xffffffff
      414657000	     20631	8000baf0	34102973	csrrs	x18,mepc,x0	  x0:0x00000000 x18=0x800047ba
      414677000	     20632	8000baf4	0911	c.addi	x18,4	 x18:0x800047ba x18=0x800047be
      415057000	     20651	8000baf6	34191073	csrrw	x0,mepc,x18	 x18:0x800047be  x0=0x00000000
      415077000	     20652	8000bafa	000685b3	add	x11,x13,x0	 x13:0x80025c60  x0:0x00000000 x11=0x80025c60
      415137000	     20655	8000bafe	0045a083	lw	x1,4(x11)	 x11:0x80025c60  x1=0x80025ce4 PA:0x80025c64 load:0x80025ce4
      415477000	     20672	8000bb02	0085a103	lw	x2,8(x11)	 x11:0x80025c60  x2=0xfffffff1 PA:0x80025c68 load:0xfffffff1
      415597000	     20678	8000bb06	00c5a183	lw	x3,12(x11)	 x11:0x80025c60  x3=0x00000000 PA:0x80025c6c load:0x00000000
      415957000	     20696	8000bb0a	0105a203	lw	x4,16(x11)	 x11:0x80025c60  x4=0x00000000 PA:0x80025c70 load:0x00000000
      416377000	     20717	8000bb0e	0145a283	lw	x5,20(x11)	 x11:0x80025c60  x5=0xffffffff PA:0x80025c74 load:0xffffffff
      416497000	     20723	8000bb12	0185a303	lw	x6,24(x11)	 x11:0x80025c60  x6=0x00000000 PA:0x80025c78 load:0x00000000
      416557000	     20726	8000bb16	01c5a383	lw	x7,28(x11)	 x11:0x80025c60  x7=0x00000000 PA:0x80025c7c load:0x00000000
      416837000	     20740	8000bb1a	5180	c.lw	x8,32(x11)	 x11:0x80025c60  x8=0x00000000 PA:0x80025c80 load:0x00000000
      416897000	     20743	8000bb1c	51c4	c.lw	x9,36(x11)	 x11:0x80025c60  x9=0x00000000 PA:0x80025c84 load:0x00000000
      417317000	     20764	8000bb1e	5588	c.lw	x10,40(x11)	 x11:0x80025c60 x10=0x00000080 PA:0x80025c88 load:0x00000080
      417777000	     20787	8000bb20	55cc	c.lw	x11,44(x11)	 x11:0x80025c60 x11=0x80025c60 PA:0x80025c8c load:0x80025c60
      418037000	     20800	8000bb22	5990	c.lw	x12,48(x11)	 x11:0x80025c60 x12=0x80021ee4 PA:0x80025c90 load:0x80021ee4
      418097000	     20803	8000bb24	59d4	c.lw	x13,52(x11)	 x11:0x80025c60 x13=0x80025ce0 PA:0x80025c94 load:0x80025ce0
      418437000	     20820	8000bb26	5d98	c.lw	x14,56(x11)	 x11:0x80025c60 x14=0x00013000 PA:0x80025c98 load:0x00013000
      418497000	     20823	8000bb28	5ddc	c.lw	x15,60(x11)	 x11:0x80025c60 x15=0x00000001 PA:0x80025c9c load:0x00000001
      418637000	     20830	8000bb2a	0405a803	lw	x16,64(x11)	 x11:0x80025c60 x16=0xffffffff PA:0x80025ca0 load:0xffffffff
      418877000	     20842	8000bb2e	0445a883	lw	x17,68(x11)	 x11:0x80025c60 x17=0x00000001 PA:0x80025ca4 load:0x00000001
      418937000	     20845	8000bb32	0485a903	lw	x18,72(x11)	 x11:0x80025c60 x18=0xf15c10f3 PA:0x80025ca8 load:0xf15c10f3
      419157000	     20856	8000bb36	04c5a983	lw	x19,76(x11)	 x11:0x80025c60 x19=0x80021e63 PA:0x80025cac load:0x80021e63
      419277000	     20862	8000bb3a	0505aa03	lw	x20,80(x11)	 x11:0x80025c60 x20=0x00000000 PA:0x80025cb0 load:0x00000000
      419337000	     20865	8000bb3e	0545aa83	lw	x21,84(x11)	 x11:0x80025c60 x21=0x6dab8000 PA:0x80025cb4 load:0x6dab8000
      419357000	     20866	8000bb42	0585ab03	lw	x22,88(x11)	 x11:0x80025c60 x22=0x00000001 PA:0x80025cb8 load:0x00000001
      419377000	     20867	8000bb46	05c5ab83	lw	x23,92(x11)	 x11:0x80025c60 x23=0x00000000 PA:0x80025cbc load:0x00000000
      419777000	     20887	8000bb4a	0605ac03	lw	x24,96(x11)	 x11:0x80025c60 x24=0x00000000 PA:0x80025cc0 load:0x00000000
      419957000	     20896	8000bb4e	0645ac83	lw	x25,100(x11)	 x11:0x80025c60 x25=0x355561fe PA:0x80025cc4 load:0x355561fe
      420397000	     20918	8000bb52	0685ad03	lw	x26,104(x11)	 x11:0x80025c60 x26=0xb002000d PA:0x80025cc8 load:0xb002000d
      420457000	     20921	8000bb56	06c5ad83	lw	x27,108(x11)	 x11:0x80025c60 x27=0xfffffeff PA:0x80025ccc load:0xfffffeff
      420617000	     20929	8000bb5a	0705ae03	lw	x28,112(x11)	 x11:0x80025c60 x28=0x00000000 PA:0x80025cd0 load:0x00000000
      420777000	     20937	8000bb5e	0745ae83	lw	x29,116(x11)	 x11:0x80025c60 x29=0x00000652 PA:0x80025cd4 load:0x00000652
      421097000	     20953	8000bb62	0785af03	lw	x30,120(x11)	 x11:0x80025c60 x30=0x0775b6ae PA:0x80025cd8 load:0x0775b6ae
      421157000	     20956	8000bb66	07c5af83	lw	x31,124(x11)	 x11:0x80025c60 x31=0x830de7ac PA:0x80025cdc load:0x830de7ac
      421177000	     20957	8000bb6a	08058593	addi	x11,x11,128	 x11:0x80025c60 x11=0x80025ce0
      421197000	     20958	8000bb6e	000586b3	add	x13,x11,x0	 x11:0x80025ce0  x0:0x00000000 x13=0x80025ce0
      421437000	     20970	8000bb72	428c	c.lw	x11,0(x13)	 x13:0x80025ce0 x11=0x80021e64 PA:0x80025ce0 load:0x80021e64
      421457000	     20971	8000bb74	0691	c.addi	x13,4	 x13:0x80025ce0 x13=0x80025ce4
      421477000	     20972	8000bb76	30200073	mret	
      421557000	     20976	800047be	0234e463	bltu	x9,x3,800047e6	  x9:0x00000000  x3:0x00000000
      422297000	     21013	800047c2	02ade2b3	rem	x5,x27,x10	 x27:0xfffffeff x10:0x00000080  x5=0xffffffff
      422317000	     21014	800047c6	8c9d	c.sub	x9,x15	  x9:0x00000000 x15:0x00000001  x9=0xffffffff
      422337000	     21015	800047c8	cc15	c.beqz	x8,80004804	  x8:0x00000000
      422497000	     21023	80004804	4088d293	srai	x5,x17,0x8	 x17:0x00000001  x5=0x00000000
      422937000	     21045	80004808	323ed173	csrrwi	x2,mhpmevent3,29	  x2=0x00000001
      422997000	     21048	8000480c	018f9b93	slli	x23,x31,0x18	 x31:0x830de7ac x23=0xac000000
      423017000	     21049	80004810	8c99	c.sub	x9,x14	  x9:0xffffffff x14:0x00013000  x9=0xfffecfff
      423037000	     21050	80004812	0001	c.addi	x0,0	  x0:0x00000000  x0=0x00000000
      423337000	     21065	80004814	1184	c.addi4spn	x9,x2,224	  x9=0x000000e1
      423357000	     21066	80004816	089e	c.slli	x17,0x7	 x17:0x00000001 x17=0x00000080
      423377000	     21067	80004818	b06cdff3	csrrwi	x31,mhpmcounter6,25	 x31=0x00000125
      423437000	     21070	8000481c	00b9f763	bgeu	x19,x11,8000482a	 x19:0x80021e63 x11:0x80021e64
      423797000	     21088	80004820	01ebf0b3	and	x1,x23,x30	 x23:0xac000000 x30:0x0775b6ae  x1=0x04000000
      423817000	     21089	80004824	c2bb3413	sltiu	x8,x22,-981	 x22:0x00000001  x8=0x00000001
      424117000	     21104	80004828	0001	c.addi	x0,0	  x0:0x00000000  x0=0x00000000
      424137000	     21105	8000482a	ea11	c.bnez	x12,8000483e	 x12:0x80021ee4
      424817000	     21139	8000483e	7c1f98f3	csrrw	x17,0x7c1,x31	 x31:0x00000125 x17=0x00000000
      425237000	     21160	80004842	1a3c5e97	auipc	x29,0x1a3c5	 x29=0x9a3c9842
      425657000	     21181	80004846	b88c99f3	csrrw	x19,mhpmcounter8h,x25	 x25:0x355561fe x19=0x00000000
      425837000	     21190	8000484a	02494033	div	x0,x18,x4	 x18:0xf15c10f3  x4:0x00000000  x0=0x00000000
      425857000	     21191	8000484e	327079f3	csrrci	x19,mhpmevent7,0	 x19=0x00000010
      425877000	     21192	80004852	9466	c.add	x8,x25	  x8:0x00000001 x25:0x355561fe  x8=0x355561ff
      425897000	     21193	80004854	149c	c.addi4spn	x15,x2,608	 x15=0x00000261
      425917000	     21194	80004856	001fd233	srl	x4,x31,x1	 x31:0x00000125  x1:0x04000000  x4=0x00000125
      426157000	     21206	8000485a	03c0ddb3	divu	x27,x1,x28	  x1:0x04000000 x28:0x00000000 x27=0xffffffff
      426177000	     21207	8000485e	01e14b33	xor	x22,x2,x30	  x2:0x00000001 x30:0x0775b6ae x22=0x0775b6af
      426217000	     21209	80004862	0275cf33	div	x30,x11,x7	 x11:0x80021e64  x7:0x00000000 x30=0xffffffff
      426237000	     21210	80004866	0001	c.addi	x0,0	  x0:0x00000000  x0=0x00000000
      426257000	     21211	80004868	01cea533	slt	x10,x29,x28	 x29:0x9a3c9842 x28:0x00000000 x10=0x00000001
      426477000	     21222	8000486c	8cf1	c.and	x9,x12	  x9:0x000000e1 x12:0x80021ee4  x9=0x000000e0
      426857000	     21241	8000486e	b8b03ef3	csrrc	x29,mhpmcounter11h,x0	  x0:0x00000000 x29=0x00000000
      426877000	     21242	80004872	01a26ab3	or	x21,x4,x26	  x4:0x00000125 x26:0xb002000d x21=0xb002012d
      426897000	     21243	80004876	8fb1	c.xor	x15,x12	 x15:0x00000261 x12:0x80021ee4 x15=0x80021c85
      426917000	     21244	80004878	30106e73	csrrsi	x28,misa,0	 x28=0x40901104
      426937000	     21245	8000487c	f7e2c813	xori	x16,x5,-130	  x5:0x00000000 x16=0xffffff7e
      426957000	     21246	80004880	3b306673	csrrsi	x12,pmpaddr3,0	 x12=0x2cccd975
      426977000	     21247	80004884	697d	c.lui	x18,0x1f	 x18=0x0001f000
      427897000	     21293	80004886	0322c733	div	x14,x5,x18	  x5:0x00000000 x18:0x0001f000 x14=0x00000000
      427917000	     21294	8000488a	01aa5613	srli	x12,x20,0x1a	 x20:0x00000000 x12=0x00000000
      427937000	     21295	8000488e	01df9e93	slli	x29,x31,0x1d	 x31:0x00000125 x29=0xa0000000
      427957000	     21296	80004892	0185c133	xor	x2,x11,x24	 x11:0x80021e64 x24:0x00000000  x2=0x80021e64
      427997000	     21298	80004896	02c4a633	mulhsu	x12,x9,x12	  x9:0x000000e0 x12:0x00000000 x12=0x00000000
      428017000	     21299	8000489a	00c392b3	sll	x5,x7,x12	  x7:0x00000000 x12:0x00000000  x5=0x00000000
      428057000	     21301	8000489e	03f93c33	mulhu	x24,x18,x31	 x18:0x0001f000 x31:0x00000125 x24=0x00000000
      473657000	     23581	800048a2	342d19f3	csrrw	x19,mcause,x26	 x26:0xb002000d x19=0x00000002
      473717000	     23584	800048a6	01a35b13	srli	x22,x6,0x1a	  x6:0x00000000 x22=0x00000000
      473737000	     23585	800048aa	8cbd	c.xor	x9,x15	  x9:0x000000e0 x15:0x80021c85  x9=0x80021c65
      473757000	     23586	800048ac	0de2	c.slli	x27,0x18	 x27:0xffffffff x27=0xff000000
      473777000	     23587	800048ae	017e1433	sll	x8,x28,x23	 x28:0x40901104 x23:0xac000000  x8=0x40901104
      473797000	     23588	800048b2	01bbeab3	or	x21,x23,x27	 x23:0xac000000 x27:0xff000000 x21=0xff000000
      473817000	     23589	800048b6	84ad	c.srai	x9,0xb	  x9:0x80021c65  x9=0xfff00043
      473837000	     23590	800048b8	8d65	c.and	x10,x9	 x10:0x00000001  x9:0xfff00043 x10=0x00000001
      473857000	     23591	800048ba	83cd	c.srli	x15,0x13	 x15:0x80021c85 x15=0x00001000
      474197000	     23608	800048bc	0088d0b3	srl	x1,x17,x8	 x17:0x00000000  x8:0x40901104  x1=0x00000000
      474217000	     23609	800048c0	016549b3	xor	x19,x10,x22	 x10:0x00000001 x22:0x00000000 x19=0x00000001
      474237000	     23610	800048c4	01b501b3	add	x3,x10,x27	 x10:0x00000001 x27:0xff000000  x3=0xff000001
      474357000	     23616	800048c8	7b3074f3	csrrci	x0,0x7b3,0	  x0=0x00000000
      474417000	     23619	80002500	0800006f	jal	x0,80002580	  x0=0x00000000
      474477000	     23622	80002580	16f1	c.addi	x13,-4	 x13:0x80025ce4 x13=0x80025ce0
      474617000	     23629	80002582	c28c	c.sw	x11,0(x13)	 x13:0x80025ce0 x11:0x80021e64 PA:0x80025ce0 store:0x80021e64 load:0xffffffff
      474637000	     23630	80002584	000685b3	add	x11,x13,x0	 x13:0x80025ce0  x0:0x00000000 x11=0x80025ce0
      474657000	     23631	80002588	f8058593	addi	x11,x11,-128	 x11:0x80025ce0 x11=0x80025c60
      474777000	     23637	8000258c	0015a223	sw	x1,4(x11)	 x11:0x80025c60  x1:0x00000000 PA:0x80025c64 store:0x00000000 load:0xffffffff
      474937000	     23645	80002590	0025a423	sw	x2,8(x11)	 x11:0x80025c60  x2:0x80021e64 PA:0x80025c68 store:0x80021e64 load:0xffffffff
      475037000	     23650	80002594	0035a623	sw	x3,12(x11)	 x11:0x80025c60  x3:0xff000001 PA:0x80025c6c store:0xff000001 load:0xffffffff
      475097000	     23653	80002598	0045a823	sw	x4,16(x11)	 x11:0x80025c60  x4:0x00000125 PA:0x80025c70 store:0x00000125 load:0xffffffff
      475117000	     23654	8000259c	0055aa23	sw	x5,20(x11)	 x11:0x80025c60  x5:0x00000000 PA:0x80025c74 store:0x00000000 load:0xffffffff
      475377000	     23667	800025a0	0065ac23	sw	x6,24(x11)	 x11:0x80025c60  x6:0x00000000 PA:0x80025c78 store:0x00000000 load:0xffffffff
      475477000	     23672	800025a4	0075ae23	sw	x7,28(x11)	 x11:0x80025c60  x7:0x00000000 PA:0x80025c7c store:0x00000000 load:0xffffffff
      475537000	     23675	800025a8	d180	c.sw	x8,32(x11)	 x11:0x80025c60  x8:0x40901104 PA:0x80025c80 store:0x40901104 load:0xffffffff
      475557000	     23676	800025aa	d1c4	c.sw	x9,36(x11)	 x11:0x80025c60  x9:0xfff00043 PA:0x80025c84 store:0xfff00043 load:0xffffffff
      475977000	     23697	800025ac	d588	c.sw	x10,40(x11)	 x11:0x80025c60 x10:0x00000001 PA:0x80025c88 store:0x00000001 load:0xffffffff
      476037000	     23700	800025ae	d5cc	c.sw	x11,44(x11)	 x11:0x80025c60 x11:0x80025c60 PA:0x80025c8c store:0x80025c60 load:0xffffffff
      476197000	     23708	800025b0	d990	c.sw	x12,48(x11)	 x11:0x80025c60 x12:0x00000000 PA:0x80025c90 store:0x00000000 load:0xffffffff
      476277000	     23712	800025b2	d9d4	c.sw	x13,52(x11)	 x11:0x80025c60 x13:0x80025ce0 PA:0x80025c94 store:0x80025ce0 load:0xffffffff
      476357000	     23716	800025b4	dd98	c.sw	x14,56(x11)	 x11:0x80025c60 x14:0x00000000 PA:0x80025c98 store:0x00000000 load:0xffffffff
      476477000	     23722	800025b6	dddc	c.sw	x15,60(x11)	 x11:0x80025c60 x15:0x00001000 PA:0x80025c9c store:0x00001000 load:0xffffffff
      476497000	     23723	800025b8	0505a023	sw	x16,64(x11)	 x11:0x80025c60 x16:0xffffff7e PA:0x80025ca0 store:0xffffff7e load:0xffffffff
      476537000	     23725	800025bc	0515a223	sw	x17,68(x11)	 x11:0x80025c60 x17:0x00000000 PA:0x80025ca4 store:0x00000000 load:0xffffffff
      476957000	     23746	800025c0	0525a423	sw	x18,72(x11)	 x11:0x80025c60 x18:0x0001f000 PA:0x80025ca8 store:0x0001f000 load:0xffffffff
      477157000	     23756	800025c4	0535a623	sw	x19,76(x11)	 x11:0x80025c60 x19:0x00000001 PA:0x80025cac store:0x00000001 load:0xffffffff
      477317000	     23764	800025c8	0545a823	sw	x20,80(x11)	 x11:0x80025c60 x20:0x00000000 PA:0x80025cb0 store:0x00000000 load:0xffffffff
      477517000	     23774	800025cc	0555aa23	sw	x21,84(x11)	 x11:0x80025c60 x21:0xff000000 PA:0x80025cb4 store:0xff000000 load:0xffffffff
      477977000	     23797	800025d0	0565ac23	sw	x22,88(x11)	 x11:0x80025c60 x22:0x00000000 PA:0x80025cb8 store:0x00000000 load:0xffffffff
      478037000	     23800	800025d4	0575ae23	sw	x23,92(x11)	 x11:0x80025c60 x23:0xac000000 PA:0x80025cbc store:0xac000000 load:0xffffffff
      478057000	     23801	800025d8	0785a023	sw	x24,96(x11)	 x11:0x80025c60 x24:0x00000000 PA:0x80025cc0 store:0x00000000 load:0xffffffff
      478077000	     23802	800025dc	0795a223	sw	x25,100(x11)	 x11:0x80025c60 x25:0x355561fe PA:0x80025cc4 store:0x355561fe load:0xffffffff
      478097000	     23803	800025e0	07a5a423	sw	x26,104(x11)	 x11:0x80025c60 x26:0xb002000d PA:0x80025cc8 store:0xb002000d load:0xffffffff
      478117000	     23804	800025e4	07b5a623	sw	x27,108(x11)	 x11:0x80025c60 x27:0xff000000 PA:0x80025ccc store:0xff000000 load:0xffffffff
      478397000	     23818	800025e8	07c5a823	sw	x28,112(x11)	 x11:0x80025c60 x28:0x40901104 PA:0x80025cd0 store:0x40901104 load:0xffffffff
      478597000	     23828	800025ec	07d5aa23	sw	x29,116(x11)	 x11:0x80025c60 x29:0xa0000000 PA:0x80025cd4 store:0xa0000000 load:0xffffffff
      478637000	     23830	800025f0	07e5ac23	sw	x30,120(x11)	 x11:0x80025c60 x30:0xffffffff PA:0x80025cd8 store:0xffffffff load:0xffffffff
      478817000	     23839	800025f4	07f5ae23	sw	x31,124(x11)	 x11:0x80025c60 x31:0x00000125 PA:0x80025cdc store:0x00000125 load:0xffffffff
      478837000	     23840	800025f8	000586b3	add	x13,x11,x0	 x11:0x80025c60  x0:0x00000000 x13=0x80025c60
      478857000	     23841	800025fc	90000db7	lui	x27,0x90000	 x27=0x90000000
      478877000	     23842	80002600	1df1	c.addi	x27,-4	 x27:0x90000000 x27=0x8ffffffc
      478897000	     23843	80002602	4921	c.li	x18,8	 x18=0x00000008
      478917000	     23844	80002604	0922	c.slli	x18,0x8	 x18:0x00000008 x18=0x00000800
      478937000	     23845	80002606	00090913	addi	x18,x18,0	 x18:0x00000800 x18=0x00000800
      478997000	     23848	8000260a	012da023	sw	x18,0(x27)	 x27:0x8ffffffc x18:0x00000800 PA:0x8ffffffc store:0x00000800 load:0xffffffff
      479017000	     23849	8000260e	34102973	csrrs	x18,mepc,x0	  x0:0x00000000 x18=0x800048c8
      479037000	     23850	80002612	34202973	csrrs	x18,mcause,x0	  x0:0x00000000 x18=0x00000002
      479057000	     23851	80002616	4d8d	c.li	x27,3	 x27=0x00000003
      479077000	     23852	80002618	01b91463	bne	x18,x27,80002620	 x18:0x00000002 x27:0x00000003
      479117000	     23854	80002620	4da1	c.li	x27,8	 x27=0x00000008
      479137000	     23855	80002622	05b90d63	beq	x18,x27,8000267c	 x18:0x00000002 x27:0x00000008
      479157000	     23856	80002626	4da5	c.li	x27,9	 x27=0x00000009
      479177000	     23857	80002628	05b90a63	beq	x18,x27,8000267c	 x18:0x00000002 x27:0x00000009
      479197000	     23858	8000262c	4dad	c.li	x27,11	 x27=0x0000000b
      479217000	     23859	8000262e	05b90763	beq	x18,x27,8000267c	 x18:0x00000002 x27:0x0000000b
      479237000	     23860	80002632	4d85	c.li	x27,1	 x27=0x00000001
      479257000	     23861	80002634	35b90363	beq	x18,x27,8000297a	 x18:0x00000002 x27:0x00000001
      479277000	     23862	80002638	4d95	c.li	x27,5	 x27=0x00000005
      479297000	     23863	8000263a	63b90963	beq	x18,x27,80002c6c	 x18:0x00000002 x27:0x00000005
      479317000	     23864	8000263e	4d9d	c.li	x27,7	 x27=0x00000007
      479337000	     23865	80002640	15b90ae3	beq	x18,x27,80002f94	 x18:0x00000002 x27:0x00000007
      479357000	     23866	80002644	4db1	c.li	x27,12	 x27=0x0000000c
      479377000	     23867	80002646	01b91463	bne	x18,x27,8000264e	 x18:0x00000002 x27:0x0000000c
      479417000	     23869	8000264e	4db5	c.li	x27,13	 x27=0x0000000d
      479437000	     23870	80002650	01b91463	bne	x18,x27,80002658	 x18:0x00000002 x27:0x0000000d
      479477000	     23872	80002658	4dbd	c.li	x27,15	 x27=0x0000000f
      479497000	     23873	8000265a	01b91463	bne	x18,x27,80002662	 x18:0x00000002 x27:0x0000000f
      479537000	     23875	80002662	4d89	c.li	x27,2	 x27=0x00000002
      479557000	     23876	80002664	01b91463	bne	x18,x27,8000266c	 x18:0x00000002 x27:0x00000002
      479577000	     23877	80002668	45c0906f	jal	x0,8000bac4	  x0=0x00000000
      479617000	     23879	8000bac4	90000db7	lui	x27,0x90000	 x27=0x90000000
      479637000	     23880	8000bac8	1df1	c.addi	x27,-4	 x27:0x90000000 x27=0x8ffffffc
      479657000	     23881	8000baca	4929	c.li	x18,10	 x18=0x0000000a
      479677000	     23882	8000bacc	0922	c.slli	x18,0x8	 x18:0x0000000a x18=0x00000a00
      479697000	     23883	8000bace	00090913	addi	x18,x18,0	 x18:0x00000a00 x18=0x00000a00
      479757000	     23886	8000bad2	012da023	sw	x18,0(x27)	 x27:0x8ffffffc x18:0x00000a00 PA:0x8ffffffc store:0x00000a00 load:0xffffffff
      479777000	     23887	8000bad6	90000db7	lui	x27,0x90000	 x27=0x90000000
      479797000	     23888	8000bada	1df1	c.addi	x27,-4	 x27:0x90000000 x27=0x8ffffffc
      479817000	     23889	8000badc	34200913	addi	x18,x0,834	  x0:0x00000000 x18=0x00000342
      479837000	     23890	8000bae0	0922	c.slli	x18,0x8	 x18:0x00000342 x18=0x00034200
      479857000	     23891	8000bae2	090d	c.addi	x18,3	 x18:0x00034200 x18=0x00034203
      480217000	     23909	8000bae4	012da023	sw	x18,0(x27)	 x27:0x8ffffffc x18:0x00034203 PA:0x8ffffffc store:0x00034203 load:0xffffffff
      480237000	     23910	8000bae8	34202973	csrrs	x18,mcause,x0	  x0:0x00000000 x18=0x00000002
      480297000	     23913	8000baec	012da023	sw	x18,0(x27)	 x27:0x8ffffffc x18:0x00000002 PA:0x8ffffffc store:0x00000002 load:0xffffffff
      480317000	     23914	8000baf0	34102973	csrrs	x18,mepc,x0	  x0:0x00000000 x18=0x800048c8
      480337000	     23915	8000baf4	0911	c.addi	x18,4	 x18:0x800048c8 x18=0x800048cc
      480357000	     23916	8000baf6	34191073	csrrw	x0,mepc,x18	 x18:0x800048cc  x0=0x00000000
      480377000	     23917	8000bafa	000685b3	add	x11,x13,x0	 x13:0x80025c60  x0:0x00000000 x11=0x80025c60
      480437000	     23920	8000bafe	0045a083	lw	x1,4(x11)	 x11:0x80025c60  x1=0x00000000 PA:0x80025c64 load:0x00000000
      480457000	     23921	8000bb02	0085a103	lw	x2,8(x11)	 x11:0x80025c60  x2=0x80021e64 PA:0x80025c68 load:0x80021e64
      480477000	     23922	8000bb06	00c5a183	lw	x3,12(x11)	 x11:0x80025c60  x3=0xff000001 PA:0x80025c6c load:0xff000001
      480537000	     23925	8000bb0a	0105a203	lw	x4,16(x11)	 x11:0x80025c60  x4=0x00000125 PA:0x80025c70 load:0x00000125
      480597000	     23928	8000bb0e	0145a283	lw	x5,20(x11)	 x11:0x80025c60  x5=0x00000000 PA:0x80025c74 load:0x00000000
      480617000	     23929	8000bb12	0185a303	lw	x6,24(x11)	 x11:0x80025c60  x6=0x00000000 PA:0x80025c78 load:0x00000000
      480697000	     23933	8000bb16	01c5a383	lw	x7,28(x11)	 x11:0x80025c60  x7=0x00000000 PA:0x80025c7c load:0x00000000
      481017000	     23949	8000bb1a	5180	c.lw	x8,32(x11)	 x11:0x80025c60  x8=0x40901104 PA:0x80025c80 load:0x40901104
      481077000	     23952	8000bb1c	51c4	c.lw	x9,36(x11)	 x11:0x80025c60  x9=0xfff00043 PA:0x80025c84 load:0xfff00043
      481097000	     23953	8000bb1e	5588	c.lw	x10,40(x11)	 x11:0x80025c60 x10=0x00000001 PA:0x80025c88 load:0x00000001
      481117000	     23954	8000bb20	55cc	c.lw	x11,44(x11)	 x11:0x80025c60 x11=0x80025c60 PA:0x80025c8c load:0x80025c60
      481517000	     23974	8000bb22	5990	c.lw	x12,48(x11)	 x11:0x80025c60 x12=0x00000000 PA:0x80025c90 load:0x00000000
      481697000	     23983	8000bb24	59d4	c.lw	x13,52(x11)	 x11:0x80025c60 x13=0x80025ce0 PA:0x80025c94 load:0x80025ce0
      481757000	     23986	8000bb26	5d98	c.lw	x14,56(x11)	 x11:0x80025c60 x14=0x00000000 PA:0x80025c98 load:0x00000000
      481777000	     23987	8000bb28	5ddc	c.lw	x15,60(x11)	 x11:0x80025c60 x15=0x00001000 PA:0x80025c9c load:0x00001000
      482197000	     24008	8000bb2a	0405a803	lw	x16,64(x11)	 x11:0x80025c60 x16=0xffffff7e PA:0x80025ca0 load:0xffffff7e
      482597000	     24028	8000bb2e	0445a883	lw	x17,68(x11)	 x11:0x80025c60 x17=0x00000000 PA:0x80025ca4 load:0x00000000
      482937000	     24045	8000bb32	0485a903	lw	x18,72(x11)	 x11:0x80025c60 x18=0x0001f000 PA:0x80025ca8 load:0x0001f000
      483417000	     24069	8000bb36	04c5a983	lw	x19,76(x11)	 x11:0x80025c60 x19=0x00000001 PA:0x80025cac load:0x00000001
      483557000	     24076	8000bb3a	0505aa03	lw	x20,80(x11)	 x11:0x80025c60 x20=0x00000000 PA:0x80025cb0 load:0x00000000
      484117000	     24104	8000bb3e	0545aa83	lw	x21,84(x11)	 x11:0x80025c60 x21=0xff000000 PA:0x80025cb4 load:0xff000000
      484177000	     24107	8000bb42	0585ab03	lw	x22,88(x11)	 x11:0x80025c60 x22=0x00000000 PA:0x80025cb8 load:0x00000000
      484277000	     24112	8000bb46	05c5ab83	lw	x23,92(x11)	 x11:0x80025c60 x23=0xac000000 PA:0x80025cbc load:0xac000000
      484377000	     24117	8000bb4a	0605ac03	lw	x24,96(x11)	 x11:0x80025c60 x24=0x00000000 PA:0x80025cc0 load:0x00000000
      484437000	     24120	8000bb4e	0645ac83	lw	x25,100(x11)	 x11:0x80025c60 x25=0x355561fe PA:0x80025cc4 load:0x355561fe
      484577000	     24127	8000bb52	0685ad03	lw	x26,104(x11)	 x11:0x80025c60 x26=0xb002000d PA:0x80025cc8 load:0xb002000d
      485097000	     24153	8000bb56	06c5ad83	lw	x27,108(x11)	 x11:0x80025c60 x27=0xff000000 PA:0x80025ccc load:0xff000000
      485177000	     24157	8000bb5a	0705ae03	lw	x28,112(x11)	 x11:0x80025c60 x28=0x40901104 PA:0x80025cd0 load:0x40901104
      485697000	     24183	8000bb5e	0745ae83	lw	x29,116(x11)	 x11:0x80025c60 x29=0xa0000000 PA:0x80025cd4 load:0xa0000000
      485757000	     24186	8000bb62	0785af03	lw	x30,120(x11)	 x11:0x80025c60 x30=0xffffffff PA:0x80025cd8 load:0xffffffff
      486097000	     24203	8000bb66	07c5af83	lw	x31,124(x11)	 x11:0x80025c60 x31=0x00000125 PA:0x80025cdc load:0x00000125
      486117000	     24204	8000bb6a	08058593	addi	x11,x11,128	 x11:0x80025c60 x11=0x80025ce0
      486137000	     24205	8000bb6e	000586b3	add	x13,x11,x0	 x11:0x80025ce0  x0:0x00000000 x13=0x80025ce0
      486277000	     24212	8000bb72	428c	c.lw	x11,0(x13)	 x13:0x80025ce0 x11=0x80021e64 PA:0x80025ce0 load:0x80021e64
      486297000	     24213	8000bb74	0691	c.addi	x13,4	 x13:0x80025ce0 x13=0x80025ce4
      486317000	     24214	8000bb76	30200073	mret	
      486377000	     24217	800048cc	74706973	csrrsi	x18,0x747,0	 x18=0x00000004
      486417000	     24219	800048d0	03433f33	mulhu	x30,x6,x20	  x6:0x00000000 x20:0x00000000 x30=0x00000000
      486437000	     24220	800048d4	c0a1	c.beqz	x9,80004914	  x9:0xfff00043
      486457000	     24221	800048d6	01fe02b3	add	x5,x28,x31	 x28:0x40901104 x31:0x00000125  x5=0x40901229
      486477000	     24222	800048da	94f2	c.add	x9,x28	  x9:0xfff00043 x28:0x40901104  x9=0x40801147
      486497000	     24223	800048dc	01395863	bge	x18,x19,800048ec	 x18:0x00000004 x19:0x00000001
      487217000	     24259	800048ec	b86890f3	csrrw	x1,mhpmcounter6h,x17	 x17:0x00000000  x1=0x00000000
      487377000	     24267	800048f0	80d9	c.srli	x9,0x16	  x9:0x40801147  x9=0x00000102
      487557000	     24276	800048f2	01efee33	or	x28,x31,x30	 x31:0x00000125 x30:0x00000000 x28=0x00000125
      487717000	     24284	800048f6	01780cb3	add	x25,x16,x23	 x16:0xffffff7e x23:0xac000000 x25=0xabffff7e
      487737000	     24285	800048fa	34169c73	csrrw	x24,mepc,x13	 x13:0x80025ce4 x24=0x800048cc
      487757000	     24286	800048fe	01e86b63	bltu	x16,x30,80004914	 x16:0xffffff7e x30:0x00000000
      487817000	     24289	80004902	00b699b3	sll	x19,x13,x11	 x13:0x80025ce4 x11:0x80021e64 x19=0x0025ce40
      487837000	     24290	80004906	8415	c.srai	x8,0x5	  x8:0x40901104  x8=0x02048088
      487917000	     24294	80004908	84a6	c.mv	x9,x9	  x0:0x00000000  x9:0x00000102  x9=0x00000102
      488337000	     24315	8000490a	03d77763	bgeu	x14,x29,80004938	 x14:0x00000000 x29:0xa0000000
      488757000	     24336	8000490e	005868b3	or	x17,x16,x5	 x16:0xffffff7e  x5:0x40901229 x17=0xffffff7f
      488777000	     24337	80004912	0001	c.addi	x0,0	  x0:0x00000000  x0=0x00000000
      489177000	     24357	80004914	b854d073	csrrwi	x0,mhpmcounter5h,9	  x0=0x00000000
      489237000	     24360	80004918	01584eb3	xor	x29,x16,x21	 x16:0xffffff7e x21:0xff000000 x29=0x00ffff7e
      489257000	     24361	8000491c	03a58fb3	mul	x31,x11,x26	 x11:0x80021e64 x26:0xb002000d x31=0x7ce38b14
      489637000	     24380	80004920	6afd	c.lui	x21,0x1f	 x21=0x0001f000
      489657000	     24381	80004922	0108	c.addi4spn	x10,x2,128	 x10=0x80021ee4
      489677000	     24382	80004924	0024ac33	slt	x24,x9,x2	  x9:0x00000102  x2:0x80021e64 x24=0x00000000
      489697000	     24383	80004928	b89070f3	csrrci	x1,mhpmcounter9h,0	  x1=0x00000000
      489937000	     24395	8000492c	8455	c.srai	x8,0x15	  x8:0x02048088  x8=0x00000010
      489957000	     24396	8000492e	001d4463	blt	x26,x1,80004936	 x26:0xb002000d  x1:0x00000000
      490497000	     24423	80004936	6129	c.addi16sp	x2,192	  x2:0x80021e64  x2=0x80021f24
      490537000	     24425	80004938	0001	c.addi	x0,0	  x0:0x00000000  x0=0x00000000
      490857000	     24441	8000493a	b1c66297	auipc	x5,0xb1c66	  x5=0x31c6a93a
      491277000	     24462	8000493e	03cb9e63	bne	x23,x28,8000497a	 x23:0xac000000 x28:0x00000125
      492077000	     24502	8000497a	0000100f	fence.i	
      493197000	     24558	8000497e	00835793	srli	x15,x6,0x8	  x6:0x00000000 x15=0x00000000
      493357000	     24566	80004982	03f60fb3	mul	x31,x12,x31	 x12:0x00000000 x31:0x7ce38b14 x31=0x00000000
      493377000	     24567	80004986	01e79463	bne	x15,x30,8000498e	 x15:0x00000000 x30:0x00000000
      493437000	     24570	8000498a	b06f1af3	csrrw	x21,mhpmcounter6,x30	 x30:0x00000000 x21=0x0000003d
      493617000	     24579	8000498e	34207ef3	csrrci	x29,mcause,0	 x29=0x00000002
      493737000	     24585	80004992	b8a49673	csrrw	x12,mhpmcounter10h,x9	  x9:0x00000102 x12=0x00000000
      493897000	     24593	80004996	029d0133	mul	x2,x26,x9	 x26:0xb002000d  x9:0x00000102  x2=0x62040d1a
      494057000	     24601	8000499a	f12a5cf3	csrrwi	x0,marchid,20	  x0=0x00000000
      494177000	     24607	80002500	0800006f	jal	x0,80002580	  x0=0x00000000
      494497000	     24623	80002580	16f1	c.addi	x13,-4	 x13:0x80025ce4 x13=0x80025ce0
      494897000	     24643	80002582	c28c	c.sw	x11,0(x13)	 x13:0x80025ce0 x11:0x80021e64 PA:0x80025ce0 store:0x80021e64 load:0xffffffff
      494917000	     24644	80002584	000685b3	add	x11,x13,x0	 x13:0x80025ce0  x0:0x00000000 x11=0x80025ce0
      494937000	     24645	80002588	f8058593	addi	x11,x11,-128	 x11:0x80025ce0 x11=0x80025c60
      494997000	     24648	8000258c	0015a223	sw	x1,4(x11)	 x11:0x80025c60  x1:0x00000000 PA:0x80025c64 store:0x00000000 load:0xffffffff
      495017000	     24649	80002590	0025a423	sw	x2,8(x11)	 x11:0x80025c60  x2:0x62040d1a PA:0x80025c68 store:0x62040d1a load:0xffffffff
      495117000	     24654	80002594	0035a623	sw	x3,12(x11)	 x11:0x80025c60  x3:0xff000001 PA:0x80025c6c store:0xff000001 load:0xffffffff
      495137000	     24655	80002598	0045a823	sw	x4,16(x11)	 x11:0x80025c60  x4:0x00000125 PA:0x80025c70 store:0x00000125 load:0xffffffff
      495157000	     24656	8000259c	0055aa23	sw	x5,20(x11)	 x11:0x80025c60  x5:0x31c6a93a PA:0x80025c74 store:0x31c6a93a load:0xffffffff
      495657000	     24681	800025a0	0065ac23	sw	x6,24(x11)	 x11:0x80025c60  x6:0x00000000 PA:0x80025c78 store:0x00000000 load:0xffffffff
      496357000	     24716	800025a4	0075ae23	sw	x7,28(x11)	 x11:0x80025c60  x7:0x00000000 PA:0x80025c7c store:0x00000000 load:0xffffffff
      496457000	     24721	800025a8	d180	c.sw	x8,32(x11)	 x11:0x80025c60  x8:0x00000010 PA:0x80025c80 store:0x00000010 load:0xffffffff
      496597000	     24728	800025aa	d1c4	c.sw	x9,36(x11)	 x11:0x80025c60  x9:0x00000102 PA:0x80025c84 store:0x00000102 load:0xffffffff
      496657000	     24731	800025ac	d588	c.sw	x10,40(x11)	 x11:0x80025c60 x10:0x80021ee4 PA:0x80025c88 store:0x80021ee4 load:0xffffffff
      496977000	     24747	800025ae	d5cc	c.sw	x11,44(x11)	 x11:0x80025c60 x11:0x80025c60 PA:0x80025c8c store:0x80025c60 load:0xffffffff
      497157000	     24756	800025b0	d990	c.sw	x12,48(x11)	 x11:0x80025c60 x12:0x00000000 PA:0x80025c90 store:0x00000000 load:0xffffffff
      497357000	     24766	800025b2	d9d4	c.sw	x13,52(x11)	 x11:0x80025c60 x13:0x80025ce0 PA:0x80025c94 store:0x80025ce0 load:0xffffffff
      497417000	     24769	800025b4	dd98	c.sw	x14,56(x11)	 x11:0x80025c60 x14:0x00000000 PA:0x80025c98 store:0x00000000 load:0xffffffff
      497617000	     24779	800025b6	dddc	c.sw	x15,60(x11)	 x11:0x80025c60 x15:0x00000000 PA:0x80025c9c store:0x00000000 load:0xffffffff
      497677000	     24782	800025b8	0505a023	sw	x16,64(x11)	 x11:0x80025c60 x16:0xffffff7e PA:0x80025ca0 store:0xffffff7e load:0xffffffff
      497697000	     24783	800025bc	0515a223	sw	x17,68(x11)	 x11:0x80025c60 x17:0xffffff7f PA:0x80025ca4 store:0xffffff7f load:0xffffffff
      497717000	     24784	800025c0	0525a423	sw	x18,72(x11)	 x11:0x80025c60 x18:0x00000004 PA:0x80025ca8 store:0x00000004 load:0xffffffff
      498117000	     24804	800025c4	0535a623	sw	x19,76(x11)	 x11:0x80025c60 x19:0x0025ce40 PA:0x80025cac store:0x0025ce40 load:0xffffffff
      498237000	     24810	800025c8	0545a823	sw	x20,80(x11)	 x11:0x80025c60 x20:0x00000000 PA:0x80025cb0 store:0x00000000 load:0xffffffff
      498477000	     24822	800025cc	0555aa23	sw	x21,84(x11)	 x11:0x80025c60 x21:0x0000003d PA:0x80025cb4 store:0x0000003d load:0xffffffff
      498537000	     24825	800025d0	0565ac23	sw	x22,88(x11)	 x11:0x80025c60 x22:0x00000000 PA:0x80025cb8 store:0x00000000 load:0xffffffff
      498637000	     24830	800025d4	0575ae23	sw	x23,92(x11)	 x11:0x80025c60 x23:0xac000000 PA:0x80025cbc store:0xac000000 load:0xffffffff
      498977000	     24847	800025d8	0785a023	sw	x24,96(x11)	 x11:0x80025c60 x24:0x00000000 PA:0x80025cc0 store:0x00000000 load:0xffffffff
      499317000	     24864	800025dc	0795a223	sw	x25,100(x11)	 x11:0x80025c60 x25:0xabffff7e PA:0x80025cc4 store:0xabffff7e load:0xffffffff
      499377000	     24867	800025e0	07a5a423	sw	x26,104(x11)	 x11:0x80025c60 x26:0xb002000d PA:0x80025cc8 store:0xb002000d load:0xffffffff
      499457000	     24871	800025e4	07b5a623	sw	x27,108(x11)	 x11:0x80025c60 x27:0xff000000 PA:0x80025ccc store:0xff000000 load:0xffffffff
      499517000	     24874	800025e8	07c5a823	sw	x28,112(x11)	 x11:0x80025c60 x28:0x00000125 PA:0x80025cd0 store:0x00000125 load:0xffffffff
      499537000	     24875	800025ec	07d5aa23	sw	x29,116(x11)	 x11:0x80025c60 x29:0x00000002 PA:0x80025cd4 store:0x00000002 load:0xffffffff
      499957000	     24896	800025f0	07e5ac23	sw	x30,120(x11)	 x11:0x80025c60 x30:0x00000000 PA:0x80025cd8 store:0x00000000 load:0xffffffff
      500017000	     24899	800025f4	07f5ae23	sw	x31,124(x11)	 x11:0x80025c60 x31:0x00000000 PA:0x80025cdc store:0x00000000 load:0xffffffff
      500037000	     24900	800025f8	000586b3	add	x13,x11,x0	 x11:0x80025c60  x0:0x00000000 x13=0x80025c60
      500057000	     24901	800025fc	90000db7	lui	x27,0x90000	 x27=0x90000000
      500077000	     24902	80002600	1df1	c.addi	x27,-4	 x27:0x90000000 x27=0x8ffffffc
      500097000	     24903	80002602	4921	c.li	x18,8	 x18=0x00000008
      500177000	     24907	80002604	0922	c.slli	x18,0x8	 x18:0x00000008 x18=0x00000800
      500277000	     24912	80002606	00090913	addi	x18,x18,0	 x18:0x00000800 x18=0x00000800
      500717000	     24934	8000260a	012da023	sw	x18,0(x27)	 x27:0x8ffffffc x18:0x00000800 PA:0x8ffffffc store:0x00000800 load:0xffffffff
      500737000	     24935	8000260e	34102973	csrrs	x18,mepc,x0	  x0:0x00000000 x18=0x8000499a
      500757000	     24936	80002612	34202973	csrrs	x18,mcause,x0	  x0:0x00000000 x18=0x00000002
      500777000	     24937	80002616	4d8d	c.li	x27,3	 x27=0x00000003
      500797000	     24938	80002618	01b91463	bne	x18,x27,80002620	 x18:0x00000002 x27:0x00000003
      501857000	     24991	80002620	4da1	c.li	x27,8	 x27=0x00000008
      501877000	     24992	80002622	05b90d63	beq	x18,x27,8000267c	 x18:0x00000002 x27:0x00000008
      501897000	     24993	80002626	4da5	c.li	x27,9	 x27=0x00000009
      502157000	     25006	80002628	05b90a63	beq	x18,x27,8000267c	 x18:0x00000002 x27:0x00000009
      502177000	     25007	8000262c	4dad	c.li	x27,11	 x27=0x0000000b
      502197000	     25008	8000262e	05b90763	beq	x18,x27,8000267c	 x18:0x00000002 x27:0x0000000b
      502217000	     25009	80002632	4d85	c.li	x27,1	 x27=0x00000001
      502237000	     25010	80002634	35b90363	beq	x18,x27,8000297a	 x18:0x00000002 x27:0x00000001
      502637000	     25030	80002638	4d95	c.li	x27,5	 x27=0x00000005
      502657000	     25031	8000263a	63b90963	beq	x18,x27,80002c6c	 x18:0x00000002 x27:0x00000005
      502677000	     25032	8000263e	4d9d	c.li	x27,7	 x27=0x00000007
      502697000	     25033	80002640	15b90ae3	beq	x18,x27,80002f94	 x18:0x00000002 x27:0x00000007
      502717000	     25034	80002644	4db1	c.li	x27,12	 x27=0x0000000c
      502857000	     25041	80002646	01b91463	bne	x18,x27,8000264e	 x18:0x00000002 x27:0x0000000c
      503517000	     25074	8000264e	4db5	c.li	x27,13	 x27=0x0000000d
      503797000	     25088	80002650	01b91463	bne	x18,x27,80002658	 x18:0x00000002 x27:0x0000000d
      503837000	     25090	80002658	4dbd	c.li	x27,15	 x27=0x0000000f
      503857000	     25091	8000265a	01b91463	bne	x18,x27,80002662	 x18:0x00000002 x27:0x0000000f
      504317000	     25114	80002662	4d89	c.li	x27,2	 x27=0x00000002
      504337000	     25115	80002664	01b91463	bne	x18,x27,8000266c	 x18:0x00000002 x27:0x00000002
      504357000	     25116	80002668	45c0906f	jal	x0,8000bac4	  x0=0x00000000
      510217000	     25409	8000bac4	90000db7	lui	x27,0x90000	 x27=0x90000000
      510237000	     25410	8000bac8	1df1	c.addi	x27,-4	 x27:0x90000000 x27=0x8ffffffc
      510257000	     25411	8000baca	4929	c.li	x18,10	 x18=0x0000000a
      510277000	     25412	8000bacc	0922	c.slli	x18,0x8	 x18:0x0000000a x18=0x00000a00
      510297000	     25413	8000bace	00090913	addi	x18,x18,0	 x18:0x00000a00 x18=0x00000a00
      510717000	     25434	8000bad2	012da023	sw	x18,0(x27)	 x27:0x8ffffffc x18:0x00000a00 PA:0x8ffffffc store:0x00000a00 load:0xffffffff
      510737000	     25435	8000bad6	90000db7	lui	x27,0x90000	 x27=0x90000000
      510757000	     25436	8000bada	1df1	c.addi	x27,-4	 x27:0x90000000 x27=0x8ffffffc
      510977000	     25447	8000badc	34200913	addi	x18,x0,834	  x0:0x00000000 x18=0x00000342
      511097000	     25453	8000bae0	0922	c.slli	x18,0x8	 x18:0x00000342 x18=0x00034200
      511117000	     25454	8000bae2	090d	c.addi	x18,3	 x18:0x00034200 x18=0x00034203
      511177000	     25457	8000bae4	012da023	sw	x18,0(x27)	 x27:0x8ffffffc x18:0x00034203 PA:0x8ffffffc store:0x00034203 load:0xffffffff
      511197000	     25458	8000bae8	34202973	csrrs	x18,mcause,x0	  x0:0x00000000 x18=0x00000002
      511217000	     25459	8000baec	012da023	sw	x18,0(x27)	 x27:0x8ffffffc x18:0x00000002 PA:0x8ffffffc store:0x00000002 load:0xffffffff
      511337000	     25465	8000baf0	34102973	csrrs	x18,mepc,x0	  x0:0x00000000 x18=0x8000499a
      511357000	     25466	8000baf4	0911	c.addi	x18,4	 x18:0x8000499a x18=0x8000499e
      511377000	     25467	8000baf6	34191073	csrrw	x0,mepc,x18	 x18:0x8000499e  x0=0x00000000
      511417000	     25469	8000bafa	000685b3	add	x11,x13,x0	 x13:0x80025c60  x0:0x00000000 x11=0x80025c60
      512037000	     25500	8000bafe	0045a083	lw	x1,4(x11)	 x11:0x80025c60  x1=0x00000000 PA:0x80025c64 load:0x00000000
      512097000	     25503	8000bb02	0085a103	lw	x2,8(x11)	 x11:0x80025c60  x2=0x62040d1a PA:0x80025c68 load:0x62040d1a
      512277000	     25512	8000bb06	00c5a183	lw	x3,12(x11)	 x11:0x80025c60  x3=0xff000001 PA:0x80025c6c load:0xff000001
      512357000	     25516	8000bb0a	0105a203	lw	x4,16(x11)	 x11:0x80025c60  x4=0x00000125 PA:0x80025c70 load:0x00000125
      512957000	     25546	8000bb0e	0145a283	lw	x5,20(x11)	 x11:0x80025c60  x5=0x31c6a93a PA:0x80025c74 load:0x31c6a93a
      513017000	     25549	8000bb12	0185a303	lw	x6,24(x11)	 x11:0x80025c60  x6=0x00000000 PA:0x80025c78 load:0x00000000
      513037000	     25550	8000bb16	01c5a383	lw	x7,28(x11)	 x11:0x80025c60  x7=0x00000000 PA:0x80025c7c load:0x00000000
      513277000	     25562	8000bb1a	5180	c.lw	x8,32(x11)	 x11:0x80025c60  x8=0x00000010 PA:0x80025c80 load:0x00000010
      513617000	     25579	8000bb1c	51c4	c.lw	x9,36(x11)	 x11:0x80025c60  x9=0x00000102 PA:0x80025c84 load:0x00000102
      514077000	     25602	8000bb1e	5588	c.lw	x10,40(x11)	 x11:0x80025c60 x10=0x80021ee4 PA:0x80025c88 load:0x80021ee4
      514217000	     25609	8000bb20	55cc	c.lw	x11,44(x11)	 x11:0x80025c60 x11=0x80025c60 PA:0x80025c8c load:0x80025c60
      514297000	     25613	8000bb22	5990	c.lw	x12,48(x11)	 x11:0x80025c60 x12=0x00000000 PA:0x80025c90 load:0x00000000
      514537000	     25625	8000bb24	59d4	c.lw	x13,52(x11)	 x11:0x80025c60 x13=0x80025ce0 PA:0x80025c94 load:0x80025ce0
      515137000	     25655	8000bb26	5d98	c.lw	x14,56(x11)	 x11:0x80025c60 x14=0x00000000 PA:0x80025c98 load:0x00000000
      515557000	     25676	8000bb28	5ddc	c.lw	x15,60(x11)	 x11:0x80025c60 x15=0x00000000 PA:0x80025c9c load:0x00000000
      515617000	     25679	8000bb2a	0405a803	lw	x16,64(x11)	 x11:0x80025c60 x16=0xffffff7e PA:0x80025ca0 load:0xffffff7e
      515737000	     25685	8000bb2e	0445a883	lw	x17,68(x11)	 x11:0x80025c60 x17=0xffffff7f PA:0x80025ca4 load:0xffffff7f
      515817000	     25689	8000bb32	0485a903	lw	x18,72(x11)	 x11:0x80025c60 x18=0x00000004 PA:0x80025ca8 load:0x00000004
      516137000	     25705	8000bb36	04c5a983	lw	x19,76(x11)	 x11:0x80025c60 x19=0x0025ce40 PA:0x80025cac load:0x0025ce40
      516257000	     25711	8000bb3a	0505aa03	lw	x20,80(x11)	 x11:0x80025c60 x20=0x00000000 PA:0x80025cb0 load:0x00000000
      516277000	     25712	8000bb3e	0545aa83	lw	x21,84(x11)	 x11:0x80025c60 x21=0x0000003d PA:0x80025cb4 load:0x0000003d
      516397000	     25718	8000bb42	0585ab03	lw	x22,88(x11)	 x11:0x80025c60 x22=0x00000000 PA:0x80025cb8 load:0x00000000
      516897000	     25743	8000bb46	05c5ab83	lw	x23,92(x11)	 x11:0x80025c60 x23=0xac000000 PA:0x80025cbc load:0xac000000
      517357000	     25766	8000bb4a	0605ac03	lw	x24,96(x11)	 x11:0x80025c60 x24=0x00000000 PA:0x80025cc0 load:0x00000000
      517417000	     25769	8000bb4e	0645ac83	lw	x25,100(x11)	 x11:0x80025c60 x25=0xabffff7e PA:0x80025cc4 load:0xabffff7e
      517437000	     25770	8000bb52	0685ad03	lw	x26,104(x11)	 x11:0x80025c60 x26=0xb002000d PA:0x80025cc8 load:0xb002000d
      517457000	     25771	8000bb56	06c5ad83	lw	x27,108(x11)	 x11:0x80025c60 x27=0xff000000 PA:0x80025ccc load:0xff000000
      517477000	     25772	8000bb5a	0705ae03	lw	x28,112(x11)	 x11:0x80025c60 x28=0x00000125 PA:0x80025cd0 load:0x00000125
      517497000	     25773	8000bb5e	0745ae83	lw	x29,116(x11)	 x11:0x80025c60 x29=0x00000002 PA:0x80025cd4 load:0x00000002
      517517000	     25774	8000bb62	0785af03	lw	x30,120(x11)	 x11:0x80025c60 x30=0x00000000 PA:0x80025cd8 load:0x00000000
      518037000	     25800	8000bb66	07c5af83	lw	x31,124(x11)	 x11:0x80025c60 x31=0x00000000 PA:0x80025cdc load:0x00000000
      518057000	     25801	8000bb6a	08058593	addi	x11,x11,128	 x11:0x80025c60 x11=0x80025ce0
      518137000	     25805	8000bb6e	000586b3	add	x13,x11,x0	 x11:0x80025ce0  x0:0x00000000 x13=0x80025ce0
      518257000	     25811	8000bb72	428c	c.lw	x11,0(x13)	 x13:0x80025ce0 x11=0x80021e64 PA:0x80025ce0 load:0x80021e64
      518337000	     25815	8000bb74	0691	c.addi	x13,4	 x13:0x80025ce0 x13=0x80025ce4
      518357000	     25816	8000bb76	30200073	mret	
      519217000	     25859	8000499e	417a89b3	sub	x19,x21,x23	 x21:0x0000003d x23:0xac000000 x19=0x5400003d
      519557000	     25876	800049a2	00277663	bgeu	x14,x2,800049ae	 x14:0x00000000  x2:0x62040d1a
      519577000	     25877	800049a6	0001	c.addi	x0,0	  x0:0x00000000  x0=0x00000000
      519657000	     25881	800049a8	01f69eb3	sll	x29,x13,x31	 x13:0x80025ce4 x31:0x00000000 x29=0x80025ce4
      519697000	     25883	800049ac	90be	c.add	x1,x15	  x1:0x00000000 x15:0x00000000  x1=0x00000000
      519717000	     25884	800049ae	3296dbf3	csrrwi	x23,mhpmevent9,13	 x23=0x00000040
      519777000	     25887	800049b2	021aee63	bltu	x21,x1,800049ee	 x21:0x0000003d  x1:0x00000000
      519797000	     25888	800049b6	717d	c.addi16sp	x2,-16	  x2:0x62040d1a  x2=0x62040d0a
      520717000	     25934	800049b8	022beeb3	rem	x29,x23,x2	 x23:0x00000040  x2:0x62040d0a x29=0x00000040
      520737000	     25935	800049bc	0186d093	srli	x1,x13,0x18	 x13:0x80025ce4  x1=0x00000080
      521477000	     25972	800049c0	02b67b33	remu	x22,x12,x11	 x12:0x00000000 x11:0x80021e64 x22=0x00000000
      521497000	     25973	800049c4	013ccbb3	xor	x23,x25,x19	 x25:0xabffff7e x19:0x5400003d x23=0xffffff43
      521517000	     25974	800049c8	00ad3db3	sltu	x27,x26,x10	 x26:0xb002000d x10:0x80021ee4 x27=0x00000000
      521537000	     25975	800049cc	40cfd7b3	sra	x15,x31,x12	 x31:0x00000000 x12:0x00000000 x15=0x00000000
      521557000	     25976	800049d0	057e	c.slli	x10,0x1f	 x10:0x80021ee4 x10=0x00000000
      521577000	     25977	800049d2	0946	c.slli	x18,0x11	 x18:0x00000004 x18=0x00080000
      521597000	     25978	800049d4	003f9133	sll	x2,x31,x3	 x31:0x00000000  x3:0xff000001  x2=0x00000000
      521797000	     25988	800049d8	854d	c.srai	x10,0x13	 x10:0x00000000 x10=0x00000000
      521977000	     25997	800049da	ae79fd93	andi	x27,x19,-1305	 x19:0x5400003d x27=0x54000025
      522077000	     26002	800049de	97c892b7	lui	x5,0x97c89	  x5=0x97c89000
      522097000	     26003	800049e2	b80dec73	csrrsi	x24,mcycleh,27	 x24=0x00000015
      522157000	     26006	800049e6	003eb133	sltu	x2,x29,x3	 x29:0x00000040  x3:0xff000001  x2=0x00000001
      522177000	     26007	800049ea	1dfd	c.addi	x27,-1	 x27:0x54000025 x27=0x54000024
      522277000	     26012	800049ec	8c69	c.and	x8,x10	  x8:0x00000010 x10:0x00000000  x8=0x00000000
      522297000	     26013	800049ee	012be1b3	or	x3,x23,x18	 x23:0xffffff43 x18:0x00080000  x3=0xffffff43
      522317000	     26014	800049f2	417c0fb3	sub	x31,x24,x23	 x24:0x00000015 x23:0xffffff43 x31=0x000000d2
      522337000	     26015	800049f6	cb05	c.beqz	x14,80004a26	 x14:0x00000000
      524397000	     26118	80004a26	024afcb3	remu	x25,x21,x4	 x21:0x0000003d  x4:0x00000125 x25=0x0000003d
      524417000	     26119	80004a2a	02f4c463	blt	x9,x15,80004a52	  x9:0x00000102 x15:0x00000000
      524437000	     26120	80004a2e	3b606df3	csrrsi	x27,pmpaddr6,0	 x27=0x3999a642
      524477000	     26122	80004a32	03bab233	mulhu	x4,x21,x27	 x21:0x0000003d x27:0x3999a642  x4=0x0000000d
      524497000	     26123	80004a36	0000100f	fence.i	
      524957000	     26146	80004a3a	8d59	c.or	x10,x14	 x10:0x00000000 x14:0x00000000 x10=0x00000000
      525157000	     26156	80004a3c	4609f813	andi	x16,x19,1120	 x19:0x5400003d x16=0x00000020
      525177000	     26157	80004a40	8e66	c.mv	x28,x25	  x0:0x00000000 x25:0x0000003d x28=0x0000003d
      525317000	     26164	80004a42	00a3cb97	auipc	x23,0xa3c	 x23=0x80a40a42
      525337000	     26165	80004a46	8f3e	c.mv	x30,x15	  x0:0x00000000 x15:0x00000000 x30=0x00000000
      525737000	     26185	80004a48	8c41	c.or	x8,x8	  x8:0x00000000  x8:0x00000000  x8=0x00000000
      525757000	     26186	80004a4a	8d36	c.mv	x26,x13	  x0:0x00000000 x13:0x80025ce4 x26=0x80025ce4
      526157000	     26206	80004a4c	0c05	c.addi	x24,1	 x24:0x00000015 x24=0x00000016
      526577000	     26227	80004a4e	0135e533	or	x10,x11,x19	 x11:0x80021e64 x19:0x5400003d x10=0xd4021e7d
      526597000	     26228	80004a52	00c2	c.slli	x1,0x10	  x1:0x00000080  x1=0x00800000
      526837000	     26240	80004a54	340797f3	csrrw	x15,mscratch,x15	 x15:0x00000000 x15=0x00000001
      527177000	     26257	80004a58	031aadb3	mulhsu	x27,x21,x17	 x21:0x0000003d x17:0xffffff7f x27=0x0000003c
      527197000	     26258	80004a5c	4086d133	sra	x2,x13,x8	 x13:0x80025ce4  x8:0x00000000  x2=0x80025ce4
      527217000	     26259	80004a60	0ff0000f	fence	iorw,iorw	
      527237000	     26260	80004a64	cf11	c.beqz	x14,80004a80	 x14:0x00000000
      527497000	     26273	80004a80	8cb9	c.xor	x9,x14	  x9:0x00000102 x14:0x00000000  x9=0x00000102
      527517000	     26274	80004a82	30507ef3	csrrci	x29,mtvec,0	 x29=0x80002501
      527537000	     26275	80004a86	00afb2b3	sltu	x5,x31,x10	 x31:0x000000d2 x10:0xd4021e7d  x5=0x00000001
      527557000	     26276	80004a8a	06e60713	addi	x14,x12,110	 x12:0x00000000 x14=0x0000006e
      527577000	     26277	80004a8e	8f39	c.xor	x14,x14	 x14:0x0000006e x14:0x0000006e x14=0x00000000
      527597000	     26278	80004a90	017a0033	add	x0,x20,x23	 x20:0x00000000 x23:0x80a40a42  x0=0x00000000
      527617000	     26279	80004a94	30106d73	csrrsi	x26,misa,0	 x26=0x40901104
      527897000	     26293	80004a98	40dc5b13	srai	x22,x24,0xd	 x24:0x00000016 x22=0x00000000
      528637000	     26330	80004a9c	02f4f1b3	remu	x3,x9,x15	  x9:0x00000102 x15:0x00000001  x3=0x00000000
      528657000	     26331	80004aa0	09c5	c.addi	x19,17	 x19:0x5400003d x19=0x5400004e
      528677000	     26332	80004aa2	070d	c.addi	x14,3	 x14:0x00000000 x14=0x00000003
      528697000	     26333	80004aa4	4895a213	slti	x4,x11,1161	 x11:0x80021e64  x4=0x00000001
      528717000	     26334	80004aa8	00e3c1b3	xor	x3,x7,x14	  x7:0x00000000 x14:0x00000003  x3=0x00000003
      528757000	     26336	80004aac	039d32b3	mulhu	x5,x26,x25	 x26:0x40901104 x25:0x0000003d  x5=0x0000000f
      528957000	     26346	80004ab0	e799	c.bnez	x15,80004abe	 x15:0x00000001
      530057000	     26401	80004abe	02699f63	bne	x19,x6,80004afc	 x19:0x5400004e  x6:0x00000000
      530397000	     26418	80004afc	003044b3	xor	x9,x0,x3	  x0:0x00000000  x3:0x00000003  x9=0x00000003
      530437000	     26420	80004b00	0167e233	or	x4,x15,x22	 x15:0x00000001 x22:0x00000000  x4=0x00000001
      530857000	     26441	80004b04	8f3c4b93	xori	x23,x24,-1805	 x24:0x00000016 x23=0xfffff8e5
      530997000	     26448	80004b08	8c05	c.sub	x8,x9	  x8:0x00000000  x9:0x00000003  x8=0xfffffffd
      531017000	     26449	80004b0a	8fb1	c.xor	x15,x12	 x15:0x00000001 x12:0x00000000 x15=0x00000001
      531037000	     26450	80004b0c	6c31	c.lui	x24,0xc	 x24=0x0000c000
      531057000	     26451	80004b0e	071c9db7	lui	x27,0x71c9	 x27=0x071c9000
      531077000	     26452	80004b12	01bd9913	slli	x18,x27,0x1b	 x27:0x071c9000 x18=0x00000000
      531097000	     26453	80004b16	6fb5	c.lui	x31,0xd	 x31=0x0000d000
      531457000	     26471	80004b18	83c1	c.srli	x15,0x10	 x15:0x00000001 x15=0x00000000
      531477000	     26472	80004b1a	01c51293	slli	x5,x10,0x1c	 x10:0xd4021e7d  x5=0xd0000000
      531497000	     26473	80004b1e	87ea	c.mv	x15,x26	  x0:0x00000000 x26:0x40901104 x15=0x40901104
      531897000	     26493	80004b20	b0503173	csrrc	x2,mhpmcounter5,x0	  x0:0x00000000  x2=0x00000060
      532797000	     26538	80004b24	03fee533	rem	x10,x29,x31	 x29:0x80002501 x31:0x0000d000 x10=0xffff7501
      532817000	     26539	80004b28	018657b3	srl	x15,x12,x24	 x12:0x00000000 x24:0x0000c000 x15=0x00000000
      532837000	     26540	80004b2c	0ff0000f	fence	iorw,iorw	
      532857000	     26541	80004b30	028acf63	blt	x21,x8,80004b6e	 x21:0x0000003d  x8:0xfffffffd
      532877000	     26542	80004b34	0001	c.addi	x0,0	  x0:0x00000000  x0=0x00000000
      533617000	     26579	80004b36	03b9d433	divu	x8,x19,x27	 x19:0x5400004e x27:0x071c9000  x8=0x0000000b
      533637000	     26580	80004b3a	04321263	bne	x4,x3,80004b7e	  x4:0x00000001  x3:0x00000003
      533717000	     26584	80004b7e	8cd9	c.or	x9,x14	  x9:0x00000003 x14:0x00000003  x9=0x00000003
      534057000	     26601	80004b80	0a32	c.slli	x20,0xc	 x20:0x00000000 x20=0x00000000
      534077000	     26602	80004b82	00bbbdb3	sltu	x27,x23,x11	 x23:0xfffff8e5 x11:0x80021e64 x27=0x00000000
      534177000	     26607	80004b86	02b0a8b3	mulhsu	x17,x1,x11	  x1:0x00800000 x11:0x80021e64 x17=0x0040010f
      534197000	     26608	80004b8a	0106ed33	or	x26,x13,x16	 x13:0x80025ce4 x16:0x00000020 x26=0x80025ce4
      534237000	     26610	80004b8e	b8c07473	csrrci	x8,mhpmcounter12h,0	  x8=0x00000000
      534257000	     26611	80004b92	0001	c.addi	x0,0	  x0:0x00000000  x0=0x00000000
      534417000	     26619	80004b94	01db21b3	slt	x3,x22,x29	 x22:0x00000000 x29:0x80002501  x3=0x00000000
      534437000	     26620	80004b98	0108	c.addi4spn	x10,x2,128	 x10=0x000000e0
      534457000	     26621	80004b9a	0115e033	or	x0,x11,x17	 x11:0x80021e64 x17:0x0040010f  x0=0x00000000
      534877000	     26642	80004b9e	0ff0000f	fence	iorw,iorw	
      534897000	     26643	80004ba2	03a07e63	bgeu	x0,x26,80004bde	  x0:0x00000000 x26:0x80025ce4
      534937000	     26645	80004ba6	033f1733	mulh	x14,x30,x19	 x30:0x00000000 x19:0x5400004e x14=0x00000000
      534957000	     26646	80004baa	34195cf3	csrrwi	x25,mepc,18	 x25=0x8000499e
      534977000	     26647	80004bae	e899	c.bnez	x9,80004bc4	  x9:0x00000003
      535617000	     26679	80004bc4	0091a033	slt	x0,x3,x9	  x3:0x00000000  x9:0x00000003  x0=0x00000000
      535757000	     26686	80004bc8	8d21	c.xor	x10,x8	 x10:0x000000e0  x8:0x00000000 x10=0x000000e0
      536097000	     26703	80004bca	00f48233	add	x4,x9,x15	  x9:0x00000003 x15:0x00000000  x4=0x00000003
      536117000	     26704	80004bce	9796	c.add	x15,x5	 x15:0x00000000  x5:0xd0000000 x15=0xd0000000
      536297000	     26713	80004bd0	02e65d63	bge	x12,x14,80004c0a	 x12:0x00000000 x14:0x00000000
      543257000	     27061	80004c0a	01b4fb63	bgeu	x9,x27,80004c20	  x9:0x00000003 x27:0x00000000
      543837000	     27090	80004c20	01793333	sltu	x6,x18,x23	 x18:0x00000000 x23:0xfffff8e5  x6=0x00000001
      543857000	     27091	80004c24	009f44b3	xor	x9,x30,x9	 x30:0x00000000  x9:0x00000003  x9=0x00000003
      543877000	     27092	80004c28	b8403af3	csrrc	x21,mhpmcounter4h,x0	  x0:0x00000000 x21=0x00000000
      543897000	     27093	80004c2c	b0701c73	csrrw	x24,mhpmcounter7,x0	  x0:0x00000000 x24=0x00000024
      543977000	     27097	80004c30	0357d4b3	divu	x9,x15,x21	 x15:0xd0000000 x21:0x00000000  x9=0xffffffff
      544117000	     27104	80004c34	832a	c.mv	x6,x10	  x0:0x00000000 x10:0x000000e0  x6=0x000000e0
      544177000	     27107	80004c36	00789033	sll	x0,x17,x7	 x17:0x0040010f  x7:0x00000000  x0=0x00000000
      544597000	     27128	80004c3a	052fd263	bge	x31,x18,80004c7e	 x31:0x0000d000 x18:0x00000000
      545137000	     27155	80004c7e	6c99	c.lui	x25,0x6	 x25=0x00006000
      545537000	     27175	80004c80	89ce	c.mv	x19,x19	  x0:0x00000000 x19:0x5400004e x19=0x5400004e
      545557000	     27176	80004c82	8d79	c.and	x10,x14	 x10:0x000000e0 x14:0x00000000 x10=0x00000000
      545957000	     27196	80004c84	870d	c.srai	x14,0x3	 x14:0x00000000 x14=0x00000000
      546297000	     27213	80004c86	012e08b3	add	x17,x28,x18	 x28:0x0000003d x18:0x00000000 x17=0x0000003d
      546317000	     27214	80004c8a	8cd5	c.or	x9,x13	  x9:0xffffffff x13:0x80025ce4  x9=0xffffffff
      547437000	     27270	80004c8c	03877f33	remu	x30,x14,x24	 x14:0x00000000 x24:0x00000024 x30=0x00000000
      548177000	     27307	80004c90	030e4c33	div	x24,x28,x16	 x28:0x0000003d x16:0x00000020 x24=0x00000001
      548197000	     27308	80004c94	0b39	c.addi	x22,14	 x22:0x00000000 x22=0x0000000e
      548217000	     27309	80004c96	b8a4d7f3	csrrwi	x15,mhpmcounter10h,9	 x15=0x00000000
      548277000	     27312	80004c9a	b0c038f3	csrrc	x17,mhpmcounter12,x0	  x0:0x00000000 x17=0x000007af
      548297000	     27313	80004c9e	0001	c.addi	x0,0	  x0:0x00000000  x0=0x00000000
      549037000	     27350	80004ca0	03927cb3	remu	x25,x4,x25	  x4:0x00000003 x25:0x00006000 x25=0x00000003
      549057000	     27351	80004ca4	0a91	c.addi	x21,4	 x21:0x00000000 x21=0x00000004
      549077000	     27352	80004ca6	00897863	bgeu	x18,x8,80004cb6	 x18:0x00000000  x8:0x00000000
      549117000	     27354	80004cb6	92ca	c.add	x5,x18	  x5:0xd0000000 x18:0x00000000  x5=0xd0000000
      549477000	     27372	80004cb8	00e87763	bgeu	x16,x14,80004cc6	 x16:0x00000020 x14:0x00000000
      549897000	     27393	80004cc6	6b89	c.lui	x23,0x2	 x23=0x00002000
      550337000	     27415	80004cc8	b9664a17	auipc	x20,0xb9664	 x20=0x39668cc8
      550357000	     27416	80004ccc	01f93f33	sltu	x30,x18,x31	 x18:0x00000000 x31:0x0000d000 x30=0x00000001
      550437000	     27420	80004cd0	41e2da93	srai	x21,x5,0x1e	  x5:0xd0000000 x21=0xffffffff
      550597000	     27428	80004cd4	033c1933	mulh	x18,x24,x19	 x24:0x00000001 x19:0x5400004e x18=0x00000000
      550697000	     27433	80004cd8	01ac5d13	srli	x26,x24,0x1a	 x24:0x00000001 x26=0x00000000
      550797000	     27438	80004cdc	80c2	c.mv	x1,x16	  x0:0x00000000 x16:0x00000020  x1=0x00000020
      550817000	     27439	80004cde	8cbe	c.mv	x25,x15	  x0:0x00000000 x15:0x00000000 x25=0x00000000
      550837000	     27440	80004ce0	0001	c.addi	x0,0	  x0:0x00000000  x0=0x00000000
      550857000	     27441	80004ce2	054e	c.slli	x10,0x13	 x10:0x00000000 x10=0x00000000
      550877000	     27442	80004ce4	8cca	c.mv	x25,x18	  x0:0x00000000 x18:0x00000000 x25=0x00000000
      551237000	     27460	80004ce6	012dfbb3	and	x23,x27,x18	 x27:0x00000000 x18:0x00000000 x23=0x00000000
      551257000	     27461	80004cea	0fe12793	slti	x15,x2,254	  x2:0x00000060 x15=0x00000001
      551617000	     27479	80004cee	37f43993	sltiu	x19,x8,895	  x8:0x00000000 x19=0x00000001
      551637000	     27480	80004cf2	c0aac013	xori	x0,x21,-1014	 x21:0xffffffff  x0=0x00000000
      551757000	     27486	80004cf6	406bd513	srai	x10,x23,0x6	 x23:0x00000000 x10=0x00000000
      551777000	     27487	80004cfa	0192	c.slli	x3,0x4	  x3:0x00000000  x3=0x00000000
      551877000	     27492	80004cfc	03a6e033	rem	x0,x13,x26	 x13:0x80025ce4 x26:0x00000000  x0=0x00000000
      551897000	     27493	80004d00	994e	c.add	x18,x19	 x18:0x00000000 x19:0x00000001 x18=0x00000001
      551977000	     27497	80004d02	03606963	bltu	x0,x22,80004d34	  x0:0x00000000 x22:0x0000000e
      553017000	     27549	80004d34	01a32db3	slt	x27,x6,x26	  x6:0x000000e0 x26:0x00000000 x27=0x00000000
      553777000	     27587	80004d38	0311efb3	rem	x31,x3,x17	  x3:0x00000000 x17:0x000007af x31=0x00000000
      553797000	     27588	80004d3c	0aba	c.slli	x21,0xe	 x21:0xffffffff x21=0xffffc000
      553817000	     27589	80004d3e	80e5	c.srli	x9,0x19	  x9:0xffffffff  x9=0x0000007f
      553837000	     27590	80004d40	431b4f13	xori	x30,x22,1073	 x22:0x0000000e x30=0x0000043f
      553857000	     27591	80004d44	0001	c.addi	x0,0	  x0:0x00000000  x0=0x00000000
      553877000	     27592	80004d46	83ad	c.srli	x15,0xb	 x15:0x00000001 x15=0x00000000
      553897000	     27593	80004d48	b80929f3	csrrs	x19,mcycleh,x18	 x18:0x00000001 x19=0x0000001f
      553957000	     27596	80004d4c	0001	c.addi	x0,0	  x0:0x00000000  x0=0x00000000
      553977000	     27597	80004d4e	32b03773	csrrc	x14,mhpmevent11,x0	  x0:0x00000000 x14=0x00000100
      554037000	     27600	80004d52	a9726113	ori	x2,x4,-1385	  x4:0x00000003  x2=0xfffffa97
      554177000	     27607	80004d56	021c19b3	mulh	x19,x24,x1	 x24:0x00000001  x1:0x00000020 x19=0x00000000
      554917000	     27644	80004d5a	021ef2b3	remu	x5,x29,x1	 x29:0x80002501  x1:0x00000020  x5=0x00000001
      555657000	     27681	80004d5e	02577db3	remu	x27,x14,x5	 x14:0x00000100  x5:0x00000001 x27=0x00000000
      555677000	     27682	80004d62	34406373	csrrsi	x6,mip,0	  x6=0x00000000
      555697000	     27683	80004d66	ea090717	auipc	x14,0xea090	 x14=0x6a094d66
      555717000	     27684	80004d6a	009b0eb3	add	x29,x22,x9	 x22:0x0000000e  x9:0x0000007f x29=0x0000008d
      555737000	     27685	80004d6e	a3a13313	sltiu	x6,x2,-1478	  x2:0xfffffa97  x6=0x00000000
      555757000	     27686	80004d72	8479	c.srai	x8,0x1e	  x8:0x00000000  x8=0x00000000
      556497000	     27723	80004d74	021e58b3	divu	x17,x28,x1	 x28:0x0000003d  x1:0x00000020 x17=0x00000001
      556517000	     27724	80004d78	e105	c.bnez	x10,80004d98	 x10:0x00000000
      556537000	     27725	80004d7a	645ded97	auipc	x27,0x645de	 x27=0xe45e2d7a
      556557000	     27726	80004d7e	4116dd33	sra	x26,x13,x17	 x13:0x80025ce4 x17:0x00000001 x26=0xc0012e72
      556577000	     27727	80004d82	00fb4233	xor	x4,x22,x15	 x22:0x0000000e x15:0x00000000  x4=0x0000000e
      556597000	     27728	80004d86	00979d63	bne	x15,x9,80004da0	 x15:0x00000000  x9:0x0000007f
      557037000	     27750	80004da0	01bd2ab3	slt	x21,x26,x27	 x26:0xc0012e72 x27:0xe45e2d7a x21=0x00000001
      557057000	     27751	80004da4	9136	c.add	x2,x13	  x2:0xfffffa97 x13:0x80025ce4  x2=0x8002577b
      557137000	     27755	80004da6	4f9ab993	sltiu	x19,x21,1273	 x21:0x00000001 x19=0x00000001
      557177000	     27757	80004daa	02f8c633	div	x12,x17,x15	 x17:0x00000001 x15:0x00000000 x12=0xffffffff
      557797000	     27788	80004dae	03f2c1b3	div	x3,x5,x31	  x5:0x00000001 x31:0x00000000  x3=0xffffffff
      557817000	     27789	80004db2	0000100f	fence.i	
      559537000	     27875	80004db6	0000100f	fence.i	
      560557000	     27926	80004dba	9d26	c.add	x26,x9	 x26:0xc0012e72  x9:0x0000007f x26=0xc0012ef1
      560577000	     27927	80004dbc	7a3071f3	csrrci	x3,tdata3,0	  x3=0x00000000
      560597000	     27928	80004dc0	05959163	bne	x11,x25,80004e02	 x11:0x80021e64 x25:0x00000000
      561237000	     27960	80004e02	00a68463	beq	x13,x10,80004e0a	 x13:0x80025ce4 x10:0x00000000
      561597000	     27978	80004e06	001a8233	add	x4,x21,x1	 x21:0x00000001  x1:0x00000020  x4=0x00000021
      561617000	     27979	80004e0a	ea19	c.bnez	x12,80004e20	 x12:0xffffffff
      562197000	     28008	80004e20	003b87b3	add	x15,x23,x3	 x23:0x00000000  x3:0x00000000 x15=0x00000000
      562277000	     28012	80004e24	6159	c.addi16sp	x2,400	  x2:0x8002577b  x2=0x8002590b
      562517000	     28024	80004e26	3b107c73	csrrci	x24,pmpaddr1,0	 x24=0x244450ed
      563257000	     28061	80004e2a	03dbc0b3	div	x1,x23,x29	 x23:0x00000000 x29:0x0000008d  x1=0x00000000
      563277000	     28062	80004e2e	e819	c.bnez	x8,80004e44	  x8:0x00000000
      563297000	     28063	80004e30	8f5d	c.or	x14,x15	 x14:0x6a094d66 x15:0x00000000 x14=0x6a094d66
      563317000	     28064	80004e32	b851def3	csrrwi	x29,mhpmcounter5h,3	 x29=0x00000000
      564097000	     28103	80004e36	036f78b3	remu	x17,x30,x22	 x30:0x0000043f x22:0x0000000e x17=0x00000009
      564117000	     28104	80004e3a	3245d4f3	csrrwi	x9,mhpmevent4,11	  x9=0x00000002
      564177000	     28107	80004e3e	8c9d	c.sub	x9,x15	  x9:0x00000002 x15:0x00000000  x9=0x00000002
      564197000	     28108	80004e40	0000100f	fence.i	
      564917000	     28144	80004e44	98fd	c.andi	x9,-1	  x9:0x00000002  x9=0x00000002
      565337000	     28165	80004e46	b00d1bf3	csrrw	x23,mcycle,x26	 x26:0xc0012ef1 x23=0x00006dbc
      565417000	     28169	80004e4a	00a4e963	bltu	x9,x10,80004e5c	  x9:0x00000002 x10:0x00000000
      565437000	     28170	80004e4e	e215	c.bnez	x12,80004e72	 x12:0xffffffff
      566617000	     28229	80004e72	00b60fb3	add	x31,x12,x11	 x12:0xffffffff x11:0x80021e64 x31=0x80021e63
      566817000	     28239	80004e76	031acc63	blt	x21,x17,80004eae	 x21:0x00000001 x17:0x00000009
      567497000	     28273	80004eae	9a7d	c.andi	x12,-1	 x12:0xffffffff x12=0xffffffff
      567877000	     28292	80004eb0	03fad163	bge	x21,x31,80004ed2	 x21:0x00000001 x31:0x80021e63
      568837000	     28340	80004ed2	00d31c33	sll	x24,x6,x13	  x6:0x00000000 x13:0x80025ce4 x24=0x00000000
      568857000	     28341	80004ed6	14f07cb7	lui	x25,0x14f07	 x25=0x14f07000
      568877000	     28342	80004eda	0000100f	fence.i	
      569717000	     28384	80004ede	0c5e	c.slli	x24,0x17	 x24:0x00000000 x24=0x00000000
      569917000	     28394	80004ee0	01ca5793	srli	x15,x20,0x1c	 x20:0x39668cc8 x15=0x00000003
      570137000	     28405	80004ee4	b8a9dbf3	csrrwi	x23,mhpmcounter10h,19	 x23=0x00000000
      570197000	     28408	80004ee8	01b35513	srli	x10,x6,0x1b	  x6:0x00000000 x10=0x00000000
      570257000	     28411	80004eec	6129	c.addi16sp	x2,192	  x2:0x8002590b  x2=0x800259cb
      570277000	     28412	80004eee	6925	c.lui	x18,0x9	 x18=0x00009000
      570297000	     28413	80004ef0	0e00	c.addi4spn	x8,x2,784	  x8=0x80025cdb
      570317000	     28414	80004ef2	3a3078f3	csrrci	x17,pmpcfg3,0	 x17=0x0f0f0f0f
      570337000	     28415	80004ef6	01f3e533	or	x10,x7,x31	  x7:0x00000000 x31:0x80021e63 x10=0x80021e63
      570357000	     28416	80004efa	10fd	c.addi	x1,-1	  x1:0x00000000  x1=0xffffffff
      570377000	     28417	80004efc	8799	c.srai	x15,0x6	 x15:0x00000003 x15=0x00000000
      570397000	     28418	80004efe	cf8d	c.beqz	x15,80004f38	 x15:0x00000000
      570837000	     28440	80004f38	c229	c.beqz	x12,80004f7a	 x12:0xffffffff
      570857000	     28441	80004f3a	9f2e	c.add	x30,x11	 x30:0x0000043f x11:0x80021e64 x30=0x800222a3
      570957000	     28446	80004f3c	3531b093	sltiu	x1,x3,851	  x3:0x00000000  x1=0x00000001
      571377000	     28467	80004f40	5aecf113	andi	x2,x25,1454	 x25:0x14f07000  x2=0x00000000
      571397000	     28468	80004f44	418680b3	sub	x1,x13,x24	 x13:0x80025ce4 x24:0x00000000  x1=0x80025ce4
      571417000	     28469	80004f48	0176d493	srli	x9,x13,0x17	 x13:0x80025ce4  x9=0x00000100
      571437000	     28470	80004f4c	3b006bf3	csrrsi	x23,pmpaddr0,0	 x23=0x20000ca9
      571517000	     28474	80004f50	002ecb33	xor	x22,x29,x2	 x29:0x00000000  x2:0x00000000 x22=0x00000000
      571537000	     28475	80004f54	00ff6e33	or	x28,x30,x15	 x30:0x800222a3 x15:0x00000000 x28=0x800222a3
      571597000	     28478	80004f58	41b00e33	sub	x28,x0,x27	  x0:0x00000000 x27:0xe45e2d7a x28=0x1ba1d286
      571617000	     28479	80004f5c	11963a17	auipc	x20,0x11963	 x20=0x91967f5c
      571997000	     28498	80004f60	0000100f	fence.i	
      573137000	     28555	80004f64	6171	c.addi16sp	x2,336	  x2:0x00000000  x2=0x00000150
      573157000	     28556	80004f66	6eb9	c.lui	x29,0xe	 x29=0x0000e000
      573557000	     28576	80004f68	039e4e63	blt	x28,x25,80004fa4	 x28:0x1ba1d286 x25:0x14f07000
      574457000	     28621	80004f6c	0373fcb3	remu	x25,x7,x23	  x7:0x00000000 x23:0x20000ca9 x25=0x00000000
      574477000	     28622	80004f70	01401b13	slli	x22,x0,0x14	  x0:0x00000000 x22=0x00000000
      574497000	     28623	80004f74	b84db773	csrrc	x14,mhpmcounter4h,x27	 x27:0xe45e2d7a x14=0x00000000
      574557000	     28626	80004f78	8f4d	c.or	x14,x11	 x14:0x00000000 x11:0x80021e64 x14=0x80021e64
      574577000	     28627	80004f7a	24412193	slti	x3,x2,580	  x2:0x00000150  x3=0x00000001
      574597000	     28628	80004f7e	0000100f	fence.i	
      574777000	     28637	80004f82	fb2a7313	andi	x6,x20,-78	 x20:0x91967f5c  x6=0x91967f10
      575077000	     28652	80004f86	80263293	sltiu	x5,x12,-2046	 x12:0xffffffff  x5=0x00000000
      575097000	     28653	80004f8a	0001	c.addi	x0,0	  x0:0x00000000  x0=0x00000000
      575117000	     28654	80004f8c	40f807b3	sub	x15,x16,x15	 x16:0x00000020 x15:0x00000000 x15=0x00000020
      575857000	     28691	80004f90	03e2c433	div	x8,x5,x30	  x5:0x00000000 x30:0x800222a3  x8=0x00000000
      575877000	     28692	80004f94	008ed933	srl	x18,x29,x8	 x29:0x0000e000  x8:0x00000000 x18=0x0000e000
      575897000	     28693	80004f98	01fb0833	add	x16,x22,x31	 x22:0x00000000 x31:0x80021e63 x16=0x80021e63
      575937000	     28695	80004f9c	02b23133	mulhu	x2,x4,x11	  x4:0x00000021 x11:0x80021e64  x2=0x00000010
      575957000	     28696	80004fa0	05e41563	bne	x8,x30,80004fea	  x8:0x00000000 x30:0x800222a3
      576597000	     28728	80004fea	b9cef813	andi	x16,x29,-1124	 x29:0x0000e000 x16=0x0000e000
      576617000	     28729	80004fee	00239533	sll	x10,x7,x2	  x7:0x00000000  x2:0x00000010 x10=0x00000000
      576657000	     28731	80004ff2	03c6bf33	mulhu	x30,x13,x28	 x13:0x80025ce4 x28:0x1ba1d286 x30=0x0dd12a8d
      576697000	     28733	80004ff6	039cbe33	mulhu	x28,x25,x25	 x25:0x00000000 x25:0x00000000 x28=0x00000000
      576717000	     28734	80004ffa	d797d217	auipc	x4,0xd797d	  x4=0x57981ffa
      576737000	     28735	80004ffe	48f76613	ori	x12,x14,1167	 x14:0x80021e64 x12=0x80021eef
      577117000	     28754	80005002	3b9022f3	csrrs	x5,pmpaddr9,x0	  x0:0x00000000  x5=0x0666730f
      577137000	     28755	80005006	41bf5c13	srai	x24,x30,0x1b	 x30:0x0dd12a8d x24=0x00000001
      577877000	     28792	8000500a	03e77b33	remu	x22,x14,x30	 x14:0x80021e64 x30:0x0dd12a8d x22=0x03a79f6f
      577897000	     28793	8000500e	0ff0000f	fence	iorw,iorw	
      577917000	     28794	80005012	0001	c.addi	x0,0	  x0:0x00000000  x0=0x00000000
      577937000	     28795	80005014	3b0021f3	csrrs	x3,pmpaddr0,x0	  x0:0x00000000  x3=0x20000ca9
      578097000	     28803	80005018	0000100f	fence.i	
      579837000	     28890	8000501c	0242f033	remu	x0,x5,x4	  x5:0x0666730f  x4:0x57981ffa  x0=0x00000000
      579857000	     28891	80005020	7a3030f3	csrrc	x1,tdata3,x0	  x0:0x00000000  x1=0x00000000
      579897000	     28893	80005024	038bafb3	mulhsu	x31,x23,x24	 x23:0x20000ca9 x24:0x00000001 x31=0x00000000
      579917000	     28894	80005028	8f3d	c.xor	x14,x15	 x14:0x80021e64 x15:0x00000020 x14=0x80021e44
      588797000	     29338	8000502a	f11eda73	csrrwi	x0,mvendorid,29	  x0=0x00000000
      589057000	     29351	80002500	0800006f	jal	x0,80002580	  x0=0x00000000
      590237000	     29410	80002580	16f1	c.addi	x13,-4	 x13:0x80025ce4 x13=0x80025ce0
      590357000	     29416	80002582	c28c	c.sw	x11,0(x13)	 x13:0x80025ce0 x11:0x80021e64 PA:0x80025ce0 store:0x80021e64 load:0xffffffff
      590597000	     29428	80002584	000685b3	add	x11,x13,x0	 x13:0x80025ce0  x0:0x00000000 x11=0x80025ce0
      590617000	     29429	80002588	f8058593	addi	x11,x11,-128	 x11:0x80025ce0 x11=0x80025c60
      590877000	     29442	8000258c	0015a223	sw	x1,4(x11)	 x11:0x80025c60  x1:0x00000000 PA:0x80025c64 store:0x00000000 load:0xffffffff
      591297000	     29463	80002590	0025a423	sw	x2,8(x11)	 x11:0x80025c60  x2:0x00000010 PA:0x80025c68 store:0x00000010 load:0xffffffff
      591717000	     29484	80002594	0035a623	sw	x3,12(x11)	 x11:0x80025c60  x3:0x20000ca9 PA:0x80025c6c store:0x20000ca9 load:0xffffffff
      591737000	     29485	80002598	0045a823	sw	x4,16(x11)	 x11:0x80025c60  x4:0x57981ffa PA:0x80025c70 store:0x57981ffa load:0xffffffff
      591757000	     29486	8000259c	0055aa23	sw	x5,20(x11)	 x11:0x80025c60  x5:0x0666730f PA:0x80025c74 store:0x0666730f load:0xffffffff
      592197000	     29508	800025a0	0065ac23	sw	x6,24(x11)	 x11:0x80025c60  x6:0x91967f10 PA:0x80025c78 store:0x91967f10 load:0xffffffff
      592497000	     29523	800025a4	0075ae23	sw	x7,28(x11)	 x11:0x80025c60  x7:0x00000000 PA:0x80025c7c store:0x00000000 load:0xffffffff
      592737000	     29535	800025a8	d180	c.sw	x8,32(x11)	 x11:0x80025c60  x8:0x00000000 PA:0x80025c80 store:0x00000000 load:0xffffffff
      592857000	     29541	800025aa	d1c4	c.sw	x9,36(x11)	 x11:0x80025c60  x9:0x00000100 PA:0x80025c84 store:0x00000100 load:0xffffffff
      592917000	     29544	800025ac	d588	c.sw	x10,40(x11)	 x11:0x80025c60 x10:0x00000000 PA:0x80025c88 store:0x00000000 load:0xffffffff
      592937000	     29545	800025ae	d5cc	c.sw	x11,44(x11)	 x11:0x80025c60 x11:0x80025c60 PA:0x80025c8c store:0x80025c60 load:0xffffffff
      593157000	     29556	800025b0	d990	c.sw	x12,48(x11)	 x11:0x80025c60 x12:0x80021eef PA:0x80025c90 store:0x80021eef load:0xffffffff
      593177000	     29557	800025b2	d9d4	c.sw	x13,52(x11)	 x11:0x80025c60 x13:0x80025ce0 PA:0x80025c94 store:0x80025ce0 load:0xffffffff
      593217000	     29559	800025b4	dd98	c.sw	x14,56(x11)	 x11:0x80025c60 x14:0x80021e44 PA:0x80025c98 store:0x80021e44 load:0xffffffff
      593237000	     29560	800025b6	dddc	c.sw	x15,60(x11)	 x11:0x80025c60 x15:0x00000020 PA:0x80025c9c store:0x00000020 load:0xffffffff
      593477000	     29572	800025b8	0505a023	sw	x16,64(x11)	 x11:0x80025c60 x16:0x0000e000 PA:0x80025ca0 store:0x0000e000 load:0xffffffff
      593537000	     29575	800025bc	0515a223	sw	x17,68(x11)	 x11:0x80025c60 x17:0x0f0f0f0f PA:0x80025ca4 store:0x0f0f0f0f load:0xffffffff
      593557000	     29576	800025c0	0525a423	sw	x18,72(x11)	 x11:0x80025c60 x18:0x0000e000 PA:0x80025ca8 store:0x0000e000 load:0xffffffff
      593677000	     29582	800025c4	0535a623	sw	x19,76(x11)	 x11:0x80025c60 x19:0x00000001 PA:0x80025cac store:0x00000001 load:0xffffffff
      593897000	     29593	800025c8	0545a823	sw	x20,80(x11)	 x11:0x80025c60 x20:0x91967f5c PA:0x80025cb0 store:0x91967f5c load:0xffffffff
      594357000	     29616	800025cc	0555aa23	sw	x21,84(x11)	 x11:0x80025c60 x21:0x00000001 PA:0x80025cb4 store:0x00000001 load:0xffffffff
      594657000	     29631	800025d0	0565ac23	sw	x22,88(x11)	 x11:0x80025c60 x22:0x03a79f6f PA:0x80025cb8 store:0x03a79f6f load:0xffffffff
      594717000	     29634	800025d4	0575ae23	sw	x23,92(x11)	 x11:0x80025c60 x23:0x20000ca9 PA:0x80025cbc store:0x20000ca9 load:0xffffffff
      595077000	     29652	800025d8	0785a023	sw	x24,96(x11)	 x11:0x80025c60 x24:0x00000001 PA:0x80025cc0 store:0x00000001 load:0xffffffff
      595217000	     29659	800025dc	0795a223	sw	x25,100(x11)	 x11:0x80025c60 x25:0x00000000 PA:0x80025cc4 store:0x00000000 load:0xffffffff
      595577000	     29677	800025e0	07a5a423	sw	x26,104(x11)	 x11:0x80025c60 x26:0xc0012ef1 PA:0x80025cc8 store:0xc0012ef1 load:0xffffffff
      595637000	     29680	800025e4	07b5a623	sw	x27,108(x11)	 x11:0x80025c60 x27:0xe45e2d7a PA:0x80025ccc store:0xe45e2d7a load:0xffffffff
      595697000	     29683	800025e8	07c5a823	sw	x28,112(x11)	 x11:0x80025c60 x28:0x00000000 PA:0x80025cd0 store:0x00000000 load:0xffffffff
      596077000	     29702	800025ec	07d5aa23	sw	x29,116(x11)	 x11:0x80025c60 x29:0x0000e000 PA:0x80025cd4 store:0x0000e000 load:0xffffffff
      596137000	     29705	800025f0	07e5ac23	sw	x30,120(x11)	 x11:0x80025c60 x30:0x0dd12a8d PA:0x80025cd8 store:0x0dd12a8d load:0xffffffff
      596317000	     29714	800025f4	07f5ae23	sw	x31,124(x11)	 x11:0x80025c60 x31:0x00000000 PA:0x80025cdc store:0x00000000 load:0xffffffff
      596337000	     29715	800025f8	000586b3	add	x13,x11,x0	 x11:0x80025c60  x0:0x00000000 x13=0x80025c60
      596357000	     29716	800025fc	90000db7	lui	x27,0x90000	 x27=0x90000000
      596377000	     29717	80002600	1df1	c.addi	x27,-4	 x27:0x90000000 x27=0x8ffffffc
      596397000	     29718	80002602	4921	c.li	x18,8	 x18=0x00000008
      596417000	     29719	80002604	0922	c.slli	x18,0x8	 x18:0x00000008 x18=0x00000800
      596617000	     29729	80002606	00090913	addi	x18,x18,0	 x18:0x00000800 x18=0x00000800
      596777000	     29737	8000260a	012da023	sw	x18,0(x27)	 x27:0x8ffffffc x18:0x00000800 PA:0x8ffffffc store:0x00000800 load:0xffffffff
      596797000	     29738	8000260e	34102973	csrrs	x18,mepc,x0	  x0:0x00000000 x18=0x8000502a
      596817000	     29739	80002612	34202973	csrrs	x18,mcause,x0	  x0:0x00000000 x18=0x00000002
      596837000	     29740	80002616	4d8d	c.li	x27,3	 x27=0x00000003
      596857000	     29741	80002618	01b91463	bne	x18,x27,80002620	 x18:0x00000002 x27:0x00000003
      598237000	     29810	80002620	4da1	c.li	x27,8	 x27=0x00000008
      598257000	     29811	80002622	05b90d63	beq	x18,x27,8000267c	 x18:0x00000002 x27:0x00000008
      598277000	     29812	80002626	4da5	c.li	x27,9	 x27=0x00000009
      598637000	     29830	80002628	05b90a63	beq	x18,x27,8000267c	 x18:0x00000002 x27:0x00000009
      598657000	     29831	8000262c	4dad	c.li	x27,11	 x27=0x0000000b
      598677000	     29832	8000262e	05b90763	beq	x18,x27,8000267c	 x18:0x00000002 x27:0x0000000b
      598697000	     29833	80002632	4d85	c.li	x27,1	 x27=0x00000001
      598717000	     29834	80002634	35b90363	beq	x18,x27,8000297a	 x18:0x00000002 x27:0x00000001
      598737000	     29835	80002638	4d95	c.li	x27,5	 x27=0x00000005
      598757000	     29836	8000263a	63b90963	beq	x18,x27,80002c6c	 x18:0x00000002 x27:0x00000005
      598777000	     29837	8000263e	4d9d	c.li	x27,7	 x27=0x00000007
      598957000	     29846	80002640	15b90ae3	beq	x18,x27,80002f94	 x18:0x00000002 x27:0x00000007
      599017000	     29849	80002644	4db1	c.li	x27,12	 x27=0x0000000c
      599417000	     29869	80002646	01b91463	bne	x18,x27,8000264e	 x18:0x00000002 x27:0x0000000c
      600217000	     29909	8000264e	4db5	c.li	x27,13	 x27=0x0000000d
      600477000	     29922	80002650	01b91463	bne	x18,x27,80002658	 x18:0x00000002 x27:0x0000000d
      600517000	     29924	80002658	4dbd	c.li	x27,15	 x27=0x0000000f
      600537000	     29925	8000265a	01b91463	bne	x18,x27,80002662	 x18:0x00000002 x27:0x0000000f
      601897000	     29993	80002662	4d89	c.li	x27,2	 x27=0x00000002
      601997000	     29998	80002664	01b91463	bne	x18,x27,8000266c	 x18:0x00000002 x27:0x00000002
      602017000	     29999	80002668	45c0906f	jal	x0,8000bac4	  x0=0x00000000
      602457000	     30021	8000bac4	90000db7	lui	x27,0x90000	 x27=0x90000000
      602497000	     30023	8000bac8	1df1	c.addi	x27,-4	 x27:0x90000000 x27=0x8ffffffc
      602517000	     30024	8000baca	4929	c.li	x18,10	 x18=0x0000000a
      602577000	     30027	8000bacc	0922	c.slli	x18,0x8	 x18:0x0000000a x18=0x00000a00
      602597000	     30028	8000bace	00090913	addi	x18,x18,0	 x18:0x00000a00 x18=0x00000a00
      602657000	     30031	8000bad2	012da023	sw	x18,0(x27)	 x27:0x8ffffffc x18:0x00000a00 PA:0x8ffffffc store:0x00000a00 load:0xffffffff
      602677000	     30032	8000bad6	90000db7	lui	x27,0x90000	 x27=0x90000000
      602697000	     30033	8000bada	1df1	c.addi	x27,-4	 x27:0x90000000 x27=0x8ffffffc
      602717000	     30034	8000badc	34200913	addi	x18,x0,834	  x0:0x00000000 x18=0x00000342
      602917000	     30044	8000bae0	0922	c.slli	x18,0x8	 x18:0x00000342 x18=0x00034200
      602937000	     30045	8000bae2	090d	c.addi	x18,3	 x18:0x00034200 x18=0x00034203
      603117000	     30054	8000bae4	012da023	sw	x18,0(x27)	 x27:0x8ffffffc x18:0x00034203 PA:0x8ffffffc store:0x00034203 load:0xffffffff
      603137000	     30055	8000bae8	34202973	csrrs	x18,mcause,x0	  x0:0x00000000 x18=0x00000002
      603557000	     30076	8000baec	012da023	sw	x18,0(x27)	 x27:0x8ffffffc x18:0x00000002 PA:0x8ffffffc store:0x00000002 load:0xffffffff
      603577000	     30077	8000baf0	34102973	csrrs	x18,mepc,x0	  x0:0x00000000 x18=0x8000502a
      603597000	     30078	8000baf4	0911	c.addi	x18,4	 x18:0x8000502a x18=0x8000502e
      603717000	     30084	8000baf6	34191073	csrrw	x0,mepc,x18	 x18:0x8000502e  x0=0x00000000
      603737000	     30085	8000bafa	000685b3	add	x11,x13,x0	 x13:0x80025c60  x0:0x00000000 x11=0x80025c60
      603797000	     30088	8000bafe	0045a083	lw	x1,4(x11)	 x11:0x80025c60  x1=0x00000000 PA:0x80025c64 load:0x00000000
      603937000	     30095	8000bb02	0085a103	lw	x2,8(x11)	 x11:0x80025c60  x2=0x00000010 PA:0x80025c68 load:0x00000010
      604097000	     30103	8000bb06	00c5a183	lw	x3,12(x11)	 x11:0x80025c60  x3=0x20000ca9 PA:0x80025c6c load:0x20000ca9
      604117000	     30104	8000bb0a	0105a203	lw	x4,16(x11)	 x11:0x80025c60  x4=0x57981ffa PA:0x80025c70 load:0x57981ffa
      604257000	     30111	8000bb0e	0145a283	lw	x5,20(x11)	 x11:0x80025c60  x5=0x0666730f PA:0x80025c74 load:0x0666730f
      604317000	     30114	8000bb12	0185a303	lw	x6,24(x11)	 x11:0x80025c60  x6=0x91967f10 PA:0x80025c78 load:0x91967f10
      604357000	     30116	8000bb16	01c5a383	lw	x7,28(x11)	 x11:0x80025c60  x7=0x00000000 PA:0x80025c7c load:0x00000000
      604397000	     30118	8000bb1a	5180	c.lw	x8,32(x11)	 x11:0x80025c60  x8=0x00000000 PA:0x80025c80 load:0x00000000
      604837000	     30140	8000bb1c	51c4	c.lw	x9,36(x11)	 x11:0x80025c60  x9=0x00000100 PA:0x80025c84 load:0x00000100
      604897000	     30143	8000bb1e	5588	c.lw	x10,40(x11)	 x11:0x80025c60 x10=0x00000000 PA:0x80025c88 load:0x00000000
      604917000	     30144	8000bb20	55cc	c.lw	x11,44(x11)	 x11:0x80025c60 x11=0x80025c60 PA:0x80025c8c load:0x80025c60
      605137000	     30155	8000bb22	5990	c.lw	x12,48(x11)	 x11:0x80025c60 x12=0x80021eef PA:0x80025c90 load:0x80021eef
      605417000	     30169	8000bb24	59d4	c.lw	x13,52(x11)	 x11:0x80025c60 x13=0x80025ce0 PA:0x80025c94 load:0x80025ce0
      605597000	     30178	8000bb26	5d98	c.lw	x14,56(x11)	 x11:0x80025c60 x14=0x80021e44 PA:0x80025c98 load:0x80021e44
      605737000	     30185	8000bb28	5ddc	c.lw	x15,60(x11)	 x11:0x80025c60 x15=0x00000020 PA:0x80025c9c load:0x00000020
      605797000	     30188	8000bb2a	0405a803	lw	x16,64(x11)	 x11:0x80025c60 x16=0x0000e000 PA:0x80025ca0 load:0x0000e000
      605817000	     30189	8000bb2e	0445a883	lw	x17,68(x11)	 x11:0x80025c60 x17=0x0f0f0f0f PA:0x80025ca4 load:0x0f0f0f0f
      606237000	     30210	8000bb32	0485a903	lw	x18,72(x11)	 x11:0x80025c60 x18=0x0000e000 PA:0x80025ca8 load:0x0000e000
      606297000	     30213	8000bb36	04c5a983	lw	x19,76(x11)	 x11:0x80025c60 x19=0x00000001 PA:0x80025cac load:0x00000001
      606717000	     30234	8000bb3a	0505aa03	lw	x20,80(x11)	 x11:0x80025c60 x20=0x91967f5c PA:0x80025cb0 load:0x91967f5c
      607057000	     30251	8000bb3e	0545aa83	lw	x21,84(x11)	 x11:0x80025c60 x21=0x00000001 PA:0x80025cb4 load:0x00000001
      607297000	     30263	8000bb42	0585ab03	lw	x22,88(x11)	 x11:0x80025c60 x22=0x03a79f6f PA:0x80025cb8 load:0x03a79f6f
      607557000	     30276	8000bb46	05c5ab83	lw	x23,92(x11)	 x11:0x80025c60 x23=0x20000ca9 PA:0x80025cbc load:0x20000ca9
      607577000	     30277	8000bb4a	0605ac03	lw	x24,96(x11)	 x11:0x80025c60 x24=0x00000001 PA:0x80025cc0 load:0x00000001
      607797000	     30288	8000bb4e	0645ac83	lw	x25,100(x11)	 x11:0x80025c60 x25=0x00000000 PA:0x80025cc4 load:0x00000000
      607817000	     30289	8000bb52	0685ad03	lw	x26,104(x11)	 x11:0x80025c60 x26=0xc0012ef1 PA:0x80025cc8 load:0xc0012ef1
      607837000	     30290	8000bb56	06c5ad83	lw	x27,108(x11)	 x11:0x80025c60 x27=0xe45e2d7a PA:0x80025ccc load:0xe45e2d7a
      607857000	     30291	8000bb5a	0705ae03	lw	x28,112(x11)	 x11:0x80025c60 x28=0x00000000 PA:0x80025cd0 load:0x00000000
      608077000	     30302	8000bb5e	0745ae83	lw	x29,116(x11)	 x11:0x80025c60 x29=0x0000e000 PA:0x80025cd4 load:0x0000e000
      608097000	     30303	8000bb62	0785af03	lw	x30,120(x11)	 x11:0x80025c60 x30=0x0dd12a8d PA:0x80025cd8 load:0x0dd12a8d
      608337000	     30315	8000bb66	07c5af83	lw	x31,124(x11)	 x11:0x80025c60 x31=0x00000000 PA:0x80025cdc load:0x00000000
      608657000	     30331	8000bb6a	08058593	addi	x11,x11,128	 x11:0x80025c60 x11=0x80025ce0
      608677000	     30332	8000bb6e	000586b3	add	x13,x11,x0	 x11:0x80025ce0  x0:0x00000000 x13=0x80025ce0
      608877000	     30342	8000bb72	428c	c.lw	x11,0(x13)	 x13:0x80025ce0 x11=0x80021e64 PA:0x80025ce0 load:0x80021e64
      608897000	     30343	8000bb74	0691	c.addi	x13,4	 x13:0x80025ce0 x13=0x80025ce4
      608917000	     30344	8000bb76	30200073	mret	
      609557000	     30376	8000502e	02191fb3	mulh	x31,x18,x1	 x18:0x0000e000  x1:0x00000000 x31=0x00000000
      609577000	     30377	80005032	000ca8b3	slt	x17,x25,x0	 x25:0x00000000  x0:0x00000000 x17=0x00000000
      609597000	     30378	80005036	9bf2	c.add	x23,x28	 x23:0x20000ca9 x28:0x00000000 x23=0x20000ca9
      609617000	     30379	80005038	6fbd	c.lui	x31,0xf	 x31=0x0000f000
      609637000	     30380	8000503a	8352	c.mv	x6,x20	  x0:0x00000000 x20:0x91967f5c  x6=0x91967f5c
      609657000	     30381	8000503c	003e1213	slli	x4,x28,0x3	 x28:0x00000000  x4=0x00000000
      609817000	     30389	80005040	01f6d533	srl	x10,x13,x31	 x13:0x80025ce4 x31:0x0000f000 x10=0x80025ce4
      609857000	     30391	80005044	0249c7b3	div	x15,x19,x4	 x19:0x00000001  x4:0x00000000 x15=0xffffffff
      610617000	     30429	80005048	033d4833	div	x16,x26,x19	 x26:0xc0012ef1 x19:0x00000001 x16=0xc0012ef1
      610637000	     30430	8000504c	00b6bb33	sltu	x22,x13,x11	 x13:0x80025ce4 x11:0x80021e64 x22=0x00000000
      610657000	     30431	80005050	0153cd33	xor	x26,x7,x21	  x7:0x00000000 x21:0x00000001 x26=0x00000001
      610677000	     30432	80005054	11027313	andi	x6,x4,272	  x4:0x00000000  x6=0x00000000
      610957000	     30446	80005058	01ac7633	and	x12,x24,x26	 x24:0x00000001 x26:0x00000001 x12=0x00000001
      611057000	     30451	8000505c	8d3d	c.xor	x10,x15	 x10:0x80025ce4 x15:0xffffffff x10=0x7ffda31b
      611077000	     30452	8000505e	01469c93	slli	x25,x13,0x14	 x13:0x80025ce4 x25=0xce400000
      611517000	     30474	80005062	0248cb33	div	x22,x17,x4	 x17:0x00000000  x4:0x00000000 x22=0xffffffff
      611537000	     30475	80005066	02737763	bgeu	x6,x7,80005094	  x6:0x00000000  x7:0x00000000
      611937000	     30495	80005094	ab3e6917	auipc	x18,0xab3e6	 x18=0x2b3eb094
      612237000	     30510	80005098	03e6c463	blt	x13,x30,800050c0	 x13:0x80025ce4 x30:0x0dd12a8d
      612697000	     30533	800050c0	8d65	c.and	x10,x9	 x10:0x7ffda31b  x9:0x00000100 x10=0x00000100
      612717000	     30534	800050c2	00540533	add	x10,x8,x5	  x8:0x00000000  x5:0x0666730f x10=0x0666730f
      612737000	     30535	800050c6	01e5d413	srli	x8,x11,0x1e	 x11:0x80021e64  x8=0x00000002
      612837000	     30540	800050ca	51913893	sltiu	x17,x2,1305	  x2:0x00000010 x17=0x00000001
      612937000	     30545	800050ce	0e422093	slti	x1,x4,228	  x4:0x00000000  x1=0x00000001
      612957000	     30546	800050d2	006fb433	sltu	x8,x31,x6	 x31:0x0000f000  x6:0x00000000  x8=0x00000000
      613377000	     30567	800050d6	0ff0000f	fence	iorw,iorw	
      613397000	     30568	800050da	3dbbea93	ori	x21,x23,987	 x23:0x20000ca9 x21=0x20000ffb
      613437000	     30570	800050de	03ce7db3	remu	x27,x28,x28	 x28:0x00000000 x28:0x00000000 x27=0x00000000
      613557000	     30576	800050e2	b08690f3	csrrw	x1,mhpmcounter8,x13	 x13:0x80025ce4  x1=0x0000011d
      613617000	     30579	800050e6	00f7e463	bltu	x15,x15,800050ee	 x15:0xffffffff x15:0xffffffff
      614357000	     30616	800050ea	02d751b3	divu	x3,x14,x13	 x14:0x80021e44 x13:0x80025ce4  x3=0x00000000
      615097000	     30653	800050ee	02c3f833	remu	x16,x7,x12	  x7:0x00000000 x12:0x00000001 x16=0x00000000
      615117000	     30654	800050f2	98fd	c.andi	x9,-1	  x9:0x00000100  x9=0x00000100
      615137000	     30655	800050f4	3be07d73	csrrci	x26,pmpaddr14,0	 x26=0x1bbbc864
      615157000	     30656	800050f8	3bb034f3	csrrc	x9,pmpaddr11,x0	  x0:0x00000000  x9=0x0eeefb97
      615177000	     30657	800050fc	41845313	srai	x6,x8,0x18	  x8:0x00000000  x6=0x00000000
      615197000	     30658	80005100	8d19	c.sub	x10,x14	 x10:0x0666730f x14:0x80021e44 x10=0x866454cb
      615937000	     30695	80005102	02bd6ab3	rem	x21,x26,x11	 x26:0x1bbbc864 x11:0x80021e64 x21=0x1bbbc864
      615957000	     30696	80005106	6779	c.lui	x14,0x1e	 x14=0x0001e000
      615977000	     30697	80005108	b800be73	csrrc	x28,mcycleh,x1	  x1:0x0000011d x28=0x0000001f
      616037000	     30700	8000510c	521a2b93	slti	x23,x20,1313	 x20:0x91967f5c x23=0x00000001
      616057000	     30701	80005110	efa38493	addi	x9,x7,-262	  x7:0x00000000  x9=0xfffffefa
      616077000	     30702	80005114	df323813	sltiu	x16,x4,-525	  x4:0x00000000 x16=0x00000001
      616097000	     30703	80005118	000294b3	sll	x9,x5,x0	  x5:0x0666730f  x0:0x00000000  x9=0x0666730f
      616117000	     30704	8000511c	409d8c33	sub	x24,x27,x9	 x27:0x00000000  x9:0x0666730f x24=0xf9998cf1
      616157000	     30706	80005120	f9eac197	auipc	x3,0xf9eac	  x3=0x79eb1120
      616237000	     30710	80005124	8f4d	c.or	x14,x11	 x14:0x0001e000 x11:0x80021e64 x14=0x8003fe64
      616297000	     30713	80005126	01a96ab3	or	x21,x18,x26	 x18:0x2b3eb094 x26:0x1bbbc864 x21=0x3bbff8f4
      616317000	     30714	8000512a	007320b3	slt	x1,x6,x7	  x6:0x00000000  x7:0x00000000  x1=0x00000000
      616737000	     30735	8000512e	00cb6d63	bltu	x22,x12,80005148	 x22:0xffffffff x12:0x00000001
      617157000	     30756	80005132	01a1cc33	xor	x24,x3,x26	  x3:0x79eb1120 x26:0x1bbbc864 x24=0x6250d944
      617177000	     30757	80005136	413a0bb3	sub	x23,x20,x19	 x20:0x91967f5c x19:0x00000001 x23=0x91967f5b
      617217000	     30759	8000513a	9e366213	ori	x4,x12,-1565	 x12:0x00000001  x4=0xfffff9e3
      617237000	     30760	8000513e	02766d63	bltu	x12,x7,80005178	 x12:0x00000001  x7:0x00000000
      617257000	     30761	80005142	065a	c.slli	x12,0x16	 x12:0x00000001 x12=0x00400000
      617277000	     30762	80005144	b830de73	csrrwi	x28,mhpmcounter3h,1	 x28=0x00000000
      617337000	     30765	80005148	fdc10193	addi	x3,x2,-36	  x2:0x00000010  x3=0xffffffec
      617437000	     30770	8000514c	3a007a73	csrrci	x20,pmpcfg0,0	 x20=0x0f0f0f0f
      617857000	     30791	80005150	8529	c.srai	x10,0xa	 x10:0x866454cb x10=0xffe19915
      617877000	     30792	80005152	0000100f	fence.i	
      619197000	     30858	80005156	852a	c.mv	x10,x10	  x0:0x00000000 x10:0xffe19915 x10=0xffe19915
      619217000	     30859	80005158	00f9fc33	and	x24,x19,x15	 x19:0x00000001 x15:0xffffffff x24=0x00000001
      619237000	     30860	8000515c	018b1813	slli	x16,x22,0x18	 x22:0xffffffff x16=0xff000000
      619257000	     30861	80005160	0000100f	fence.i	
      619357000	     30866	80005164	7a952637	lui	x12,0x7a952	 x12=0x7a952000
      619417000	     30869	80005168	5e7d	c.li	x28,-1	 x28=0xffffffff
      619437000	     30870	8000516a	884d	c.andi	x8,19	  x8:0x00000000  x8=0x00000000
      619577000	     30877	8000516c	8fe5	c.and	x15,x9	 x15:0xffffffff  x9:0x0666730f x15=0x0666730f
      619597000	     30878	8000516e	8e09	c.sub	x12,x10	 x12:0x7a952000 x10:0xffe19915 x12=0x7ab386eb
      620497000	     30923	80005170	03217cb3	remu	x25,x2,x18	  x2:0x00000010 x18:0x2b3eb094 x25=0x00000010
      620517000	     30924	80005174	0ff0000f	fence	iorw,iorw	
      620537000	     30925	80005178	04cb1063	bne	x22,x12,800051b8	 x22:0xffffffff x12:0x7ab386eb
      620817000	     30939	800051b8	0104aa33	slt	x20,x9,x16	  x9:0x0666730f x16:0xff000000 x20=0x00000000
      620977000	     30947	800051bc	0109eb63	bltu	x19,x16,800051d2	 x19:0x00000001 x16:0xff000000
      621377000	     30967	800051d2	01e68b63	beq	x13,x30,800051e8	 x13:0x80025ce4 x30:0x0dd12a8d
      621397000	     30968	800051d6	40290e33	sub	x28,x18,x2	 x18:0x2b3eb094  x2:0x00000010 x28=0x2b3eb084
      621417000	     30969	800051da	0001	c.addi	x0,0	  x0:0x00000000  x0=0x00000000
      621477000	     30972	800051dc	3a306873	csrrsi	x16,pmpcfg3,0	 x16=0x0f0f0f0f
      621497000	     30973	800051e0	031e6e63	bltu	x28,x17,8000521c	 x28:0x2b3eb084 x17:0x00000001
      621557000	     30976	800051e4	41da5733	sra	x14,x20,x29	 x20:0x00000000 x29:0x0000e000 x14=0x00000000
      621917000	     30994	800051e8	03880eb3	mul	x29,x16,x24	 x16:0x0f0f0f0f x24:0x00000001 x29=0x0f0f0f0f
      621937000	     30995	800051ec	8f39	c.xor	x14,x14	 x14:0x00000000 x14:0x00000000 x14=0x00000000
      621957000	     30996	800051ee	8d49	c.or	x10,x10	 x10:0xffe19915 x10:0xffe19915 x10=0xffe19915
      621977000	     30997	800051f0	00ef5ab3	srl	x21,x30,x14	 x30:0x0dd12a8d x14:0x00000000 x21=0x0dd12a8d
      622377000	     31017	800051f4	8fa9	c.xor	x15,x10	 x15:0x0666730f x10:0xffe19915 x15=0xf987ea1a
      622397000	     31018	800051f6	6ded	c.lui	x27,0x1b	 x27=0x0001b000
      622517000	     31024	800051f8	8ce9	c.and	x9,x10	  x9:0x0666730f x10:0xffe19915  x9=0x06601105
      622937000	     31045	800051fa	8048f513	andi	x10,x17,-2044	 x17:0x00000001 x10=0x00000000
      623357000	     31066	800051fe	00378033	add	x0,x15,x3	 x15:0xf987ea1a  x3:0xffffffec  x0=0x00000000
      623377000	     31067	80005202	865d	c.srai	x12,0x17	 x12:0x7ab386eb x12=0x000000f5
      623557000	     31076	80005204	617d	c.addi16sp	x2,496	  x2:0x00000010  x2=0x00000200
      623577000	     31077	80005206	8e25	c.xor	x12,x9	 x12:0x000000f5  x9:0x06601105 x12=0x066011f0
      623757000	     31086	80005208	d6be8613	addi	x12,x29,-661	 x29:0x0f0f0f0f x12=0x0f0f0c7a
      624177000	     31107	8000520c	dce30293	addi	x5,x6,-562	  x6:0x00000000  x5=0xfffffdce
      624597000	     31128	80005210	40f8e093	ori	x1,x17,1039	 x17:0x00000001  x1=0x0000040f
      625017000	     31149	80005214	055be363	bltu	x23,x21,8000525a	 x23:0x91967f5b x21:0x0dd12a8d
      625037000	     31150	80005218	7d3b7f13	andi	x30,x22,2003	 x22:0xffffffff x30=0x000007d3
      625057000	     31151	8000521c	04210163	beq	x2,x2,8000525e	  x2:0x00000200  x2:0x00000200
      625657000	     31181	8000525e	4b816993	ori	x19,x2,1208	  x2:0x00000200 x19=0x000006b8
      625797000	     31188	80005262	3b003273	csrrc	x4,pmpaddr0,x0	  x0:0x00000000  x4=0x20000ca9
      625817000	     31189	80005266	84dd7893	andi	x17,x26,-1971	 x26:0x1bbbc864 x17=0x1bbbc844
      626577000	     31227	8000526a	02f2f2b3	remu	x5,x5,x15	  x5:0xfffffdce x15:0xf987ea1a  x5=0x067813b4
      626597000	     31228	8000526e	01029f93	slli	x31,x5,0x10	  x5:0x067813b4 x31=0x13b40000
      626617000	     31229	80005272	8cc1	c.or	x9,x8	  x9:0x06601105  x8:0x00000000  x9=0x06601105
      626637000	     31230	80005274	03b68fb3	mul	x31,x13,x27	 x13:0x80025ce4 x27:0x0001b000 x31=0xfcc0c000
      626657000	     31231	80005278	0000100f	fence.i	
      626737000	     31235	8000527c	7642fd93	andi	x27,x5,1892	  x5:0x067813b4 x27=0x00000324
      626797000	     31238	80005280	8851	c.andi	x8,20	  x8:0x00000000  x8=0x00000000
      627057000	     31251	80005282	3439a1f3	csrrs	x3,mtval,x19	 x19:0x000006b8  x3=0xf11eda73
      627117000	     31254	80005286	0771	c.addi	x14,28	 x14:0x00000000 x14=0x0000001c
      627237000	     31260	80005288	00e5dd93	srli	x27,x11,0xe	 x11:0x80021e64 x27=0x00020008
      627257000	     31261	8000528c	055f5163	bge	x30,x21,800052ce	 x30:0x000007d3 x21:0x0dd12a8d
      627517000	     31274	80005290	01a0b933	sltu	x18,x1,x26	  x1:0x0000040f x26:0x1bbbc864 x18=0x00000001
      627537000	     31275	80005294	41685f33	sra	x30,x16,x22	 x16:0x0f0f0f0f x22:0xffffffff x30=0x00000000
      627637000	     31280	80005298	410a0133	sub	x2,x20,x16	 x20:0x00000000 x16:0x0f0f0f0f  x2=0xf0f0f0f1
      627657000	     31281	8000529c	0335	c.addi	x6,13	  x6:0x00000000  x6=0x0000000d
      627677000	     31282	8000529e	40dd5e13	srai	x28,x26,0xd	 x26:0x1bbbc864 x28=0x0000ddde
      627697000	     31283	800052a2	015cd733	srl	x14,x25,x21	 x25:0x00000010 x21:0x0dd12a8d x14=0x00000000
      627837000	     31290	800052a6	01f9ddb3	srl	x27,x19,x31	 x19:0x000006b8 x31:0xfcc0c000 x27=0x000006b8
      627857000	     31291	800052aa	03928b63	beq	x5,x25,800052e0	  x5:0x067813b4 x25:0x00000010
      628117000	     31304	800052ae	5af41317	auipc	x6,0x5af41	  x6=0xdaf462ae
      628137000	     31305	800052b2	05750263	beq	x10,x23,800052f6	 x10:0x00000000 x23:0x91967f5b
      628557000	     31326	800052b6	01769e33	sll	x28,x13,x23	 x13:0x80025ce4 x23:0x91967f5b x28=0x20000000
      628577000	     31327	800052ba	01aa5c93	srli	x25,x20,0x1a	 x20:0x00000000 x25=0x00000000
      628637000	     31330	800052be	001d9913	slli	x18,x27,0x1	 x27:0x000006b8 x18=0x00000d70
      628657000	     31331	800052c2	8e45	c.or	x12,x9	 x12:0x0f0f0c7a  x9:0x06601105 x12=0x0f6f1d7f
      628717000	     31334	800052c4	03c129b3	mulhsu	x19,x2,x28	  x2:0xf0f0f0f1 x28:0x20000000 x19=0xfe1e1e1e
      628877000	     31342	800052c8	00ee7a63	bgeu	x28,x14,800052dc	 x28:0x20000000 x14:0x00000000
      629237000	     31360	800052dc	0ff0000f	fence	iorw,iorw	
      629257000	     31361	800052e0	0b0de813	ori	x16,x27,176	 x27:0x000006b8 x16=0x000006b8
      629277000	     31362	800052e4	0000100f	fence.i	
      629637000	     31380	800052e8	019dedb3	or	x27,x27,x25	 x27:0x000006b8 x25:0x00000000 x27=0x000006b8
      629757000	     31386	800052ec	0000100f	fence.i	
      630537000	     31425	800052f0	3b8068f3	csrrsi	x17,pmpaddr8,0	 x17=0x02222ecb
      630557000	     31426	800052f4	c70d	c.beqz	x14,8000531e	 x14:0x00000000
      630957000	     31446	8000531e	32407673	csrrci	x12,mhpmevent4,0	 x12=0x00000002
      630977000	     31447	80005322	01689d33	sll	x26,x17,x22	 x17:0x02222ecb x22:0xffffffff x26=0x80000000
      630997000	     31448	80005326	0001	c.addi	x0,0	  x0:0x00000000  x0=0x00000000
      631017000	     31449	80005328	402e5d13	srai	x26,x28,0x2	 x28:0x20000000 x26=0x08000000
      631057000	     31451	8000532c	02419ab3	mulh	x21,x3,x4	  x3:0xf11eda73  x4:0x20000ca9 x21=0xfe23da91
      631097000	     31453	80005330	02ab2fb3	mulhsu	x31,x22,x10	 x22:0xffffffff x10:0x00000000 x31=0x00000000
      631437000	     31470	80005334	3b602773	csrrs	x14,pmpaddr6,x0	  x0:0x00000000 x14=0x3999a642
      631477000	     31472	80005338	027960b3	rem	x1,x18,x7	 x18:0x00000d70  x7:0x00000000  x1=0x00000d70
      631637000	     31480	8000533c	3bf03ef3	csrrc	x29,pmpaddr15,x0	  x0:0x00000000 x29=0x20000ca8
      631857000	     31491	80005340	1884	c.addi4spn	x9,x2,112	  x9=0xf0f0f161
      631877000	     31492	80005342	68b1	c.lui	x17,0xc	 x17=0x0000c000
      631937000	     31495	80005344	00a9d233	srl	x4,x19,x10	 x19:0xfe1e1e1e x10:0x00000000  x4=0xfe1e1e1e
      631957000	     31496	80005348	8c79	c.and	x8,x14	  x8:0x00000000 x14:0x3999a642  x8=0x00000000
      631977000	     31497	8000534a	8f6d	c.and	x14,x11	 x14:0x3999a642 x11:0x80021e64 x14=0x00000640
      632377000	     31517	8000534c	329357f3	csrrwi	x15,mhpmevent9,6	 x15=0x00000040
      632437000	     31520	80005350	0001	c.addi	x0,0	  x0:0x00000000  x0=0x00000000
      632457000	     31521	80005352	d6028893	addi	x17,x5,-672	  x5:0x067813b4 x17=0x06781114
      632477000	     31522	80005356	0b00	c.addi4spn	x8,x2,400	  x8=0xf0f0f281
      632497000	     31523	80005358	8fdd	c.or	x15,x15	 x15:0x00000040 x15:0x00000040 x15=0x00000040
      632517000	     31524	8000535a	8fc9	c.or	x15,x10	 x15:0x00000040 x10:0x00000000 x15=0x00000040
      632857000	     31541	8000535c	00af5ab3	srl	x21,x30,x10	 x30:0x00000000 x10:0x00000000 x21=0x00000000
      632957000	     31546	80005360	57fd	c.li	x15,-1	 x15=0xffffffff
      633377000	     31567	80005362	0012ca33	xor	x20,x5,x1	  x5:0x067813b4  x1:0x00000d70 x20=0x06781ec4
      633397000	     31568	80005366	870d	c.srai	x14,0x3	 x14:0x00000640 x14=0x000000c8
      633797000	     31588	80005368	032284b3	mul	x9,x5,x18	  x5:0x067813b4 x18:0x00000d70  x9=0xed88c2c0
      633817000	     31589	8000536c	01922c93	slti	x25,x4,25	  x4:0xfe1e1e1e x25=0x00000001
      633837000	     31590	80005370	b84490f3	csrrw	x1,mhpmcounter4h,x9	  x9:0xed88c2c0  x1=0x00000000
      633897000	     31593	80005374	0ff0000f	fence	iorw,iorw	
      634277000	     31612	80005378	01b821b3	slt	x3,x16,x27	 x16:0x000006b8 x27:0x000006b8  x3=0x00000000
      634577000	     31627	8000537c	00315f93	srli	x31,x2,0x3	  x2:0xf0f0f0f1 x31=0x1e1e1e1e
      634597000	     31628	80005380	4731e2b7	lui	x5,0x4731e	  x5=0x4731e000
      634637000	     31630	80005384	021f9d33	mulh	x26,x31,x1	 x31:0x1e1e1e1e  x1:0x00000000 x26=0x00000000
      634817000	     31639	80005388	c8e96713	ori	x14,x18,-882	 x18:0x00000d70 x14=0xfffffdfe
      634837000	     31640	8000538c	03e68b63	beq	x13,x30,800053c2	 x13:0x80025ce4 x30:0x00000000
      634857000	     31641	80005390	0001	c.addi	x0,0	  x0:0x00000000  x0=0x00000000
      635597000	     31678	80005392	02c26333	rem	x6,x4,x12	  x4:0xfe1e1e1e x12:0x00000002  x6=0x00000000
      635617000	     31679	80005396	8069	c.srli	x8,0x1a	  x8:0xf0f0f281  x8=0x0000003c
      635637000	     31680	80005398	01fec2b3	xor	x5,x29,x31	 x29:0x20000ca8 x31:0x1e1e1e1e  x5=0x3e1e12b6
      635657000	     31681	8000539c	4042da33	sra	x20,x5,x4	  x5:0x3e1e12b6  x4:0xfe1e1e1e x20=0x00000000
      635677000	     31682	800053a0	8ced	c.and	x9,x11	  x9:0xed88c2c0 x11:0x80021e64  x9=0x80000240
      635697000	     31683	800053a2	8e01	c.sub	x12,x8	 x12:0x00000002  x8:0x0000003c x12=0xffffffc6
      635717000	     31684	800053a4	00dff233	and	x4,x31,x13	 x31:0x1e1e1e1e x13:0x80025ce4  x4=0x00021c04
      635737000	     31685	800053a8	0ff0000f	fence	iorw,iorw	
      635757000	     31686	800053ac	c7356f97	auipc	x31,0xc7356	 x31=0x4735b3ac
      635957000	     31696	800053b0	3a202af3	csrrs	x21,pmpcfg2,x0	  x0:0x00000000 x21=0x0f0f0f0f
      635977000	     31697	800053b4	8e39	c.xor	x12,x14	 x12:0xffffffc6 x14:0xfffffdfe x12=0x00000238
      635997000	     31698	800053b6	ef9d	c.bnez	x15,800053f4	 x15:0xffffffff
      636197000	     31708	800053f4	408edc33	sra	x24,x29,x8	 x29:0x20000ca8  x8:0x0000003c x24=0x00000002
      636237000	     31710	800053f8	0c42	c.slli	x24,0x10	 x24:0x00000002 x24=0x00020000
      636257000	     31711	800053fa	00480bb3	add	x23,x16,x4	 x16:0x000006b8  x4:0x00021c04 x23=0x000222bc
      636277000	     31712	800053fe	8336	c.mv	x6,x13	  x0:0x00000000 x13:0x80025ce4  x6=0x80025ce4
      636657000	     31731	80005400	03af9333	mulh	x6,x31,x26	 x31:0x4735b3ac x26:0x00000000  x6=0x00000000
      636737000	     31735	80005404	02f41c33	mulh	x24,x8,x15	  x8:0x0000003c x15:0xffffffff x24=0xffffffff
      636777000	     31737	80005408	021be733	rem	x14,x23,x1	 x23:0x000222bc  x1:0x00000000 x14=0x000222bc
      637097000	     31753	8000540c	8f99	c.sub	x15,x14	 x15:0xffffffff x14:0x000222bc x15=0xfffddd43
      637197000	     31758	8000540e	019c4233	xor	x4,x24,x25	 x24:0xffffffff x25:0x00000001  x4=0xfffffffe
      639257000	     31861	80005412	411a8d33	sub	x26,x21,x17	 x21:0x0f0f0f0f x17:0x06781114 x26=0x0896fdfb
      639277000	     31862	80005416	41cd8ab3	sub	x21,x27,x28	 x27:0x000006b8 x28:0x20000000 x21=0xe00006b8
      639297000	     31863	8000541a	0001	c.addi	x0,0	  x0:0x00000000  x0=0x00000000
      639337000	     31865	8000541c	03be2233	mulhsu	x4,x28,x27	 x28:0x20000000 x27:0x000006b8  x4=0x000000d7
      639357000	     31866	80005420	8f95	c.sub	x15,x13	 x15:0xfffddd43 x13:0x80025ce4 x15=0x7ffb805f
      639377000	     31867	80005422	e795	c.bnez	x15,8000544e	 x15:0x7ffb805f
      640657000	     31931	8000544e	41ad5d13	srai	x26,x26,0x1a	 x26:0x0896fdfb x26=0x00000002
      640677000	     31932	80005452	05f91263	bne	x18,x31,80005496	 x18:0x00000d70 x31:0x4735b3ac
      641797000	     31988	80005496	b04071f3	csrrci	x3,mhpmcounter4,0	  x3=0x00002f33
      641877000	     31992	8000549a	00b684b3	add	x9,x13,x11	 x13:0x80025ce4 x11:0x80021e64  x9=0x00047b48
      642137000	     32005	8000549e	033dadb3	mulhsu	x27,x27,x19	 x27:0x000006b8 x19:0xfe1e1e1e x27=0x000006ab
      642157000	     32006	800054a2	41465493	srai	x9,x12,0x14	 x12:0x00000238  x9=0x00000000
      642177000	     32007	800054a6	0b9c	c.addi4spn	x15,x2,464	 x15=0xf0f0f2c1
      642297000	     32013	800054a8	01d04db3	xor	x27,x0,x29	  x0:0x00000000 x29:0x20000ca8 x27=0x20000ca8
      642317000	     32014	800054ac	02328e63	beq	x5,x3,800054e8	  x5:0x3e1e12b6  x3:0x00002f33
      642337000	     32015	800054b0	02459c63	bne	x11,x4,800054e8	 x11:0x80021e64  x4:0x000000d7
      643137000	     32055	800054e8	d7d4ba13	sltiu	x20,x9,-643	  x9:0x00000000 x20=0x00000001
      643157000	     32056	800054ec	5fde2713	slti	x14,x28,1533	 x28:0x20000000 x14=0x00000000
      643177000	     32057	800054f0	b068e493	ori	x9,x17,-1274	 x17:0x06781114  x9=0xfffffb16
      643197000	     32058	800054f4	01832bb3	slt	x23,x6,x24	  x6:0x00000000 x24:0xffffffff x23=0x00000000
      643237000	     32060	800054f8	03083233	mulhu	x4,x16,x16	 x16:0x000006b8 x16:0x000006b8  x4=0x00000000
      643257000	     32061	800054fc	00cfd533	srl	x10,x31,x12	 x31:0x4735b3ac x12:0x00000238 x10=0x00000047
      643377000	     32067	80005500	40be5193	srai	x3,x28,0xb	 x28:0x20000000  x3=0x00040000
      643397000	     32068	80005504	01de9c13	slli	x24,x29,0x1d	 x29:0x20000ca8 x24=0x00000000
      643597000	     32078	80005508	b06cf8f3	csrrci	x17,mhpmcounter6,25	 x17=0x00000048
      643677000	     32082	8000550c	0368bfb3	mulhu	x31,x17,x22	 x17:0x00000048 x22:0xffffffff x31=0x00000047
      644757000	     32136	80005510	02b760b3	rem	x1,x14,x11	 x14:0x00000000 x11:0x80021e64  x1=0x00000000
      644777000	     32137	80005514	04fc6363	bltu	x24,x15,8000555a	 x24:0x00000000 x15:0xf0f0f2c1
      645117000	     32154	8000555a	0000100f	fence.i	
      645677000	     32182	8000555e	012f2633	slt	x12,x30,x18	 x30:0x00000000 x18:0x00000d70 x12=0x00000001
      645777000	     32187	80005562	06c46f97	auipc	x31,0x6c46	 x31=0x86c4b562
      645937000	     32195	80005566	3bc07a73	csrrci	x20,pmpaddr12,0	 x20=0x13333fdc
      646077000	     32202	8000556a	00df5d33	srl	x26,x30,x13	 x30:0x00000000 x13:0x80025ce4 x26=0x00000000
      646097000	     32203	8000556e	8c51	c.or	x8,x12	  x8:0x0000003c x12:0x00000001  x8=0x0000003d
      646417000	     32219	80005570	01f79b13	slli	x22,x15,0x1f	 x15:0xf0f0f2c1 x22=0x80000000
      646617000	     32229	80005574	0ff0000f	fence	iorw,iorw	
      646637000	     32230	80005578	00aa4663	blt	x20,x10,80005584	 x20:0x13333fdc x10:0x00000047
      646657000	     32231	8000557c	137d	c.addi	x6,-1	  x6:0x00000000  x6=0xffffffff
      647057000	     32251	8000557e	3a307a73	csrrci	x20,pmpcfg3,0	 x20=0x0f0f0f0f
      647077000	     32252	80005582	0001	c.addi	x0,0	  x0:0x00000000  x0=0x00000000
      647477000	     32272	80005584	5efe3513	sltiu	x10,x28,1519	 x28:0x20000000 x10=0x00000000
      647497000	     32273	80005588	8c81	c.sub	x9,x8	  x9:0xfffffb16  x8:0x0000003d  x9=0xfffffad9
      647877000	     32292	8000558a	417550b3	sra	x1,x10,x23	 x10:0x00000000 x23:0x00000000  x1=0x00000000
      647917000	     32294	8000558e	02e5eeb3	rem	x29,x11,x14	 x11:0x80021e64 x14:0x00000000 x29=0x80021e64
      648077000	     32302	80005592	00afdb33	srl	x22,x31,x10	 x31:0x86c4b562 x10:0x00000000 x22=0x86c4b562
      648097000	     32303	80005596	0000100f	fence.i	
      648617000	     32329	8000559a	4870e537	lui	x10,0x4870e	 x10=0x4870e000
      648637000	     32330	8000559e	8564ea93	ori	x21,x9,-1962	  x9:0xfffffad9 x21=0xfffffadf
      649057000	     32351	800055a2	cac58793	addi	x15,x11,-852	 x11:0x80021e64 x15=0x80021b10
      649137000	     32355	800055a6	016ea4b3	slt	x9,x29,x22	 x29:0x80021e64 x22:0x86c4b562  x9=0x00000001
      649197000	     32358	800055aa	018d4cb3	xor	x25,x26,x24	 x26:0x00000000 x24:0x00000000 x25=0x00000000
      649217000	     32359	800055ae	9eda	c.add	x29,x22	 x29:0x80021e64 x22:0x86c4b562 x29=0x06c6d3c6
      649617000	     32379	800055b0	00d95313	srli	x6,x18,0xd	 x18:0x00000d70  x6=0x00000000
      649717000	     32384	800055b4	9ec4a937	lui	x18,0x9ec4a	 x18=0x9ec4a000
      649757000	     32386	800055b8	0344b933	mulhu	x18,x9,x20	  x9:0x00000001 x20:0x0f0f0f0f x18=0x00000000
      649777000	     32387	800055bc	84d5	c.srai	x9,0x15	  x9:0x00000001  x9=0x00000000
      649817000	     32389	800055be	134fad93	slti	x27,x31,308	 x31:0x86c4b562 x27=0x00000001
      649897000	     32393	800055c2	03d2b533	mulhu	x10,x5,x29	  x5:0x3e1e12b6 x29:0x06c6d3c6 x10=0x01a4f315
      649917000	     32394	800055c6	0b6e	c.slli	x22,0x1b	 x22:0x86c4b562 x22=0x10000000
      649937000	     32395	800055c8	024607b3	mul	x15,x12,x4	 x12:0x00000001  x4:0x00000000 x15=0x00000000
      649957000	     32396	800055cc	3a302773	csrrs	x14,pmpcfg3,x0	  x0:0x00000000 x14=0x0f0f0f0f
      649977000	     32397	800055d0	8fa9	c.xor	x15,x10	 x15:0x00000000 x10:0x01a4f315 x15=0x01a4f315
      650017000	     32399	800055d2	51c1c893	xori	x17,x3,1308	  x3:0x00040000 x17=0x0004051c
      650037000	     32400	800055d6	007fd313	srli	x6,x31,0x7	 x31:0x86c4b562  x6=0x010d896a
      650077000	     32402	800055da	037bfb33	remu	x22,x23,x23	 x23:0x00000000 x23:0x00000000 x22=0x00000000
      650397000	     32418	800055de	e77e6f93	ori	x31,x28,-393	 x28:0x20000000 x31=0xfffffe77
      650537000	     32425	800055e2	00b6a9b3	slt	x19,x13,x11	 x13:0x80025ce4 x11:0x80021e64 x19=0x00000000
      650557000	     32426	800055e6	b84bec73	csrrsi	x24,mhpmcounter4h,23	 x24=0x00000000
      650757000	     32436	800055ea	00bb5333	srl	x6,x22,x11	 x22:0x00000000 x11:0x80021e64  x6=0x00000000
      650817000	     32439	800055ee	948ebeb7	lui	x29,0x948eb	 x29=0x948eb000
      650837000	     32440	800055f2	8179	c.srli	x10,0x1e	 x10:0x01a4f315 x10=0x00000000
      650857000	     32441	800055f4	001b49b3	xor	x19,x22,x1	 x22:0x00000000  x1:0x00000000 x19=0x00000000
      650877000	     32442	800055f8	8b41	c.andi	x14,16	 x14:0x0f0f0f0f x14=0x00000000
      651057000	     32451	800055fa	03f79263	bne	x15,x31,8000561e	 x15:0x01a4f315 x31:0xfffffe77
      651597000	     32478	8000561e	40395a13	srai	x20,x18,0x3	 x18:0x00000000 x20=0x00000000
      651617000	     32479	80005622	0001	c.addi	x0,0	  x0:0x00000000  x0=0x00000000
      651757000	     32486	80005624	cb11	c.beqz	x14,80005638	 x14:0x00000000
      652257000	     32511	80005638	0c51	c.addi	x24,20	 x24:0x00000000 x24=0x00000014
      652637000	     32530	8000563a	b08597f3	csrrw	x15,mhpmcounter8,x11	 x11:0x80021e64 x15=0x80025cfc
      652697000	     32533	8000563e	0ff0000f	fence	iorw,iorw	
      652857000	     32541	80005642	0125f533	and	x10,x11,x18	 x11:0x80021e64 x18:0x00000000 x10=0x00000000
      652877000	     32542	80005646	8c69	c.and	x8,x10	  x8:0x0000003d x10:0x00000000  x8=0x00000000
      652957000	     32546	80005648	020e7d33	remu	x26,x28,x0	 x28:0x20000000  x0:0x00000000 x26=0x20000000
      652977000	     32547	8000564c	00d1cb33	xor	x22,x3,x13	  x3:0x00040000 x13:0x80025ce4 x22=0x80065ce4
      653377000	     32567	80005650	0ff0000f	fence	iorw,iorw	
      653577000	     32577	80005654	717d	c.addi16sp	x2,-16	  x2:0xf0f0f0f1  x2=0xf0f0f0e1
      653597000	     32578	80005656	0376	c.slli	x6,0x1d	  x6:0x00000000  x6=0x00000000
      653617000	     32579	80005658	0001	c.addi	x0,0	  x0:0x00000000  x0=0x00000000
      653657000	     32581	8000565a	021242b3	div	x5,x4,x1	  x4:0x00000000  x1:0x00000000  x5=0xffffffff
      653737000	     32585	8000565e	5331a997	auipc	x19,0x5331a	 x19=0xd331f65e
      653757000	     32586	80005662	84c9	c.srai	x9,0x12	  x9:0x00000000  x9=0x00000000
      653777000	     32587	80005664	0001	c.addi	x0,0	  x0:0x00000000  x0=0x00000000
      653797000	     32588	80005666	54fd	c.li	x9,-1	  x9=0xffffffff
      654177000	     32607	80005668	02780463	beq	x16,x7,80005690	 x16:0x000006b8  x7:0x00000000
      654197000	     32608	8000566c	0088fd63	bgeu	x17,x8,80005686	 x17:0x0004051c  x8:0x00000000
      654817000	     32639	80005686	02df2733	mulhsu	x14,x30,x13	 x30:0x00000000 x13:0x80025ce4 x14=0x00000000
      654937000	     32645	8000568a	00e07633	and	x12,x0,x14	  x0:0x00000000 x14:0x00000000 x12=0x00000000
      654957000	     32646	8000568e	547d	c.li	x8,-1	  x8=0xffffffff
      655057000	     32651	80005690	01cc8eb3	add	x29,x25,x28	 x25:0x00000000 x28:0x20000000 x29=0x20000000
      655477000	     32672	80005694	3a203173	csrrc	x2,pmpcfg2,x0	  x0:0x00000000  x2=0x0f0f0f0f
      655817000	     32689	80005698	02c9f733	remu	x14,x19,x12	 x19:0xd331f65e x12:0x00000000 x14=0xd331f65e
      655837000	     32690	8000569c	41825833	sra	x16,x4,x24	  x4:0x00000000 x24:0x00000014 x16=0x00000000
      655857000	     32691	800056a0	0000100f	fence.i	
      656077000	     32702	800056a4	dca34d13	xori	x26,x6,-566	  x6:0x00000000 x26=0xfffffdca
      656197000	     32708	800056a8	039c3eb3	mulhu	x29,x24,x25	 x24:0x00000014 x25:0x00000000 x29=0x00000000
      656597000	     32728	800056ac	39608513	addi	x10,x1,918	  x1:0x00000000 x10=0x00000396
      656617000	     32729	800056b0	6dc9	c.lui	x27,0x12	 x27=0x00012000
      657037000	     32750	800056b2	3744b793	sltiu	x15,x9,884	  x9:0xffffffff x15=0x00000000
      657057000	     32751	800056b6	0001	c.addi	x0,0	  x0:0x00000000  x0=0x00000000
      657097000	     32753	800056b8	03d86ab3	rem	x21,x16,x29	 x16:0x00000000 x29:0x00000000 x21=0x00000000
      657837000	     32790	800056bc	0256c733	div	x14,x13,x5	 x13:0x80025ce4  x5:0xffffffff x14=0x7ffda31c
      657857000	     32791	800056c0	ec85	c.bnez	x9,800056f8	  x9:0xffffffff
      658057000	     32801	800056f8	018a64b3	or	x9,x20,x24	 x20:0x00000000 x24:0x00000014  x9=0x00000014
      658097000	     32803	800056fc	8c01	c.sub	x8,x8	  x8:0xffffffff  x8:0xffffffff  x8=0x00000000
      658117000	     32804	800056fe	03428433	mul	x8,x5,x20	  x5:0xffffffff x20:0x00000000  x8=0x00000000
      658257000	     32811	80005702	72790c13	addi	x24,x18,1831	 x18:0x00000000 x24=0x00000727
      658277000	     32812	80005706	00201613	slli	x12,x0,0x2	  x0:0x00000000 x12=0x00000000
      658297000	     32813	8000570a	f0ff2d13	slti	x26,x30,-241	 x30:0x00000000 x26=0x00000000
      658317000	     32814	8000570e	9dcb7d13	andi	x26,x22,-1572	 x22:0x80065ce4 x26=0x800658c4
      658437000	     32820	80005712	b0d59337	lui	x6,0xb0d59	  x6=0xb0d59000
      659677000	     32882	80005716	02a45c33	divu	x24,x8,x10	  x8:0x00000000 x10:0x00000396 x24=0x00000000
      659697000	     32883	8000571a	e4298093	addi	x1,x19,-446	 x19:0xd331f65e  x1=0xd331f4a0
      659717000	     32884	8000571e	b89da673	csrrs	x12,mhpmcounter9h,x27	 x27:0x00012000 x12=0x00000000
      659777000	     32887	80005722	9512	c.add	x10,x4	 x10:0x00000396  x4:0x00000000 x10=0x00000396
      659797000	     32888	80005724	30003a73	csrrc	x20,mstatus,x0	  x0:0x00000000 x20=0x00220088
      659817000	     32889	80005728	8b52	c.mv	x22,x20	  x0:0x00000000 x20:0x00220088 x22=0x00220088
      659837000	     32890	8000572a	03d2ed63	bltu	x5,x29,80005764	  x5:0xffffffff x29:0x00000000
      660597000	     32928	8000572e	022f7a33	remu	x20,x30,x2	 x30:0x00000000  x2:0x0f0f0f0f x20=0x00000000
      660617000	     32929	80005732	00af2ab3	slt	x21,x30,x10	 x30:0x00000000 x10:0x00000396 x21=0x00000001
      660637000	     32930	80005736	0ff0000f	fence	iorw,iorw	
      660677000	     32932	8000573a	032d61b3	rem	x3,x26,x18	 x26:0x800658c4 x18:0x00000000  x3=0x800658c4
      660697000	     32933	8000573e	418b8bb3	sub	x23,x23,x24	 x23:0x00000000 x24:0x00000000 x23=0x00000000
      660717000	     32934	80005742	f5fa2837	lui	x16,0xf5fa2	 x16=0xf5fa2000
      660737000	     32935	80005746	8f99	c.sub	x15,x14	 x15:0x00000000 x14:0x7ffda31c x15=0x80025ce4
      661137000	     32955	80005748	025d31b3	mulhu	x3,x26,x5	 x26:0x800658c4  x5:0xffffffff  x3=0x800658c3
      661157000	     32956	8000574c	87f1	c.srai	x15,0x1c	 x15:0x80025ce4 x15=0xfffffff8
      661177000	     32957	8000574e	8c01	c.sub	x8,x8	  x8:0x00000000  x8:0x00000000  x8=0x00000000
      661197000	     32958	80005750	0001	c.addi	x0,0	  x0:0x00000000  x0=0x00000000
      661217000	     32959	80005752	8d61	c.and	x10,x8	 x10:0x00000396  x8:0x00000000 x10=0x00000000
      661237000	     32960	80005754	018e9233	sll	x4,x29,x24	 x29:0x00000000 x24:0x00000000  x4=0x00000000
      661397000	     32968	80005758	9a7d	c.andi	x12,-1	 x12:0x00000000 x12=0x00000000
      661417000	     32969	8000575a	45afae13	slti	x28,x31,1114	 x31:0xfffffe77 x28=0x00000001
      661437000	     32970	8000575e	8732	c.mv	x14,x12	  x0:0x00000000 x12:0x00000000 x14=0x00000000
      661837000	     32990	80005760	b8c02f73	csrrs	x30,mhpmcounter12h,x0	  x0:0x00000000 x30=0x00000000
      661857000	     32991	80005764	0646	c.slli	x12,0x11	 x12:0x00000000 x12=0x00000000
      661877000	     32992	80005766	0001	c.addi	x0,0	  x0:0x00000000  x0=0x00000000
      662297000	     33013	80005768	02794133	div	x2,x18,x7	 x18:0x00000000  x7:0x00000000  x2=0xffffffff
      662337000	     33015	8000576c	01bf3eb3	sltu	x29,x30,x27	 x30:0x00000000 x27:0x00012000 x29=0x00000001
      662437000	     33020	80005770	861d	c.srai	x12,0x7	 x12:0x00000000 x12=0x00000000
      662857000	     33041	80005772	5d8e4c37	lui	x24,0x5d8e4	 x24=0x5d8e4000
      663037000	     33050	80005776	41830a33	sub	x20,x6,x24	  x6:0xb0d59000 x24:0x5d8e4000 x20=0x53475000
      663077000	     33052	8000577a	02daab33	mulhsu	x22,x21,x13	 x21:0x00000001 x13:0x80025ce4 x22=0x00000000
      663097000	     33053	8000577e	987d	c.andi	x8,-1	  x8:0x00000000  x8=0x00000000
      663257000	     33061	80005780	40e65533	sra	x10,x12,x14	 x12:0x00000000 x14:0x00000000 x10=0x00000000
      663277000	     33062	80005784	29ab7c93	andi	x25,x22,666	 x22:0x00000000 x25=0x00000000
      663397000	     33068	80005788	18b7e493	ori	x9,x15,395	 x15:0xfffffff8  x9=0xfffffffb
      663497000	     33073	8000578c	012f4863	blt	x30,x18,8000579c	 x30:0x00000000 x18:0x00000000
      663917000	     33094	80005790	41515c33	sra	x24,x2,x21	  x2:0xffffffff x21:0x00000001 x24=0xffffffff
      664337000	     33115	80005794	02bd81b3	mul	x3,x27,x11	 x27:0x00012000 x11:0x80021e64  x3=0x62308000
      664597000	     33128	80005798	0131b9b3	sltu	x19,x3,x19	  x3:0x62308000 x19:0xd331f65e x19=0x00000001
      664617000	     33129	8000579c	018eb233	sltu	x4,x29,x24	 x29:0x00000001 x24:0xffffffff  x4=0x00000001
      664757000	     33136	800057a0	05f68063	beq	x13,x31,800057e0	 x13:0x80025ce4 x31:0xfffffe77
      664897000	     33143	800057a4	00566d33	or	x26,x12,x5	 x12:0x00000000  x5:0xffffffff x26=0xffffffff
      665057000	     33151	800057a8	0780	c.addi4spn	x8,x2,960	  x8=0x000003bf
      674197000	     33608	800057aa	03d00033	mul	x0,x0,x29	  x0:0x00000000 x29:0x00000001  x0=0x00000000
      674217000	     33609	800057ae	03f46963	bltu	x8,x31,800057e0	  x8:0x000003bf x31:0xfffffe77
      674297000	     33613	800057e0	00d43cb3	sltu	x25,x8,x13	  x8:0x000003bf x13:0x80025ce4 x25=0x00000001
      674457000	     33621	800057e4	01781233	sll	x4,x16,x23	 x16:0xf5fa2000 x23:0x00000000  x4=0xf5fa2000
      674477000	     33622	800057e8	05211463	bne	x2,x18,80005830	  x2:0xffffffff x18:0x00000000
      675037000	     33650	80005830	40858b33	sub	x22,x11,x8	 x11:0x80021e64  x8:0x000003bf x22=0x80021aa5
      675077000	     33652	80005834	01451733	sll	x14,x10,x20	 x10:0x00000000 x20:0x53475000 x14=0x00000000
      676217000	     33709	80005838	0367fc33	remu	x24,x15,x22	 x15:0xfffffff8 x22:0x80021aa5 x24=0x7ffde553
      676237000	     33710	8000583c	01ec60b3	or	x1,x24,x30	 x24:0x7ffde553 x30:0x00000000  x1=0x7ffde553
      676257000	     33711	80005840	011fee63	bltu	x31,x17,8000585c	 x31:0xfffffe77 x17:0x0004051c
      676277000	     33712	80005844	00cc91b3	sll	x3,x25,x12	 x25:0x00000001 x12:0x00000000  x3=0x00000001
      676297000	     33713	80005848	011ee2b3	or	x5,x29,x17	 x29:0x00000001 x17:0x0004051c  x5=0x0004051d
      676317000	     33714	8000584c	6a663b13	sltiu	x22,x12,1702	 x12:0x00000000 x22=0x00000001
      677077000	     33752	80005850	03bfe133	rem	x2,x31,x27	 x31:0xfffffe77 x27:0x00012000  x2=0xfffffe77
      677097000	     33753	80005854	00ff7033	and	x0,x30,x15	 x30:0x00000000 x15:0xfffffff8  x0=0x00000000
      677117000	     33754	80005858	01851cb3	sll	x25,x10,x24	 x10:0x00000000 x24:0x7ffde553 x25=0x00000000
      677137000	     33755	8000585c	0da1	c.addi	x27,8	 x27:0x00012000 x27=0x00012008
      677157000	     33756	8000585e	00c917b3	sll	x15,x18,x12	 x18:0x00000000 x12:0x00000000 x15=0x00000000
      677177000	     33757	80005862	03245e63	bge	x8,x18,8000589e	  x8:0x000003bf x18:0x00000000
      677937000	     33795	8000589e	00d7de33	srl	x28,x15,x13	 x15:0x00000000 x13:0x80025ce4 x28=0x00000000
      678677000	     33832	800058a2	02107133	remu	x2,x0,x1	  x0:0x00000000  x1:0x7ffde553  x2=0x00000000
      678697000	     33833	800058a6	10fd	c.addi	x1,-1	  x1:0x7ffde553  x1=0x7ffde552
      678717000	     33834	800058a8	0a76	c.slli	x20,0x1d	 x20:0x53475000 x20=0x00000000
      678737000	     33835	800058aa	2fab3493	sltiu	x9,x22,762	 x22:0x00000001  x9=0x00000001
      678757000	     33836	800058ae	b0825a73	csrrwi	x20,mhpmcounter8,4	 x20=0x80021e6e
      678817000	     33839	800058b2	ec11	c.bnez	x8,800058ce	  x8:0x000003bf
      679637000	     33880	800058ce	8675	c.srai	x12,0x1d	 x12:0x00000000 x12=0x00000000
      679757000	     33886	800058d0	0382ad33	mulhsu	x26,x5,x24	  x5:0x0004051d x24:0x7ffde553 x26=0x00020286
      679777000	     33887	800058d4	8c51	c.or	x8,x12	  x8:0x000003bf x12:0x00000000  x8=0x000003bf
      680517000	     33924	800058d6	02d47db3	remu	x27,x8,x13	  x8:0x000003bf x13:0x80025ce4 x27=0x000003bf
      680537000	     33925	800058da	b83f5f73	csrrwi	x30,mhpmcounter3h,30	 x30=0x00000000
      680597000	     33928	800058de	0098f0b3	and	x1,x17,x9	 x17:0x0004051c  x9:0x00000001  x1=0x00000000
      680617000	     33929	800058e2	6fdd	c.lui	x31,0x17	 x31=0x00017000
      680637000	     33930	800058e4	4185d713	srai	x14,x11,0x18	 x11:0x80021e64 x14=0xffffff80
      680657000	     33931	800058e8	34201173	csrrw	x2,mcause,x0	  x0:0x00000000  x2=0x00000002
      680717000	     33934	800058ec	01a39093	slli	x1,x7,0x1a	  x7:0x00000000  x1=0x00000000
      680737000	     33935	800058f0	ea16a013	slti	x0,x13,-351	 x13:0x80025ce4  x0=0x00000000
      681057000	     33951	800058f4	01b69413	slli	x8,x13,0x1b	 x13:0x80025ce4  x8=0x20000000
      681077000	     33952	800058f8	0ff0000f	fence	iorw,iorw	
      681097000	     33953	800058fc	0001	c.addi	x0,0	  x0:0x00000000  x0=0x00000000
      681117000	     33954	800058fe	03da0d63	beq	x20,x29,80005938	 x20:0x80021e6e x29:0x00000001
      681137000	     33955	80005902	000201b3	add	x3,x4,x0	  x4:0xf5fa2000  x0:0x00000000  x3=0xf5fa2000
      681357000	     33966	80005906	03a9a0b3	mulhsu	x1,x19,x26	 x19:0x00000001 x26:0x00020286  x1=0x00000000
      681757000	     33986	8000590a	de8b0293	addi	x5,x22,-536	 x22:0x00000001  x5=0xfffffde9
      681837000	     33990	8000590e	02a4d033	divu	x0,x9,x10	  x9:0x00000001 x10:0x00000000  x0=0x00000000
      681857000	     33991	80005912	0135c313	xori	x6,x11,19	 x11:0x80021e64  x6=0x80021e77
      681877000	     33992	80005916	87cd	c.srai	x15,0x13	 x15:0x00000000 x15=0x00000000
      681977000	     33997	80005918	00a5ea33	or	x20,x11,x10	 x11:0x80021e64 x10:0x00000000 x20=0x80021e64
      682017000	     33999	8000591c	027e6033	rem	x0,x28,x7	 x28:0x00000000  x7:0x00000000  x0=0x00000000
      682117000	     34004	80005920	05481163	bne	x16,x20,80005962	 x16:0xf5fa2000 x20:0x80021e64
      683397000	     34068	80005962	03ee32b3	mulhu	x5,x28,x30	 x28:0x00000000 x30:0x00000000  x5=0x00000000
      683417000	     34069	80005966	01399913	slli	x18,x19,0x13	 x19:0x00000001 x18=0x00080000
      683697000	     34083	8000596a	02ab3b33	mulhu	x22,x22,x10	 x22:0x00000001 x10:0x00000000 x22=0x00000000
      683717000	     34084	8000596e	03ae0b63	beq	x28,x26,800059a4	 x28:0x00000000 x26:0x00020286
      684537000	     34125	80005972	03f260b3	rem	x1,x4,x31	  x4:0xf5fa2000 x31:0x00017000  x1=0xfffea000
      684557000	     34126	80005976	0001	c.addi	x0,0	  x0:0x00000000  x0=0x00000000
      684577000	     34127	80005978	02478363	beq	x15,x4,8000599e	 x15:0x00000000  x4:0xf5fa2000
      684617000	     34129	8000597c	0204fe33	remu	x28,x9,x0	  x9:0x00000001  x0:0x00000000 x28=0x00000001
      684657000	     34131	80005980	0276d533	divu	x10,x13,x7	 x13:0x80025ce4  x7:0x00000000 x10=0xffffffff
      684677000	     34132	80005984	8e5d	c.or	x12,x15	 x12:0x00000000 x15:0x00000000 x12=0x00000000
      684697000	     34133	80005986	c785	c.beqz	x15,800059ae	 x15:0x00000000
      685637000	     34180	800059ae	41c45a93	srai	x21,x8,0x1c	  x8:0x20000000 x21=0x00000002
      685657000	     34181	800059b2	8f29	c.xor	x14,x10	 x14:0xffffff80 x10:0xffffffff x14=0x0000007f
      685677000	     34182	800059b4	8652	c.mv	x12,x20	  x0:0x00000000 x20:0x80021e64 x12=0x80021e64
      685697000	     34183	800059b6	0000100f	fence.i	
      685837000	     34190	800059ba	92b6	c.add	x5,x13	  x5:0x00000000 x13:0x80025ce4  x5=0x80025ce4
      685857000	     34191	800059bc	0684	c.addi4spn	x9,x2,832	  x9=0x00000342
      685877000	     34192	800059be	b0006f73	csrrsi	x30,mcycle,0	 x30=0xc001467a
      685897000	     34193	800059c2	02aed663	bge	x29,x10,800059ee	 x29:0x00000001 x10:0xffffffff
      686477000	     34222	800059ee	03128463	beq	x5,x17,80005a16	  x5:0x80025ce4 x17:0x0004051c
      687377000	     34267	800059f2	03f0c4b3	div	x9,x1,x31	  x1:0xfffea000 x31:0x00017000  x9=0x00000000
      687397000	     34268	800059f6	73e94093	xori	x1,x18,1854	 x18:0x00080000  x1=0x0008073e
      687417000	     34269	800059fa	f9815417	auipc	x8,0xf9815	  x8=0x7981a9fa
      687437000	     34270	800059fe	32506073	csrrsi	x0,mhpmevent5,0	  x0=0x00000000
      687457000	     34271	80005a02	02f05d63	bge	x0,x15,80005a3c	  x0:0x00000000 x15:0x00000000
      688057000	     34301	80005a3c	01f37e33	and	x28,x6,x31	  x6:0x80021e77 x31:0x00017000 x28=0x00001000
      688077000	     34302	80005a40	20fec8b7	lui	x17,0x20fec	 x17=0x20fec000
      688097000	     34303	80005a44	415e04b3	sub	x9,x28,x21	 x28:0x00001000 x21:0x00000002  x9=0x00000ffe
      688117000	     34304	80005a48	0866	c.slli	x16,0x19	 x16:0xf5fa2000 x16=0x00000000
      688437000	     34320	80005a4a	002ec533	xor	x10,x29,x2	 x29:0x00000001  x2:0x00000002 x10=0x00000003
      688457000	     34321	80005a4e	8661	c.srai	x12,0x18	 x12:0x80021e64 x12=0xffffff80
      688737000	     34335	80005a50	0001	c.addi	x0,0	  x0:0x00000000  x0=0x00000000
      688797000	     34338	80005a52	32a02f73	csrrs	x30,mhpmevent10,x0	  x0:0x00000000 x30=0x00000080
      688817000	     34339	80005a56	ef15	c.bnez	x14,80005a92	 x14:0x0000007f
      689657000	     34381	80005a92	0001	c.addi	x0,0	  x0:0x00000000  x0=0x00000000
      690397000	     34418	80005a94	0223f0b3	remu	x1,x7,x2	  x7:0x00000000  x2:0x00000002  x1=0x00000000
      690417000	     34419	80005a98	8cf2	c.mv	x25,x28	  x0:0x00000000 x28:0x00001000 x25=0x00001000
      690437000	     34420	80005a9a	5b5ef717	auipc	x14,0x5b5ef	 x14=0xdb5f4a9a
      690457000	     34421	80005a9e	8832	c.mv	x16,x12	  x0:0x00000000 x12:0xffffff80 x16=0xffffff80
      690477000	     34422	80005aa0	1e84	c.addi4spn	x9,x2,880	  x9=0x00000372
      690497000	     34423	80005aa2	32002373	csrrs	x6,mcountinhibit,x0	  x0:0x00000000  x6=0x00000000
      691237000	     34460	80005aa6	0325f133	remu	x2,x11,x18	 x11:0x80021e64 x18:0x00080000  x2=0x00021e64
      691257000	     34461	80005aaa	3b502b73	csrrs	x22,pmpaddr5,x0	  x0:0x00000000 x22=0x355561fe
      691277000	     34462	80005aae	01494f63	blt	x18,x20,80005acc	 x18:0x00080000 x20:0x80021e64
      691297000	     34463	80005ab2	6f51	c.lui	x30,0x14	 x30=0x00014000
      691317000	     34464	80005ab4	341a34f3	csrrc	x9,mepc,x20	 x20:0x80021e64  x9=0x8000502e
      691337000	     34465	80005ab8	01a58eb3	add	x29,x11,x26	 x11:0x80021e64 x26:0x00020286 x29=0x800420ea
      691357000	     34466	80005abc	00e64933	xor	x18,x12,x14	 x12:0xffffff80 x14:0xdb5f4a9a x18=0x24a0b51a
      691777000	     34487	80005ac0	1ffd	c.addi	x31,-1	 x31:0x00017000 x31=0x00016fff
      691797000	     34488	80005ac2	01f99613	slli	x12,x19,0x1f	 x19:0x00000001 x12=0x80000000
      692157000	     34506	80005ac6	c2e3c797	auipc	x15,0xc2e3c	 x15=0x42e41ac6
      692177000	     34507	80005aca	957a	c.add	x10,x30	 x10:0x00000003 x30:0x00014000 x10=0x00014003
      692577000	     34527	80005acc	b8695e73	csrrwi	x28,mhpmcounter6h,18	 x28=0x00000000
      693477000	     34572	80005ad0	03357533	remu	x10,x10,x19	 x10:0x00014003 x19:0x00000001 x10=0x00000000
      693497000	     34573	80005ad4	e3a1	c.bnez	x15,80005b14	 x15:0x42e41ac6
      693957000	     34596	80005b14	84f6	c.mv	x9,x29	  x0:0x00000000 x29:0x800420ea  x9=0x800420ea
      694217000	     34609	80005b16	4b8db013	sltiu	x0,x27,1208	 x27:0x000003bf  x0=0x00000000
      694237000	     34610	80005b1a	fe1488b7	lui	x17,0xfe148	 x17=0xfe148000
      694457000	     34621	80005b1e	407a5cb3	sra	x25,x20,x7	 x20:0x80021e64  x7:0x00000000 x25=0x80021e64
      694477000	     34622	80005b22	b8909573	csrrw	x10,mhpmcounter9h,x1	  x1:0x00000000 x10=0x00000000
      694537000	     34625	80005b26	03119f63	bne	x3,x17,80005b64	  x3:0xf5fa2000 x17:0xfe148000
      694837000	     34640	80005b64	02beb7b3	mulhu	x15,x29,x11	 x29:0x800420ea x11:0x80021e64 x15=0x40031faf
      695917000	     34694	80005b68	03ae4533	div	x10,x28,x26	 x28:0x00000000 x26:0x00020286 x10=0x00000000
      695937000	     34695	80005b6c	78962a93	slti	x21,x12,1929	 x12:0x80000000 x21=0x00000001
      695957000	     34696	80005b70	01ecdb93	srli	x23,x25,0x1e	 x25:0x80021e64 x23=0x00000002
      695997000	     34698	80005b74	03489433	mulh	x8,x17,x20	 x17:0xfe148000 x20:0x80021e64  x8=0x00f5bbee
      696737000	     34735	80005b78	03f84733	div	x14,x16,x31	 x16:0xffffff80 x31:0x00016fff x14=0x00000000
      696757000	     34736	80005b7c	401b51b3	sra	x3,x22,x1	 x22:0x355561fe  x1:0x00000000  x3=0x355561fe
      696777000	     34737	80005b80	0001	c.addi	x0,0	  x0:0x00000000  x0=0x00000000
      696797000	     34738	80005b82	0517e837	lui	x16,0x517e	 x16=0x0517e000
      696817000	     34739	80005b86	8d09	c.sub	x10,x10	 x10:0x00000000 x10:0x00000000 x10=0x00000000
      696837000	     34740	80005b88	0b6e	c.slli	x22,0x1b	 x22:0x355561fe x22=0xf0000000
      696857000	     34741	80005b8a	0ff0000f	fence	iorw,iorw	
      696877000	     34742	80005b8e	8cd1	c.or	x9,x12	  x9:0x800420ea x12:0x80000000  x9=0x800420ea
      697397000	     34768	80005b90	8f91	c.sub	x15,x12	 x15:0x40031faf x12:0x80000000 x15=0xc0031faf
      697437000	     34770	80005b92	036daf33	mulhsu	x30,x27,x22	 x27:0x000003bf x22:0xf0000000 x30=0x00000383
      697477000	     34772	80005b96	03d92333	mulhsu	x6,x18,x29	 x18:0x24a0b51a x29:0x800420ea  x6=0x1250f1c5
      697497000	     34773	80005b9a	8fed	c.and	x15,x11	 x15:0xc0031faf x11:0x80021e64 x15=0x80021e24
      697517000	     34774	80005b9c	00af77b3	and	x15,x30,x10	 x30:0x00000383 x10:0x00000000 x15=0x00000000
      697577000	     34777	80005ba0	01e1dd93	srli	x27,x3,0x1e	  x3:0x355561fe x27=0x00000000
      697677000	     34782	80005ba4	0356	c.slli	x6,0x15	  x6:0x1250f1c5  x6=0x38a00000
      697697000	     34783	80005ba6	8469	c.srai	x8,0x1a	  x8:0x00f5bbee  x8=0x00000000
      697717000	     34784	80005ba8	00849033	sll	x0,x9,x8	  x9:0x800420ea  x8:0x00000000  x0=0x00000000
      698117000	     34804	80005bac	01ac1313	slli	x6,x24,0x1a	 x24:0x7ffde553  x6=0x4c000000
      698137000	     34805	80005bb0	008810b3	sll	x1,x16,x8	 x16:0x0517e000  x8:0x00000000  x1=0x0517e000
      698197000	     34808	80005bb4	40d95733	sra	x14,x18,x13	 x18:0x24a0b51a x13:0x80025ce4 x14=0x024a0b51
      698237000	     34810	80005bb8	f5fe2913	slti	x18,x28,-161	 x28:0x00000000 x18=0x00000000
      698257000	     34811	80005bbc	0054f7b3	and	x15,x9,x5	  x9:0x800420ea  x5:0x80025ce4 x15=0x800000e0
      698497000	     34823	80005bc0	6169	c.addi16sp	x2,208	  x2:0x00021e64  x2=0x00021f34
      698917000	     34844	80005bc2	01dcc533	xor	x10,x25,x29	 x25:0x80021e64 x29:0x800420ea x10=0x00063e8e
      698937000	     34845	80005bc6	416007b3	sub	x15,x0,x22	  x0:0x00000000 x22:0xf0000000 x15=0x10000000
      699017000	     34849	80005bca	b8b02173	csrrs	x2,mhpmcounter11h,x0	  x0:0x00000000  x2=0x00000000
      699037000	     34850	80005bce	016e9e13	slli	x28,x29,0x16	 x29:0x800420ea x28=0x3a800000
      699057000	     34851	80005bd2	8f51	c.or	x14,x12	 x14:0x024a0b51 x12:0x80000000 x14=0x824a0b51
      699197000	     34858	80005bd4	407a0933	sub	x18,x20,x7	 x20:0x80021e64  x7:0x00000000 x18=0x80021e64
      699277000	     34862	80005bd8	e029	c.bnez	x8,80005c1a	  x8:0x00000000
      699297000	     34863	80005bda	8049	c.srli	x8,0x12	  x8:0x00000000  x8=0x00000000
      699337000	     34865	80005bdc	408a5793	srai	x15,x20,0x8	 x20:0x80021e64 x15=0xff80021e
      699657000	     34881	80005be0	8fe1	c.and	x15,x8	 x15:0xff80021e  x8:0x00000000 x15=0x00000000
      700077000	     34902	80005be2	005ad793	srli	x15,x21,0x5	 x21:0x00000001 x15=0x00000000
      700197000	     34908	80005be6	03670f63	beq	x14,x22,80005c24	 x14:0x824a0b51 x22:0xf0000000
      700217000	     34909	80005bea	7b007873	csrrci	x0,dcsr,0	  x0=0x00000000
      700457000	     34921	80002500	0800006f	jal	x0,80002580	  x0=0x00000000
      704017000	     35099	80002580	16f1	c.addi	x13,-4	 x13:0x80025ce4 x13=0x80025ce0
      704077000	     35102	80002582	c28c	c.sw	x11,0(x13)	 x13:0x80025ce0 x11:0x80021e64 PA:0x80025ce0 store:0x80021e64 load:0xffffffff
      704097000	     35103	80002584	000685b3	add	x11,x13,x0	 x13:0x80025ce0  x0:0x00000000 x11=0x80025ce0
      704117000	     35104	80002588	f8058593	addi	x11,x11,-128	 x11:0x80025ce0 x11=0x80025c60
      704697000	     35133	8000258c	0015a223	sw	x1,4(x11)	 x11:0x80025c60  x1:0x0517e000 PA:0x80025c64 store:0x0517e000 load:0xffffffff
      705157000	     35156	80002590	0025a423	sw	x2,8(x11)	 x11:0x80025c60  x2:0x00000000 PA:0x80025c68 store:0x00000000 load:0xffffffff
      705217000	     35159	80002594	0035a623	sw	x3,12(x11)	 x11:0x80025c60  x3:0x355561fe PA:0x80025c6c store:0x355561fe load:0xffffffff
      705637000	     35180	80002598	0045a823	sw	x4,16(x11)	 x11:0x80025c60  x4:0xf5fa2000 PA:0x80025c70 store:0xf5fa2000 load:0xffffffff
      705697000	     35183	8000259c	0055aa23	sw	x5,20(x11)	 x11:0x80025c60  x5:0x80025ce4 PA:0x80025c74 store:0x80025ce4 load:0xffffffff
      705777000	     35187	800025a0	0065ac23	sw	x6,24(x11)	 x11:0x80025c60  x6:0x4c000000 PA:0x80025c78 store:0x4c000000 load:0xffffffff
      705957000	     35196	800025a4	0075ae23	sw	x7,28(x11)	 x11:0x80025c60  x7:0x00000000 PA:0x80025c7c store:0x00000000 load:0xffffffff
      705977000	     35197	800025a8	d180	c.sw	x8,32(x11)	 x11:0x80025c60  x8:0x00000000 PA:0x80025c80 store:0x00000000 load:0xffffffff
      705997000	     35198	800025aa	d1c4	c.sw	x9,36(x11)	 x11:0x80025c60  x9:0x800420ea PA:0x80025c84 store:0x800420ea load:0xffffffff
      706237000	     35210	800025ac	d588	c.sw	x10,40(x11)	 x11:0x80025c60 x10:0x00063e8e PA:0x80025c88 store:0x00063e8e load:0xffffffff
      706317000	     35214	800025ae	d5cc	c.sw	x11,44(x11)	 x11:0x80025c60 x11:0x80025c60 PA:0x80025c8c store:0x80025c60 load:0xffffffff
      706577000	     35227	800025b0	d990	c.sw	x12,48(x11)	 x11:0x80025c60 x12:0x80000000 PA:0x80025c90 store:0x80000000 load:0xffffffff
      706637000	     35230	800025b2	d9d4	c.sw	x13,52(x11)	 x11:0x80025c60 x13:0x80025ce0 PA:0x80025c94 store:0x80025ce0 load:0xffffffff
      706817000	     35239	800025b4	dd98	c.sw	x14,56(x11)	 x11:0x80025c60 x14:0x824a0b51 PA:0x80025c98 store:0x824a0b51 load:0xffffffff
      707057000	     35251	800025b6	dddc	c.sw	x15,60(x11)	 x11:0x80025c60 x15:0x00000000 PA:0x80025c9c store:0x00000000 load:0xffffffff
      707457000	     35271	800025b8	0505a023	sw	x16,64(x11)	 x11:0x80025c60 x16:0x0517e000 PA:0x80025ca0 store:0x0517e000 load:0xffffffff
      707517000	     35274	800025bc	0515a223	sw	x17,68(x11)	 x11:0x80025c60 x17:0xfe148000 PA:0x80025ca4 store:0xfe148000 load:0xffffffff
      707637000	     35280	800025c0	0525a423	sw	x18,72(x11)	 x11:0x80025c60 x18:0x80021e64 PA:0x80025ca8 store:0x80021e64 load:0xffffffff
      707857000	     35291	800025c4	0535a623	sw	x19,76(x11)	 x11:0x80025c60 x19:0x00000001 PA:0x80025cac store:0x00000001 load:0xffffffff
      708077000	     35302	800025c8	0545a823	sw	x20,80(x11)	 x11:0x80025c60 x20:0x80021e64 PA:0x80025cb0 store:0x80021e64 load:0xffffffff
      708197000	     35308	800025cc	0555aa23	sw	x21,84(x11)	 x11:0x80025c60 x21:0x00000001 PA:0x80025cb4 store:0x00000001 load:0xffffffff
      708357000	     35316	800025d0	0565ac23	sw	x22,88(x11)	 x11:0x80025c60 x22:0xf0000000 PA:0x80025cb8 store:0xf0000000 load:0xffffffff
      708457000	     35321	800025d4	0575ae23	sw	x23,92(x11)	 x11:0x80025c60 x23:0x00000002 PA:0x80025cbc store:0x00000002 load:0xffffffff
      708617000	     35329	800025d8	0785a023	sw	x24,96(x11)	 x11:0x80025c60 x24:0x7ffde553 PA:0x80025cc0 store:0x7ffde553 load:0xffffffff
      708677000	     35332	800025dc	0795a223	sw	x25,100(x11)	 x11:0x80025c60 x25:0x80021e64 PA:0x80025cc4 store:0x80021e64 load:0xffffffff
      708717000	     35334	800025e0	07a5a423	sw	x26,104(x11)	 x11:0x80025c60 x26:0x00020286 PA:0x80025cc8 store:0x00020286 load:0xffffffff
      708937000	     35345	800025e4	07b5a623	sw	x27,108(x11)	 x11:0x80025c60 x27:0x00000000 PA:0x80025ccc store:0x00000000 load:0xffffffff
      709217000	     35359	800025e8	07c5a823	sw	x28,112(x11)	 x11:0x80025c60 x28:0x3a800000 PA:0x80025cd0 store:0x3a800000 load:0xffffffff
      709357000	     35366	800025ec	07d5aa23	sw	x29,116(x11)	 x11:0x80025c60 x29:0x800420ea PA:0x80025cd4 store:0x800420ea load:0xffffffff
      709597000	     35378	800025f0	07e5ac23	sw	x30,120(x11)	 x11:0x80025c60 x30:0x00000383 PA:0x80025cd8 store:0x00000383 load:0xffffffff
      709717000	     35384	800025f4	07f5ae23	sw	x31,124(x11)	 x11:0x80025c60 x31:0x00016fff PA:0x80025cdc store:0x00016fff load:0xffffffff
      709737000	     35385	800025f8	000586b3	add	x13,x11,x0	 x11:0x80025c60  x0:0x00000000 x13=0x80025c60
      709757000	     35386	800025fc	90000db7	lui	x27,0x90000	 x27=0x90000000
      709777000	     35387	80002600	1df1	c.addi	x27,-4	 x27:0x90000000 x27=0x8ffffffc
      709797000	     35388	80002602	4921	c.li	x18,8	 x18=0x00000008
      709817000	     35389	80002604	0922	c.slli	x18,0x8	 x18:0x00000008 x18=0x00000800
      709837000	     35390	80002606	00090913	addi	x18,x18,0	 x18:0x00000800 x18=0x00000800
      710057000	     35401	8000260a	012da023	sw	x18,0(x27)	 x27:0x8ffffffc x18:0x00000800 PA:0x8ffffffc store:0x00000800 load:0xffffffff
      710077000	     35402	8000260e	34102973	csrrs	x18,mepc,x0	  x0:0x00000000 x18=0x80005bea
      710097000	     35403	80002612	34202973	csrrs	x18,mcause,x0	  x0:0x00000000 x18=0x00000002
      710117000	     35404	80002616	4d8d	c.li	x27,3	 x27=0x00000003
      710137000	     35405	80002618	01b91463	bne	x18,x27,80002620	 x18:0x00000002 x27:0x00000003
      710897000	     35443	80002620	4da1	c.li	x27,8	 x27=0x00000008
      711077000	     35452	80002622	05b90d63	beq	x18,x27,8000267c	 x18:0x00000002 x27:0x00000008
      711097000	     35453	80002626	4da5	c.li	x27,9	 x27=0x00000009
      711217000	     35459	80002628	05b90a63	beq	x18,x27,8000267c	 x18:0x00000002 x27:0x00000009
      711237000	     35460	8000262c	4dad	c.li	x27,11	 x27=0x0000000b
      711257000	     35461	8000262e	05b90763	beq	x18,x27,8000267c	 x18:0x00000002 x27:0x0000000b
      711277000	     35462	80002632	4d85	c.li	x27,1	 x27=0x00000001
      711297000	     35463	80002634	35b90363	beq	x18,x27,8000297a	 x18:0x00000002 x27:0x00000001
      711457000	     35471	80002638	4d95	c.li	x27,5	 x27=0x00000005
      711617000	     35479	8000263a	63b90963	beq	x18,x27,80002c6c	 x18:0x00000002 x27:0x00000005
      711637000	     35480	8000263e	4d9d	c.li	x27,7	 x27=0x00000007
      711657000	     35481	80002640	15b90ae3	beq	x18,x27,80002f94	 x18:0x00000002 x27:0x00000007
      711777000	     35487	80002644	4db1	c.li	x27,12	 x27=0x0000000c
      711797000	     35488	80002646	01b91463	bne	x18,x27,8000264e	 x18:0x00000002 x27:0x0000000c
      712937000	     35545	8000264e	4db5	c.li	x27,13	 x27=0x0000000d
      713437000	     35570	80002650	01b91463	bne	x18,x27,80002658	 x18:0x00000002 x27:0x0000000d
      714617000	     35629	80002658	4dbd	c.li	x27,15	 x27=0x0000000f
      714637000	     35630	8000265a	01b91463	bne	x18,x27,80002662	 x18:0x00000002 x27:0x0000000f
      714677000	     35632	80002662	4d89	c.li	x27,2	 x27=0x00000002
      714697000	     35633	80002664	01b91463	bne	x18,x27,8000266c	 x18:0x00000002 x27:0x00000002
      714937000	     35645	80002668	45c0906f	jal	x0,8000bac4	  x0=0x00000000
      715397000	     35668	8000bac4	90000db7	lui	x27,0x90000	 x27=0x90000000
      715437000	     35670	8000bac8	1df1	c.addi	x27,-4	 x27:0x90000000 x27=0x8ffffffc
      715457000	     35671	8000baca	4929	c.li	x18,10	 x18=0x0000000a
      715677000	     35682	8000bacc	0922	c.slli	x18,0x8	 x18:0x0000000a x18=0x00000a00
      715697000	     35683	8000bace	00090913	addi	x18,x18,0	 x18:0x00000a00 x18=0x00000a00
      715757000	     35686	8000bad2	012da023	sw	x18,0(x27)	 x27:0x8ffffffc x18:0x00000a00 PA:0x8ffffffc store:0x00000a00 load:0xffffffff
      716137000	     35705	8000bad6	90000db7	lui	x27,0x90000	 x27=0x90000000
      716157000	     35706	8000bada	1df1	c.addi	x27,-4	 x27:0x90000000 x27=0x8ffffffc
      716257000	     35711	8000badc	34200913	addi	x18,x0,834	  x0:0x00000000 x18=0x00000342
      716417000	     35719	8000bae0	0922	c.slli	x18,0x8	 x18:0x00000342 x18=0x00034200
      716437000	     35720	8000bae2	090d	c.addi	x18,3	 x18:0x00034200 x18=0x00034203
      716617000	     35729	8000bae4	012da023	sw	x18,0(x27)	 x27:0x8ffffffc x18:0x00034203 PA:0x8ffffffc store:0x00034203 load:0xffffffff
      716637000	     35730	8000bae8	34202973	csrrs	x18,mcause,x0	  x0:0x00000000 x18=0x00000002
      716797000	     35738	8000baec	012da023	sw	x18,0(x27)	 x27:0x8ffffffc x18:0x00000002 PA:0x8ffffffc store:0x00000002 load:0xffffffff
      716817000	     35739	8000baf0	34102973	csrrs	x18,mepc,x0	  x0:0x00000000 x18=0x80005bea
      717037000	     35750	8000baf4	0911	c.addi	x18,4	 x18:0x80005bea x18=0x80005bee
      717217000	     35759	8000baf6	34191073	csrrw	x0,mepc,x18	 x18:0x80005bee  x0=0x00000000
      717237000	     35760	8000bafa	000685b3	add	x11,x13,x0	 x13:0x80025c60  x0:0x00000000 x11=0x80025c60
      717337000	     35765	8000bafe	0045a083	lw	x1,4(x11)	 x11:0x80025c60  x1=0x0517e000 PA:0x80025c64 load:0x0517e000
      717617000	     35779	8000bb02	0085a103	lw	x2,8(x11)	 x11:0x80025c60  x2=0x00000000 PA:0x80025c68 load:0x00000000
      717637000	     35780	8000bb06	00c5a183	lw	x3,12(x11)	 x11:0x80025c60  x3=0x355561fe PA:0x80025c6c load:0x355561fe
      718097000	     35803	8000bb0a	0105a203	lw	x4,16(x11)	 x11:0x80025c60  x4=0xf5fa2000 PA:0x80025c70 load:0xf5fa2000
      718377000	     35817	8000bb0e	0145a283	lw	x5,20(x11)	 x11:0x80025c60  x5=0x80025ce4 PA:0x80025c74 load:0x80025ce4
      718637000	     35830	8000bb12	0185a303	lw	x6,24(x11)	 x11:0x80025c60  x6=0x4c000000 PA:0x80025c78 load:0x4c000000
      718697000	     35833	8000bb16	01c5a383	lw	x7,28(x11)	 x11:0x80025c60  x7=0x00000000 PA:0x80025c7c load:0x00000000
      718897000	     35843	8000bb1a	5180	c.lw	x8,32(x11)	 x11:0x80025c60  x8=0x00000000 PA:0x80025c80 load:0x00000000
      719117000	     35854	8000bb1c	51c4	c.lw	x9,36(x11)	 x11:0x80025c60  x9=0x800420ea PA:0x80025c84 load:0x800420ea
      719177000	     35857	8000bb1e	5588	c.lw	x10,40(x11)	 x11:0x80025c60 x10=0x00063e8e PA:0x80025c88 load:0x00063e8e
      719317000	     35864	8000bb20	55cc	c.lw	x11,44(x11)	 x11:0x80025c60 x11=0x80025c60 PA:0x80025c8c load:0x80025c60
      719997000	     35898	8000bb22	5990	c.lw	x12,48(x11)	 x11:0x80025c60 x12=0x80000000 PA:0x80025c90 load:0x80000000
      720057000	     35901	8000bb24	59d4	c.lw	x13,52(x11)	 x11:0x80025c60 x13=0x80025ce0 PA:0x80025c94 load:0x80025ce0
      720077000	     35902	8000bb26	5d98	c.lw	x14,56(x11)	 x11:0x80025c60 x14=0x824a0b51 PA:0x80025c98 load:0x824a0b51
      720477000	     35922	8000bb28	5ddc	c.lw	x15,60(x11)	 x11:0x80025c60 x15=0x00000000 PA:0x80025c9c load:0x00000000
      720537000	     35925	8000bb2a	0405a803	lw	x16,64(x11)	 x11:0x80025c60 x16=0x0517e000 PA:0x80025ca0 load:0x0517e000
      720677000	     35932	8000bb2e	0445a883	lw	x17,68(x11)	 x11:0x80025c60 x17=0xfe148000 PA:0x80025ca4 load:0xfe148000
      720717000	     35934	8000bb32	0485a903	lw	x18,72(x11)	 x11:0x80025c60 x18=0x80021e64 PA:0x80025ca8 load:0x80021e64
      721137000	     35955	8000bb36	04c5a983	lw	x19,76(x11)	 x11:0x80025c60 x19=0x00000001 PA:0x80025cac load:0x00000001
      721197000	     35958	8000bb3a	0505aa03	lw	x20,80(x11)	 x11:0x80025c60 x20=0x80021e64 PA:0x80025cb0 load:0x80021e64
      721217000	     35959	8000bb3e	0545aa83	lw	x21,84(x11)	 x11:0x80025c60 x21=0x00000001 PA:0x80025cb4 load:0x00000001
      721537000	     35975	8000bb42	0585ab03	lw	x22,88(x11)	 x11:0x80025c60 x22=0xf0000000 PA:0x80025cb8 load:0xf0000000
      721597000	     35978	8000bb46	05c5ab83	lw	x23,92(x11)	 x11:0x80025c60 x23=0x00000002 PA:0x80025cbc load:0x00000002
      721817000	     35989	8000bb4a	0605ac03	lw	x24,96(x11)	 x11:0x80025c60 x24=0x7ffde553 PA:0x80025cc0 load:0x7ffde553
      721837000	     35990	8000bb4e	0645ac83	lw	x25,100(x11)	 x11:0x80025c60 x25=0x80021e64 PA:0x80025cc4 load:0x80021e64
      721977000	     35997	8000bb52	0685ad03	lw	x26,104(x11)	 x11:0x80025c60 x26=0x00020286 PA:0x80025cc8 load:0x00020286
      722077000	     36002	8000bb56	06c5ad83	lw	x27,108(x11)	 x11:0x80025c60 x27=0x00000000 PA:0x80025ccc load:0x00000000
      722597000	     36028	8000bb5a	0705ae03	lw	x28,112(x11)	 x11:0x80025c60 x28=0x3a800000 PA:0x80025cd0 load:0x3a800000
      722717000	     36034	8000bb5e	0745ae83	lw	x29,116(x11)	 x11:0x80025c60 x29=0x800420ea PA:0x80025cd4 load:0x800420ea
      723077000	     36052	8000bb62	0785af03	lw	x30,120(x11)	 x11:0x80025c60 x30=0x00000383 PA:0x80025cd8 load:0x00000383
      723317000	     36064	8000bb66	07c5af83	lw	x31,124(x11)	 x11:0x80025c60 x31=0x00016fff PA:0x80025cdc load:0x00016fff
      723337000	     36065	8000bb6a	08058593	addi	x11,x11,128	 x11:0x80025c60 x11=0x80025ce0
      723357000	     36066	8000bb6e	000586b3	add	x13,x11,x0	 x11:0x80025ce0  x0:0x00000000 x13=0x80025ce0
      723417000	     36069	8000bb72	428c	c.lw	x11,0(x13)	 x13:0x80025ce0 x11=0x80021e64 PA:0x80025ce0 load:0x80021e64
      723437000	     36070	8000bb74	0691	c.addi	x13,4	 x13:0x80025ce0 x13=0x80025ce4
      723457000	     36071	8000bb76	30200073	mret	
      723537000	     36075	80005bee	009b7933	and	x18,x22,x9	 x22:0xf0000000  x9:0x800420ea x18=0x80000000
      723557000	     36076	80005bf2	00ced433	srl	x8,x29,x12	 x29:0x800420ea x12:0x80000000  x8=0x800420ea
      723577000	     36077	80005bf6	03135763	bge	x6,x17,80005c24	  x6:0x4c000000 x17:0xfe148000
      723877000	     36092	80005c24	30506a73	csrrsi	x20,mtvec,0	 x20=0x80002501
      723917000	     36094	80005c28	01c91a33	sll	x20,x18,x28	 x18:0x80000000 x28:0x3a800000 x20=0x80000000
      724657000	     36131	80005c2c	0364d733	divu	x14,x9,x22	  x9:0x800420ea x22:0xf0000000 x14=0x00000000
      724677000	     36132	80005c30	00e7e133	or	x2,x15,x14	 x15:0x00000000 x14:0x00000000  x2=0x00000000
      724697000	     36133	80005c34	02a2	c.slli	x5,0x8	  x5:0x80025ce4  x5=0x025ce400
      724717000	     36134	80005c36	611d	c.addi16sp	x2,416	  x2:0x00000000  x2=0x000001a0
      724737000	     36135	80005c38	01e8da63	bge	x17,x30,80005c4c	 x17:0xfe148000 x30:0x00000383
      724757000	     36136	80005c3c	923a	c.add	x4,x14	  x4:0xf5fa2000 x14:0x00000000  x4=0xf5fa2000
      724897000	     36143	80005c3e	3ba07f73	csrrci	x30,pmpaddr10,0	 x30=0x0aaab753
      724917000	     36144	80005c42	8221	c.srli	x12,0x8	 x12:0x80000000 x12=0x00800000
      725937000	     36195	80005c44	0240db33	divu	x22,x1,x4	  x1:0x0517e000  x4:0xf5fa2000 x22=0x00000000
      725957000	     36196	80005c48	0113ad33	slt	x26,x7,x17	  x7:0x00000000 x17:0xfe148000 x26=0x00000000
      725977000	     36197	80005c4c	325c52f3	csrrwi	x5,mhpmevent5,24	  x5=0x00000004
      726037000	     36200	80005c50	8c9d	c.sub	x9,x15	  x9:0x800420ea x15:0x00000000  x9=0x800420ea
      726777000	     36237	80005c52	0298d833	divu	x16,x17,x9	 x17:0xfe148000  x9:0x800420ea x16=0x00000001
      726797000	     36238	80005c56	8ca1	c.xor	x9,x8	  x9:0x800420ea  x8:0x800420ea  x9=0x00000000
      726817000	     36239	80005c58	4ba40813	addi	x16,x8,1210	  x8:0x800420ea x16=0x800425a4
      726837000	     36240	80005c5c	009a1863	bne	x20,x9,80005c6c	 x20:0x80000000  x9:0x00000000
      726877000	     36242	80005c6c	0077f533	and	x10,x15,x7	 x15:0x00000000  x7:0x00000000 x10=0x00000000
      727137000	     36255	80005c70	41f95e33	sra	x28,x18,x31	 x18:0x80000000 x31:0x00016fff x28=0xffffffff
      727317000	     36264	80005c74	0009b633	sltu	x12,x19,x0	 x19:0x00000001  x0:0x00000000 x12=0x00000000
      727337000	     36265	80005c78	8a4d	c.andi	x12,19	 x12:0x00000000 x12=0x00000000
      728077000	     36302	80005c7a	02bb62b3	rem	x5,x22,x11	 x22:0x00000000 x11:0x80021e64  x5=0x00000000
      728097000	     36303	80005c7e	4196dd13	srai	x26,x13,0x19	 x13:0x80025ce4 x26=0xffffffc0
      728117000	     36304	80005c82	3b307273	csrrci	x4,pmpaddr3,0	  x4=0x2cccd975
      728137000	     36305	80005c86	01c452b3	srl	x5,x8,x28	  x8:0x800420ea x28:0xffffffff  x5=0x00000001
      728157000	     36306	80005c8a	005aba33	sltu	x20,x21,x5	 x21:0x00000001  x5:0x00000001 x20=0x00000000
      728177000	     36307	80005c8e	01543c33	sltu	x24,x8,x21	  x8:0x800420ea x21:0x00000001 x24=0x00000000
      728197000	     36308	80005c92	8491	c.srai	x9,0x4	  x9:0x00000000  x9=0x00000000
      728217000	     36309	80005c94	3246d1f3	csrrwi	x3,mhpmevent4,13	  x3=0x00000002
      728337000	     36315	80005c98	4a51	c.li	x20,20	 x20=0x00000014
      728757000	     36336	80005c9a	0ff0000f	fence	iorw,iorw	
      728777000	     36337	80005c9e	e015	c.bnez	x8,80005cc2	  x8:0x800420ea
      728937000	     36345	80005cc2	07ce	c.slli	x15,0x13	 x15:0x00000000 x15=0x00000000
      729177000	     36357	80005cc4	896d	c.andi	x10,27	 x10:0x00000000 x10=0x00000000
      729197000	     36358	80005cc6	30a519f3	csrrw	x19,0x30a,x10	 x10:0x00000000 x19=0x00000000
      729477000	     36372	80005cca	78670193	addi	x3,x14,1926	 x14:0x00000000  x3=0x00000786
      729817000	     36389	80005cce	039639b3	mulhu	x19,x12,x25	 x12:0x00000000 x25:0x80021e64 x19=0x00000000
      729837000	     36390	80005cd2	0ecd	c.addi	x29,19	 x29:0x800420ea x29=0x800420fd
      729857000	     36391	80005cd4	03e2dd63	bge	x5,x30,80005d0e	  x5:0x00000001 x30:0x0aaab753
      729937000	     36395	80005cd8	0216	c.slli	x4,0x5	  x4:0x2cccd975  x4=0x999b2ea0
      729957000	     36396	80005cda	825d	c.srli	x12,0x17	 x12:0x00000000 x12=0x00000000
      729977000	     36397	80005cdc	026b6f63	bltu	x22,x6,80005d1a	 x22:0x00000000  x6:0x4c000000
      730737000	     36435	80005d1a	42c26d17	auipc	x26,0x42c26	 x26=0xc2c2bd1a
      730757000	     36436	80005d1e	f12351f3	csrrwi	x0,marchid,6	  x0=0x00000000
      730817000	     36439	80002500	0800006f	jal	x0,80002580	  x0=0x00000000
      730897000	     36443	80002580	16f1	c.addi	x13,-4	 x13:0x80025ce4 x13=0x80025ce0
      730997000	     36448	80002582	c28c	c.sw	x11,0(x13)	 x13:0x80025ce0 x11:0x80021e64 PA:0x80025ce0 store:0x80021e64 load:0xffffffff
      731017000	     36449	80002584	000685b3	add	x11,x13,x0	 x13:0x80025ce0  x0:0x00000000 x11=0x80025ce0
      731037000	     36450	80002588	f8058593	addi	x11,x11,-128	 x11:0x80025ce0 x11=0x80025c60
      731397000	     36468	8000258c	0015a223	sw	x1,4(x11)	 x11:0x80025c60  x1:0x0517e000 PA:0x80025c64 store:0x0517e000 load:0xffffffff
      731457000	     36471	80002590	0025a423	sw	x2,8(x11)	 x11:0x80025c60  x2:0x000001a0 PA:0x80025c68 store:0x000001a0 load:0xffffffff
      731697000	     36483	80002594	0035a623	sw	x3,12(x11)	 x11:0x80025c60  x3:0x00000786 PA:0x80025c6c store:0x00000786 load:0xffffffff
      732157000	     36506	80002598	0045a823	sw	x4,16(x11)	 x11:0x80025c60  x4:0x999b2ea0 PA:0x80025c70 store:0x999b2ea0 load:0xffffffff
      732217000	     36509	8000259c	0055aa23	sw	x5,20(x11)	 x11:0x80025c60  x5:0x00000001 PA:0x80025c74 store:0x00000001 load:0xffffffff
      732237000	     36510	800025a0	0065ac23	sw	x6,24(x11)	 x11:0x80025c60  x6:0x4c000000 PA:0x80025c78 store:0x4c000000 load:0xffffffff
      732417000	     36519	800025a4	0075ae23	sw	x7,28(x11)	 x11:0x80025c60  x7:0x00000000 PA:0x80025c7c store:0x00000000 load:0xffffffff
      732617000	     36529	800025a8	d180	c.sw	x8,32(x11)	 x11:0x80025c60  x8:0x800420ea PA:0x80025c80 store:0x800420ea load:0xffffffff
      732777000	     36537	800025aa	d1c4	c.sw	x9,36(x11)	 x11:0x80025c60  x9:0x00000000 PA:0x80025c84 store:0x00000000 load:0xffffffff
      733117000	     36554	800025ac	d588	c.sw	x10,40(x11)	 x11:0x80025c60 x10:0x00000000 PA:0x80025c88 store:0x00000000 load:0xffffffff
      733177000	     36557	800025ae	d5cc	c.sw	x11,44(x11)	 x11:0x80025c60 x11:0x80025c60 PA:0x80025c8c store:0x80025c60 load:0xffffffff
      733197000	     36558	800025b0	d990	c.sw	x12,48(x11)	 x11:0x80025c60 x12:0x00000000 PA:0x80025c90 store:0x00000000 load:0xffffffff
      733217000	     36559	800025b2	d9d4	c.sw	x13,52(x11)	 x11:0x80025c60 x13:0x80025ce0 PA:0x80025c94 store:0x80025ce0 load:0xffffffff
      765237000	     38160	800025b4	dd98	c.sw	x14,56(x11)	 x11:0x80025c60 x14:0x00000000 PA:0x80025c98 store:0x00000000 load:0xffffffff
      765297000	     38163	800025b6	dddc	c.sw	x15,60(x11)	 x11:0x80025c60 x15:0x00000000 PA:0x80025c9c store:0x00000000 load:0xffffffff
      765677000	     38182	800025b8	0505a023	sw	x16,64(x11)	 x11:0x80025c60 x16:0x800425a4 PA:0x80025ca0 store:0x800425a4 load:0xffffffff
      765737000	     38185	800025bc	0515a223	sw	x17,68(x11)	 x11:0x80025c60 x17:0xfe148000 PA:0x80025ca4 store:0xfe148000 load:0xffffffff
      765777000	     38187	800025c0	0525a423	sw	x18,72(x11)	 x11:0x80025c60 x18:0x80000000 PA:0x80025ca8 store:0x80000000 load:0xffffffff
      765797000	     38188	800025c4	0535a623	sw	x19,76(x11)	 x11:0x80025c60 x19:0x00000000 PA:0x80025cac store:0x00000000 load:0xffffffff
      766037000	     38200	800025c8	0545a823	sw	x20,80(x11)	 x11:0x80025c60 x20:0x00000014 PA:0x80025cb0 store:0x00000014 load:0xffffffff
      766257000	     38211	800025cc	0555aa23	sw	x21,84(x11)	 x11:0x80025c60 x21:0x00000001 PA:0x80025cb4 store:0x00000001 load:0xffffffff
      766317000	     38214	800025d0	0565ac23	sw	x22,88(x11)	 x11:0x80025c60 x22:0x00000000 PA:0x80025cb8 store:0x00000000 load:0xffffffff
      766437000	     38220	800025d4	0575ae23	sw	x23,92(x11)	 x11:0x80025c60 x23:0x00000002 PA:0x80025cbc store:0x00000002 load:0xffffffff
      766777000	     38237	800025d8	0785a023	sw	x24,96(x11)	 x11:0x80025c60 x24:0x00000000 PA:0x80025cc0 store:0x00000000 load:0xffffffff
      767237000	     38260	800025dc	0795a223	sw	x25,100(x11)	 x11:0x80025c60 x25:0x80021e64 PA:0x80025cc4 store:0x80021e64 load:0xffffffff
      767297000	     38263	800025e0	07a5a423	sw	x26,104(x11)	 x11:0x80025c60 x26:0xc2c2bd1a PA:0x80025cc8 store:0xc2c2bd1a load:0xffffffff
      767537000	     38275	800025e4	07b5a623	sw	x27,108(x11)	 x11:0x80025c60 x27:0x00000000 PA:0x80025ccc store:0x00000000 load:0xffffffff
      767597000	     38278	800025e8	07c5a823	sw	x28,112(x11)	 x11:0x80025c60 x28:0xffffffff PA:0x80025cd0 store:0xffffffff load:0xffffffff
      767817000	     38289	800025ec	07d5aa23	sw	x29,116(x11)	 x11:0x80025c60 x29:0x800420fd PA:0x80025cd4 store:0x800420fd load:0xffffffff
      767997000	     38298	800025f0	07e5ac23	sw	x30,120(x11)	 x11:0x80025c60 x30:0x0aaab753 PA:0x80025cd8 store:0x0aaab753 load:0xffffffff
      768177000	     38307	800025f4	07f5ae23	sw	x31,124(x11)	 x11:0x80025c60 x31:0x00016fff PA:0x80025cdc store:0x00016fff load:0xffffffff
      768197000	     38308	800025f8	000586b3	add	x13,x11,x0	 x11:0x80025c60  x0:0x00000000 x13=0x80025c60
      768217000	     38309	800025fc	90000db7	lui	x27,0x90000	 x27=0x90000000
      768237000	     38310	80002600	1df1	c.addi	x27,-4	 x27:0x90000000 x27=0x8ffffffc
      768257000	     38311	80002602	4921	c.li	x18,8	 x18=0x00000008
      768277000	     38312	80002604	0922	c.slli	x18,0x8	 x18:0x00000008 x18=0x00000800
      768297000	     38313	80002606	00090913	addi	x18,x18,0	 x18:0x00000800 x18=0x00000800
      768557000	     38326	8000260a	012da023	sw	x18,0(x27)	 x27:0x8ffffffc x18:0x00000800 PA:0x8ffffffc store:0x00000800 load:0xffffffff
      768577000	     38327	8000260e	34102973	csrrs	x18,mepc,x0	  x0:0x00000000 x18=0x80005d1e
      768597000	     38328	80002612	34202973	csrrs	x18,mcause,x0	  x0:0x00000000 x18=0x00000002
      768617000	     38329	80002616	4d8d	c.li	x27,3	 x27=0x00000003
      768637000	     38330	80002618	01b91463	bne	x18,x27,80002620	 x18:0x00000002 x27:0x00000003
      768677000	     38332	80002620	4da1	c.li	x27,8	 x27=0x00000008
      768697000	     38333	80002622	05b90d63	beq	x18,x27,8000267c	 x18:0x00000002 x27:0x00000008
      768717000	     38334	80002626	4da5	c.li	x27,9	 x27=0x00000009
      768737000	     38335	80002628	05b90a63	beq	x18,x27,8000267c	 x18:0x00000002 x27:0x00000009
      768757000	     38336	8000262c	4dad	c.li	x27,11	 x27=0x0000000b
      768777000	     38337	8000262e	05b90763	beq	x18,x27,8000267c	 x18:0x00000002 x27:0x0000000b
      768797000	     38338	80002632	4d85	c.li	x27,1	 x27=0x00000001
      768817000	     38339	80002634	35b90363	beq	x18,x27,8000297a	 x18:0x00000002 x27:0x00000001
      768837000	     38340	80002638	4d95	c.li	x27,5	 x27=0x00000005
      768857000	     38341	8000263a	63b90963	beq	x18,x27,80002c6c	 x18:0x00000002 x27:0x00000005
      768877000	     38342	8000263e	4d9d	c.li	x27,7	 x27=0x00000007
      768897000	     38343	80002640	15b90ae3	beq	x18,x27,80002f94	 x18:0x00000002 x27:0x00000007
      768917000	     38344	80002644	4db1	c.li	x27,12	 x27=0x0000000c
      768937000	     38345	80002646	01b91463	bne	x18,x27,8000264e	 x18:0x00000002 x27:0x0000000c
      768977000	     38347	8000264e	4db5	c.li	x27,13	 x27=0x0000000d
      768997000	     38348	80002650	01b91463	bne	x18,x27,80002658	 x18:0x00000002 x27:0x0000000d
      769037000	     38350	80002658	4dbd	c.li	x27,15	 x27=0x0000000f
      769057000	     38351	8000265a	01b91463	bne	x18,x27,80002662	 x18:0x00000002 x27:0x0000000f
      769117000	     38354	80002662	4d89	c.li	x27,2	 x27=0x00000002
      769137000	     38355	80002664	01b91463	bne	x18,x27,8000266c	 x18:0x00000002 x27:0x00000002
      769157000	     38356	80002668	45c0906f	jal	x0,8000bac4	  x0=0x00000000
      769197000	     38358	8000bac4	90000db7	lui	x27,0x90000	 x27=0x90000000
      769217000	     38359	8000bac8	1df1	c.addi	x27,-4	 x27:0x90000000 x27=0x8ffffffc
      769237000	     38360	8000baca	4929	c.li	x18,10	 x18=0x0000000a
      769257000	     38361	8000bacc	0922	c.slli	x18,0x8	 x18:0x0000000a x18=0x00000a00
      769317000	     38364	8000bace	00090913	addi	x18,x18,0	 x18:0x00000a00 x18=0x00000a00
      769497000	     38373	8000bad2	012da023	sw	x18,0(x27)	 x27:0x8ffffffc x18:0x00000a00 PA:0x8ffffffc store:0x00000a00 load:0xffffffff
      769517000	     38374	8000bad6	90000db7	lui	x27,0x90000	 x27=0x90000000
      769537000	     38375	8000bada	1df1	c.addi	x27,-4	 x27:0x90000000 x27=0x8ffffffc
      769557000	     38376	8000badc	34200913	addi	x18,x0,834	  x0:0x00000000 x18=0x00000342
      769577000	     38377	8000bae0	0922	c.slli	x18,0x8	 x18:0x00000342 x18=0x00034200
      769597000	     38378	8000bae2	090d	c.addi	x18,3	 x18:0x00034200 x18=0x00034203
      769657000	     38381	8000bae4	012da023	sw	x18,0(x27)	 x27:0x8ffffffc x18:0x00034203 PA:0x8ffffffc store:0x00034203 load:0xffffffff
      769677000	     38382	8000bae8	34202973	csrrs	x18,mcause,x0	  x0:0x00000000 x18=0x00000002
      769817000	     38389	8000baec	012da023	sw	x18,0(x27)	 x27:0x8ffffffc x18:0x00000002 PA:0x8ffffffc store:0x00000002 load:0xffffffff
      769837000	     38390	8000baf0	34102973	csrrs	x18,mepc,x0	  x0:0x00000000 x18=0x80005d1e
      769857000	     38391	8000baf4	0911	c.addi	x18,4	 x18:0x80005d1e x18=0x80005d22
      769877000	     38392	8000baf6	34191073	csrrw	x0,mepc,x18	 x18:0x80005d22  x0=0x00000000
      769897000	     38393	8000bafa	000685b3	add	x11,x13,x0	 x13:0x80025c60  x0:0x00000000 x11=0x80025c60
      770037000	     38400	8000bafe	0045a083	lw	x1,4(x11)	 x11:0x80025c60  x1=0x0517e000 PA:0x80025c64 load:0x0517e000
      770057000	     38401	8000bb02	0085a103	lw	x2,8(x11)	 x11:0x80025c60  x2=0x000001a0 PA:0x80025c68 load:0x000001a0
      770237000	     38410	8000bb06	00c5a183	lw	x3,12(x11)	 x11:0x80025c60  x3=0x00000786 PA:0x80025c6c load:0x00000786
      770297000	     38413	8000bb0a	0105a203	lw	x4,16(x11)	 x11:0x80025c60  x4=0x999b2ea0 PA:0x80025c70 load:0x999b2ea0
      770317000	     38414	8000bb0e	0145a283	lw	x5,20(x11)	 x11:0x80025c60  x5=0x00000001 PA:0x80025c74 load:0x00000001
      770497000	     38423	8000bb12	0185a303	lw	x6,24(x11)	 x11:0x80025c60  x6=0x4c000000 PA:0x80025c78 load:0x4c000000
      770557000	     38426	8000bb16	01c5a383	lw	x7,28(x11)	 x11:0x80025c60  x7=0x00000000 PA:0x80025c7c load:0x00000000
      770777000	     38437	8000bb1a	5180	c.lw	x8,32(x11)	 x11:0x80025c60  x8=0x800420ea PA:0x80025c80 load:0x800420ea
      771037000	     38450	8000bb1c	51c4	c.lw	x9,36(x11)	 x11:0x80025c60  x9=0x00000000 PA:0x80025c84 load:0x00000000
      771137000	     38455	8000bb1e	5588	c.lw	x10,40(x11)	 x11:0x80025c60 x10=0x00000000 PA:0x80025c88 load:0x00000000
      771317000	     38464	8000bb20	55cc	c.lw	x11,44(x11)	 x11:0x80025c60 x11=0x80025c60 PA:0x80025c8c load:0x80025c60
      771397000	     38468	8000bb22	5990	c.lw	x12,48(x11)	 x11:0x80025c60 x12=0x00000000 PA:0x80025c90 load:0x00000000
      771417000	     38469	8000bb24	59d4	c.lw	x13,52(x11)	 x11:0x80025c60 x13=0x80025ce0 PA:0x80025c94 load:0x80025ce0
      771517000	     38474	8000bb26	5d98	c.lw	x14,56(x11)	 x11:0x80025c60 x14=0x00000000 PA:0x80025c98 load:0x00000000
      771757000	     38486	8000bb28	5ddc	c.lw	x15,60(x11)	 x11:0x80025c60 x15=0x00000000 PA:0x80025c9c load:0x00000000
      771817000	     38489	8000bb2a	0405a803	lw	x16,64(x11)	 x11:0x80025c60 x16=0x800425a4 PA:0x80025ca0 load:0x800425a4
      771837000	     38490	8000bb2e	0445a883	lw	x17,68(x11)	 x11:0x80025c60 x17=0xfe148000 PA:0x80025ca4 load:0xfe148000
      772357000	     38516	8000bb32	0485a903	lw	x18,72(x11)	 x11:0x80025c60 x18=0x80000000 PA:0x80025ca8 load:0x80000000
      772817000	     38539	8000bb36	04c5a983	lw	x19,76(x11)	 x11:0x80025c60 x19=0x00000000 PA:0x80025cac load:0x00000000
      773137000	     38555	8000bb3a	0505aa03	lw	x20,80(x11)	 x11:0x80025c60 x20=0x00000014 PA:0x80025cb0 load:0x00000014
      773197000	     38558	8000bb3e	0545aa83	lw	x21,84(x11)	 x11:0x80025c60 x21=0x00000001 PA:0x80025cb4 load:0x00000001
      773477000	     38572	8000bb42	0585ab03	lw	x22,88(x11)	 x11:0x80025c60 x22=0x00000000 PA:0x80025cb8 load:0x00000000
      773617000	     38579	8000bb46	05c5ab83	lw	x23,92(x11)	 x11:0x80025c60 x23=0x00000002 PA:0x80025cbc load:0x00000002
      773677000	     38582	8000bb4a	0605ac03	lw	x24,96(x11)	 x11:0x80025c60 x24=0x00000000 PA:0x80025cc0 load:0x00000000
      773857000	     38591	8000bb4e	0645ac83	lw	x25,100(x11)	 x11:0x80025c60 x25=0x80021e64 PA:0x80025cc4 load:0x80021e64
      773917000	     38594	8000bb52	0685ad03	lw	x26,104(x11)	 x11:0x80025c60 x26=0xc2c2bd1a PA:0x80025cc8 load:0xc2c2bd1a
      773937000	     38595	8000bb56	06c5ad83	lw	x27,108(x11)	 x11:0x80025c60 x27=0x00000000 PA:0x80025ccc load:0x00000000
      773957000	     38596	8000bb5a	0705ae03	lw	x28,112(x11)	 x11:0x80025c60 x28=0xffffffff PA:0x80025cd0 load:0xffffffff
      773977000	     38597	8000bb5e	0745ae83	lw	x29,116(x11)	 x11:0x80025c60 x29=0x800420fd PA:0x80025cd4 load:0x800420fd
      773997000	     38598	8000bb62	0785af03	lw	x30,120(x11)	 x11:0x80025c60 x30=0x0aaab753 PA:0x80025cd8 load:0x0aaab753
      774237000	     38610	8000bb66	07c5af83	lw	x31,124(x11)	 x11:0x80025c60 x31=0x00016fff PA:0x80025cdc load:0x00016fff
      774257000	     38611	8000bb6a	08058593	addi	x11,x11,128	 x11:0x80025c60 x11=0x80025ce0
      774277000	     38612	8000bb6e	000586b3	add	x13,x11,x0	 x11:0x80025ce0  x0:0x00000000 x13=0x80025ce0
      774497000	     38623	8000bb72	428c	c.lw	x11,0(x13)	 x13:0x80025ce0 x11=0x80021e64 PA:0x80025ce0 load:0x80021e64
      774517000	     38624	8000bb74	0691	c.addi	x13,4	 x13:0x80025ce0 x13=0x80025ce4
      774537000	     38625	8000bb76	30200073	mret	
      774617000	     38629	80005d22	40400eb3	sub	x29,x0,x4	  x0:0x00000000  x4:0x999b2ea0 x29=0x6664d160
      774637000	     38630	80005d26	96518f93	addi	x31,x3,-1691	  x3:0x00000786 x31=0x000000eb
      774657000	     38631	80005d2a	8e75	c.and	x12,x13	 x12:0x00000000 x13:0x80025ce4 x12=0x00000000
      774677000	     38632	80005d2c	ee497e13	andi	x28,x18,-284	 x18:0x80000000 x28=0x80000000
      774697000	     38633	80005d30	0009b8b3	sltu	x17,x19,x0	 x19:0x00000000  x0:0x00000000 x17=0x00000000
      774717000	     38634	80005d34	01a68863	beq	x13,x26,80005d44	 x13:0x80025ce4 x26:0xc2c2bd1a
      774837000	     38640	80005d38	0198d7b3	srl	x15,x17,x25	 x17:0x00000000 x25:0x80021e64 x15=0x00000000
      775217000	     38659	80005d3c	3285dcf3	csrrwi	x25,mhpmevent8,11	 x25=0x00000020
      775357000	     38666	80005d40	b0b07773	csrrci	x14,mhpmcounter11,0	 x14=0x0000004b
      775377000	     38667	80005d44	147d	c.addi	x8,-1	  x8:0x800420ea  x8=0x800420e9
      775577000	     38677	80005d46	30402e73	csrrs	x28,mie,x0	  x0:0x00000000 x28=0x00000000
      775857000	     38691	80005d4a	41a25033	sra	x0,x4,x26	  x4:0x999b2ea0 x26:0xc2c2bd1a  x0=0x00000000
      775877000	     38692	80005d4e	8c29	c.xor	x8,x10	  x8:0x800420e9 x10:0x00000000  x8=0x800420e9
      776277000	     38712	80005d50	aeef0993	addi	x19,x30,-1298	 x30:0x0aaab753 x19=0x0aaab241
      776477000	     38722	80005d54	b8649c73	csrrw	x24,mhpmcounter6h,x9	  x9:0x00000000 x24=0x00000000
      776537000	     38725	80005d58	00f36633	or	x12,x6,x15	  x6:0x4c000000 x15:0x00000000 x12=0x4c000000
      776757000	     38736	80005d5c	03c2b533	mulhu	x10,x5,x28	  x5:0x00000001 x28:0x00000000 x10=0x00000000
      776777000	     38737	80005d60	51786893	ori	x17,x16,1303	 x16:0x800425a4 x17=0x800425b7
      776977000	     38747	80005d64	03f22db3	mulhsu	x27,x4,x31	  x4:0x999b2ea0 x31:0x000000eb x27=0xffffffa2
      777297000	     38763	80005d68	2bee3293	sltiu	x5,x28,702	 x28:0x00000000  x5=0x00000001
      778037000	     38800	80005d6c	02d642b3	div	x5,x12,x13	 x12:0x4c000000 x13:0x80025ce4  x5=0x00000000
      778057000	     38801	80005d70	6f627413	andi	x8,x4,1782	  x4:0x999b2ea0  x8=0x000006a0
      778077000	     38802	80005d74	6151	c.addi16sp	x2,272	  x2:0x000001a0  x2=0x000002b0
      778097000	     38803	80005d76	025e8833	mul	x16,x29,x5	 x29:0x6664d160  x5:0x00000000 x16=0x00000000
      778117000	     38804	80005d7a	8b32	c.mv	x22,x12	  x0:0x00000000 x12:0x4c000000 x22=0x4c000000
      778137000	     38805	80005d7c	081c	c.addi4spn	x15,x2,16	 x15=0x000002c0
      778157000	     38806	80005d7e	01f66c33	or	x24,x12,x31	 x12:0x4c000000 x31:0x000000eb x24=0x4c0000eb
      778177000	     38807	80005d82	003c8ab3	add	x21,x25,x3	 x25:0x00000020  x3:0x00000786 x21=0x000007a6
      778377000	     38817	80005d86	e2eb7337	lui	x6,0xe2eb7	  x6=0xe2eb7000
      778397000	     38818	80005d8a	3b802473	csrrs	x8,pmpaddr8,x0	  x0:0x00000000  x8=0x02222ecb
      778477000	     38822	80005d8e	facb4413	xori	x8,x22,-84	 x22:0x4c000000  x8=0xb3ffffac
      778497000	     38823	80005d92	326791f3	csrrw	x3,mhpmevent6,x15	 x15:0x000002c0  x3=0x00000008
      778577000	     38827	80005d96	02cc5763	bge	x24,x12,80005dc4	 x24:0x4c0000eb x12:0x4c000000
      780017000	     38899	80005dc4	9f6a	c.add	x30,x26	 x30:0x0aaab753 x26:0xc2c2bd1a x30=0xcd6d746d
      780057000	     38901	80005dc6	0ff0000f	fence	iorw,iorw	
      780357000	     38916	80005dca	045d0263	beq	x26,x5,80005e0e	 x26:0xc2c2bd1a  x5:0x00000000
      780517000	     38924	80005dce	017ef8b3	and	x17,x29,x23	 x29:0x6664d160 x23:0x00000002 x17=0x00000000
      780537000	     38925	80005dd2	1684	c.addi4spn	x9,x2,864	  x9=0x00000610
      780937000	     38945	80005dd4	011e5733	srl	x14,x28,x17	 x28:0x00000000 x17:0x00000000 x14=0x00000000
      780957000	     38946	80005dd8	00ed1c93	slli	x25,x26,0xe	 x26:0xc2c2bd1a x25=0xaf468000
      780977000	     38947	80005ddc	b8025a73	csrrwi	x20,mcycleh,4	 x20=0x00000002
      781097000	     38953	80005de0	03ec8233	mul	x4,x25,x30	 x25:0xaf468000 x30:0xcd6d746d  x4=0x13048000
      781517000	     38974	80005de4	00bb0ab3	add	x21,x22,x11	 x22:0x4c000000 x11:0x80021e64 x21=0xcc021e64
      781537000	     38975	80005de8	8c61	c.and	x8,x8	  x8:0xb3ffffac  x8:0xb3ffffac  x8=0xb3ffffac
      781557000	     38976	80005dea	e90d	c.bnez	x10,80005e1c	 x10:0x00000000
      781577000	     38977	80005dec	0021f633	and	x12,x3,x2	  x3:0x00000008  x2:0x000002b0 x12=0x00000000
      781977000	     38997	80005df0	01f2cbb3	xor	x23,x5,x31	  x5:0x00000000 x31:0x000000eb x23=0x000000eb
      781997000	     38998	80005df4	59a80513	addi	x10,x16,1434	 x16:0x00000000 x10=0x0000059a
      782737000	     39035	80005df8	03a47fb3	remu	x31,x8,x26	  x8:0xb3ffffac x26:0xc2c2bd1a x31=0xb3ffffac
      782757000	     39036	80005dfc	3bd07973	csrrci	x18,pmpaddr13,0	 x18=0x17778420
      782777000	     39037	80005e00	01761db3	sll	x27,x12,x23	 x12:0x00000000 x23:0x000000eb x27=0x00000000
      782797000	     39038	80005e04	0a8d	c.addi	x21,3	 x21:0xcc021e64 x21=0xcc021e67
      782817000	     39039	80005e06	0c8e	c.slli	x25,0x3	 x25:0xaf468000 x25=0x7a340000
      782977000	     39047	80005e08	0001	c.addi	x0,0	  x0:0x00000000  x0=0x00000000
      783317000	     39064	80005e0a	c4418737	lui	x14,0xc4418	 x14=0xc4418000
      783337000	     39065	80005e0e	8c51	c.or	x8,x12	  x8:0xb3ffffac x12:0x00000000  x8=0xb3ffffac
      783377000	     39067	80005e10	031774b3	remu	x9,x14,x17	 x14:0xc4418000 x17:0x00000000  x9=0xc4418000
      783497000	     39073	80005e14	03b20e63	beq	x4,x27,80005e50	  x4:0x13048000 x27:0x00000000
      784397000	     39118	80005e18	034ae333	rem	x6,x21,x20	 x21:0xcc021e67 x20:0x00000002  x6=0xffffffff
      784417000	     39119	80005e1c	003f6b33	or	x22,x30,x3	 x30:0xcd6d746d  x3:0x00000008 x22=0xcd6d746d
      784437000	     39120	80005e20	54077293	andi	x5,x14,1344	 x14:0xc4418000  x5=0x00000000
      784457000	     39121	80005e24	6db27f13	andi	x30,x4,1755	  x4:0x13048000 x30=0x00000000
      784477000	     39122	80005e28	3e378293	addi	x5,x15,995	 x15:0x000002c0  x5=0x000006a3
      784497000	     39123	80005e2c	9bfd	c.andi	x15,-1	 x15:0x000002c0 x15=0x000002c0
      784537000	     39125	80005e2e	0ff0000f	fence	iorw,iorw	
      784617000	     39129	80005e32	03c9e163	bltu	x19,x28,80005e54	 x19:0x0aaab241 x28:0x00000000
      785077000	     39152	80005e36	032838b3	mulhu	x17,x16,x18	 x16:0x00000000 x18:0x17778420 x17=0x00000000
      785097000	     39153	80005e3a	8e75	c.and	x12,x13	 x12:0x00000000 x13:0x80025ce4 x12=0x00000000
      785117000	     39154	80005e3c	ec95	c.bnez	x9,80005e78	  x9:0xc4418000
      785757000	     39186	80005e78	03b3c7b3	div	x15,x7,x27	  x7:0x00000000 x27:0x00000000 x15=0xffffffff
      785777000	     39187	80005e7c	085d	c.addi	x16,23	 x16:0x00000000 x16=0x00000017
      785797000	     39188	80005e7e	0ff0000f	fence	iorw,iorw	
      785817000	     39189	80005e82	485ee613	ori	x12,x29,1157	 x29:0x6664d160 x12=0x6664d5e5
      785837000	     39190	80005e86	8e7d	c.and	x12,x15	 x12:0x6664d5e5 x15:0xffffffff x12=0x6664d5e5
      785937000	     39195	80005e88	6b51c093	xori	x1,x3,1717	  x3:0x00000008  x1=0x000006bd
      786297000	     39213	80005e8c	a3586b13	ori	x22,x16,-1483	 x16:0x00000017 x22=0xfffffa37
      786317000	     39214	80005e90	ea9ef8b7	lui	x17,0xea9ef	 x17=0xea9ef000
      786337000	     39215	80005e94	32915cf3	csrrwi	x25,mhpmevent9,2	 x25=0x00000040
      786397000	     39218	80005e98	01721f33	sll	x30,x4,x23	  x4:0x13048000 x23:0x000000eb x30=0x24000000
      786417000	     39219	80005e9c	b0689d73	csrrw	x26,mhpmcounter6,x17	 x17:0xea9ef000 x26=0x00000088
      787517000	     39274	80005ea0	0370d233	divu	x4,x1,x23	  x1:0x000006bd x23:0x000000eb  x4=0x00000007
      788257000	     39311	80005ea4	02daeeb3	rem	x29,x21,x13	 x21:0xcc021e67 x13:0x80025ce4 x29=0xcc021e67
      788277000	     39312	80005ea8	0296ff63	bgeu	x13,x9,80005ee6	 x13:0x80025ce4  x9:0xc4418000
      788317000	     39314	80005eac	02765933	divu	x18,x12,x7	 x12:0x6664d5e5  x7:0x00000000 x18=0xffffffff
      788337000	     39315	80005eb0	01050d63	beq	x10,x16,80005eca	 x10:0x0000059a x16:0x00000017
      788357000	     39316	80005eb4	74707073	csrrci	x0,0x747,0	  x0=0x00000000
      788377000	     39317	80005eb8	01e7bd33	sltu	x26,x15,x30	 x15:0xffffffff x30:0x24000000 x26=0x00000000
      788397000	     39318	80005ebc	0ff0000f	fence	iorw,iorw	
      788417000	     39319	80005ec0	03336a63	bltu	x6,x19,80005ef4	  x6:0xffffffff x19:0x0aaab241
      788537000	     39325	80005ec4	8f25	c.xor	x14,x9	 x14:0xc4418000  x9:0xc4418000 x14=0x00000000
      788937000	     39345	80005ec6	b055dff3	csrrwi	x31,mhpmcounter5,11	 x31=0x000000c0
      789357000	     39366	80005eca	05ecd063	bge	x25,x30,80005f0a	 x25:0x00000040 x30:0x24000000
      789377000	     39367	80005ece	008761b3	or	x3,x14,x8	 x14:0x00000000  x8:0xb3ffffac  x3=0xb3ffffac
      789397000	     39368	80005ed2	03775e63	bge	x14,x23,80005f0e	 x14:0x00000000 x23:0x000000eb
      789417000	     39369	80005ed6	997d	c.andi	x10,-1	 x10:0x0000059a x10=0x0000059a
      789437000	     39370	80005ed8	84e5	c.srai	x9,0x19	  x9:0xc4418000  x9=0xffffffe2
      789457000	     39371	80005eda	326022f3	csrrs	x5,mhpmevent6,x0	  x0:0x00000000  x5=0x00000008
      789497000	     39373	80005ede	b0307073	csrrci	x0,mhpmcounter3,0	  x0=0x00000000
      789597000	     39378	80005ee2	02e6e2b3	rem	x5,x13,x14	 x13:0x80025ce4 x14:0x00000000  x5=0x80025ce4
      789617000	     39379	80005ee6	000c39b3	sltu	x19,x24,x0	 x24:0x4c0000eb  x0:0x00000000 x19=0x00000000
      790017000	     39399	80005eea	3286dbf3	csrrwi	x23,mhpmevent8,13	 x23=0x00000020
      790077000	     39402	80005eee	8f0d	c.sub	x14,x11	 x14:0x00000000 x11:0x80021e64 x14=0x7ffde19c
      790437000	     39420	80005ef0	0001	c.addi	x0,0	  x0:0x00000000  x0=0x00000000
      790457000	     39421	80005ef2	8d35	c.xor	x10,x13	 x10:0x0000059a x13:0x80025ce4 x10=0x8002597e
      790857000	     39441	80005ef4	c8767793	andi	x15,x12,-889	 x12:0x6664d5e5 x15=0x6664d485
      790877000	     39442	80005ef8	b83d22f3	csrrs	x5,mhpmcounter3h,x26	 x26:0x00000000  x5=0x00000000
      790937000	     39445	80005efc	007a9893	slli	x17,x21,0x7	 x21:0xcc021e67 x17=0x010f3380
      790957000	     39446	80005f00	0001	c.addi	x0,0	  x0:0x00000000  x0=0x00000000
      790977000	     39447	80005f02	30406373	csrrsi	x6,mie,0	  x6=0x00000000
      791237000	     39460	80005f06	0315f163	bgeu	x11,x17,80005f28	 x11:0x80021e64 x17:0x010f3380
      791377000	     39467	80005f28	00b61a13	slli	x20,x12,0xb	 x12:0x6664d5e5 x20=0x26af2800
      791477000	     39472	80005f2c	83c5	c.srli	x15,0x11	 x15:0x6664d485 x15=0x00003332
      791577000	     39477	80005f2e	010fb333	sltu	x6,x31,x16	 x31:0x000000c0 x16:0x00000017  x6=0x00000000
      791597000	     39478	80005f32	8e09	c.sub	x12,x10	 x12:0x6664d5e5 x10:0x8002597e x12=0xe6627c67
      791637000	     39480	80005f34	04f58163	beq	x11,x15,80005f76	 x11:0x80021e64 x15:0x00003332
      791657000	     39481	80005f38	03e804b3	mul	x9,x16,x30	 x16:0x00000017 x30:0x24000000  x9=0x3c000000
      791677000	     39482	80005f3c	02ec8b33	mul	x22,x25,x14	 x25:0x00000040 x14:0x7ffde19c x22=0xff786700
      791757000	     39486	80005f40	d342c513	xori	x10,x5,-716	  x5:0x00000000 x10=0xfffffd34
      791777000	     39487	80005f44	01c59463	bne	x11,x28,80005f4c	 x11:0x80021e64 x28:0x00000000
      792497000	     39523	80005f4c	00011d93	slli	x27,x2,0x0	  x2:0x000002b0 x27=0x000002b0
      792577000	     39527	80005f50	b0497f73	csrrci	x30,mhpmcounter4,18	 x30=0x00003a0c
      792997000	     39548	80005f54	033d1163	bne	x26,x19,80005f76	 x26:0x00000000 x19:0x00000000
      793017000	     39549	80005f58	32a07273	csrrci	x4,mhpmevent10,0	  x4=0x00000080
      793037000	     39550	80005f5c	0195ec33	or	x24,x11,x25	 x11:0x80021e64 x25:0x00000040 x24=0x80021e64
      793057000	     39551	80005f60	0236f763	bgeu	x13,x3,80005f8e	 x13:0x80025ce4  x3:0xb3ffffac
      793077000	     39552	80005f64	b8007c73	csrrci	x24,mcycleh,0	 x24=0x00000004
      793097000	     39553	80005f68	83160e93	addi	x29,x12,-1999	 x12:0xe6627c67 x29=0xe6627498
      793157000	     39556	80005f6c	87b1	c.srai	x15,0xc	 x15:0x00003332 x15=0x00000003
      793657000	     39581	80005f6e	b0802373	csrrs	x6,mhpmcounter8,x0	  x0:0x00000000  x6=0x00000040
      793817000	     39589	80005f72	03007963	bgeu	x0,x16,80005fa4	  x0:0x00000000 x16:0x00000017
      793837000	     39590	80005f76	81861d17	auipc	x26,0x81861	 x26=0x01866f76
      795857000	     39691	80005f7a	019b6c33	or	x24,x22,x25	 x22:0xff786700 x25:0x00000040 x24=0xff786740
      795877000	     39692	80005f7e	01074663	blt	x14,x16,80005f8a	 x14:0x7ffde19c x16:0x00000017
      795897000	     39693	80005f82	67c9	c.lui	x15,0x12	 x15=0x00012000
      795917000	     39694	80005f84	1704	c.addi4spn	x9,x2,928	  x9=0x00000650
      795937000	     39695	80005f86	7c152af3	csrrs	x21,0x7c1,x10	 x10:0xfffffd34 x21=0x00000000
      795997000	     39698	80005f8a	6571	c.lui	x10,0x1c	 x10=0x0001c000
      796017000	     39699	80005f8c	8c9d	c.sub	x9,x15	  x9:0x00000650 x15:0x00012000  x9=0xfffee650
      796037000	     39700	80005f8e	8c49	c.or	x8,x10	  x8:0xb3ffffac x10:0x0001c000  x8=0xb3ffffac
      796157000	     39706	80005f90	018ec0b3	xor	x1,x29,x24	 x29:0xe6627498 x24:0xff786740  x1=0x191a13d8
      796177000	     39707	80005f94	ee5c2313	slti	x6,x24,-283	 x24:0xff786740  x6=0x00000001
      796197000	     39708	80005f98	0001	c.addi	x0,0	  x0:0x00000000  x0=0x00000000
      796217000	     39709	80005f9a	0b68c193	xori	x3,x17,182	 x17:0x010f3380  x3=0x010f3336
      796237000	     39710	80005f9e	0001	c.addi	x0,0	  x0:0x00000000  x0=0x00000000
      796377000	     39717	80005fa0	00af6bb3	or	x23,x30,x10	 x30:0x00003a0c x10:0x0001c000 x23=0x0001fa0c
      796537000	     39725	80005fa4	a5f0f713	andi	x14,x1,-1441	  x1:0x191a13d8 x14=0x191a1258
      796717000	     39734	80005fa8	032a20b3	mulhsu	x1,x20,x18	 x20:0x26af2800 x18:0xffffffff  x1=0x26af27ff
      796877000	     39742	80005fac	866d	c.srai	x12,0x1b	 x12:0xe6627c67 x12=0xfffffffc
      796897000	     39743	80005fae	80e5	c.srli	x9,0x19	  x9:0xfffee650  x9=0x0000007f
      796917000	     39744	80005fb0	41dc5a93	srai	x21,x24,0x1d	 x24:0xff786740 x21=0xffffffff
      796937000	     39745	80005fb4	01745333	srl	x6,x8,x23	  x8:0xb3ffffac x23:0x0001fa0c  x6=0x000b3fff
      797737000	     39785	80005fb8	035d7433	remu	x8,x26,x21	 x26:0x01866f76 x21:0xffffffff  x8=0x01866f76
      797757000	     39786	80005fbc	73bbc313	xori	x6,x23,1851	 x23:0x0001fa0c  x6=0x0001fd37
      797777000	     39787	80005fc0	40cf82b3	sub	x5,x31,x12	 x31:0x000000c0 x12:0xfffffffc  x5=0x000000c4
      797797000	     39788	80005fc4	4735	c.li	x14,13	 x14=0x0000000d
      798537000	     39825	80005fc6	03a9ec33	rem	x24,x19,x26	 x19:0x00000000 x26:0x01866f76 x24=0x00000000
      798557000	     39826	80005fca	0001	c.addi	x0,0	  x0:0x00000000  x0=0x00000000
      798577000	     39827	80005fcc	006c89b3	add	x19,x25,x6	 x25:0x00000040  x6:0x0001fd37 x19=0x0001fd77
      798597000	     39828	80005fd0	8ca5	c.xor	x9,x9	  x9:0x0000007f  x9:0x0000007f  x9=0x00000000
      798617000	     39829	80005fd2	01e05913	srli	x18,x0,0x1e	  x0:0x00000000 x18=0x00000000
      798637000	     39830	80005fd6	4105	c.li	x2,1	  x2=0x00000001
      798657000	     39831	80005fd8	0001	c.addi	x0,0	  x0:0x00000000  x0=0x00000000
      798677000	     39832	80005fda	197d	c.addi	x18,-1	 x18:0x00000000 x18=0xffffffff
      798697000	     39833	80005fdc	000862b3	or	x5,x16,x0	 x16:0x00000017  x0:0x00000000  x5=0x00000017
      799817000	     39889	80005fe0	02bb61b3	rem	x3,x22,x11	 x22:0xff786700 x11:0x80021e64  x3=0xff786700
      799837000	     39890	80005fe4	8675	c.srai	x12,0x1d	 x12:0xfffffffc x12=0xffffffff
      799857000	     39891	80005fe6	3b406e73	csrrsi	x28,pmpaddr4,0	 x28=0x31111dba
      799877000	     39892	80005fea	e715	c.bnez	x14,80006016	 x14:0x0000000d
      799997000	     39898	80006016	6661	c.lui	x12,0x18	 x12=0x00018000
      800197000	     39908	80006018	3ab30613	addi	x12,x6,939	  x6:0x0001fd37 x12=0x000200e2
      800217000	     39909	8000601c	4329	c.li	x6,10	  x6=0x0000000a
      800237000	     39910	8000601e	717d	c.addi16sp	x2,-16	  x2:0x00000001  x2=0xfffffff1
      800257000	     39911	80006020	1e04	c.addi4spn	x9,x2,816	  x9=0x00000321
      800277000	     39912	80006022	84ca	c.mv	x9,x18	  x0:0x00000000 x18:0xffffffff  x9=0xffffffff
      800417000	     39919	80006024	0ff0000f	fence	iorw,iorw	
      800777000	     39937	80006028	8b99	c.andi	x15,6	 x15:0x00012000 x15=0x00000000
      800917000	     39944	8000602a	009f78b3	and	x17,x30,x9	 x30:0x00003a0c  x9:0xffffffff x17=0x00003a0c
      800977000	     39947	8000602e	db7f9917	auipc	x18,0xdb7f9	 x18=0x5b7ff02e
      800997000	     39948	80006032	0310	c.addi4spn	x12,x2,384	 x12=0x00000171
      801397000	     39968	80006034	b08258f3	csrrwi	x17,mhpmcounter8,4	 x17=0x00000043
      801497000	     39973	80006038	00f62233	slt	x4,x12,x15	 x12:0x00000171 x15:0x00000000  x4=0x00000000
      802237000	     40010	8000603c	02bce1b3	rem	x3,x25,x11	 x25:0x00000040 x11:0x80021e64  x3=0x00000040
      802257000	     40011	80006040	8679	c.srai	x12,0x1e	 x12:0x00000171 x12=0x00000000
      802277000	     40012	80006042	00ee98b3	sll	x17,x29,x14	 x29:0xe6627498 x14:0x0000000d x17=0x4e930000
      802297000	     40013	80006046	017b4763	blt	x22,x23,80006054	 x22:0xff786700 x23:0x0001fa0c
      802677000	     40032	80006054	0bf1	c.addi	x23,28	 x23:0x0001fa0c x23=0x0001fa28
      802697000	     40033	80006056	8f3d	c.xor	x14,x15	 x14:0x0000000d x15:0x00000000 x14=0x0000000d
      802857000	     40041	80006058	41d080b3	sub	x1,x1,x29	  x1:0x26af27ff x29:0xe6627498  x1=0x404cb367
      802877000	     40042	8000605c	e815	c.bnez	x8,80006090	  x8:0x01866f76
      803737000	     40085	80006090	bdbdda97	auipc	x21,0xbdbdd	 x21=0x3dbe3090
      803757000	     40086	80006094	f12a97f3	csrrw	x0,marchid,x0	  x0:0x00000000  x0=0x00000000
      803817000	     40089	80002500	0800006f	jal	x0,80002580	  x0=0x00000000
      803897000	     40093	80002580	16f1	c.addi	x13,-4	 x13:0x80025ce4 x13=0x80025ce0
      803957000	     40096	80002582	c28c	c.sw	x11,0(x13)	 x13:0x80025ce0 x11:0x80021e64 PA:0x80025ce0 store:0x80021e64 load:0xffffffff
      803977000	     40097	80002584	000685b3	add	x11,x13,x0	 x13:0x80025ce0  x0:0x00000000 x11=0x80025ce0
      804017000	     40099	80002588	f8058593	addi	x11,x11,-128	 x11:0x80025ce0 x11=0x80025c60
      804077000	     40102	8000258c	0015a223	sw	x1,4(x11)	 x11:0x80025c60  x1:0x404cb367 PA:0x80025c64 store:0x404cb367 load:0xffffffff
      804277000	     40112	80002590	0025a423	sw	x2,8(x11)	 x11:0x80025c60  x2:0xfffffff1 PA:0x80025c68 store:0xfffffff1 load:0xffffffff
      804597000	     40128	80002594	0035a623	sw	x3,12(x11)	 x11:0x80025c60  x3:0x00000040 PA:0x80025c6c store:0x00000040 load:0xffffffff
      804677000	     40132	80002598	0045a823	sw	x4,16(x11)	 x11:0x80025c60  x4:0x00000000 PA:0x80025c70 store:0x00000000 load:0xffffffff
      805057000	     40151	8000259c	0055aa23	sw	x5,20(x11)	 x11:0x80025c60  x5:0x00000017 PA:0x80025c74 store:0x00000017 load:0xffffffff
      805117000	     40154	800025a0	0065ac23	sw	x6,24(x11)	 x11:0x80025c60  x6:0x0000000a PA:0x80025c78 store:0x0000000a load:0xffffffff
      805337000	     40165	800025a4	0075ae23	sw	x7,28(x11)	 x11:0x80025c60  x7:0x00000000 PA:0x80025c7c store:0x00000000 load:0xffffffff
      805357000	     40166	800025a8	d180	c.sw	x8,32(x11)	 x11:0x80025c60  x8:0x01866f76 PA:0x80025c80 store:0x01866f76 load:0xffffffff
      805697000	     40183	800025aa	d1c4	c.sw	x9,36(x11)	 x11:0x80025c60  x9:0xffffffff PA:0x80025c84 store:0xffffffff load:0xffffffff
      805757000	     40186	800025ac	d588	c.sw	x10,40(x11)	 x11:0x80025c60 x10:0x0001c000 PA:0x80025c88 store:0x0001c000 load:0xffffffff
      805837000	     40190	800025ae	d5cc	c.sw	x11,44(x11)	 x11:0x80025c60 x11:0x80025c60 PA:0x80025c8c store:0x80025c60 load:0xffffffff
      806257000	     40211	800025b0	d990	c.sw	x12,48(x11)	 x11:0x80025c60 x12:0x00000000 PA:0x80025c90 store:0x00000000 load:0xffffffff
      806657000	     40231	800025b2	d9d4	c.sw	x13,52(x11)	 x11:0x80025c60 x13:0x80025ce0 PA:0x80025c94 store:0x80025ce0 load:0xffffffff
      806717000	     40234	800025b4	dd98	c.sw	x14,56(x11)	 x11:0x80025c60 x14:0x0000000d PA:0x80025c98 store:0x0000000d load:0xffffffff
      806837000	     40240	800025b6	dddc	c.sw	x15,60(x11)	 x11:0x80025c60 x15:0x00000000 PA:0x80025c9c store:0x00000000 load:0xffffffff
      807037000	     40250	800025b8	0505a023	sw	x16,64(x11)	 x11:0x80025c60 x16:0x00000017 PA:0x80025ca0 store:0x00000017 load:0xffffffff
      807097000	     40253	800025bc	0515a223	sw	x17,68(x11)	 x11:0x80025c60 x17:0x4e930000 PA:0x80025ca4 store:0x4e930000 load:0xffffffff
      807297000	     40263	800025c0	0525a423	sw	x18,72(x11)	 x11:0x80025c60 x18:0x5b7ff02e PA:0x80025ca8 store:0x5b7ff02e load:0xffffffff
      807477000	     40272	800025c4	0535a623	sw	x19,76(x11)	 x11:0x80025c60 x19:0x0001fd77 PA:0x80025cac store:0x0001fd77 load:0xffffffff
      807817000	     40289	800025c8	0545a823	sw	x20,80(x11)	 x11:0x80025c60 x20:0x26af2800 PA:0x80025cb0 store:0x26af2800 load:0xffffffff
      808277000	     40312	800025cc	0555aa23	sw	x21,84(x11)	 x11:0x80025c60 x21:0x3dbe3090 PA:0x80025cb4 store:0x3dbe3090 load:0xffffffff
      808337000	     40315	800025d0	0565ac23	sw	x22,88(x11)	 x11:0x80025c60 x22:0xff786700 PA:0x80025cb8 store:0xff786700 load:0xffffffff
      808357000	     40316	800025d4	0575ae23	sw	x23,92(x11)	 x11:0x80025c60 x23:0x0001fa28 PA:0x80025cbc store:0x0001fa28 load:0xffffffff
      808377000	     40317	800025d8	0785a023	sw	x24,96(x11)	 x11:0x80025c60 x24:0x00000000 PA:0x80025cc0 store:0x00000000 load:0xffffffff
      808417000	     40319	800025dc	0795a223	sw	x25,100(x11)	 x11:0x80025c60 x25:0x00000040 PA:0x80025cc4 store:0x00000040 load:0xffffffff
      808477000	     40322	800025e0	07a5a423	sw	x26,104(x11)	 x11:0x80025c60 x26:0x01866f76 PA:0x80025cc8 store:0x01866f76 load:0xffffffff
      808497000	     40323	800025e4	07b5a623	sw	x27,108(x11)	 x11:0x80025c60 x27:0x000002b0 PA:0x80025ccc store:0x000002b0 load:0xffffffff
      808517000	     40324	800025e8	07c5a823	sw	x28,112(x11)	 x11:0x80025c60 x28:0x31111dba PA:0x80025cd0 store:0x31111dba load:0xffffffff
      808537000	     40325	800025ec	07d5aa23	sw	x29,116(x11)	 x11:0x80025c60 x29:0xe6627498 PA:0x80025cd4 store:0xe6627498 load:0xffffffff
      808797000	     40338	800025f0	07e5ac23	sw	x30,120(x11)	 x11:0x80025c60 x30:0x00003a0c PA:0x80025cd8 store:0x00003a0c load:0xffffffff
      808857000	     40341	800025f4	07f5ae23	sw	x31,124(x11)	 x11:0x80025c60 x31:0x000000c0 PA:0x80025cdc store:0x000000c0 load:0xffffffff
      808877000	     40342	800025f8	000586b3	add	x13,x11,x0	 x11:0x80025c60  x0:0x00000000 x13=0x80025c60
      808897000	     40343	800025fc	90000db7	lui	x27,0x90000	 x27=0x90000000
      808917000	     40344	80002600	1df1	c.addi	x27,-4	 x27:0x90000000 x27=0x8ffffffc
      808937000	     40345	80002602	4921	c.li	x18,8	 x18=0x00000008
      808957000	     40346	80002604	0922	c.slli	x18,0x8	 x18:0x00000008 x18=0x00000800
      808977000	     40347	80002606	00090913	addi	x18,x18,0	 x18:0x00000800 x18=0x00000800
      809117000	     40354	8000260a	012da023	sw	x18,0(x27)	 x27:0x8ffffffc x18:0x00000800 PA:0x8ffffffc store:0x00000800 load:0xffffffff
      809137000	     40355	8000260e	34102973	csrrs	x18,mepc,x0	  x0:0x00000000 x18=0x80006094
      809157000	     40356	80002612	34202973	csrrs	x18,mcause,x0	  x0:0x00000000 x18=0x00000002
      809177000	     40357	80002616	4d8d	c.li	x27,3	 x27=0x00000003
      809197000	     40358	80002618	01b91463	bne	x18,x27,80002620	 x18:0x00000002 x27:0x00000003
      809237000	     40360	80002620	4da1	c.li	x27,8	 x27=0x00000008
      809257000	     40361	80002622	05b90d63	beq	x18,x27,8000267c	 x18:0x00000002 x27:0x00000008
      809277000	     40362	80002626	4da5	c.li	x27,9	 x27=0x00000009
      809297000	     40363	80002628	05b90a63	beq	x18,x27,8000267c	 x18:0x00000002 x27:0x00000009
      809317000	     40364	8000262c	4dad	c.li	x27,11	 x27=0x0000000b
      809337000	     40365	8000262e	05b90763	beq	x18,x27,8000267c	 x18:0x00000002 x27:0x0000000b
      809357000	     40366	80002632	4d85	c.li	x27,1	 x27=0x00000001
      809377000	     40367	80002634	35b90363	beq	x18,x27,8000297a	 x18:0x00000002 x27:0x00000001
      809397000	     40368	80002638	4d95	c.li	x27,5	 x27=0x00000005
      809417000	     40369	8000263a	63b90963	beq	x18,x27,80002c6c	 x18:0x00000002 x27:0x00000005
      809437000	     40370	8000263e	4d9d	c.li	x27,7	 x27=0x00000007
      809457000	     40371	80002640	15b90ae3	beq	x18,x27,80002f94	 x18:0x00000002 x27:0x00000007
      809477000	     40372	80002644	4db1	c.li	x27,12	 x27=0x0000000c
      809497000	     40373	80002646	01b91463	bne	x18,x27,8000264e	 x18:0x00000002 x27:0x0000000c
      809537000	     40375	8000264e	4db5	c.li	x27,13	 x27=0x0000000d
      809557000	     40376	80002650	01b91463	bne	x18,x27,80002658	 x18:0x00000002 x27:0x0000000d
      809597000	     40378	80002658	4dbd	c.li	x27,15	 x27=0x0000000f
      809617000	     40379	8000265a	01b91463	bne	x18,x27,80002662	 x18:0x00000002 x27:0x0000000f
      809677000	     40382	80002662	4d89	c.li	x27,2	 x27=0x00000002
      809697000	     40383	80002664	01b91463	bne	x18,x27,8000266c	 x18:0x00000002 x27:0x00000002
      809717000	     40384	80002668	45c0906f	jal	x0,8000bac4	  x0=0x00000000
      809757000	     40386	8000bac4	90000db7	lui	x27,0x90000	 x27=0x90000000
      809777000	     40387	8000bac8	1df1	c.addi	x27,-4	 x27:0x90000000 x27=0x8ffffffc
      809797000	     40388	8000baca	4929	c.li	x18,10	 x18=0x0000000a
      809817000	     40389	8000bacc	0922	c.slli	x18,0x8	 x18:0x0000000a x18=0x00000a00
      809837000	     40390	8000bace	00090913	addi	x18,x18,0	 x18:0x00000a00 x18=0x00000a00
      809977000	     40397	8000bad2	012da023	sw	x18,0(x27)	 x27:0x8ffffffc x18:0x00000a00 PA:0x8ffffffc store:0x00000a00 load:0xffffffff
      809997000	     40398	8000bad6	90000db7	lui	x27,0x90000	 x27=0x90000000
      810017000	     40399	8000bada	1df1	c.addi	x27,-4	 x27:0x90000000 x27=0x8ffffffc
      810037000	     40400	8000badc	34200913	addi	x18,x0,834	  x0:0x00000000 x18=0x00000342
      810057000	     40401	8000bae0	0922	c.slli	x18,0x8	 x18:0x00000342 x18=0x00034200
      810077000	     40402	8000bae2	090d	c.addi	x18,3	 x18:0x00034200 x18=0x00034203
      810137000	     40405	8000bae4	012da023	sw	x18,0(x27)	 x27:0x8ffffffc x18:0x00034203 PA:0x8ffffffc store:0x00034203 load:0xffffffff
      810157000	     40406	8000bae8	34202973	csrrs	x18,mcause,x0	  x0:0x00000000 x18=0x00000002
      810217000	     40409	8000baec	012da023	sw	x18,0(x27)	 x27:0x8ffffffc x18:0x00000002 PA:0x8ffffffc store:0x00000002 load:0xffffffff
      810237000	     40410	8000baf0	34102973	csrrs	x18,mepc,x0	  x0:0x00000000 x18=0x80006094
      810257000	     40411	8000baf4	0911	c.addi	x18,4	 x18:0x80006094 x18=0x80006098
      810277000	     40412	8000baf6	34191073	csrrw	x0,mepc,x18	 x18:0x80006098  x0=0x00000000
      810297000	     40413	8000bafa	000685b3	add	x11,x13,x0	 x13:0x80025c60  x0:0x00000000 x11=0x80025c60
      810357000	     40416	8000bafe	0045a083	lw	x1,4(x11)	 x11:0x80025c60  x1=0x404cb367 PA:0x80025c64 load:0x404cb367
      810517000	     40424	8000bb02	0085a103	lw	x2,8(x11)	 x11:0x80025c60  x2=0xfffffff1 PA:0x80025c68 load:0xfffffff1
      810617000	     40429	8000bb06	00c5a183	lw	x3,12(x11)	 x11:0x80025c60  x3=0x00000040 PA:0x80025c6c load:0x00000040
      810777000	     40437	8000bb0a	0105a203	lw	x4,16(x11)	 x11:0x80025c60  x4=0x00000000 PA:0x80025c70 load:0x00000000
      810837000	     40440	8000bb0e	0145a283	lw	x5,20(x11)	 x11:0x80025c60  x5=0x00000017 PA:0x80025c74 load:0x00000017
      810997000	     40448	8000bb12	0185a303	lw	x6,24(x11)	 x11:0x80025c60  x6=0x0000000a PA:0x80025c78 load:0x0000000a
      811137000	     40455	8000bb16	01c5a383	lw	x7,28(x11)	 x11:0x80025c60  x7=0x00000000 PA:0x80025c7c load:0x00000000
      811157000	     40456	8000bb1a	5180	c.lw	x8,32(x11)	 x11:0x80025c60  x8=0x01866f76 PA:0x80025c80 load:0x01866f76
      811177000	     40457	8000bb1c	51c4	c.lw	x9,36(x11)	 x11:0x80025c60  x9=0xffffffff PA:0x80025c84 load:0xffffffff
      811397000	     40468	8000bb1e	5588	c.lw	x10,40(x11)	 x11:0x80025c60 x10=0x0001c000 PA:0x80025c88 load:0x0001c000
      811457000	     40471	8000bb20	55cc	c.lw	x11,44(x11)	 x11:0x80025c60 x11=0x80025c60 PA:0x80025c8c load:0x80025c60
      811697000	     40483	8000bb22	5990	c.lw	x12,48(x11)	 x11:0x80025c60 x12=0x00000000 PA:0x80025c90 load:0x00000000
      811757000	     40486	8000bb24	59d4	c.lw	x13,52(x11)	 x11:0x80025c60 x13=0x80025ce0 PA:0x80025c94 load:0x80025ce0
      811777000	     40487	8000bb26	5d98	c.lw	x14,56(x11)	 x11:0x80025c60 x14=0x0000000d PA:0x80025c98 load:0x0000000d
      811877000	     40492	8000bb28	5ddc	c.lw	x15,60(x11)	 x11:0x80025c60 x15=0x00000000 PA:0x80025c9c load:0x00000000
      811957000	     40496	8000bb2a	0405a803	lw	x16,64(x11)	 x11:0x80025c60 x16=0x00000017 PA:0x80025ca0 load:0x00000017
      812177000	     40507	8000bb2e	0445a883	lw	x17,68(x11)	 x11:0x80025c60 x17=0x4e930000 PA:0x80025ca4 load:0x4e930000
      812397000	     40518	8000bb32	0485a903	lw	x18,72(x11)	 x11:0x80025c60 x18=0x5b7ff02e PA:0x80025ca8 load:0x5b7ff02e
      812417000	     40519	8000bb36	04c5a983	lw	x19,76(x11)	 x11:0x80025c60 x19=0x0001fd77 PA:0x80025cac load:0x0001fd77
      812437000	     40520	8000bb3a	0505aa03	lw	x20,80(x11)	 x11:0x80025c60 x20=0x26af2800 PA:0x80025cb0 load:0x26af2800
      812477000	     40522	8000bb3e	0545aa83	lw	x21,84(x11)	 x11:0x80025c60 x21=0x3dbe3090 PA:0x80025cb4 load:0x3dbe3090
      812677000	     40532	8000bb42	0585ab03	lw	x22,88(x11)	 x11:0x80025c60 x22=0xff786700 PA:0x80025cb8 load:0xff786700
      812797000	     40538	8000bb46	05c5ab83	lw	x23,92(x11)	 x11:0x80025c60 x23=0x0001fa28 PA:0x80025cbc load:0x0001fa28
      813257000	     40561	8000bb4a	0605ac03	lw	x24,96(x11)	 x11:0x80025c60 x24=0x00000000 PA:0x80025cc0 load:0x00000000
      813457000	     40571	8000bb4e	0645ac83	lw	x25,100(x11)	 x11:0x80025c60 x25=0x00000040 PA:0x80025cc4 load:0x00000040
      813577000	     40577	8000bb52	0685ad03	lw	x26,104(x11)	 x11:0x80025c60 x26=0x01866f76 PA:0x80025cc8 load:0x01866f76
      813637000	     40580	8000bb56	06c5ad83	lw	x27,108(x11)	 x11:0x80025c60 x27=0x000002b0 PA:0x80025ccc load:0x000002b0
      813777000	     40587	8000bb5a	0705ae03	lw	x28,112(x11)	 x11:0x80025c60 x28=0x31111dba PA:0x80025cd0 load:0x31111dba
      813977000	     40597	8000bb5e	0745ae83	lw	x29,116(x11)	 x11:0x80025c60 x29=0xe6627498 PA:0x80025cd4 load:0xe6627498
      814137000	     40605	8000bb62	0785af03	lw	x30,120(x11)	 x11:0x80025c60 x30=0x00003a0c PA:0x80025cd8 load:0x00003a0c
      814197000	     40608	8000bb66	07c5af83	lw	x31,124(x11)	 x11:0x80025c60 x31=0x000000c0 PA:0x80025cdc load:0x000000c0
      814217000	     40609	8000bb6a	08058593	addi	x11,x11,128	 x11:0x80025c60 x11=0x80025ce0
      814237000	     40610	8000bb6e	000586b3	add	x13,x11,x0	 x11:0x80025ce0  x0:0x00000000 x13=0x80025ce0
      814297000	     40613	8000bb72	428c	c.lw	x11,0(x13)	 x13:0x80025ce0 x11=0x80021e64 PA:0x80025ce0 load:0x80021e64
      814317000	     40614	8000bb74	0691	c.addi	x13,4	 x13:0x80025ce0 x13=0x80025ce4
      814337000	     40615	8000bb76	30200073	mret	
      814397000	     40618	80006098	00222533	slt	x10,x4,x2	  x4:0x00000000  x2:0xfffffff1 x10=0x00000000
      814417000	     40619	8000609c	8221	c.srli	x12,0x8	 x12:0x00000000 x12=0x00000000
      815157000	     40656	8000609e	032b7d33	remu	x26,x22,x18	 x22:0xff786700 x18:0x5b7ff02e x26=0x487886a4
      815177000	     40657	800060a2	0079dc13	srli	x24,x19,0x7	 x19:0x0001fd77 x24=0x000003fa
      815197000	     40658	800060a6	ef81	c.bnez	x15,800060be	 x15:0x00000000
      815217000	     40659	800060a8	017e4363	blt	x28,x23,800060ae	 x28:0x31111dba x23:0x0001fa28
      815237000	     40660	800060ac	0001	c.addi	x0,0	  x0:0x00000000  x0=0x00000000
      815257000	     40661	800060ae	0029df33	srl	x30,x19,x2	 x19:0x0001fd77  x2:0xfffffff1 x30=0x00000000
      815277000	     40662	800060b2	7b003f73	csrrc	x0,dcsr,x0	  x0:0x00000000  x0=0x00000000
      815337000	     40665	80002500	0800006f	jal	x0,80002580	  x0=0x00000000
      815397000	     40668	80002580	16f1	c.addi	x13,-4	 x13:0x80025ce4 x13=0x80025ce0
      815457000	     40671	80002582	c28c	c.sw	x11,0(x13)	 x13:0x80025ce0 x11:0x80021e64 PA:0x80025ce0 store:0x80021e64 load:0xffffffff
      815477000	     40672	80002584	000685b3	add	x11,x13,x0	 x13:0x80025ce0  x0:0x00000000 x11=0x80025ce0
      815497000	     40673	80002588	f8058593	addi	x11,x11,-128	 x11:0x80025ce0 x11=0x80025c60
      815677000	     40682	8000258c	0015a223	sw	x1,4(x11)	 x11:0x80025c60  x1:0x404cb367 PA:0x80025c64 store:0x404cb367 load:0xffffffff
      815697000	     40683	80002590	0025a423	sw	x2,8(x11)	 x11:0x80025c60  x2:0xfffffff1 PA:0x80025c68 store:0xfffffff1 load:0xffffffff
      815717000	     40684	80002594	0035a623	sw	x3,12(x11)	 x11:0x80025c60  x3:0x00000040 PA:0x80025c6c store:0x00000040 load:0xffffffff
      815937000	     40695	80002598	0045a823	sw	x4,16(x11)	 x11:0x80025c60  x4:0x00000000 PA:0x80025c70 store:0x00000000 load:0xffffffff
      815957000	     40696	8000259c	0055aa23	sw	x5,20(x11)	 x11:0x80025c60  x5:0x00000017 PA:0x80025c74 store:0x00000017 load:0xffffffff
      816057000	     40701	800025a0	0065ac23	sw	x6,24(x11)	 x11:0x80025c60  x6:0x0000000a PA:0x80025c78 store:0x0000000a load:0xffffffff
      816157000	     40706	800025a4	0075ae23	sw	x7,28(x11)	 x11:0x80025c60  x7:0x00000000 PA:0x80025c7c store:0x00000000 load:0xffffffff
      816637000	     40730	800025a8	d180	c.sw	x8,32(x11)	 x11:0x80025c60  x8:0x01866f76 PA:0x80025c80 store:0x01866f76 load:0xffffffff
      816697000	     40733	800025aa	d1c4	c.sw	x9,36(x11)	 x11:0x80025c60  x9:0xffffffff PA:0x80025c84 store:0xffffffff load:0xffffffff
      816857000	     40741	800025ac	d588	c.sw	x10,40(x11)	 x11:0x80025c60 x10:0x00000000 PA:0x80025c88 store:0x00000000 load:0xffffffff
      816897000	     40743	800025ae	d5cc	c.sw	x11,44(x11)	 x11:0x80025c60 x11:0x80025c60 PA:0x80025c8c store:0x80025c60 load:0xffffffff
      816997000	     40748	800025b0	d990	c.sw	x12,48(x11)	 x11:0x80025c60 x12:0x00000000 PA:0x80025c90 store:0x00000000 load:0xffffffff
      817457000	     40771	800025b2	d9d4	c.sw	x13,52(x11)	 x11:0x80025c60 x13:0x80025ce0 PA:0x80025c94 store:0x80025ce0 load:0xffffffff
      817837000	     40790	800025b4	dd98	c.sw	x14,56(x11)	 x11:0x80025c60 x14:0x0000000d PA:0x80025c98 store:0x0000000d load:0xffffffff
      817937000	     40795	800025b6	dddc	c.sw	x15,60(x11)	 x11:0x80025c60 x15:0x00000000 PA:0x80025c9c store:0x00000000 load:0xffffffff
      817957000	     40796	800025b8	0505a023	sw	x16,64(x11)	 x11:0x80025c60 x16:0x00000017 PA:0x80025ca0 store:0x00000017 load:0xffffffff
      818377000	     40817	800025bc	0515a223	sw	x17,68(x11)	 x11:0x80025c60 x17:0x4e930000 PA:0x80025ca4 store:0x4e930000 load:0xffffffff
      818557000	     40826	800025c0	0525a423	sw	x18,72(x11)	 x11:0x80025c60 x18:0x5b7ff02e PA:0x80025ca8 store:0x5b7ff02e load:0xffffffff
      818577000	     40827	800025c4	0535a623	sw	x19,76(x11)	 x11:0x80025c60 x19:0x0001fd77 PA:0x80025cac store:0x0001fd77 load:0xffffffff
      818777000	     40837	800025c8	0545a823	sw	x20,80(x11)	 x11:0x80025c60 x20:0x26af2800 PA:0x80025cb0 store:0x26af2800 load:0xffffffff
      819037000	     40850	800025cc	0555aa23	sw	x21,84(x11)	 x11:0x80025c60 x21:0x3dbe3090 PA:0x80025cb4 store:0x3dbe3090 load:0xffffffff
      819157000	     40856	800025d0	0565ac23	sw	x22,88(x11)	 x11:0x80025c60 x22:0xff786700 PA:0x80025cb8 store:0xff786700 load:0xffffffff
      819217000	     40859	800025d4	0575ae23	sw	x23,92(x11)	 x11:0x80025c60 x23:0x0001fa28 PA:0x80025cbc store:0x0001fa28 load:0xffffffff
      819237000	     40860	800025d8	0785a023	sw	x24,96(x11)	 x11:0x80025c60 x24:0x000003fa PA:0x80025cc0 store:0x000003fa load:0xffffffff
      819417000	     40869	800025dc	0795a223	sw	x25,100(x11)	 x11:0x80025c60 x25:0x00000040 PA:0x80025cc4 store:0x00000040 load:0xffffffff
      819637000	     40880	800025e0	07a5a423	sw	x26,104(x11)	 x11:0x80025c60 x26:0x487886a4 PA:0x80025cc8 store:0x487886a4 load:0xffffffff
      819777000	     40887	800025e4	07b5a623	sw	x27,108(x11)	 x11:0x80025c60 x27:0x000002b0 PA:0x80025ccc store:0x000002b0 load:0xffffffff
      820237000	     40910	800025e8	07c5a823	sw	x28,112(x11)	 x11:0x80025c60 x28:0x31111dba PA:0x80025cd0 store:0x31111dba load:0xffffffff
      820357000	     40916	800025ec	07d5aa23	sw	x29,116(x11)	 x11:0x80025c60 x29:0xe6627498 PA:0x80025cd4 store:0xe6627498 load:0xffffffff
      820817000	     40939	800025f0	07e5ac23	sw	x30,120(x11)	 x11:0x80025c60 x30:0x00000000 PA:0x80025cd8 store:0x00000000 load:0xffffffff
      820877000	     40942	800025f4	07f5ae23	sw	x31,124(x11)	 x11:0x80025c60 x31:0x000000c0 PA:0x80025cdc store:0x000000c0 load:0xffffffff
      820897000	     40943	800025f8	000586b3	add	x13,x11,x0	 x11:0x80025c60  x0:0x00000000 x13=0x80025c60
      820917000	     40944	800025fc	90000db7	lui	x27,0x90000	 x27=0x90000000
      820937000	     40945	80002600	1df1	c.addi	x27,-4	 x27:0x90000000 x27=0x8ffffffc
      820957000	     40946	80002602	4921	c.li	x18,8	 x18=0x00000008
      820977000	     40947	80002604	0922	c.slli	x18,0x8	 x18:0x00000008 x18=0x00000800
      820997000	     40948	80002606	00090913	addi	x18,x18,0	 x18:0x00000800 x18=0x00000800
      821117000	     40954	8000260a	012da023	sw	x18,0(x27)	 x27:0x8ffffffc x18:0x00000800 PA:0x8ffffffc store:0x00000800 load:0xffffffff
      821137000	     40955	8000260e	34102973	csrrs	x18,mepc,x0	  x0:0x00000000 x18=0x800060b2
      821157000	     40956	80002612	34202973	csrrs	x18,mcause,x0	  x0:0x00000000 x18=0x00000002
      821177000	     40957	80002616	4d8d	c.li	x27,3	 x27=0x00000003
      821197000	     40958	80002618	01b91463	bne	x18,x27,80002620	 x18:0x00000002 x27:0x00000003
      821237000	     40960	80002620	4da1	c.li	x27,8	 x27=0x00000008
      821257000	     40961	80002622	05b90d63	beq	x18,x27,8000267c	 x18:0x00000002 x27:0x00000008
      821277000	     40962	80002626	4da5	c.li	x27,9	 x27=0x00000009
      821297000	     40963	80002628	05b90a63	beq	x18,x27,8000267c	 x18:0x00000002 x27:0x00000009
      821317000	     40964	8000262c	4dad	c.li	x27,11	 x27=0x0000000b
      821337000	     40965	8000262e	05b90763	beq	x18,x27,8000267c	 x18:0x00000002 x27:0x0000000b
      821357000	     40966	80002632	4d85	c.li	x27,1	 x27=0x00000001
      821377000	     40967	80002634	35b90363	beq	x18,x27,8000297a	 x18:0x00000002 x27:0x00000001
      821397000	     40968	80002638	4d95	c.li	x27,5	 x27=0x00000005
      821417000	     40969	8000263a	63b90963	beq	x18,x27,80002c6c	 x18:0x00000002 x27:0x00000005
      821437000	     40970	8000263e	4d9d	c.li	x27,7	 x27=0x00000007
      821457000	     40971	80002640	15b90ae3	beq	x18,x27,80002f94	 x18:0x00000002 x27:0x00000007
      821477000	     40972	80002644	4db1	c.li	x27,12	 x27=0x0000000c
      821497000	     40973	80002646	01b91463	bne	x18,x27,8000264e	 x18:0x00000002 x27:0x0000000c
      821537000	     40975	8000264e	4db5	c.li	x27,13	 x27=0x0000000d
      821557000	     40976	80002650	01b91463	bne	x18,x27,80002658	 x18:0x00000002 x27:0x0000000d
      821597000	     40978	80002658	4dbd	c.li	x27,15	 x27=0x0000000f
      821617000	     40979	8000265a	01b91463	bne	x18,x27,80002662	 x18:0x00000002 x27:0x0000000f
      821657000	     40981	80002662	4d89	c.li	x27,2	 x27=0x00000002
      821677000	     40982	80002664	01b91463	bne	x18,x27,8000266c	 x18:0x00000002 x27:0x00000002
      821697000	     40983	80002668	45c0906f	jal	x0,8000bac4	  x0=0x00000000
      821737000	     40985	8000bac4	90000db7	lui	x27,0x90000	 x27=0x90000000
      821757000	     40986	8000bac8	1df1	c.addi	x27,-4	 x27:0x90000000 x27=0x8ffffffc
      821777000	     40987	8000baca	4929	c.li	x18,10	 x18=0x0000000a
      821797000	     40988	8000bacc	0922	c.slli	x18,0x8	 x18:0x0000000a x18=0x00000a00
      821817000	     40989	8000bace	00090913	addi	x18,x18,0	 x18:0x00000a00 x18=0x00000a00
      821977000	     40997	8000bad2	012da023	sw	x18,0(x27)	 x27:0x8ffffffc x18:0x00000a00 PA:0x8ffffffc store:0x00000a00 load:0xffffffff
      821997000	     40998	8000bad6	90000db7	lui	x27,0x90000	 x27=0x90000000
      822017000	     40999	8000bada	1df1	c.addi	x27,-4	 x27:0x90000000 x27=0x8ffffffc
      822037000	     41000	8000badc	34200913	addi	x18,x0,834	  x0:0x00000000 x18=0x00000342
      822057000	     41001	8000bae0	0922	c.slli	x18,0x8	 x18:0x00000342 x18=0x00034200
      822077000	     41002	8000bae2	090d	c.addi	x18,3	 x18:0x00034200 x18=0x00034203
      822317000	     41014	8000bae4	012da023	sw	x18,0(x27)	 x27:0x8ffffffc x18:0x00034203 PA:0x8ffffffc store:0x00034203 load:0xffffffff
      822337000	     41015	8000bae8	34202973	csrrs	x18,mcause,x0	  x0:0x00000000 x18=0x00000002
      822657000	     41031	8000baec	012da023	sw	x18,0(x27)	 x27:0x8ffffffc x18:0x00000002 PA:0x8ffffffc store:0x00000002 load:0xffffffff
      822677000	     41032	8000baf0	34102973	csrrs	x18,mepc,x0	  x0:0x00000000 x18=0x800060b2
      822697000	     41033	8000baf4	0911	c.addi	x18,4	 x18:0x800060b2 x18=0x800060b6
      822717000	     41034	8000baf6	34191073	csrrw	x0,mepc,x18	 x18:0x800060b6  x0=0x00000000
      822737000	     41035	8000bafa	000685b3	add	x11,x13,x0	 x13:0x80025c60  x0:0x00000000 x11=0x80025c60
      823037000	     41050	8000bafe	0045a083	lw	x1,4(x11)	 x11:0x80025c60  x1=0x404cb367 PA:0x80025c64 load:0x404cb367
      823497000	     41073	8000bb02	0085a103	lw	x2,8(x11)	 x11:0x80025c60  x2=0xfffffff1 PA:0x80025c68 load:0xfffffff1
      823557000	     41076	8000bb06	00c5a183	lw	x3,12(x11)	 x11:0x80025c60  x3=0x00000040 PA:0x80025c6c load:0x00000040
      823577000	     41077	8000bb0a	0105a203	lw	x4,16(x11)	 x11:0x80025c60  x4=0x00000000 PA:0x80025c70 load:0x00000000
      823997000	     41098	8000bb0e	0145a283	lw	x5,20(x11)	 x11:0x80025c60  x5=0x00000017 PA:0x80025c74 load:0x00000017
      824137000	     41105	8000bb12	0185a303	lw	x6,24(x11)	 x11:0x80025c60  x6=0x0000000a PA:0x80025c78 load:0x0000000a
      824337000	     41115	8000bb16	01c5a383	lw	x7,28(x11)	 x11:0x80025c60  x7=0x00000000 PA:0x80025c7c load:0x00000000
      824397000	     41118	8000bb1a	5180	c.lw	x8,32(x11)	 x11:0x80025c60  x8=0x01866f76 PA:0x80025c80 load:0x01866f76
      824417000	     41119	8000bb1c	51c4	c.lw	x9,36(x11)	 x11:0x80025c60  x9=0xffffffff PA:0x80025c84 load:0xffffffff
      824437000	     41120	8000bb1e	5588	c.lw	x10,40(x11)	 x11:0x80025c60 x10=0x00000000 PA:0x80025c88 load:0x00000000
      824677000	     41132	8000bb20	55cc	c.lw	x11,44(x11)	 x11:0x80025c60 x11=0x80025c60 PA:0x80025c8c load:0x80025c60
      825297000	     41163	8000bb22	5990	c.lw	x12,48(x11)	 x11:0x80025c60 x12=0x00000000 PA:0x80025c90 load:0x00000000
      840957000	     41946	8000bb24	59d4	c.lw	x13,52(x11)	 x11:0x80025c60 x13=0x80025ce0 PA:0x80025c94 load:0x80025ce0
      841417000	     41969	8000bb26	5d98	c.lw	x14,56(x11)	 x11:0x80025c60 x14=0x0000000d PA:0x80025c98 load:0x0000000d
      841557000	     41976	8000bb28	5ddc	c.lw	x15,60(x11)	 x11:0x80025c60 x15=0x00000000 PA:0x80025c9c load:0x00000000
      841677000	     41982	8000bb2a	0405a803	lw	x16,64(x11)	 x11:0x80025c60 x16=0x00000017 PA:0x80025ca0 load:0x00000017
      841937000	     41995	8000bb2e	0445a883	lw	x17,68(x11)	 x11:0x80025c60 x17=0x4e930000 PA:0x80025ca4 load:0x4e930000
      842017000	     41999	8000bb32	0485a903	lw	x18,72(x11)	 x11:0x80025c60 x18=0x5b7ff02e PA:0x80025ca8 load:0x5b7ff02e
      842057000	     42001	8000bb36	04c5a983	lw	x19,76(x11)	 x11:0x80025c60 x19=0x0001fd77 PA:0x80025cac load:0x0001fd77
      842097000	     42003	8000bb3a	0505aa03	lw	x20,80(x11)	 x11:0x80025c60 x20=0x26af2800 PA:0x80025cb0 load:0x26af2800
      842297000	     42013	8000bb3e	0545aa83	lw	x21,84(x11)	 x11:0x80025c60 x21=0x3dbe3090 PA:0x80025cb4 load:0x3dbe3090
      842397000	     42018	8000bb42	0585ab03	lw	x22,88(x11)	 x11:0x80025c60 x22=0xff786700 PA:0x80025cb8 load:0xff786700
      842497000	     42023	8000bb46	05c5ab83	lw	x23,92(x11)	 x11:0x80025c60 x23=0x0001fa28 PA:0x80025cbc load:0x0001fa28
      842957000	     42046	8000bb4a	0605ac03	lw	x24,96(x11)	 x11:0x80025c60 x24=0x000003fa PA:0x80025cc0 load:0x000003fa
      843417000	     42069	8000bb4e	0645ac83	lw	x25,100(x11)	 x11:0x80025c60 x25=0x00000040 PA:0x80025cc4 load:0x00000040
      843657000	     42081	8000bb52	0685ad03	lw	x26,104(x11)	 x11:0x80025c60 x26=0x487886a4 PA:0x80025cc8 load:0x487886a4
      844117000	     42104	8000bb56	06c5ad83	lw	x27,108(x11)	 x11:0x80025c60 x27=0x000002b0 PA:0x80025ccc load:0x000002b0
      844577000	     42127	8000bb5a	0705ae03	lw	x28,112(x11)	 x11:0x80025c60 x28=0x31111dba PA:0x80025cd0 load:0x31111dba
      844937000	     42145	8000bb5e	0745ae83	lw	x29,116(x11)	 x11:0x80025c60 x29=0xe6627498 PA:0x80025cd4 load:0xe6627498
      845397000	     42168	8000bb62	0785af03	lw	x30,120(x11)	 x11:0x80025c60 x30=0x00000000 PA:0x80025cd8 load:0x00000000
      845457000	     42171	8000bb66	07c5af83	lw	x31,124(x11)	 x11:0x80025c60 x31=0x000000c0 PA:0x80025cdc load:0x000000c0
      845477000	     42172	8000bb6a	08058593	addi	x11,x11,128	 x11:0x80025c60 x11=0x80025ce0
      845497000	     42173	8000bb6e	000586b3	add	x13,x11,x0	 x11:0x80025ce0  x0:0x00000000 x13=0x80025ce0
      845577000	     42177	8000bb72	428c	c.lw	x11,0(x13)	 x13:0x80025ce0 x11=0x80021e64 PA:0x80025ce0 load:0x80021e64
      845597000	     42178	8000bb74	0691	c.addi	x13,4	 x13:0x80025ce0 x13=0x80025ce4
      845617000	     42179	8000bb76	30200073	mret	
      845697000	     42183	800060b6	01574233	xor	x4,x14,x21	 x14:0x0000000d x21:0x3dbe3090  x4=0x3dbe309d
      845717000	     42184	800060ba	01fbe0b3	or	x1,x23,x31	 x23:0x0001fa28 x31:0x000000c0  x1=0x0001fae8
      845737000	     42185	800060be	5f7d	c.li	x30,-1	 x30=0xffffffff
      845757000	     42186	800060c0	02ba6463	bltu	x20,x11,800060e8	 x20:0x26af2800 x11:0x80021e64
      846657000	     42231	800060e8	0000100f	fence.i	
      847677000	     42282	800060ec	f135d4f3	csrrwi	x0,mimpid,11	  x0=0x00000000
      847897000	     42293	80002500	0800006f	jal	x0,80002580	  x0=0x00000000
      848377000	     42317	80002580	16f1	c.addi	x13,-4	 x13:0x80025ce4 x13=0x80025ce0
      848757000	     42336	80002582	c28c	c.sw	x11,0(x13)	 x13:0x80025ce0 x11:0x80021e64 PA:0x80025ce0 store:0x80021e64 load:0xffffffff
      848777000	     42337	80002584	000685b3	add	x11,x13,x0	 x13:0x80025ce0  x0:0x00000000 x11=0x80025ce0
      848797000	     42338	80002588	f8058593	addi	x11,x11,-128	 x11:0x80025ce0 x11=0x80025c60
      848977000	     42347	8000258c	0015a223	sw	x1,4(x11)	 x11:0x80025c60  x1:0x0001fae8 PA:0x80025c64 store:0x0001fae8 load:0xffffffff
      849037000	     42350	80002590	0025a423	sw	x2,8(x11)	 x11:0x80025c60  x2:0xfffffff1 PA:0x80025c68 store:0xfffffff1 load:0xffffffff
      849457000	     42371	80002594	0035a623	sw	x3,12(x11)	 x11:0x80025c60  x3:0x00000040 PA:0x80025c6c store:0x00000040 load:0xffffffff
      849677000	     42382	80002598	0045a823	sw	x4,16(x11)	 x11:0x80025c60  x4:0x3dbe309d PA:0x80025c70 store:0x3dbe309d load:0xffffffff
      850137000	     42405	8000259c	0055aa23	sw	x5,20(x11)	 x11:0x80025c60  x5:0x00000017 PA:0x80025c74 store:0x00000017 load:0xffffffff
      850317000	     42414	800025a0	0065ac23	sw	x6,24(x11)	 x11:0x80025c60  x6:0x0000000a PA:0x80025c78 store:0x0000000a load:0xffffffff
      850377000	     42417	800025a4	0075ae23	sw	x7,28(x11)	 x11:0x80025c60  x7:0x00000000 PA:0x80025c7c store:0x00000000 load:0xffffffff
      850397000	     42418	800025a8	d180	c.sw	x8,32(x11)	 x11:0x80025c60  x8:0x01866f76 PA:0x80025c80 store:0x01866f76 load:0xffffffff
      850617000	     42429	800025aa	d1c4	c.sw	x9,36(x11)	 x11:0x80025c60  x9:0xffffffff PA:0x80025c84 store:0xffffffff load:0xffffffff
      850677000	     42432	800025ac	d588	c.sw	x10,40(x11)	 x11:0x80025c60 x10:0x00000000 PA:0x80025c88 store:0x00000000 load:0xffffffff
      850697000	     42433	800025ae	d5cc	c.sw	x11,44(x11)	 x11:0x80025c60 x11:0x80025c60 PA:0x80025c8c store:0x80025c60 load:0xffffffff
      850717000	     42434	800025b0	d990	c.sw	x12,48(x11)	 x11:0x80025c60 x12:0x00000000 PA:0x80025c90 store:0x00000000 load:0xffffffff
      850817000	     42439	800025b2	d9d4	c.sw	x13,52(x11)	 x11:0x80025c60 x13:0x80025ce0 PA:0x80025c94 store:0x80025ce0 load:0xffffffff
      851037000	     42450	800025b4	dd98	c.sw	x14,56(x11)	 x11:0x80025c60 x14:0x0000000d PA:0x80025c98 store:0x0000000d load:0xffffffff
      851257000	     42461	800025b6	dddc	c.sw	x15,60(x11)	 x11:0x80025c60 x15:0x00000000 PA:0x80025c9c store:0x00000000 load:0xffffffff
      851417000	     42469	800025b8	0505a023	sw	x16,64(x11)	 x11:0x80025c60 x16:0x00000017 PA:0x80025ca0 store:0x00000017 load:0xffffffff
      851597000	     42478	800025bc	0515a223	sw	x17,68(x11)	 x11:0x80025c60 x17:0x4e930000 PA:0x80025ca4 store:0x4e930000 load:0xffffffff
      851657000	     42481	800025c0	0525a423	sw	x18,72(x11)	 x11:0x80025c60 x18:0x5b7ff02e PA:0x80025ca8 store:0x5b7ff02e load:0xffffffff
      851897000	     42493	800025c4	0535a623	sw	x19,76(x11)	 x11:0x80025c60 x19:0x0001fd77 PA:0x80025cac store:0x0001fd77 load:0xffffffff
      852317000	     42514	800025c8	0545a823	sw	x20,80(x11)	 x11:0x80025c60 x20:0x26af2800 PA:0x80025cb0 store:0x26af2800 load:0xffffffff
      852377000	     42517	800025cc	0555aa23	sw	x21,84(x11)	 x11:0x80025c60 x21:0x3dbe3090 PA:0x80025cb4 store:0x3dbe3090 load:0xffffffff
      852657000	     42531	800025d0	0565ac23	sw	x22,88(x11)	 x11:0x80025c60 x22:0xff786700 PA:0x80025cb8 store:0xff786700 load:0xffffffff
      852717000	     42534	800025d4	0575ae23	sw	x23,92(x11)	 x11:0x80025c60 x23:0x0001fa28 PA:0x80025cbc store:0x0001fa28 load:0xffffffff
      852737000	     42535	800025d8	0785a023	sw	x24,96(x11)	 x11:0x80025c60 x24:0x000003fa PA:0x80025cc0 store:0x000003fa load:0xffffffff
      852797000	     42538	800025dc	0795a223	sw	x25,100(x11)	 x11:0x80025c60 x25:0x00000040 PA:0x80025cc4 store:0x00000040 load:0xffffffff
      852897000	     42543	800025e0	07a5a423	sw	x26,104(x11)	 x11:0x80025c60 x26:0x487886a4 PA:0x80025cc8 store:0x487886a4 load:0xffffffff
      852977000	     42547	800025e4	07b5a623	sw	x27,108(x11)	 x11:0x80025c60 x27:0x000002b0 PA:0x80025ccc store:0x000002b0 load:0xffffffff
      853097000	     42553	800025e8	07c5a823	sw	x28,112(x11)	 x11:0x80025c60 x28:0x31111dba PA:0x80025cd0 store:0x31111dba load:0xffffffff
      853237000	     42560	800025ec	07d5aa23	sw	x29,116(x11)	 x11:0x80025c60 x29:0xe6627498 PA:0x80025cd4 store:0xe6627498 load:0xffffffff
      853257000	     42561	800025f0	07e5ac23	sw	x30,120(x11)	 x11:0x80025c60 x30:0xffffffff PA:0x80025cd8 store:0xffffffff load:0xffffffff
      853297000	     42563	800025f4	07f5ae23	sw	x31,124(x11)	 x11:0x80025c60 x31:0x000000c0 PA:0x80025cdc store:0x000000c0 load:0xffffffff
      853317000	     42564	800025f8	000586b3	add	x13,x11,x0	 x11:0x80025c60  x0:0x00000000 x13=0x80025c60
      853337000	     42565	800025fc	90000db7	lui	x27,0x90000	 x27=0x90000000
      853357000	     42566	80002600	1df1	c.addi	x27,-4	 x27:0x90000000 x27=0x8ffffffc
      853377000	     42567	80002602	4921	c.li	x18,8	 x18=0x00000008
      853397000	     42568	80002604	0922	c.slli	x18,0x8	 x18:0x00000008 x18=0x00000800
      853497000	     42573	80002606	00090913	addi	x18,x18,0	 x18:0x00000800 x18=0x00000800
      853557000	     42576	8000260a	012da023	sw	x18,0(x27)	 x27:0x8ffffffc x18:0x00000800 PA:0x8ffffffc store:0x00000800 load:0xffffffff
      853937000	     42595	8000260e	34102973	csrrs	x18,mepc,x0	  x0:0x00000000 x18=0x800060ec
      853957000	     42596	80002612	34202973	csrrs	x18,mcause,x0	  x0:0x00000000 x18=0x00000002
      853977000	     42597	80002616	4d8d	c.li	x27,3	 x27=0x00000003
      854057000	     42601	80002618	01b91463	bne	x18,x27,80002620	 x18:0x00000002 x27:0x00000003
      855057000	     42651	80002620	4da1	c.li	x27,8	 x27=0x00000008
      855477000	     42672	80002622	05b90d63	beq	x18,x27,8000267c	 x18:0x00000002 x27:0x00000008
      855497000	     42673	80002626	4da5	c.li	x27,9	 x27=0x00000009
      855897000	     42693	80002628	05b90a63	beq	x18,x27,8000267c	 x18:0x00000002 x27:0x00000009
      856017000	     42699	8000262c	4dad	c.li	x27,11	 x27=0x0000000b
      856217000	     42709	8000262e	05b90763	beq	x18,x27,8000267c	 x18:0x00000002 x27:0x0000000b
      856237000	     42710	80002632	4d85	c.li	x27,1	 x27=0x00000001
      856357000	     42716	80002634	35b90363	beq	x18,x27,8000297a	 x18:0x00000002 x27:0x00000001
      856377000	     42717	80002638	4d95	c.li	x27,5	 x27=0x00000005
      856797000	     42738	8000263a	63b90963	beq	x18,x27,80002c6c	 x18:0x00000002 x27:0x00000005
      856817000	     42739	8000263e	4d9d	c.li	x27,7	 x27=0x00000007
      857177000	     42757	80002640	15b90ae3	beq	x18,x27,80002f94	 x18:0x00000002 x27:0x00000007
      857597000	     42778	80002644	4db1	c.li	x27,12	 x27=0x0000000c
      857617000	     42779	80002646	01b91463	bne	x18,x27,8000264e	 x18:0x00000002 x27:0x0000000c
      857797000	     42788	8000264e	4db5	c.li	x27,13	 x27=0x0000000d
      858237000	     42810	80002650	01b91463	bne	x18,x27,80002658	 x18:0x00000002 x27:0x0000000d
      858717000	     42834	80002658	4dbd	c.li	x27,15	 x27=0x0000000f
      859137000	     42855	8000265a	01b91463	bne	x18,x27,80002662	 x18:0x00000002 x27:0x0000000f
      859177000	     42857	80002662	4d89	c.li	x27,2	 x27=0x00000002
      859197000	     42858	80002664	01b91463	bne	x18,x27,8000266c	 x18:0x00000002 x27:0x00000002
      859837000	     42890	80002668	45c0906f	jal	x0,8000bac4	  x0=0x00000000
      860717000	     42934	8000bac4	90000db7	lui	x27,0x90000	 x27=0x90000000
      860837000	     42940	8000bac8	1df1	c.addi	x27,-4	 x27:0x90000000 x27=0x8ffffffc
      860857000	     42941	8000baca	4929	c.li	x18,10	 x18=0x0000000a
      860877000	     42942	8000bacc	0922	c.slli	x18,0x8	 x18:0x0000000a x18=0x00000a00
      860897000	     42943	8000bace	00090913	addi	x18,x18,0	 x18:0x00000a00 x18=0x00000a00
      860957000	     42946	8000bad2	012da023	sw	x18,0(x27)	 x27:0x8ffffffc x18:0x00000a00 PA:0x8ffffffc store:0x00000a00 load:0xffffffff
      860977000	     42947	8000bad6	90000db7	lui	x27,0x90000	 x27=0x90000000
      860997000	     42948	8000bada	1df1	c.addi	x27,-4	 x27:0x90000000 x27=0x8ffffffc
      861017000	     42949	8000badc	34200913	addi	x18,x0,834	  x0:0x00000000 x18=0x00000342
      861217000	     42959	8000bae0	0922	c.slli	x18,0x8	 x18:0x00000342 x18=0x00034200
      861237000	     42960	8000bae2	090d	c.addi	x18,3	 x18:0x00034200 x18=0x00034203
      861357000	     42966	8000bae4	012da023	sw	x18,0(x27)	 x27:0x8ffffffc x18:0x00034203 PA:0x8ffffffc store:0x00034203 load:0xffffffff
      861717000	     42984	8000bae8	34202973	csrrs	x18,mcause,x0	  x0:0x00000000 x18=0x00000002
      862117000	     43004	8000baec	012da023	sw	x18,0(x27)	 x27:0x8ffffffc x18:0x00000002 PA:0x8ffffffc store:0x00000002 load:0xffffffff
      862297000	     43013	8000baf0	34102973	csrrs	x18,mepc,x0	  x0:0x00000000 x18=0x800060ec
      862377000	     43017	8000baf4	0911	c.addi	x18,4	 x18:0x800060ec x18=0x800060f0
      862677000	     43032	8000baf6	34191073	csrrw	x0,mepc,x18	 x18:0x800060f0  x0=0x00000000
      862697000	     43033	8000bafa	000685b3	add	x11,x13,x0	 x13:0x80025c60  x0:0x00000000 x11=0x80025c60
      862917000	     43044	8000bafe	0045a083	lw	x1,4(x11)	 x11:0x80025c60  x1=0x0001fae8 PA:0x80025c64 load:0x0001fae8
      863237000	     43060	8000bb02	0085a103	lw	x2,8(x11)	 x11:0x80025c60  x2=0xfffffff1 PA:0x80025c68 load:0xfffffff1
      863297000	     43063	8000bb06	00c5a183	lw	x3,12(x11)	 x11:0x80025c60  x3=0x00000040 PA:0x80025c6c load:0x00000040
      863317000	     43064	8000bb0a	0105a203	lw	x4,16(x11)	 x11:0x80025c60  x4=0x3dbe309d PA:0x80025c70 load:0x3dbe309d
      863457000	     43071	8000bb0e	0145a283	lw	x5,20(x11)	 x11:0x80025c60  x5=0x00000017 PA:0x80025c74 load:0x00000017
      863517000	     43074	8000bb12	0185a303	lw	x6,24(x11)	 x11:0x80025c60  x6=0x0000000a PA:0x80025c78 load:0x0000000a
      863697000	     43083	8000bb16	01c5a383	lw	x7,28(x11)	 x11:0x80025c60  x7=0x00000000 PA:0x80025c7c load:0x00000000
      863757000	     43086	8000bb1a	5180	c.lw	x8,32(x11)	 x11:0x80025c60  x8=0x01866f76 PA:0x80025c80 load:0x01866f76
      863817000	     43089	8000bb1c	51c4	c.lw	x9,36(x11)	 x11:0x80025c60  x9=0xffffffff PA:0x80025c84 load:0xffffffff
      864197000	     43108	8000bb1e	5588	c.lw	x10,40(x11)	 x11:0x80025c60 x10=0x00000000 PA:0x80025c88 load:0x00000000
      864357000	     43116	8000bb20	55cc	c.lw	x11,44(x11)	 x11:0x80025c60 x11=0x80025c60 PA:0x80025c8c load:0x80025c60
      864477000	     43122	8000bb22	5990	c.lw	x12,48(x11)	 x11:0x80025c60 x12=0x00000000 PA:0x80025c90 load:0x00000000
      864877000	     43142	8000bb24	59d4	c.lw	x13,52(x11)	 x11:0x80025c60 x13=0x80025ce0 PA:0x80025c94 load:0x80025ce0
      864937000	     43145	8000bb26	5d98	c.lw	x14,56(x11)	 x11:0x80025c60 x14=0x0000000d PA:0x80025c98 load:0x0000000d
      865097000	     43153	8000bb28	5ddc	c.lw	x15,60(x11)	 x11:0x80025c60 x15=0x00000000 PA:0x80025c9c load:0x00000000
      865157000	     43156	8000bb2a	0405a803	lw	x16,64(x11)	 x11:0x80025c60 x16=0x00000017 PA:0x80025ca0 load:0x00000017
      865177000	     43157	8000bb2e	0445a883	lw	x17,68(x11)	 x11:0x80025c60 x17=0x4e930000 PA:0x80025ca4 load:0x4e930000
      865337000	     43165	8000bb32	0485a903	lw	x18,72(x11)	 x11:0x80025c60 x18=0x5b7ff02e PA:0x80025ca8 load:0x5b7ff02e
      865457000	     43171	8000bb36	04c5a983	lw	x19,76(x11)	 x11:0x80025c60 x19=0x0001fd77 PA:0x80025cac load:0x0001fd77
      865617000	     43179	8000bb3a	0505aa03	lw	x20,80(x11)	 x11:0x80025c60 x20=0x26af2800 PA:0x80025cb0 load:0x26af2800
      865837000	     43190	8000bb3e	0545aa83	lw	x21,84(x11)	 x11:0x80025c60 x21=0x3dbe3090 PA:0x80025cb4 load:0x3dbe3090
      865957000	     43196	8000bb42	0585ab03	lw	x22,88(x11)	 x11:0x80025c60 x22=0xff786700 PA:0x80025cb8 load:0xff786700
      866617000	     43229	8000bb46	05c5ab83	lw	x23,92(x11)	 x11:0x80025c60 x23=0x0001fa28 PA:0x80025cbc load:0x0001fa28
      867237000	     43260	8000bb4a	0605ac03	lw	x24,96(x11)	 x11:0x80025c60 x24=0x000003fa PA:0x80025cc0 load:0x000003fa
      867697000	     43283	8000bb4e	0645ac83	lw	x25,100(x11)	 x11:0x80025c60 x25=0x00000040 PA:0x80025cc4 load:0x00000040
      867757000	     43286	8000bb52	0685ad03	lw	x26,104(x11)	 x11:0x80025c60 x26=0x487886a4 PA:0x80025cc8 load:0x487886a4
      867777000	     43287	8000bb56	06c5ad83	lw	x27,108(x11)	 x11:0x80025c60 x27=0x000002b0 PA:0x80025ccc load:0x000002b0
      867877000	     43292	8000bb5a	0705ae03	lw	x28,112(x11)	 x11:0x80025c60 x28=0x31111dba PA:0x80025cd0 load:0x31111dba
      867897000	     43293	8000bb5e	0745ae83	lw	x29,116(x11)	 x11:0x80025c60 x29=0xe6627498 PA:0x80025cd4 load:0xe6627498
      868317000	     43314	8000bb62	0785af03	lw	x30,120(x11)	 x11:0x80025c60 x30=0xffffffff PA:0x80025cd8 load:0xffffffff
      868457000	     43321	8000bb66	07c5af83	lw	x31,124(x11)	 x11:0x80025c60 x31=0x000000c0 PA:0x80025cdc load:0x000000c0
      868477000	     43322	8000bb6a	08058593	addi	x11,x11,128	 x11:0x80025c60 x11=0x80025ce0
      868497000	     43323	8000bb6e	000586b3	add	x13,x11,x0	 x11:0x80025ce0  x0:0x00000000 x13=0x80025ce0
      868557000	     43326	8000bb72	428c	c.lw	x11,0(x13)	 x13:0x80025ce0 x11=0x80021e64 PA:0x80025ce0 load:0x80021e64
      868577000	     43327	8000bb74	0691	c.addi	x13,4	 x13:0x80025ce0 x13=0x80025ce4
      868597000	     43328	8000bb76	30200073	mret	
      869137000	     43355	800060f0	00dd1b63	bne	x26,x13,80006106	 x26:0x487886a4 x13:0x80025ce4
      869997000	     43398	80006106	cab2cc97	auipc	x25,0xcab2c	 x25=0x4ab32106
      870197000	     43408	8000610a	f2806493	ori	x9,x0,-216	  x0:0x00000000  x9=0xffffff28
      870217000	     43409	8000610e	0001	c.addi	x0,0	  x0:0x00000000  x0=0x00000000
      871217000	     43459	80006110	037ff7b3	remu	x15,x31,x23	 x31:0x000000c0 x23:0x0001fa28 x15=0x000000c0
      871237000	     43460	80006114	01023533	sltu	x10,x4,x16	  x4:0x3dbe309d x16:0x00000017 x10=0x00000000
      871257000	     43461	80006118	01f13c33	sltu	x24,x2,x31	  x2:0xfffffff1 x31:0x000000c0 x24=0x00000000
      871277000	     43462	8000611c	f0893797	auipc	x15,0xf0893	 x15=0x7089911c
      871317000	     43464	80006120	028230b3	mulhu	x1,x4,x8	  x4:0x3dbe309d  x8:0x01866f76  x1=0x005e2a9f
      871337000	     43465	80006124	8451	c.srai	x8,0x14	  x8:0x01866f76  x8=0x00000018
      871357000	     43466	80006126	8f21	c.xor	x14,x8	 x14:0x0000000d  x8:0x00000018 x14=0x00000015
      871377000	     43467	80006128	033c6f63	bltu	x24,x19,80006166	 x24:0x00000000 x19:0x0001fd77
      872517000	     43524	80006166	0000100f	fence.i	
      876797000	     43738	8000616a	409fd213	srai	x4,x31,0x9	 x31:0x000000c0  x4=0x00000000
      876817000	     43739	8000616e	406c01b3	sub	x3,x24,x6	 x24:0x00000000  x6:0x0000000a  x3=0xfffffff6
      876837000	     43740	80006172	41e0de33	sra	x28,x1,x30	  x1:0x005e2a9f x30:0xffffffff x28=0x00000000
      876857000	     43741	80006176	cb99	c.beqz	x15,8000618c	 x15:0x7089911c
      876877000	     43742	80006178	402a84b3	sub	x9,x21,x2	 x21:0x3dbe3090  x2:0xfffffff1  x9=0x3dbe309f
      876897000	     43743	8000617c	b8b06873	csrrsi	x16,mhpmcounter11h,0	 x16=0x00000000
      877817000	     43789	80006180	021e7733	remu	x14,x28,x1	 x28:0x00000000  x1:0x005e2a9f x14=0x00000000
      877837000	     43790	80006184	00bef8b3	and	x17,x29,x11	 x29:0xe6627498 x11:0x80021e64 x17=0x80021400
      877857000	     43791	80006188	01e86663	bltu	x16,x30,80006194	 x16:0x00000000 x30:0xffffffff
      877937000	     43795	80006194	01fd	c.addi	x3,31	  x3:0xfffffff6  x3=0x00000015
      878077000	     43802	80006196	b877fdf3	csrrci	x27,mhpmcounter7h,15	 x27=0x00000000
      878137000	     43805	8000619a	6e39	c.lui	x28,0xe	 x28=0x0000e000
      878157000	     43806	8000619c	00975f33	srl	x30,x14,x9	 x14:0x00000000  x9:0x3dbe309f x30=0x00000000
      878177000	     43807	800061a0	717d	c.addi16sp	x2,-16	  x2:0xfffffff1  x2=0xffffffe1
      878397000	     43818	800061a2	b86b9773	csrrw	x14,mhpmcounter6h,x23	 x23:0x0001fa28 x14=0x00000000
      878457000	     43821	800061a6	017a6533	or	x10,x20,x23	 x20:0x26af2800 x23:0x0001fa28 x10=0x26affa28
      878477000	     43822	800061aa	ee1d	c.bnez	x12,800061e8	 x12:0x00000000
      879457000	     43871	800061ac	02beef33	rem	x30,x29,x11	 x29:0xe6627498 x11:0x80021e64 x30=0xe6627498
      879477000	     43872	800061b0	4cf1	c.li	x25,28	 x25=0x0000001c
      879497000	     43873	800061b2	0001	c.addi	x0,0	  x0:0x00000000  x0=0x00000000
      879517000	     43874	800061b4	8e4d	c.or	x12,x11	 x12:0x00000000 x11:0x80021e64 x12=0x80021e64
      879537000	     43875	800061b6	9772	c.add	x14,x28	 x14:0x00000000 x28:0x0000e000 x14=0x0000e000
      879577000	     43877	800061b8	02b220b3	mulhsu	x1,x4,x11	  x4:0x00000000 x11:0x80021e64  x1=0x00000000
      879597000	     43878	800061bc	eb596b17	auipc	x22,0xeb596	 x22=0x6b59c1bc
      879617000	     43879	800061c0	00884133	xor	x2,x16,x8	 x16:0x00000000  x8:0x00000018  x2=0x00000018
      879637000	     43880	800061c4	47d74d13	xori	x26,x14,1149	 x14:0x0000e000 x26=0x0000e47d
      879657000	     43881	800061c8	03620333	mul	x6,x4,x22	  x4:0x00000000 x22:0x6b59c1bc  x6=0x00000000
      880057000	     43901	800061cc	8ce9	c.and	x9,x10	  x9:0x3dbe309f x10:0x26affa28  x9=0x24ae3008
      880137000	     43905	800061ce	fc3fc813	xori	x16,x31,-61	 x31:0x000000c0 x16=0xffffff03
      880197000	     43908	800061d2	3b107c73	csrrci	x24,pmpaddr1,0	 x24=0x244450ed
      880497000	     43923	800061d6	01f210b3	sll	x1,x4,x31	  x4:0x00000000 x31:0x000000c0  x1=0x00000000
      880517000	     43924	800061da	23f6e813	ori	x16,x13,575	 x13:0x80025ce4 x16=0x80025eff
      880637000	     43930	800061de	b3664a93	xori	x21,x12,-1226	 x12:0x80021e64 x21=0x7ffde552
      880657000	     43931	800061e2	0e08	c.addi4spn	x10,x2,784	 x10=0x00000328
      880677000	     43932	800061e4	5e730193	addi	x3,x6,1511	  x6:0x00000000  x3=0x000005e7
      880937000	     43945	800061e8	ff63c993	xori	x19,x7,-10	  x7:0x00000000 x19=0xfffffff6
      880957000	     43946	800061ec	03351c63	bne	x10,x19,80006224	 x10:0x00000328 x19:0xfffffff6
      881437000	     43970	80006224	006c8463	beq	x25,x6,8000622c	 x25:0x0000001c  x6:0x00000000
      881877000	     43992	80006228	b0803373	csrrc	x6,mhpmcounter8,x0	  x0:0x00000000  x6=0x00000031
      881897000	     43993	8000622c	0171b433	sltu	x8,x3,x23	  x3:0x000005e7 x23:0x0001fa28  x8=0x00000001
      881917000	     43994	80006230	31006ff3	csrrsi	x31,0x310,0	 x31=0x00000000
      882277000	     44012	80006234	1240af13	slti	x30,x1,292	  x1:0x00000000 x30=0x00000001
      882397000	     44018	80006238	016bc4b3	xor	x9,x23,x22	 x23:0x0001fa28 x22:0x6b59c1bc  x9=0x6b583b94
      882437000	     44020	8000623c	03069533	mulh	x10,x13,x16	 x13:0x80025ce4 x16:0x80025eff x10=0x3ffda214
      882837000	     44040	80006240	df539c17	auipc	x24,0xdf539	 x24=0x5f53f240
      882957000	     44046	80006244	8fb9	c.xor	x15,x14	 x15:0x7089911c x14:0x0000e000 x15=0x7089711c
      882977000	     44047	80006246	027a	c.slli	x4,0x1e	  x4:0x00000000  x4=0x00000000
      882997000	     44048	80006248	8796	c.mv	x15,x5	  x0:0x00000000  x5:0x00000017 x15=0x00000017
      883397000	     44068	8000624a	459c2997	auipc	x19,0x459c2	 x19=0xc59c824a
      883477000	     44072	8000624e	32006bf3	csrrsi	x23,mcountinhibit,0	 x23=0x00000000
      883497000	     44073	80006252	8c19	c.sub	x8,x14	  x8:0x00000001 x14:0x0000e000  x8=0xffff2001
      883537000	     44075	80006254	02069f33	mulh	x30,x13,x0	 x13:0x80025ce4  x0:0x00000000 x30=0x00000000
      883657000	     44081	80006258	0872	c.slli	x16,0x1c	 x16:0x80025eff x16=0xf0000000
      883677000	     44082	8000625a	1efd	c.addi	x29,-1	 x29:0xe6627498 x29=0xe6627497
      883737000	     44085	8000625c	0001	c.addi	x0,0	  x0:0x00000000  x0=0x00000000
      884017000	     44099	8000625e	4134dd33	sra	x26,x9,x19	  x9:0x6b583b94 x19:0xc59c824a x26=0x001ad60e
      884037000	     44100	80006262	01dc9433	sll	x8,x25,x29	 x25:0x0000001c x29:0xe6627497  x8=0x0e000000
      884237000	     44110	80006266	32891ef3	csrrw	x29,mhpmevent8,x18	 x18:0x5b7ff02e x29=0x00000020
      884297000	     44113	8000626a	0eb2	c.slli	x29,0xc	 x29:0x00000020 x29=0x00020000
      884577000	     44127	8000626c	30a03ef3	csrrc	x29,0x30a,x0	  x0:0x00000000 x29=0x00000000
      884597000	     44128	80006270	0ff0000f	fence	iorw,iorw	
      884617000	     44129	80006274	52fd	c.li	x5,-1	  x5=0xffffffff
      884637000	     44130	80006276	00fd02b3	add	x5,x26,x15	 x26:0x001ad60e x15:0x00000017  x5=0x001ad625
      885437000	     44170	8000627a	03216133	rem	x2,x2,x18	  x2:0x00000018 x18:0x5b7ff02e  x2=0x00000018
      885457000	     44171	8000627e	419a5013	srai	x0,x20,0x19	 x20:0x26af2800  x0=0x00000000
      885477000	     44172	80006282	01216633	or	x12,x2,x18	  x2:0x00000018 x18:0x5b7ff02e x12=0x5b7ff03e
      885497000	     44173	80006286	41268833	sub	x16,x13,x18	 x13:0x80025ce4 x18:0x5b7ff02e x16=0x24826cb6
      885517000	     44174	8000628a	ef91	c.bnez	x15,800062a6	 x15:0x00000017
      886157000	     44206	800062a6	979e	c.add	x15,x7	 x15:0x00000017  x7:0x00000000 x15=0x00000017
      886537000	     44225	800062a8	0ff0000f	fence	iorw,iorw	
      886557000	     44226	800062ac	017e5533	srl	x10,x28,x23	 x28:0x0000e000 x23:0x00000000 x10=0x0000e000
      886777000	     44237	800062b0	0136ab33	slt	x22,x13,x19	 x13:0x80025ce4 x19:0xc59c824a x22=0x00000001
      886957000	     44246	800062b4	006a7eb3	and	x29,x20,x6	 x20:0x26af2800  x6:0x00000031 x29=0x00000000
      887097000	     44253	800062b8	0ff0000f	fence	iorw,iorw	
      887117000	     44254	800062bc	0359fc63	bgeu	x19,x21,800062f4	 x19:0xc59c824a x21:0x7ffde552
      887457000	     44271	800062f4	b887bcf3	csrrc	x25,mhpmcounter8h,x15	 x15:0x00000017 x25=0x00000000
      887537000	     44275	800062f8	4123da13	srai	x20,x7,0x12	  x7:0x00000000 x20=0x00000000
      887557000	     44276	800062fc	0111dd93	srli	x27,x3,0x11	  x3:0x000005e7 x27=0x00000000
      887617000	     44279	80006300	5149b213	sltiu	x4,x19,1300	 x19:0xc59c824a  x4=0x00000000
      887717000	     44284	80006304	ef01	c.bnez	x14,8000631c	 x14:0x0000e000
      888177000	     44307	8000631c	02e5d963	bge	x11,x14,8000634e	 x11:0x80021e64 x14:0x0000e000
      888977000	     44347	80006320	0ff0000f	fence	iorw,iorw	
      889177000	     44357	80006324	8c16	c.mv	x24,x5	  x0:0x00000000  x5:0x001ad625 x24=0x001ad625
      889377000	     44367	80006326	0016b733	sltu	x14,x13,x1	 x13:0x80025ce4  x1:0x00000000 x14=0x00000000
      889517000	     44374	8000632a	00ff11b3	sll	x3,x30,x15	 x30:0x00000000 x15:0x00000017  x3=0x00000000
      889697000	     44383	8000632e	01b47fb3	and	x31,x8,x27	  x8:0x0e000000 x27:0x00000000 x31=0x00000000
      889717000	     44384	80006332	7c1071f3	csrrci	x3,0x7c1,0	  x3=0x00000000
      889917000	     44394	80006336	008189b3	add	x19,x3,x8	  x3:0x00000000  x8:0x0e000000 x19=0x0e000000
      890197000	     44408	8000633a	0303ce63	blt	x7,x16,80006376	  x7:0x00000000 x16:0x24826cb6
      891737000	     44485	80006376	02296fb3	rem	x31,x18,x2	 x18:0x5b7ff02e  x2:0x00000018 x31=0x00000006
      891757000	     44486	8000637a	007b1933	sll	x18,x22,x7	 x22:0x00000001  x7:0x00000000 x18=0x00000001
      891777000	     44487	8000637e	00855e93	srli	x29,x10,0x8	 x10:0x0000e000 x29=0x000000e0
      891797000	     44488	80006382	b8b07ff3	csrrci	x31,mhpmcounter11h,0	 x31=0x00000000
      891817000	     44489	80006386	eff1a993	slti	x19,x3,-257	  x3:0x00000000 x19=0x00000000
      891837000	     44490	8000638a	014a1a33	sll	x20,x20,x20	 x20:0x00000000 x20:0x00000000 x20=0x00000000
      891877000	     44492	8000638e	831fa793	slti	x15,x31,-1999	 x31:0x00000000 x15=0x00000000
      891897000	     44493	80006392	69bd	c.lui	x19,0xf	 x19=0x0000f000
      891917000	     44494	80006394	018d5213	srli	x4,x26,0x18	 x26:0x001ad60e  x4=0x00000000
      891937000	     44495	80006398	00d89093	slli	x1,x17,0xd	 x17:0x80021400  x1=0x42800000
      892337000	     44515	8000639c	02361e33	mulh	x28,x12,x3	 x12:0x5b7ff03e  x3:0x00000000 x28=0x00000000
      892417000	     44519	800063a0	03061c63	bne	x12,x16,800063d8	 x12:0x5b7ff03e x16:0x24826cb6
      892837000	     44540	800063d8	00880d33	add	x26,x16,x8	 x16:0x24826cb6  x8:0x0e000000 x26=0x32826cb6
      892857000	     44541	800063dc	6895	c.lui	x17,0x5	 x17=0x00005000
      892877000	     44542	800063de	167f8a13	addi	x20,x31,359	 x31:0x00000000 x20=0x00000167
      892937000	     44545	800063e2	2e48e993	ori	x19,x17,740	 x17:0x00005000 x19=0x000052e4
      893357000	     44566	800063e6	03c5c363	blt	x11,x28,8000640c	 x11:0x80021e64 x28:0x00000000
      894457000	     44621	8000640c	00cea633	slt	x12,x29,x12	 x29:0x000000e0 x12:0x5b7ff03e x12=0x00000001
      894797000	     44638	80006410	03707eb3	remu	x29,x0,x23	  x0:0x00000000 x23:0x00000000 x29=0x00000000
      895197000	     44658	80006414	b875d173	csrrwi	x2,mhpmcounter7h,11	  x2=0x00000000
      895397000	     44668	80006418	022d8463	beq	x27,x2,80006440	 x27:0x00000000  x2:0x00000000
      896517000	     44724	80006440	02247bb3	remu	x23,x8,x2	  x8:0x0e000000  x2:0x00000000 x23=0x0e000000
      896537000	     44725	80006444	08ed51b7	lui	x3,0x8ed5	  x3=0x08ed5000
      896557000	     44726	80006448	01aeaa33	slt	x20,x29,x26	 x29:0x00000000 x26:0x32826cb6 x20=0x00000001
      896717000	     44734	8000644c	8c05	c.sub	x8,x9	  x8:0x0e000000  x9:0x6b583b94  x8=0xa2a7c46c
      896737000	     44735	8000644e	30107af3	csrrci	x21,misa,0	 x21=0x40901104
      896757000	     44736	80006452	aac8ef93	ori	x31,x17,-1364	 x17:0x00005000 x31=0xfffffaac
      896857000	     44741	80006456	310ed973	csrrwi	x18,0x310,29	 x18=0x00000000
      896917000	     44744	8000645a	8e26	c.mv	x28,x9	  x0:0x00000000  x9:0x6b583b94 x28=0x6b583b94
      896937000	     44745	8000645c	015561b3	or	x3,x10,x21	 x10:0x0000e000 x21:0x40901104  x3=0x4090f104
      897337000	     44765	80006460	03fd9b33	mulh	x22,x27,x31	 x27:0x00000000 x31:0xfffffaac x22=0x00000000
      898077000	     44802	80006464	0330e2b3	rem	x5,x1,x19	  x1:0x42800000 x19:0x000052e4  x5=0x0000039c
      898097000	     44803	80006468	8d11	c.sub	x10,x12	 x10:0x0000e000 x12:0x00000001 x10=0x0000dfff
      898117000	     44804	8000646a	0001	c.addi	x0,0	  x0:0x00000000  x0=0x00000000
      898137000	     44805	8000646c	6b25	c.lui	x22,0x9	 x22=0x00009000
      898157000	     44806	8000646e	8635	c.srai	x12,0xd	 x12:0x00000001 x12=0x00000000
      898177000	     44807	80006470	9bfd	c.andi	x15,-1	 x15:0x00000000 x15=0x00000000
      898197000	     44808	80006472	00e9dd33	srl	x26,x19,x14	 x19:0x000052e4 x14:0x00000000 x26=0x000052e4
      898217000	     44809	80006476	41200a93	addi	x21,x0,1042	  x0:0x00000000 x21=0x00000412
      898237000	     44810	8000647a	003e7663	bgeu	x28,x3,80006486	 x28:0x6b583b94  x3:0x4090f104
      898917000	     44844	80006486	3ba02173	csrrs	x2,pmpaddr10,x0	  x0:0x00000000  x2=0x0aaab753
      899197000	     44858	8000648a	007d1463	bne	x26,x7,80006492	 x26:0x000052e4  x7:0x00000000
      899497000	     44873	80006492	4170d233	sra	x4,x1,x23	  x1:0x42800000 x23:0x0e000000  x4=0x42800000
      899697000	     44883	80006496	325b5ff3	csrrwi	x31,mhpmevent5,22	 x31=0x00000004
      899917000	     44894	8000649a	c51a8513	addi	x10,x21,-943	 x21:0x00000412 x10=0x00000063
      899937000	     44895	8000649e	8c39	c.xor	x8,x14	  x8:0xa2a7c46c x14:0x00000000  x8=0xa2a7c46c
      900037000	     44900	800064a0	34403a73	csrrc	x20,mip,x0	  x0:0x00000000 x20=0x00000000
      900457000	     44921	800064a4	8d21	c.xor	x10,x8	 x10:0x00000063  x8:0xa2a7c46c x10=0xa2a7c40f
      900477000	     44922	800064a6	6559	c.lui	x10,0x16	 x10=0x00016000
      900497000	     44923	800064a8	5f51a513	slti	x10,x3,1525	  x3:0x4090f104 x10=0x00000000
      900517000	     44924	800064ac	00b19933	sll	x18,x3,x11	  x3:0x4090f104 x11:0x80021e64 x18=0x090f1040
      900537000	     44925	800064b0	0038cf63	blt	x17,x3,800064ce	 x17:0x00005000  x3:0x4090f104
      901457000	     44971	800064ce	013bee33	or	x28,x23,x19	 x23:0x0e000000 x19:0x000052e4 x28=0x0e0052e4
      901477000	     44972	800064d2	597d	c.li	x18,-1	 x18=0xffffffff
      901597000	     44978	800064d4	03c71933	mulh	x18,x14,x28	 x14:0x00000000 x28:0x0e0052e4 x18=0x00000000
      901617000	     44979	800064d8	8f1d	c.sub	x14,x15	 x14:0x00000000 x15:0x00000000 x14=0x00000000
      901697000	     44983	800064da	3b303873	csrrc	x16,pmpaddr3,x0	  x0:0x00000000 x16=0x2cccd975
      901717000	     44984	800064de	8f5a	c.mv	x30,x22	  x0:0x00000000 x22:0x00009000 x30=0x00009000
      901857000	     44991	800064e0	01a95db3	srl	x27,x18,x26	 x18:0x00000000 x26:0x000052e4 x27=0x00000000
      902217000	     45009	800064e4	1988	c.addi4spn	x10,x2,240	 x10=0x0aaab843
      902237000	     45010	800064e6	8f99	c.sub	x15,x14	 x15:0x00000000 x14:0x00000000 x15=0x00000000
      902437000	     45020	800064e8	006e7363	bgeu	x28,x6,800064ee	 x28:0x0e0052e4  x6:0x00000031
      903477000	     45072	800064ee	83c9	c.srli	x15,0x12	 x15:0x00000000 x15=0x00000000
      903917000	     45094	800064f0	01eadb63	bge	x21,x30,80006506	 x21:0x00000412 x30:0x00009000
      903977000	     45097	800064f4	30407c73	csrrci	x24,mie,0	 x24=0x00000000
      903997000	     45098	800064f8	8d11	c.sub	x10,x12	 x10:0x0aaab843 x12:0x00000000 x10=0x0aaab843
      904017000	     45099	800064fa	01037833	and	x16,x6,x16	  x6:0x00000031 x16:0x2cccd975 x16=0x00000031
      904037000	     45100	800064fe	557d	c.li	x10,-1	 x10=0xffffffff
      904157000	     45106	80006500	034f57b3	divu	x15,x30,x20	 x30:0x00009000 x20:0x00000000 x15=0xffffffff
      904337000	     45115	80006504	0001	c.addi	x0,0	  x0:0x00000000  x0=0x00000000
      904357000	     45116	80006506	01e392b3	sll	x5,x7,x30	  x7:0x00000000 x30:0x00009000  x5=0x00000000
      905097000	     45153	8000650a	02a56a33	rem	x20,x10,x10	 x10:0xffffffff x10:0xffffffff x20=0x00000000
      905117000	     45154	8000650e	8c31	c.xor	x8,x12	  x8:0xa2a7c46c x12:0x00000000  x8=0xa2a7c46c
      905137000	     45155	80006510	0f8d	c.addi	x31,3	 x31:0x00000004 x31=0x00000007
      905157000	     45156	80006512	965a	c.add	x12,x22	 x12:0x00000000 x22:0x00009000 x12=0x00009000
      905177000	     45157	80006514	008cf4b3	and	x9,x25,x8	 x25:0x00000000  x8:0xa2a7c46c  x9=0x00000000
      905197000	     45158	80006518	03b30ab3	mul	x21,x6,x27	  x6:0x00000031 x27:0x00000000 x21=0x00000000
      905217000	     45159	8000651c	0018f2b3	and	x5,x17,x1	 x17:0x00005000  x1:0x42800000  x5=0x00000000
      905237000	     45160	80006520	49150c13	addi	x24,x10,1169	 x10:0xffffffff x24=0x00000490
      905257000	     45161	80006524	017f94b3	sll	x9,x31,x23	 x31:0x00000007 x23:0x0e000000  x9=0x00000007
      906017000	     45199	80006528	03ca4ab3	div	x21,x20,x28	 x20:0x00000000 x28:0x0e0052e4 x21=0x00000000
      906037000	     45200	8000652c	011ae733	or	x14,x21,x17	 x21:0x00000000 x17:0x00005000 x14=0x00005000
      906057000	     45201	80006530	b0602af3	csrrs	x21,mhpmcounter6,x0	  x0:0x00000000 x21=0xea9ef06c
      906077000	     45202	80006534	8b75	c.andi	x14,29	 x14:0x00005000 x14=0x00000000
      906137000	     45205	80006536	cdfece93	xori	x29,x29,-801	 x29:0x00000000 x29=0xfffffcdf
      906317000	     45214	8000653a	03bc84b3	mul	x9,x25,x27	 x25:0x00000000 x27:0x00000000  x9=0x00000000
      906337000	     45215	8000653e	0001	c.addi	x0,0	  x0:0x00000000  x0=0x00000000
      906397000	     45218	80006540	0098	c.addi4spn	x14,x2,64	 x14=0x0aaab793
      906417000	     45219	80006542	03114163	blt	x2,x17,80006564	  x2:0x0aaab753 x17:0x00005000
      906437000	     45220	80006546	0ff0000f	fence	iorw,iorw	
      906457000	     45221	8000654a	0078bfb3	sltu	x31,x17,x7	 x17:0x00005000  x7:0x00000000 x31=0x00000000
      906477000	     45222	8000654e	05f12093	slti	x1,x2,95	  x2:0x0aaab753  x1=0x00000000
      906497000	     45223	80006552	00d31233	sll	x4,x6,x13	  x6:0x00000031 x13:0x80025ce4  x4=0x00000310
      906517000	     45224	80006556	5f9c0513	addi	x10,x24,1529	 x24:0x00000490 x10=0x00000a89
      906537000	     45225	8000655a	1e04	c.addi4spn	x9,x2,816	  x9=0x0aaaba83
      906557000	     45226	8000655c	32749bf3	csrrw	x23,mhpmevent7,x9	  x9:0x0aaaba83 x23=0x00000010
      906617000	     45229	80006560	00d204b3	add	x9,x4,x13	  x4:0x00000310 x13:0x80025ce4  x9=0x80025ff4
      906777000	     45237	80006564	1900	c.addi4spn	x8,x2,176	  x8=0x0aaab803
      906957000	     45246	80006566	3b8070f3	csrrci	x1,pmpaddr8,0	  x1=0x02222ecb
      907177000	     45257	8000656a	03554563	blt	x10,x21,80006594	 x10:0x00000a89 x21:0xea9ef06c
      907257000	     45261	8000656e	010d90b3	sll	x1,x27,x16	 x27:0x00000000 x16:0x00000031  x1=0x00000000
      907277000	     45262	80006572	8fe9	c.and	x15,x10	 x15:0xffffffff x10:0x00000a89 x15=0x00000a89
      907677000	     45282	80006574	02c80063	beq	x16,x12,80006594	 x16:0x00000031 x12:0x00009000
      907697000	     45283	80006578	6789	c.lui	x15,0x2	 x15=0x00002000
      907777000	     45287	8000657a	027f1c63	bne	x30,x7,800065b2	 x30:0x00009000  x7:0x00000000
      908217000	     45309	800065b2	008224b3	slt	x9,x4,x8	  x4:0x00000310  x8:0x0aaab803  x9=0x00000001
      908377000	     45317	800065b6	017264b3	or	x9,x4,x23	  x4:0x00000310 x23:0x00000010  x9=0x00000310
      908477000	     45322	800065ba	b0a02873	csrrs	x16,mhpmcounter10,x0	  x0:0x00000000 x16=0x00000314
      908497000	     45323	800065be	40e15333	sra	x6,x2,x14	  x2:0x0aaab753 x14:0x0aaab793  x6=0x00000155
      908577000	     45327	800065c2	0ff0000f	fence	iorw,iorw	
      908597000	     45328	800065c6	9f72	c.add	x30,x28	 x30:0x00009000 x28:0x0e0052e4 x30=0x0e00e2e4
      908617000	     45329	800065c8	01062733	slt	x14,x12,x16	 x12:0x00009000 x16:0x00000314 x14=0x00000000
      908637000	     45330	800065cc	80e9	c.srli	x9,0x1a	  x9:0x00000310  x9=0x00000000
      908657000	     45331	800065ce	9bfd	c.andi	x15,-1	 x15:0x00002000 x15=0x00002000
      909037000	     45350	800065d0	0195d093	srli	x1,x11,0x19	 x11:0x80021e64  x1=0x00000040
      909057000	     45351	800065d4	1bfd	c.addi	x23,-1	 x23:0x00000010 x23=0x0000000f
      909137000	     45355	800065d6	039e2c33	mulhsu	x24,x28,x25	 x28:0x0e0052e4 x25:0x00000000 x24=0x00000000
      909217000	     45359	800065da	011d2133	slt	x2,x26,x17	 x26:0x000052e4 x17:0x00005000  x2=0x00000000
      909317000	     45364	800065de	4027de33	sra	x28,x15,x2	 x15:0x00002000  x2:0x00000000 x28=0x00002000
      909337000	     45365	800065e2	c88d	c.beqz	x9,80006614	  x9:0x00000000
      909837000	     45390	80006614	004a04b3	add	x9,x20,x4	 x20:0x00000000  x4:0x00000310  x9=0x00000310
      910297000	     45413	80006618	010f9733	sll	x14,x31,x16	 x31:0x00000000 x16:0x00000314 x14=0x00000000
      910377000	     45417	8000661c	212ecd93	xori	x27,x29,530	 x29:0xfffffcdf x27=0xfffffecd
      911117000	     45454	80006620	02a97733	remu	x14,x18,x10	 x18:0x00000000 x10:0x00000a89 x14=0x00000000
      911137000	     45455	80006624	0000100f	fence.i	
      911217000	     45459	80006628	147d	c.addi	x8,-1	  x8:0x0aaab803  x8=0x0aaab802
      911237000	     45460	8000662a	014ab0b3	sltu	x1,x21,x20	 x21:0xea9ef06c x20:0x00000000  x1=0x00000000
      911257000	     45461	8000662e	0e84	c.addi4spn	x9,x2,848	  x9=0x00000350
      911277000	     45462	80006630	8e49	c.or	x12,x10	 x12:0x00009000 x10:0x00000a89 x12=0x00009a89
      911297000	     45463	80006632	0001	c.addi	x0,0	  x0:0x00000000  x0=0x00000000
      911317000	     45464	80006634	014f7a63	bgeu	x30,x20,80006648	 x30:0x0e00e2e4 x20:0x00000000
      911657000	     45481	80006648	01f1c8b3	xor	x17,x3,x31	  x3:0x4090f104 x31:0x00000000 x17=0x4090f104
      912077000	     45502	8000664c	503c8c93	addi	x25,x25,1283	 x25:0x00000000 x25=0x00000503
      912097000	     45503	80006650	92350d13	addi	x26,x10,-1757	 x10:0x00000a89 x26=0x000003ac
      912417000	     45519	80006654	97e2	c.add	x15,x24	 x15:0x00002000 x24:0x00000000 x15=0x00002000
      912657000	     45531	80006656	f1507e73	csrrci	x28,0xf15,0	 x28=0x00000000
      912677000	     45532	8000665a	024f80b3	mul	x1,x31,x4	 x31:0x00000000  x4:0x00000310  x1=0x00000000
      912697000	     45533	8000665e	6ba1	c.lui	x23,0x8	 x23=0x00008000
      912717000	     45534	80006660	b0795d73	csrrwi	x26,mhpmcounter7,18	 x26=0x0000001f
      912777000	     45537	80006664	00325cb3	srl	x25,x4,x3	  x4:0x00000310  x3:0x4090f104 x25=0x00000031
      913597000	     45578	80006668	023a48b3	div	x17,x20,x3	 x20:0x00000000  x3:0x4090f104 x17=0x00000000
      913617000	     45579	8000666c	60b9	c.lui	x1,0xe	  x1=0x0000e000
      913637000	     45580	8000666e	017efa33	and	x20,x29,x23	 x29:0xfffffcdf x23:0x00008000 x20=0x00008000
      913677000	     45582	80006672	022a9b33	mulh	x22,x21,x2	 x21:0xea9ef06c  x2:0x00000000 x22=0x00000000
      913697000	     45583	80006676	44d7fd13	andi	x26,x15,1101	 x15:0x00002000 x26=0x00000000
      913717000	     45584	8000667a	035a7d63	bgeu	x20,x21,800066b4	 x20:0x00008000 x21:0xea9ef06c
      913737000	     45585	8000667e	0000100f	fence.i	
      913797000	     45588	80006682	0343d763	bge	x7,x20,800066b0	  x7:0x00000000 x20:0x00008000
      913817000	     45589	80006686	00fb9f93	slli	x31,x23,0xf	 x23:0x00008000 x31=0x40000000
      913837000	     45590	8000668a	8fd9	c.or	x15,x14	 x15:0x00002000 x14:0x00000000 x15=0x00002000
      913857000	     45591	8000668c	717d	c.addi16sp	x2,-16	  x2:0x00000000  x2=0xfffffff0
      914597000	     45628	8000668e	03344f33	div	x30,x8,x19	  x8:0x0aaab802 x19:0x000052e4 x30=0x000020f1
      914617000	     45629	80006692	015f7433	and	x8,x30,x21	 x30:0x000020f1 x21:0xea9ef06c  x8=0x00002060
      914637000	     45630	80006696	191e6b37	lui	x22,0x191e6	 x22=0x191e6000
      914657000	     45631	8000669a	40e1d493	srai	x9,x3,0xe	  x3:0x4090f104  x9=0x00010243
      914717000	     45634	8000669e	01930933	add	x18,x6,x25	  x6:0x00000155 x25:0x00000031 x18=0x00000186
      914737000	     45635	800066a2	0001	c.addi	x0,0	  x0:0x00000000  x0=0x00000000
      914777000	     45637	800066a4	41cad613	srai	x12,x21,0x1c	 x21:0xea9ef06c x12=0xfffffffe
      915517000	     45674	800066a8	03474f33	div	x30,x14,x20	 x14:0x00000000 x20:0x00008000 x30=0x00000000
      915537000	     45675	800066ac	00a2f4b3	and	x9,x5,x10	  x5:0x00000000 x10:0x00000a89  x9=0x00000000
      915557000	     45676	800066b0	0011d8b3	srl	x17,x3,x1	  x3:0x4090f104  x1:0x0000e000 x17=0x4090f104
      915577000	     45677	800066b4	00dacab3	xor	x21,x21,x13	 x21:0xea9ef06c x13:0x80025ce4 x21=0x6a9cac88
      915597000	     45678	800066b8	006502b3	add	x5,x10,x6	 x10:0x00000a89  x6:0x00000155  x5=0x00000bde
      915957000	     45696	800066bc	02e22d33	mulhsu	x26,x4,x14	  x4:0x00000310 x14:0x00000000 x26=0x00000000
      916097000	     45703	800066c0	40d702b3	sub	x5,x14,x13	 x14:0x00000000 x13:0x80025ce4  x5=0x7ffda31c
      916517000	     45724	800066c4	8d21	c.xor	x10,x8	 x10:0x00000a89  x8:0x00002060 x10=0x00002ae9
      916537000	     45725	800066c6	8951	c.andi	x10,20	 x10:0x00002ae9 x10=0x00000000
      916577000	     45727	800066c8	02a549b3	div	x19,x10,x10	 x10:0x00000000 x10:0x00000000 x19=0xffffffff
      916657000	     45731	800066cc	915e	c.add	x2,x23	  x2:0xfffffff0 x23:0x00008000  x2=0x00007ff0
      916677000	     45732	800066ce	0000100f	fence.i	
      916937000	     45745	800066d2	03a24c33	div	x24,x4,x26	  x4:0x00000310 x26:0x00000000 x24=0xffffffff
      916957000	     45746	800066d6	037bef63	bltu	x23,x23,80006714	 x23:0x00008000 x23:0x00008000
      916977000	     45747	800066da	8c19	c.sub	x8,x14	  x8:0x00002060 x14:0x00000000  x8=0x00002060
      917357000	     45766	800066dc	01be69b3	or	x19,x28,x27	 x28:0x00000000 x27:0xfffffecd x19=0xfffffecd
      917437000	     45770	800066e0	8271	c.srli	x12,0x1c	 x12:0xfffffffe x12=0x0000000f
      917457000	     45771	800066e2	e3d13093	sltiu	x1,x2,-451	  x2:0x00007ff0  x1=0x00000001
      917477000	     45772	800066e6	01d331b3	sltu	x3,x6,x29	  x6:0x00000155 x29:0xfffffcdf  x3=0x00000001
      917497000	     45773	800066ea	74702c73	csrrs	x24,0x747,x0	  x0:0x00000000 x24=0x00000004
      917817000	     45789	800066ee	10990a93	addi	x21,x18,265	 x18:0x00000186 x21=0x0000028f
      917837000	     45790	800066f2	497d	c.li	x18,31	 x18=0x0000001f
      918237000	     45810	800066f4	02878033	mul	x0,x15,x8	 x15:0x00002000  x8:0x00002060  x0=0x00000000
      918257000	     45811	800066f8	003ca4b3	slt	x9,x25,x3	 x25:0x00000031  x3:0x00000001  x9=0x00000000
      918277000	     45812	800066fc	1dfd	c.addi	x27,-1	 x27:0xfffffecd x27=0xfffffecc
      918297000	     45813	800066fe	3b507c73	csrrci	x24,pmpaddr5,0	 x24=0x355561fe
      918457000	     45821	80006702	403f88b3	sub	x17,x31,x3	 x31:0x40000000  x3:0x00000001 x17=0x3fffffff
      918477000	     45822	80006706	44a5	c.li	x9,9	  x9=0x00000009
      918497000	     45823	80006708	0000100f	fence.i	
      918697000	     45833	8000670c	00674933	xor	x18,x14,x6	 x14:0x00000000  x6:0x00000155 x18=0x00000155
      918717000	     45834	80006710	74703073	csrrc	x0,0x747,x0	  x0:0x00000000  x0=0x00000000
      918797000	     45838	80006714	03f82ab3	mulhsu	x21,x16,x31	 x16:0x00000314 x31:0x40000000 x21=0x000000c5
      919197000	     45858	80006718	02d80d63	beq	x16,x13,80006752	 x16:0x00000314 x13:0x80025ce4
      919217000	     45859	8000671c	e799	c.bnez	x15,8000672a	 x15:0x00002000
      919877000	     45892	8000672a	329feb73	csrrsi	x22,mhpmevent9,31	 x22=0x00000040
      919937000	     45895	8000672e	02090bb3	mul	x23,x18,x0	 x18:0x00000155  x0:0x00000000 x23=0x00000000
      919957000	     45896	80006732	e819	c.bnez	x8,80006748	  x8:0x00002060
      920437000	     45920	80006748	32902cf3	csrrs	x25,mhpmevent9,x0	  x0:0x00000000 x25=0x00000040
      920477000	     45922	8000674c	03ef8d63	beq	x31,x30,80006786	 x31:0x40000000 x30:0x00000000
      920637000	     45930	80006750	8269	c.srli	x12,0x1a	 x12:0x0000000f x12=0x00000000
      921497000	     45973	80006752	038e6433	rem	x8,x28,x24	 x28:0x00000000 x24:0x355561fe  x8=0x00000000
      921517000	     45974	80006756	05cd8b93	addi	x23,x27,92	 x27:0xfffffecc x23=0xffffff28
      921537000	     45975	8000675a	d174a413	slti	x8,x9,-745	  x9:0x00000009  x8=0x00000000
      921557000	     45976	8000675e	8d75	c.and	x10,x13	 x10:0x00000000 x13:0x80025ce4 x10=0x00000000
      921577000	     45977	80006760	83d1	c.srli	x15,0x14	 x15:0x00002000 x15=0x00000000
      921597000	     45978	80006762	9802f637	lui	x12,0x9802f	 x12=0x9802f000
      921617000	     45979	80006766	1d4dca93	xori	x21,x27,468	 x27:0xfffffecc x21=0xffffff18
      921637000	     45980	8000676a	05088063	beq	x17,x16,800067aa	 x17:0x3fffffff x16:0x00000314
      921657000	     45981	8000676e	8d2d	c.xor	x10,x11	 x10:0x00000000 x11:0x80021e64 x10=0x80021e64
      921857000	     45991	80006770	97e2	c.add	x15,x24	 x15:0x00000000 x24:0x355561fe x15=0x355561fe
      921877000	     45992	80006772	e415	c.bnez	x8,8000679e	  x8:0x00000000
      921897000	     45993	80006774	c4e5f493	andi	x9,x11,-946	 x11:0x80021e64  x9=0x80021c44
      921917000	     45994	80006778	011b3033	sltu	x0,x22,x17	 x22:0x00000040 x17:0x3fffffff  x0=0x00000000
      922317000	     46014	8000677c	41708013	addi	x0,x1,1047	  x1:0x00000001  x0=0x00000000
      922337000	     46015	80006780	02384d63	blt	x16,x3,800067ba	 x16:0x00000314  x3:0x00000001
      922377000	     46017	80006784	8c31	c.xor	x8,x12	  x8:0x00000000 x12:0x9802f000  x8=0x9802f000
      922397000	     46018	80006786	01aa1933	sll	x18,x20,x26	 x20:0x00008000 x26:0x00000000 x18=0x00008000
      922417000	     46019	8000678a	41725cb3	sra	x25,x4,x23	  x4:0x00000310 x23:0xffffff28 x25=0x00000003
      922577000	     46027	8000678e	05ba0363	beq	x20,x27,800067d4	 x20:0x00008000 x27:0xfffffecc
      922597000	     46028	80006792	01c13533	sltu	x10,x2,x28	  x2:0x00007ff0 x28:0x00000000 x10=0x00000000
      923017000	     46049	80006796	b8607af3	csrrci	x21,mhpmcounter6h,0	 x21=0x00000000
      923037000	     46050	8000679a	0001	c.addi	x0,0	  x0:0x00000000  x0=0x00000000
      923177000	     46057	8000679c	1e90	c.addi4spn	x12,x2,880	 x12=0x00008360
      923457000	     46071	8000679e	02e3e563	bltu	x7,x14,800067c8	  x7:0x00000000 x14:0x00000000
      924257000	     46111	800067a2	0323dbb3	divu	x23,x7,x18	  x7:0x00000000 x18:0x00008000 x23=0x00000000
      924297000	     46113	800067a6	03b3adb3	mulhsu	x27,x7,x27	  x7:0x00000000 x27:0xfffffecc x27=0x00000000
      924317000	     46114	800067aa	07c6	c.slli	x15,0x11	 x15:0x355561fe x15=0xc3fc0000
      924337000	     46115	800067ac	0ff0000f	fence	iorw,iorw	
      924377000	     46117	800067b0	03cf42b3	div	x5,x30,x28	 x30:0x00000000 x28:0x00000000  x5=0xffffffff
      924397000	     46118	800067b4	01b8e833	or	x16,x17,x27	 x17:0x3fffffff x27:0x00000000 x16=0x3fffffff
      924417000	     46119	800067b8	8e71	c.and	x12,x12	 x12:0x00008360 x12:0x00008360 x12=0x00008360
      924437000	     46120	800067ba	0a18	c.addi4spn	x14,x2,272	 x14=0x00008100
      924457000	     46121	800067bc	01aa5713	srli	x14,x20,0x1a	 x20:0x00008000 x14=0x00000000
      924777000	     46137	800067c0	03d67413	andi	x8,x12,61	 x12:0x00008360  x8=0x00000020
      925197000	     46158	800067c4	01e384b3	add	x9,x7,x30	  x7:0x00000000 x30:0x00000000  x9=0x00000000
      925617000	     46179	800067c8	1e933d37	lui	x26,0x1e933	 x26=0x1e933000
      925637000	     46180	800067cc	cd913113	sltiu	x2,x2,-807	  x2:0x00007ff0  x2=0x00000001
      925697000	     46183	800067d0	01f460b3	or	x1,x8,x31	  x8:0x00000020 x31:0x40000000  x1=0x40000020
      925737000	     46185	800067d4	8095	c.srli	x9,0x5	  x9:0x00000000  x9=0x00000000
      925757000	     46186	800067d6	01cd1b33	sll	x22,x26,x28	 x26:0x1e933000 x28:0x00000000 x22=0x1e933000
      925777000	     46187	800067da	5c082e13	slti	x28,x16,1472	 x16:0x3fffffff x28=0x00000000
      925797000	     46188	800067de	03e47e63	bgeu	x8,x30,8000681a	  x8:0x00000020 x30:0x00000000
      927117000	     46254	8000681a	0363d2b3	divu	x5,x7,x22	  x7:0x00000000 x22:0x1e933000  x5=0x00000000
      927137000	     46255	8000681e	6cfd	c.lui	x25,0x1f	 x25=0x0001f000
      927157000	     46256	80006820	02621263	bne	x4,x6,80006844	  x4:0x00000310  x6:0x00000155
      927517000	     46274	80006844	01974633	xor	x12,x14,x25	 x14:0x00000000 x25:0x0001f000 x12=0x0001f000
      927677000	     46282	80006848	8d7d	c.and	x10,x15	 x10:0x00000000 x15:0xc3fc0000 x10=0x00000000
      927877000	     46292	8000684a	d68887b7	lui	x15,0xd6888	 x15=0xd6888000
      927897000	     46293	8000684e	67ad	c.lui	x15,0xb	 x15=0x0000b000
      927917000	     46294	80006850	b09ed673	csrrwi	x12,mhpmcounter9,29	 x12=0x000000b4
      928697000	     46333	80006854	03a8f833	remu	x16,x17,x26	 x17:0x3fffffff x26:0x1e933000 x16=0x02d99fff
      928737000	     46335	80006858	035ef233	remu	x4,x29,x21	 x29:0xfffffcdf x21:0x00000000  x4=0xfffffcdf
      928757000	     46336	8000685c	01372fb3	slt	x31,x14,x19	 x14:0x00000000 x19:0xfffffecd x31=0x00000000
      928777000	     46337	80006860	6b69	c.lui	x22,0x1a	 x22=0x0001a000
      928797000	     46338	80006862	6d141517	auipc	x10,0x6d141	 x10=0xed147862
      928817000	     46339	80006866	0001	c.addi	x0,0	  x0:0x00000000  x0=0x00000000
      928837000	     46340	80006868	007dec63	bltu	x27,x7,80006880	 x27:0x00000000  x7:0x00000000
      928857000	     46341	8000686c	870d	c.srai	x14,0x3	 x14:0x00000000 x14=0x00000000
      928877000	     46342	8000686e	01a96763	bltu	x18,x26,8000687c	 x18:0x00008000 x26:0x1e933000
      929437000	     46370	8000687c	022e2633	mulhsu	x12,x28,x2	 x28:0x00000000  x2:0x00000001 x12=0x00000000
      929457000	     46371	80006880	9f46	c.add	x30,x17	 x30:0x00000000 x17:0x3fffffff x30=0x3fffffff
      929517000	     46374	80006882	41f85c33	sra	x24,x16,x31	 x16:0x02d99fff x31:0x00000000 x24=0x02d99fff
      929537000	     46375	80006886	8155	c.srli	x10,0x15	 x10:0xed147862 x10=0x00000768
      930277000	     46412	80006888	03a3e233	rem	x4,x7,x26	  x7:0x00000000 x26:0x1e933000  x4=0x00000000
      930297000	     46413	8000688c	26e86893	ori	x17,x16,622	 x16:0x02d99fff x17=0x02d99fff
      930317000	     46414	80006890	7b1022f3	csrrs	x0,dpc,x0	  x0:0x00000000  x0=0x00000000
      930717000	     46434	80002500	0800006f	jal	x0,80002580	  x0=0x00000000
      931077000	     46452	80002580	16f1	c.addi	x13,-4	 x13:0x80025ce4 x13=0x80025ce0
      931317000	     46464	80002582	c28c	c.sw	x11,0(x13)	 x13:0x80025ce0 x11:0x80021e64 PA:0x80025ce0 store:0x80021e64 load:0xffffffff
      931337000	     46465	80002584	000685b3	add	x11,x13,x0	 x13:0x80025ce0  x0:0x00000000 x11=0x80025ce0
      931357000	     46466	80002588	f8058593	addi	x11,x11,-128	 x11:0x80025ce0 x11=0x80025c60
      931417000	     46469	8000258c	0015a223	sw	x1,4(x11)	 x11:0x80025c60  x1:0x40000020 PA:0x80025c64 store:0x40000020 load:0xffffffff
      931437000	     46470	80002590	0025a423	sw	x2,8(x11)	 x11:0x80025c60  x2:0x00000001 PA:0x80025c68 store:0x00000001 load:0xffffffff
      931937000	     46495	80002594	0035a623	sw	x3,12(x11)	 x11:0x80025c60  x3:0x00000001 PA:0x80025c6c store:0x00000001 load:0xffffffff
      931997000	     46498	80002598	0045a823	sw	x4,16(x11)	 x11:0x80025c60  x4:0x00000000 PA:0x80025c70 store:0x00000000 load:0xffffffff
      932057000	     46501	8000259c	0055aa23	sw	x5,20(x11)	 x11:0x80025c60  x5:0x00000000 PA:0x80025c74 store:0x00000000 load:0xffffffff
      932117000	     46504	800025a0	0065ac23	sw	x6,24(x11)	 x11:0x80025c60  x6:0x00000155 PA:0x80025c78 store:0x00000155 load:0xffffffff
      932697000	     46533	800025a4	0075ae23	sw	x7,28(x11)	 x11:0x80025c60  x7:0x00000000 PA:0x80025c7c store:0x00000000 load:0xffffffff
      932897000	     46543	800025a8	d180	c.sw	x8,32(x11)	 x11:0x80025c60  x8:0x00000020 PA:0x80025c80 store:0x00000020 load:0xffffffff
      933137000	     46555	800025aa	d1c4	c.sw	x9,36(x11)	 x11:0x80025c60  x9:0x00000000 PA:0x80025c84 store:0x00000000 load:0xffffffff
      933197000	     46558	800025ac	d588	c.sw	x10,40(x11)	 x11:0x80025c60 x10:0x00000768 PA:0x80025c88 store:0x00000768 load:0xffffffff
      933537000	     46575	800025ae	d5cc	c.sw	x11,44(x11)	 x11:0x80025c60 x11:0x80025c60 PA:0x80025c8c store:0x80025c60 load:0xffffffff
      934197000	     46608	800025b0	d990	c.sw	x12,48(x11)	 x11:0x80025c60 x12:0x00000000 PA:0x80025c90 store:0x00000000 load:0xffffffff
      934337000	     46615	800025b2	d9d4	c.sw	x13,52(x11)	 x11:0x80025c60 x13:0x80025ce0 PA:0x80025c94 store:0x80025ce0 load:0xffffffff
      934777000	     46637	800025b4	dd98	c.sw	x14,56(x11)	 x11:0x80025c60 x14:0x00000000 PA:0x80025c98 store:0x00000000 load:0xffffffff
      935177000	     46657	800025b6	dddc	c.sw	x15,60(x11)	 x11:0x80025c60 x15:0x0000b000 PA:0x80025c9c store:0x0000b000 load:0xffffffff
      935417000	     46669	800025b8	0505a023	sw	x16,64(x11)	 x11:0x80025c60 x16:0x02d99fff PA:0x80025ca0 store:0x02d99fff load:0xffffffff
      935537000	     46675	800025bc	0515a223	sw	x17,68(x11)	 x11:0x80025c60 x17:0x02d99fff PA:0x80025ca4 store:0x02d99fff load:0xffffffff
      935597000	     46678	800025c0	0525a423	sw	x18,72(x11)	 x11:0x80025c60 x18:0x00008000 PA:0x80025ca8 store:0x00008000 load:0xffffffff
      935657000	     46681	800025c4	0535a623	sw	x19,76(x11)	 x11:0x80025c60 x19:0xfffffecd PA:0x80025cac store:0xfffffecd load:0xffffffff
      935897000	     46693	800025c8	0545a823	sw	x20,80(x11)	 x11:0x80025c60 x20:0x00008000 PA:0x80025cb0 store:0x00008000 load:0xffffffff
      935957000	     46696	800025cc	0555aa23	sw	x21,84(x11)	 x11:0x80025c60 x21:0x00000000 PA:0x80025cb4 store:0x00000000 load:0xffffffff
      935977000	     46697	800025d0	0565ac23	sw	x22,88(x11)	 x11:0x80025c60 x22:0x0001a000 PA:0x80025cb8 store:0x0001a000 load:0xffffffff
      936357000	     46716	800025d4	0575ae23	sw	x23,92(x11)	 x11:0x80025c60 x23:0x00000000 PA:0x80025cbc store:0x00000000 load:0xffffffff
      936597000	     46728	800025d8	0785a023	sw	x24,96(x11)	 x11:0x80025c60 x24:0x02d99fff PA:0x80025cc0 store:0x02d99fff load:0xffffffff
      936657000	     46731	800025dc	0795a223	sw	x25,100(x11)	 x11:0x80025c60 x25:0x0001f000 PA:0x80025cc4 store:0x0001f000 load:0xffffffff
      939597000	     46878	800025e0	07a5a423	sw	x26,104(x11)	 x11:0x80025c60 x26:0x1e933000 PA:0x80025cc8 store:0x1e933000 load:0xffffffff
      939837000	     46890	800025e4	07b5a623	sw	x27,108(x11)	 x11:0x80025c60 x27:0x00000000 PA:0x80025ccc store:0x00000000 load:0xffffffff
      939857000	     46891	800025e8	07c5a823	sw	x28,112(x11)	 x11:0x80025c60 x28:0x00000000 PA:0x80025cd0 store:0x00000000 load:0xffffffff
      939877000	     46892	800025ec	07d5aa23	sw	x29,116(x11)	 x11:0x80025c60 x29:0xfffffcdf PA:0x80025cd4 store:0xfffffcdf load:0xffffffff
      939897000	     46893	800025f0	07e5ac23	sw	x30,120(x11)	 x11:0x80025c60 x30:0x3fffffff PA:0x80025cd8 store:0x3fffffff load:0xffffffff
      939977000	     46897	800025f4	07f5ae23	sw	x31,124(x11)	 x11:0x80025c60 x31:0x00000000 PA:0x80025cdc store:0x00000000 load:0xffffffff
      939997000	     46898	800025f8	000586b3	add	x13,x11,x0	 x11:0x80025c60  x0:0x00000000 x13=0x80025c60
      940017000	     46899	800025fc	90000db7	lui	x27,0x90000	 x27=0x90000000
      940077000	     46902	80002600	1df1	c.addi	x27,-4	 x27:0x90000000 x27=0x8ffffffc
      940097000	     46903	80002602	4921	c.li	x18,8	 x18=0x00000008
      940117000	     46904	80002604	0922	c.slli	x18,0x8	 x18:0x00000008 x18=0x00000800
      940137000	     46905	80002606	00090913	addi	x18,x18,0	 x18:0x00000800 x18=0x00000800
      940357000	     46916	8000260a	012da023	sw	x18,0(x27)	 x27:0x8ffffffc x18:0x00000800 PA:0x8ffffffc store:0x00000800 load:0xffffffff
      940377000	     46917	8000260e	34102973	csrrs	x18,mepc,x0	  x0:0x00000000 x18=0x80006890
      940397000	     46918	80002612	34202973	csrrs	x18,mcause,x0	  x0:0x00000000 x18=0x00000002
      940417000	     46919	80002616	4d8d	c.li	x27,3	 x27=0x00000003
      940437000	     46920	80002618	01b91463	bne	x18,x27,80002620	 x18:0x00000002 x27:0x00000003
      941097000	     46953	80002620	4da1	c.li	x27,8	 x27=0x00000008
      941517000	     46974	80002622	05b90d63	beq	x18,x27,8000267c	 x18:0x00000002 x27:0x00000008
      941537000	     46975	80002626	4da5	c.li	x27,9	 x27=0x00000009
      941557000	     46976	80002628	05b90a63	beq	x18,x27,8000267c	 x18:0x00000002 x27:0x00000009
      941957000	     46996	8000262c	4dad	c.li	x27,11	 x27=0x0000000b
      941977000	     46997	8000262e	05b90763	beq	x18,x27,8000267c	 x18:0x00000002 x27:0x0000000b
      941997000	     46998	80002632	4d85	c.li	x27,1	 x27=0x00000001
      942317000	     47014	80002634	35b90363	beq	x18,x27,8000297a	 x18:0x00000002 x27:0x00000001
      942437000	     47020	80002638	4d95	c.li	x27,5	 x27=0x00000005
      942457000	     47021	8000263a	63b90963	beq	x18,x27,80002c6c	 x18:0x00000002 x27:0x00000005
      942477000	     47022	8000263e	4d9d	c.li	x27,7	 x27=0x00000007
      942497000	     47023	80002640	15b90ae3	beq	x18,x27,80002f94	 x18:0x00000002 x27:0x00000007
      942637000	     47030	80002644	4db1	c.li	x27,12	 x27=0x0000000c
      942857000	     47041	80002646	01b91463	bne	x18,x27,8000264e	 x18:0x00000002 x27:0x0000000c
      943237000	     47060	8000264e	4db5	c.li	x27,13	 x27=0x0000000d
      943277000	     47062	80002650	01b91463	bne	x18,x27,80002658	 x18:0x00000002 x27:0x0000000d
      943317000	     47064	80002658	4dbd	c.li	x27,15	 x27=0x0000000f
      943337000	     47065	8000265a	01b91463	bne	x18,x27,80002662	 x18:0x00000002 x27:0x0000000f
      943997000	     47098	80002662	4d89	c.li	x27,2	 x27=0x00000002
      944017000	     47099	80002664	01b91463	bne	x18,x27,8000266c	 x18:0x00000002 x27:0x00000002
      944117000	     47104	80002668	45c0906f	jal	x0,8000bac4	  x0=0x00000000
      944817000	     47139	8000bac4	90000db7	lui	x27,0x90000	 x27=0x90000000
      945117000	     47154	8000bac8	1df1	c.addi	x27,-4	 x27:0x90000000 x27=0x8ffffffc
      945137000	     47155	8000baca	4929	c.li	x18,10	 x18=0x0000000a
      945277000	     47162	8000bacc	0922	c.slli	x18,0x8	 x18:0x0000000a x18=0x00000a00
      945297000	     47163	8000bace	00090913	addi	x18,x18,0	 x18:0x00000a00 x18=0x00000a00
      945877000	     47192	8000bad2	012da023	sw	x18,0(x27)	 x27:0x8ffffffc x18:0x00000a00 PA:0x8ffffffc store:0x00000a00 load:0xffffffff
      945897000	     47193	8000bad6	90000db7	lui	x27,0x90000	 x27=0x90000000
      945917000	     47194	8000bada	1df1	c.addi	x27,-4	 x27:0x90000000 x27=0x8ffffffc
      946157000	     47206	8000badc	34200913	addi	x18,x0,834	  x0:0x00000000 x18=0x00000342
      946177000	     47207	8000bae0	0922	c.slli	x18,0x8	 x18:0x00000342 x18=0x00034200
      946197000	     47208	8000bae2	090d	c.addi	x18,3	 x18:0x00034200 x18=0x00034203
      946257000	     47211	8000bae4	012da023	sw	x18,0(x27)	 x27:0x8ffffffc x18:0x00034203 PA:0x8ffffffc store:0x00034203 load:0xffffffff
      946277000	     47212	8000bae8	34202973	csrrs	x18,mcause,x0	  x0:0x00000000 x18=0x00000002
      946297000	     47213	8000baec	012da023	sw	x18,0(x27)	 x27:0x8ffffffc x18:0x00000002 PA:0x8ffffffc store:0x00000002 load:0xffffffff
      946317000	     47214	8000baf0	34102973	csrrs	x18,mepc,x0	  x0:0x00000000 x18=0x80006890
      946337000	     47215	8000baf4	0911	c.addi	x18,4	 x18:0x80006890 x18=0x80006894
      946557000	     47226	8000baf6	34191073	csrrw	x0,mepc,x18	 x18:0x80006894  x0=0x00000000
      946577000	     47227	8000bafa	000685b3	add	x11,x13,x0	 x13:0x80025c60  x0:0x00000000 x11=0x80025c60
      946697000	     47233	8000bafe	0045a083	lw	x1,4(x11)	 x11:0x80025c60  x1=0x40000020 PA:0x80025c64 load:0x40000020
      947097000	     47253	8000bb02	0085a103	lw	x2,8(x11)	 x11:0x80025c60  x2=0x00000001 PA:0x80025c68 load:0x00000001
      947357000	     47266	8000bb06	00c5a183	lw	x3,12(x11)	 x11:0x80025c60  x3=0x00000001 PA:0x80025c6c load:0x00000001
      947777000	     47287	8000bb0a	0105a203	lw	x4,16(x11)	 x11:0x80025c60  x4=0x00000000 PA:0x80025c70 load:0x00000000
      948037000	     47300	8000bb0e	0145a283	lw	x5,20(x11)	 x11:0x80025c60  x5=0x00000000 PA:0x80025c74 load:0x00000000
      948057000	     47301	8000bb12	0185a303	lw	x6,24(x11)	 x11:0x80025c60  x6=0x00000155 PA:0x80025c78 load:0x00000155
      948077000	     47302	8000bb16	01c5a383	lw	x7,28(x11)	 x11:0x80025c60  x7=0x00000000 PA:0x80025c7c load:0x00000000
      948297000	     47313	8000bb1a	5180	c.lw	x8,32(x11)	 x11:0x80025c60  x8=0x00000020 PA:0x80025c80 load:0x00000020
      948857000	     47341	8000bb1c	51c4	c.lw	x9,36(x11)	 x11:0x80025c60  x9=0x00000000 PA:0x80025c84 load:0x00000000
      949017000	     47349	8000bb1e	5588	c.lw	x10,40(x11)	 x11:0x80025c60 x10=0x00000768 PA:0x80025c88 load:0x00000768
      949077000	     47352	8000bb20	55cc	c.lw	x11,44(x11)	 x11:0x80025c60 x11=0x80025c60 PA:0x80025c8c load:0x80025c60
      949237000	     47360	8000bb22	5990	c.lw	x12,48(x11)	 x11:0x80025c60 x12=0x00000000 PA:0x80025c90 load:0x00000000
      949617000	     47379	8000bb24	59d4	c.lw	x13,52(x11)	 x11:0x80025c60 x13=0x80025ce0 PA:0x80025c94 load:0x80025ce0
      949677000	     47382	8000bb26	5d98	c.lw	x14,56(x11)	 x11:0x80025c60 x14=0x00000000 PA:0x80025c98 load:0x00000000
      950137000	     47405	8000bb28	5ddc	c.lw	x15,60(x11)	 x11:0x80025c60 x15=0x0000b000 PA:0x80025c9c load:0x0000b000
      950197000	     47408	8000bb2a	0405a803	lw	x16,64(x11)	 x11:0x80025c60 x16=0x02d99fff PA:0x80025ca0 load:0x02d99fff
      950217000	     47409	8000bb2e	0445a883	lw	x17,68(x11)	 x11:0x80025c60 x17=0x02d99fff PA:0x80025ca4 load:0x02d99fff
      950317000	     47414	8000bb32	0485a903	lw	x18,72(x11)	 x11:0x80025c60 x18=0x00008000 PA:0x80025ca8 load:0x00008000
      950857000	     47441	8000bb36	04c5a983	lw	x19,76(x11)	 x11:0x80025c60 x19=0xfffffecd PA:0x80025cac load:0xfffffecd
      950917000	     47444	8000bb3a	0505aa03	lw	x20,80(x11)	 x11:0x80025c60 x20=0x00008000 PA:0x80025cb0 load:0x00008000
      950937000	     47445	8000bb3e	0545aa83	lw	x21,84(x11)	 x11:0x80025c60 x21=0x00000000 PA:0x80025cb4 load:0x00000000
      951357000	     47466	8000bb42	0585ab03	lw	x22,88(x11)	 x11:0x80025c60 x22=0x0001a000 PA:0x80025cb8 load:0x0001a000
      951417000	     47469	8000bb46	05c5ab83	lw	x23,92(x11)	 x11:0x80025c60 x23=0x00000000 PA:0x80025cbc load:0x00000000
      951637000	     47480	8000bb4a	0605ac03	lw	x24,96(x11)	 x11:0x80025c60 x24=0x02d99fff PA:0x80025cc0 load:0x02d99fff
      951777000	     47487	8000bb4e	0645ac83	lw	x25,100(x11)	 x11:0x80025c60 x25=0x0001f000 PA:0x80025cc4 load:0x0001f000
      951977000	     47497	8000bb52	0685ad03	lw	x26,104(x11)	 x11:0x80025c60 x26=0x1e933000 PA:0x80025cc8 load:0x1e933000
      952037000	     47500	8000bb56	06c5ad83	lw	x27,108(x11)	 x11:0x80025c60 x27=0x00000000 PA:0x80025ccc load:0x00000000
      952257000	     47511	8000bb5a	0705ae03	lw	x28,112(x11)	 x11:0x80025c60 x28=0x00000000 PA:0x80025cd0 load:0x00000000
      952317000	     47514	8000bb5e	0745ae83	lw	x29,116(x11)	 x11:0x80025c60 x29=0xfffffcdf PA:0x80025cd4 load:0xfffffcdf
      952737000	     47535	8000bb62	0785af03	lw	x30,120(x11)	 x11:0x80025c60 x30=0x3fffffff PA:0x80025cd8 load:0x3fffffff
      953357000	     47566	8000bb66	07c5af83	lw	x31,124(x11)	 x11:0x80025c60 x31=0x00000000 PA:0x80025cdc load:0x00000000
      953377000	     47567	8000bb6a	08058593	addi	x11,x11,128	 x11:0x80025c60 x11=0x80025ce0
      953397000	     47568	8000bb6e	000586b3	add	x13,x11,x0	 x11:0x80025ce0  x0:0x00000000 x13=0x80025ce0
      953457000	     47571	8000bb72	428c	c.lw	x11,0(x13)	 x13:0x80025ce0 x11=0x80021e64 PA:0x80025ce0 load:0x80021e64
      953477000	     47572	8000bb74	0691	c.addi	x13,4	 x13:0x80025ce0 x13=0x80025ce4
      953497000	     47573	8000bb76	30200073	mret	
      953557000	     47576	80006894	01aea233	slt	x4,x29,x26	 x29:0xfffffcdf x26:0x1e933000  x4=0x00000001
      953577000	     47577	80006898	00b47463	bgeu	x8,x11,800068a0	  x8:0x00000020 x11:0x80021e64
      953597000	     47578	8000689c	03649863	bne	x9,x22,800068cc	  x9:0x00000000 x22:0x0001a000
      954157000	     47606	800068cc	58fd	c.li	x17,-1	 x17=0xffffffff
      954297000	     47613	800068ce	41168433	sub	x8,x13,x17	 x13:0x80025ce4 x17:0xffffffff  x8=0x80025ce5
      954357000	     47616	800068d2	016e1293	slli	x5,x28,0x16	 x28:0x00000000  x5=0x00000000
      954377000	     47617	800068d6	6b622b17	auipc	x22,0x6b622	 x22=0xeb6288d6
      954397000	     47618	800068da	0001	c.addi	x0,0	  x0:0x00000000  x0=0x00000000
      954417000	     47619	800068dc	6891	c.lui	x17,0x4	 x17=0x00004000
      954437000	     47620	800068de	02ed	c.addi	x5,27	  x5:0x00000000  x5=0x0000001b
      955177000	     47657	800068e0	0254ccb3	div	x25,x9,x5	  x9:0x00000000  x5:0x0000001b x25=0x00000000
      955197000	     47658	800068e4	0d0a	c.slli	x26,0x2	 x26:0x1e933000 x26=0x7a4cc000
      955237000	     47660	800068e6	0352fdb3	remu	x27,x5,x21	  x5:0x0000001b x21:0x00000000 x27=0x0000001b
      955977000	     47697	800068ea	03a1dd33	divu	x26,x3,x26	  x3:0x00000001 x26:0x7a4cc000 x26=0x00000000
      955997000	     47698	800068ee	0489	c.addi	x9,2	  x9:0x00000000  x9=0x00000002
      956017000	     47699	800068f0	8376	c.mv	x6,x29	  x0:0x00000000 x29:0xfffffcdf  x6=0xfffffcdf
      956037000	     47700	800068f2	0184	c.addi4spn	x9,x2,192	  x9=0x000000c1
      956057000	     47701	800068f4	01353733	sltu	x14,x10,x19	 x10:0x00000768 x19:0xfffffecd x14=0x00000001
      956077000	     47702	800068f8	6fb5	c.lui	x31,0xd	 x31=0x0000d000
      956097000	     47703	800068fa	52052f13	slti	x30,x10,1312	 x10:0x00000768 x30=0x00000000
      956117000	     47704	800068fe	00fe0a33	add	x20,x28,x15	 x28:0x00000000 x15:0x0000b000 x20=0x0000b000
      956857000	     47741	80006902	03d54cb3	div	x25,x10,x29	 x10:0x00000768 x29:0xfffffcdf x25=0xfffffffe
      956897000	     47743	80006906	03739733	mulh	x14,x7,x23	  x7:0x00000000 x23:0x00000000 x14=0x00000000
      956917000	     47744	8000690a	8d69	c.and	x10,x10	 x10:0x00000768 x10:0x00000768 x10=0x00000768
      956937000	     47745	8000690c	004dd713	srli	x14,x27,0x4	 x27:0x0000001b x14=0x00000001
      956957000	     47746	80006910	8841	c.andi	x8,16	  x8:0x80025ce5  x8=0x00000000
      956977000	     47747	80006912	41f0d033	sra	x0,x1,x31	  x1:0x40000020 x31:0x0000d000  x0=0x00000000
      957257000	     47761	80006916	010e99b3	sll	x19,x29,x16	 x29:0xfffffcdf x16:0x02d99fff x19=0x80000000
      957277000	     47762	8000691a	8951	c.andi	x10,20	 x10:0x00000768 x10=0x00000000
      957317000	     47764	8000691c	00b41b63	bne	x8,x11,80006932	  x8:0x00000000 x11:0x80021e64
      958237000	     47810	80006932	01be5113	srli	x2,x28,0x1b	 x28:0x00000000  x2=0x00000000
      958417000	     47819	80006936	0382a833	mulhsu	x16,x5,x24	  x5:0x0000001b x24:0x02d99fff x16=0x00000000
      958817000	     47839	8000693a	010f5893	srli	x17,x30,0x10	 x30:0x00000000 x17=0x00000000
      958837000	     47840	8000693e	6139	c.addi16sp	x2,448	  x2:0x00000000  x2=0x000001c0
      958857000	     47841	80006940	01aaaeb3	slt	x29,x21,x26	 x21:0x00000000 x26:0x00000000 x29=0x00000000
      958877000	     47842	80006944	0284e563	bltu	x9,x8,8000696e	  x9:0x000000c1  x8:0x00000000
      959277000	     47862	80006948	3b807973	csrrci	x18,pmpaddr8,0	 x18=0x02222ecb
      959697000	     47883	8000694c	0fca	c.slli	x31,0x12	 x31:0x0000d000 x31=0x40000000
      959717000	     47884	8000694e	02f0de63	bge	x1,x15,8000698a	  x1:0x40000020 x15:0x0000b000
      960237000	     47910	8000698a	002152b3	srl	x5,x2,x2	  x2:0x000001c0  x2:0x000001c0  x5=0x000001c0
      960657000	     47931	8000698e	6729f613	andi	x12,x19,1650	 x19:0x80000000 x12=0x00000000
      960677000	     47932	80006992	963e	c.add	x12,x15	 x12:0x00000000 x15:0x0000b000 x12=0x0000b000
      960757000	     47936	80006994	03269e63	bne	x13,x18,800069d0	 x13:0x80025ce4 x18:0x02222ecb
      961897000	     47993	800069d0	04c9	c.addi	x9,18	  x9:0x000000c1  x9=0x000000d3
      961917000	     47994	800069d2	8449	c.srai	x8,0x12	  x8:0x00000000  x8=0x00000000
      962217000	     48009	800069d4	2787f713	andi	x14,x15,632	 x15:0x0000b000 x14=0x00000000
      962417000	     48019	800069d8	0ff0000f	fence	iorw,iorw	
      962437000	     48020	800069dc	003a2d33	slt	x26,x20,x3	 x20:0x0000b000  x3:0x00000001 x26=0x00000000
      962457000	     48021	800069e0	00f3cbb3	xor	x23,x7,x15	  x7:0x00000000 x15:0x0000b000 x23=0x0000b000
      962557000	     48026	800069e4	00e71f33	sll	x30,x14,x14	 x14:0x00000000 x14:0x00000000 x30=0x00000000
      962577000	     48027	800069e8	9756	c.add	x14,x21	 x14:0x00000000 x21:0x00000000 x14=0x00000000
      962797000	     48038	800069ea	03daa1b3	mulhsu	x3,x21,x29	 x21:0x00000000 x29:0x00000000  x3=0x00000000
      962817000	     48039	800069ee	00b56d33	or	x26,x10,x11	 x10:0x00000000 x11:0x80021e64 x26=0x80021e64
      963217000	     48059	800069f2	0000100f	fence.i	
      963917000	     48094	800069f6	036ea433	mulhsu	x8,x29,x22	 x29:0x00000000 x22:0xeb6288d6  x8=0x00000000
      963937000	     48095	800069fa	0001	c.addi	x0,0	  x0:0x00000000  x0=0x00000000
      964117000	     48104	800069fc	84c9	c.srai	x9,0x12	  x9:0x000000d3  x9=0x00000000
      964137000	     48105	800069fe	b0392ff3	csrrs	x31,mhpmcounter3,x18	 x18:0x02222ecb x31=0x00000e23
      964197000	     48108	80006a02	033acb63	blt	x21,x19,80006a38	 x21:0x00000000 x19:0x80000000
      964217000	     48109	80006a06	5e7d	c.li	x28,-1	 x28=0xffffffff
      964237000	     48110	80006a08	8b85	c.andi	x15,1	 x15:0x0000b000 x15=0x00000000
      964257000	     48111	80006a0a	9bfd	c.andi	x15,-1	 x15:0x00000000 x15=0x00000000
      964297000	     48113	80006a0c	00bdf833	and	x16,x27,x11	 x27:0x0000001b x11:0x80021e64 x16=0x00000000
      964437000	     48120	80006a10	a20c0213	addi	x4,x24,-1504	 x24:0x02d99fff  x4=0x02d99a1f
      964557000	     48126	80006a14	ea1d	c.bnez	x12,80006a4a	 x12:0x0000b000
      965137000	     48155	80006a4a	012bd463	bge	x23,x18,80006a52	 x23:0x0000b000 x18:0x02222ecb
      965237000	     48160	80006a4e	52b1b813	sltiu	x16,x3,1323	  x3:0x00000000 x16=0x00000001
      965657000	     48181	80006a52	04784063	blt	x16,x7,80006a92	 x16:0x00000001  x7:0x00000000
      965677000	     48182	80006a56	019a3fb3	sltu	x31,x20,x25	 x20:0x0000b000 x25:0xfffffffe x31=0x00000001
      965697000	     48183	80006a5a	8c45	c.or	x8,x9	  x8:0x00000000  x9:0x00000000  x8=0x00000000
      965717000	     48184	80006a5c	8c99	c.sub	x9,x14	  x9:0x00000000 x14:0x00000000  x9=0x00000000
      966457000	     48221	80006a5e	0377c7b3	div	x15,x15,x23	 x15:0x00000000 x23:0x0000b000 x15=0x00000000
      966477000	     48222	80006a62	b0599473	csrrw	x8,mhpmcounter5,x19	 x19:0x80000000  x8=0x0000008b
      966537000	     48225	80006a66	2c340c93	addi	x25,x8,707	  x8:0x0000008b x25=0x0000034e
      966557000	     48226	80006a6a	41e9dbb3	sra	x23,x19,x30	 x19:0x80000000 x30:0x00000000 x23=0x80000000
      966577000	     48227	80006a6e	007c52b3	srl	x5,x24,x7	 x24:0x02d99fff  x7:0x00000000  x5=0x02d99fff
      966597000	     48228	80006a72	0329f663	bgeu	x19,x18,80006a9e	 x19:0x80000000 x18:0x02222ecb
      967117000	     48254	80006a9e	6111	c.addi16sp	x2,256	  x2:0x000001c0  x2=0x000002c0
      968257000	     48311	80006aa0	02894333	div	x6,x18,x8	 x18:0x02222ecb  x8:0x0000008b  x6=0x0003edeb
      968277000	     48312	80006aa4	41ec5533	sra	x10,x24,x30	 x24:0x02d99fff x30:0x00000000 x10=0x02d99fff
      968297000	     48313	80006aa8	00b0b233	sltu	x4,x1,x11	  x1:0x40000020 x11:0x80021e64  x4=0x00000001
      968317000	     48314	80006aac	b03f5773	csrrwi	x14,mhpmcounter3,30	 x14=0x02222eeb
      973097000	     48553	80006ab0	004d9913	slli	x18,x27,0x4	 x27:0x0000001b x18=0x000001b0
      973117000	     48554	80006ab4	00e95413	srli	x8,x18,0xe	 x18:0x000001b0  x8=0x00000000
      973137000	     48555	80006ab8	8d55	c.or	x10,x13	 x10:0x02d99fff x13:0x80025ce4 x10=0x82dbdfff
      973157000	     48556	80006aba	8675	c.srai	x12,0x1d	 x12:0x0000b000 x12=0x00000000
      973177000	     48557	80006abc	41285933	sra	x18,x16,x18	 x16:0x00000001 x18:0x000001b0 x18=0x00000000
      973197000	     48558	80006ac0	0179	c.addi	x2,30	  x2:0x000002c0  x2=0x000002de
      973217000	     48559	80006ac2	88f9	c.andi	x9,30	  x9:0x00000000  x9=0x00000000
      973357000	     48566	80006ac4	0d55	c.addi	x26,21	 x26:0x80021e64 x26=0x80021e79
      973777000	     48587	80006ac6	cc316e93	ori	x29,x2,-829	  x2:0x000002de x29=0xfffffedf
      973837000	     48590	80006aca	013a30b3	sltu	x1,x20,x19	 x20:0x0000b000 x19:0x80000000  x1=0x00000001
      974117000	     48604	80006ace	323030f3	csrrc	x1,mhpmevent3,x0	  x0:0x00000000  x1=0x00000001
      974537000	     48625	80006ad2	78176d93	ori	x27,x14,1921	 x14:0x02222eeb x27=0x02222feb
      974957000	     48646	80006ad6	04ca6063	bltu	x20,x12,80006b16	 x20:0x0000b000 x12:0x00000000
      974977000	     48647	80006ada	0dba	c.slli	x27,0xe	 x27:0x02222feb x27=0x8bfac000
      974997000	     48648	80006adc	00ec8b63	beq	x25,x14,80006af2	 x25:0x0000034e x14:0x02222eeb
      975057000	     48651	80006ae0	012eb533	sltu	x10,x29,x18	 x29:0xfffffedf x18:0x00000000 x10=0x00000000
      975217000	     48659	80006ae4	0ff0000f	fence	iorw,iorw	
      975357000	     48666	80006ae8	0ff0000f	fence	iorw,iorw	
      975377000	     48667	80006aec	3417b573	csrrc	x10,mepc,x15	 x15:0x00000000 x10=0x80006894
      975397000	     48668	80006af0	9486	c.add	x9,x1	  x9:0x00000000  x1:0x00000001  x9=0x00000001
      975417000	     48669	80006af2	0ae2	c.slli	x21,0x18	 x21:0x00000000 x21=0x00000000
      975597000	     48678	80006af4	3b907573	csrrci	x10,pmpaddr9,0	 x10=0x0666730f
      975717000	     48684	80006af8	0000100f	fence.i	
      976117000	     48704	80006afc	7a306973	csrrsi	x18,tdata3,0	 x18=0x00000000
      976177000	     48707	80006b00	97a6	c.add	x15,x9	 x15:0x00000000  x9:0x00000001 x15=0x00000001
      976197000	     48708	80006b02	008a4863	blt	x20,x8,80006b12	 x20:0x0000b000  x8:0x00000000
      976217000	     48709	80006b06	027fcf63	blt	x31,x7,80006b44	 x31:0x00000001  x7:0x00000000
      976617000	     48729	80006b0a	41758633	sub	x12,x11,x23	 x11:0x80021e64 x23:0x80000000 x12=0x00021e64
      977057000	     48751	80006b0e	02839533	mulh	x10,x7,x8	  x7:0x00000000  x8:0x00000000 x10=0x00000000
      977077000	     48752	80006b12	1d7d	c.addi	x26,-1	 x26:0x80021e79 x26=0x80021e78
      977157000	     48756	80006b14	9a7d	c.andi	x12,-1	 x12:0x00021e64 x12=0x00021e64
      977177000	     48757	80006b16	23106513	ori	x10,x0,561	  x0:0x00000000 x10=0x00000231
      977297000	     48763	80006b1a	40185fb3	sra	x31,x16,x1	 x16:0x00000001  x1:0x00000001 x31=0x00000000
      977577000	     48777	80006b1e	016394b3	sll	x9,x7,x22	  x7:0x00000000 x22:0xeb6288d6  x9=0x00000000
      977597000	     48778	80006b22	044dd063	bge	x27,x4,80006b62	 x27:0x8bfac000  x4:0x00000001
      977757000	     48786	80006b26	03543533	mulhu	x10,x8,x21	  x8:0x00000000 x21:0x00000000 x10=0x00000000
      977777000	     48787	80006b2a	0053c533	xor	x10,x7,x5	  x7:0x00000000  x5:0x02d99fff x10=0x02d99fff
      977797000	     48788	80006b2e	8f2d	c.xor	x14,x11	 x14:0x02222eeb x11:0x80021e64 x14=0x8220308f
      977817000	     48789	80006b30	e405	c.bnez	x8,80006b58	  x8:0x00000000
      977837000	     48790	80006b32	5ffd	c.li	x31,-1	 x31=0xffffffff
      977937000	     48795	80006b34	8ec6a793	slti	x15,x13,-1812	 x13:0x80025ce4 x15=0x00000001
      977957000	     48796	80006b38	2ebe4013	xori	x0,x28,747	 x28:0xffffffff  x0=0x00000000
      977977000	     48797	80006b3c	00bbd0b3	srl	x1,x23,x11	 x23:0x80000000 x11:0x80021e64  x1=0x08000000
      977997000	     48798	80006b40	34202af3	csrrs	x21,mcause,x0	  x0:0x00000000 x21=0x00000002
      978197000	     48808	80006b44	00e65d33	srl	x26,x12,x14	 x12:0x00021e64 x14:0x8220308f x26=0x00000004
      978617000	     48829	80006b48	0385ed63	bltu	x11,x24,80006b82	 x11:0x80021e64 x24:0x02d99fff
      978897000	     48843	80006b4c	014b5d63	bge	x22,x20,80006b66	 x22:0xeb6288d6 x20:0x0000b000
      978917000	     48844	80006b50	0ff0000f	fence	iorw,iorw	
      978937000	     48845	80006b54	fde38cb7	lui	x25,0xfde38	 x25=0xfde38000
      978957000	     48846	80006b58	3bc03ff3	csrrc	x31,pmpaddr12,x0	  x0:0x00000000 x31=0x13333fdc
      979137000	     48855	80006b5c	8f69	c.and	x14,x10	 x14:0x8220308f x10:0x02d99fff x14=0x0200108f
      979177000	     48857	80006b5e	0205fe33	remu	x28,x11,x0	 x11:0x80021e64  x0:0x00000000 x28=0x80021e64
      979197000	     48858	80006b62	01be4f33	xor	x30,x28,x27	 x28:0x80021e64 x27:0x8bfac000 x30=0x0bf8de64
      979217000	     48859	80006b66	01b59c63	bne	x11,x27,80006b7e	 x11:0x80021e64 x27:0x8bfac000
      979377000	     48867	80006b7e	dd034313	xori	x6,x6,-560	  x6:0x0003edeb  x6=0xfffc103b
      979397000	     48868	80006b82	824d	c.srli	x12,0x13	 x12:0x00021e64 x12=0x00000000
      979417000	     48869	80006b84	8c19	c.sub	x8,x14	  x8:0x00000000 x14:0x0200108f  x8=0xfdffef71
      979437000	     48870	80006b86	8b6e	c.mv	x22,x27	  x0:0x00000000 x27:0x8bfac000 x22=0x8bfac000
      979457000	     48871	80006b88	01ab9d13	slli	x26,x23,0x1a	 x23:0x80000000 x26=0x00000000
      979537000	     48875	80006b8c	9f36	c.add	x30,x13	 x30:0x0bf8de64 x13:0x80025ce4 x30=0x8bfb3b48
      979757000	     48886	80006b8e	00845a13	srli	x20,x8,0x8	  x8:0xfdffef71 x20=0x00fdffef
      979777000	     48887	80006b92	0193beb3	sltu	x29,x7,x25	  x7:0x00000000 x25:0xfde38000 x29=0x00000001
      979797000	     48888	80006b96	002f6db3	or	x27,x30,x2	 x30:0x8bfb3b48  x2:0x000002de x27=0x8bfb3bde
      979977000	     48897	80006b9a	0091cc63	blt	x3,x9,80006bb2	  x3:0x00000000  x9:0x00000000
      979997000	     48898	80006b9e	00531733	sll	x14,x6,x5	  x6:0xfffc103b  x5:0x02d99fff x14=0x80000000
      980417000	     48919	80006ba2	40c15d93	srai	x27,x2,0xc	  x2:0x000002de x27=0x00000000
      980537000	     48925	80006ba6	0276d933	divu	x18,x13,x7	 x13:0x80025ce4  x7:0x00000000 x18=0xffffffff
      980557000	     48926	80006baa	0001	c.addi	x0,0	  x0:0x00000000  x0=0x00000000
      980577000	     48927	80006bac	3b502f73	csrrs	x30,pmpaddr5,x0	  x0:0x00000000 x30=0x355561fe
      980977000	     48947	80006bb0	cb1d	c.beqz	x14,80006be6	 x14:0x80000000
      981017000	     48949	80006bb2	b0ad14f3	csrrw	x9,mhpmcounter10,x26	 x26:0x00000000  x9=0x0000039c
      981097000	     48953	80006bb6	0222ca63	blt	x5,x2,80006bea	  x5:0x02d99fff  x2:0x000002de
      981197000	     48958	80006bba	05cb5063	bge	x22,x28,80006bfa	 x22:0x8bfac000 x28:0x80021e64
      981377000	     48967	80006bfa	009c4bb3	xor	x23,x24,x9	 x24:0x02d99fff  x9:0x0000039c x23=0x02d99c63
      981397000	     48968	80006bfe	8365	c.srli	x14,0x19	 x14:0x80000000 x14=0x00000040
      981417000	     48969	80006c00	00b0a433	slt	x8,x1,x11	  x1:0x08000000 x11:0x80021e64  x8=0x00000000
      981437000	     48970	80006c04	895d	c.andi	x10,23	 x10:0x02d99fff x10=0x00000017
      981457000	     48971	80006c06	0f96	c.slli	x31,0x5	 x31:0x13333fdc x31=0x6667fb80
      981717000	     48984	80006c08	0000100f	fence.i	
      982337000	     49015	80006c0c	007d0f63	beq	x26,x7,80006c2a	 x26:0x00000000  x7:0x00000000
      983277000	     49062	80006c2a	01a84433	xor	x8,x16,x26	 x16:0x00000001 x26:0x00000000  x8=0x00000001
      983697000	     49083	80006c2e	3b606873	csrrsi	x16,pmpaddr6,0	 x16=0x3999a642
      983737000	     49085	80006c32	03d79cb3	mulh	x25,x15,x29	 x15:0x00000001 x29:0x00000001 x25=0x00000000
      983817000	     49089	80006c36	00b90cb3	add	x25,x18,x11	 x18:0xffffffff x11:0x80021e64 x25=0x80021e63
      983837000	     49090	80006c3a	41fa8333	sub	x6,x21,x31	 x21:0x00000002 x31:0x6667fb80  x6=0x99980482
      984217000	     49109	80006c3e	b0059873	csrrw	x16,mcycle,x11	 x11:0x80021e64 x16=0xc00180be
      984277000	     49112	80006c42	e1372093	slti	x1,x14,-493	 x14:0x00000040  x1=0x00000000
      984297000	     49113	80006c46	5dfd	c.li	x27,-1	 x27=0xffffffff
      984317000	     49114	80006c48	00e89763	bne	x17,x14,80006c56	 x17:0x00000000 x14:0x00000040
      984737000	     49135	80006c56	ee0a2613	slti	x12,x20,-288	 x20:0x00fdffef x12=0x00000000
      984757000	     49136	80006c5a	0cc1	c.addi	x25,16	 x25:0x80021e63 x25=0x80021e73
      984777000	     49137	80006c5c	e809	c.bnez	x8,80006c6e	  x8:0x00000001
      985897000	     49193	80006c6e	88ae	c.mv	x17,x11	  x0:0x00000000 x11:0x80021e64 x17=0x80021e64
      986077000	     49202	80006c70	0ff0000f	fence	iorw,iorw	
      986997000	     49248	80006c74	03524b33	div	x22,x4,x21	  x4:0x00000001 x21:0x00000002 x22=0x00000000
      987017000	     49249	80006c78	0ff0000f	fence	iorw,iorw	
      987037000	     49250	80006c7c	7a306573	csrrsi	x10,tdata3,0	 x10=0x00000000
      987057000	     49251	80006c80	3245d8f3	csrrwi	x17,mhpmevent4,11	 x17=0x00000002
      987117000	     49254	80006c84	0107b0b3	sltu	x1,x15,x16	 x15:0x00000001 x16:0xc00180be  x1=0x00000001
      987497000	     49273	80006c88	00d4cf33	xor	x30,x9,x13	  x9:0x0000039c x13:0x80025ce4 x30=0x80025f78
      987517000	     49274	80006c8c	02405d63	bge	x0,x4,80006cc6	  x0:0x00000000  x4:0x00000001
      987537000	     49275	80006c90	0001	c.addi	x0,0	  x0:0x00000000  x0=0x00000000
      987837000	     49290	80006c92	00909d33	sll	x26,x1,x9	  x1:0x00000001  x9:0x0000039c x26=0x10000000
      987857000	     49291	80006c96	08fa	c.slli	x17,0x1e	 x17:0x00000002 x17=0x80000000
      988257000	     49311	80006c98	40ad5293	srai	x5,x26,0xa	 x26:0x10000000  x5=0x00040000
      988437000	     49320	80006c9c	74702c73	csrrs	x24,0x747,x0	  x0:0x00000000 x24=0x00000004
      988457000	     49321	80006ca0	01c10633	add	x12,x2,x28	  x2:0x000002de x28:0x80021e64 x12=0x80022142
      989297000	     49363	80006ca4	03dc4233	div	x4,x24,x29	 x24:0x00000004 x29:0x00000001  x4=0x00000004
      990037000	     49400	80006ca8	039fd7b3	divu	x15,x31,x25	 x31:0x6667fb80 x25:0x80021e73 x15=0x00000000
      990077000	     49402	80006cac	02e19d33	mulh	x26,x3,x14	  x3:0x00000000 x14:0x00000040 x26=0x00000000
      990097000	     49403	80006cb0	02824563	blt	x4,x8,80006cda	  x4:0x00000004  x8:0x00000001
      990117000	     49404	80006cb4	e719	c.bnez	x14,80006cc2	 x14:0x00000040
      990417000	     49419	80006cc2	8d55	c.or	x10,x13	 x10:0x00000000 x13:0x80025ce4 x10=0x80025ce4
      990437000	     49420	80006cc4	e331	c.bnez	x14,80006d08	 x14:0x00000040
      991237000	     49460	80006d08	035f9833	mulh	x16,x31,x21	 x31:0x6667fb80 x21:0x00000002 x16=0x00000000
      991257000	     49461	80006d0c	717d	c.addi16sp	x2,-16	  x2:0x000002de  x2=0x000002ce
      991277000	     49462	80006d0e	016644b3	xor	x9,x12,x22	 x12:0x80022142 x22:0x00000000  x9=0x80022142
      991297000	     49463	80006d12	845d	c.srai	x8,0x17	  x8:0x00000001  x8=0x00000000
      991317000	     49464	80006d14	8e79	c.and	x12,x14	 x12:0x80022142 x14:0x00000040 x12=0x00000040
      991337000	     49465	80006d16	05188163	beq	x17,x17,80006d58	 x17:0x80000000 x17:0x80000000
      991937000	     49495	80006d58	41d25d13	srai	x26,x4,0x1d	  x4:0x00000004 x26=0x00000000
      992237000	     49510	80006d5c	03c0a933	mulhsu	x18,x1,x28	  x1:0x00000001 x28:0x80021e64 x18=0x00000000
      992297000	     49513	80006d60	006f8433	add	x8,x31,x6	 x31:0x6667fb80  x6:0x99980482  x8=0x00000002
      992417000	     49519	80006d64	329eea73	csrrsi	x20,mhpmevent9,29	 x20=0x00000040
      992497000	     49523	80006d68	03c59ab3	mulh	x21,x11,x28	 x11:0x80021e64 x28:0x80021e64 x21=0x3ffde1a0
      992517000	     49524	80006d6c	4050d113	srai	x2,x1,0x5	  x1:0x00000001  x2=0x00000000
      992657000	     49531	80006d70	03814e63	blt	x2,x24,80006dac	  x2:0x00000000 x24:0x00000004
      993237000	     49560	80006dac	6121	c.addi16sp	x2,64	  x2:0x00000000  x2=0x00000040
      993257000	     49561	80006dae	0001	c.addi	x0,0	  x0:0x00000000  x0=0x00000000
      993277000	     49562	80006db0	01682bb3	slt	x23,x16,x22	 x16:0x00000000 x22:0x00000000 x23=0x00000000
      993297000	     49563	80006db4	847a	c.mv	x8,x30	  x0:0x00000000 x30:0x80025f78  x8=0x80025f78
      993317000	     49564	80006db6	0001	c.addi	x0,0	  x0:0x00000000  x0=0x00000000
      993397000	     49568	80006db8	d0c7cf93	xori	x31,x15,-756	 x15:0x00000000 x31=0xfffffd0c
      993417000	     49569	80006dbc	0153fc63	bgeu	x7,x21,80006dd4	  x7:0x00000000 x21:0x3ffde1a0
      993437000	     49570	80006dc0	40440533	sub	x10,x8,x4	  x8:0x80025f78  x4:0x00000004 x10=0x80025f74
      993457000	     49571	80006dc4	024c1f63	bne	x24,x4,80006e02	 x24:0x00000004  x4:0x00000004
      993637000	     49580	80006dc8	04596163	bltu	x18,x5,80006e0a	 x18:0x00000000  x5:0x00040000
      994897000	     49643	80006e0a	02d3a733	mulhsu	x14,x7,x13	  x7:0x00000000 x13:0x80025ce4 x14=0x00000000
      995257000	     49661	80006e0e	32502573	csrrs	x10,mhpmevent5,x0	  x0:0x00000000 x10=0x00000004
      995277000	     49662	80006e12	815e	c.mv	x2,x23	  x0:0x00000000 x23:0x00000000  x2=0x00000000
      995297000	     49663	80006e14	00effbb3	and	x23,x31,x14	 x31:0xfffffd0c x14:0x00000000 x23=0x00000000
      995317000	     49664	80006e18	00821313	slli	x6,x4,0x8	  x4:0x00000004  x6=0x00000400
      995337000	     49665	80006e1c	8ba6	c.mv	x23,x9	  x0:0x00000000  x9:0x80022142 x23=0x80022142
      995357000	     49666	80006e1e	0059cf63	blt	x19,x5,80006e3c	 x19:0x80000000  x5:0x00040000
      995757000	     49686	80006e3c	c205	c.beqz	x12,80006e5c	 x12:0x00000040
      996937000	     49745	80006e3e	03ea6133	rem	x2,x20,x30	 x20:0x00000040 x30:0x80025f78  x2=0x00000040
      996957000	     49746	80006e42	8d2d	c.xor	x10,x11	 x10:0x00000004 x11:0x80021e64 x10=0x80021e60
      996977000	     49747	80006e44	0001	c.addi	x0,0	  x0:0x00000000  x0=0x00000000
      996997000	     49748	80006e46	066a	c.slli	x12,0x1a	 x12:0x00000040 x12=0x00000000
      997017000	     49749	80006e48	8761	c.srai	x14,0x18	 x14:0x00000000 x14=0x00000000
      997037000	     49750	80006e4a	1b08	c.addi4spn	x10,x2,432	 x10=0x000001f0
      997137000	     49755	80006e4c	003af833	and	x16,x21,x3	 x21:0x3ffde1a0  x3:0x00000000 x16=0x00000000
      997157000	     49756	80006e50	0e213313	sltiu	x6,x2,226	  x2:0x00000040  x6=0x00000001
      997357000	     49766	80006e54	84a9	c.srai	x9,0xa	  x9:0x80022142  x9=0xffe00088
      997377000	     49767	80006e56	c399	c.beqz	x15,80006e5c	 x15:0x00000000
      997837000	     49790	80006e5c	88552793	slti	x15,x10,-1915	 x10:0x000001f0 x15=0x00000000
      997937000	     49795	80006e60	f13a5ff3	csrrwi	x0,mimpid,20	  x0=0x00000000
      998877000	     49842	80002500	0800006f	jal	x0,80002580	  x0=0x00000000
      999217000	     49859	80002580	16f1	c.addi	x13,-4	 x13:0x80025ce4 x13=0x80025ce0
      999277000	     49862	80002582	c28c	c.sw	x11,0(x13)	 x13:0x80025ce0 x11:0x80021e64 PA:0x80025ce0 store:0x80021e64 load:0xffffffff
      999297000	     49863	80002584	000685b3	add	x11,x13,x0	 x13:0x80025ce0  x0:0x00000000 x11=0x80025ce0
      999737000	     49885	80002588	f8058593	addi	x11,x11,-128	 x11:0x80025ce0 x11=0x80025c60
      999837000	     49890	8000258c	0015a223	sw	x1,4(x11)	 x11:0x80025c60  x1:0x00000001 PA:0x80025c64 store:0x00000001 load:0xffffffff
     1000217000	     49909	80002590	0025a423	sw	x2,8(x11)	 x11:0x80025c60  x2:0x00000040 PA:0x80025c68 store:0x00000040 load:0xffffffff
     1000557000	     49926	80002594	0035a623	sw	x3,12(x11)	 x11:0x80025c60  x3:0x00000000 PA:0x80025c6c store:0x00000000 load:0xffffffff
     1000617000	     49929	80002598	0045a823	sw	x4,16(x11)	 x11:0x80025c60  x4:0x00000004 PA:0x80025c70 store:0x00000004 load:0xffffffff
     1000837000	     49940	8000259c	0055aa23	sw	x5,20(x11)	 x11:0x80025c60  x5:0x00040000 PA:0x80025c74 store:0x00040000 load:0xffffffff
     1001257000	     49961	800025a0	0065ac23	sw	x6,24(x11)	 x11:0x80025c60  x6:0x00000001 PA:0x80025c78 store:0x00000001 load:0xffffffff
     1001497000	     49973	800025a4	0075ae23	sw	x7,28(x11)	 x11:0x80025c60  x7:0x00000000 PA:0x80025c7c store:0x00000000 load:0xffffffff
     1001557000	     49976	800025a8	d180	c.sw	x8,32(x11)	 x11:0x80025c60  x8:0x80025f78 PA:0x80025c80 store:0x80025f78 load:0xffffffff
     1001997000	     49998	800025aa	d1c4	c.sw	x9,36(x11)	 x11:0x80025c60  x9:0xffe00088 PA:0x80025c84 store:0xffe00088 load:0xffffffff
     1002377000	     50017	800025ac	d588	c.sw	x10,40(x11)	 x11:0x80025c60 x10:0x000001f0 PA:0x80025c88 store:0x000001f0 load:0xffffffff
     1002397000	     50018	800025ae	d5cc	c.sw	x11,44(x11)	 x11:0x80025c60 x11:0x80025c60 PA:0x80025c8c store:0x80025c60 load:0xffffffff
     1002437000	     50020	800025b0	d990	c.sw	x12,48(x11)	 x11:0x80025c60 x12:0x00000000 PA:0x80025c90 store:0x00000000 load:0xffffffff
     1002857000	     50041	800025b2	d9d4	c.sw	x13,52(x11)	 x11:0x80025c60 x13:0x80025ce0 PA:0x80025c94 store:0x80025ce0 load:0xffffffff
     1002917000	     50044	800025b4	dd98	c.sw	x14,56(x11)	 x11:0x80025c60 x14:0x00000000 PA:0x80025c98 store:0x00000000 load:0xffffffff
     1003117000	     50054	800025b6	dddc	c.sw	x15,60(x11)	 x11:0x80025c60 x15:0x00000000 PA:0x80025c9c store:0x00000000 load:0xffffffff
     1003577000	     50077	800025b8	0505a023	sw	x16,64(x11)	 x11:0x80025c60 x16:0x00000000 PA:0x80025ca0 store:0x00000000 load:0xffffffff
     1003777000	     50087	800025bc	0515a223	sw	x17,68(x11)	 x11:0x80025c60 x17:0x80000000 PA:0x80025ca4 store:0x80000000 load:0xffffffff
     1003837000	     50090	800025c0	0525a423	sw	x18,72(x11)	 x11:0x80025c60 x18:0x00000000 PA:0x80025ca8 store:0x00000000 load:0xffffffff
     1003857000	     50091	800025c4	0535a623	sw	x19,76(x11)	 x11:0x80025c60 x19:0x80000000 PA:0x80025cac store:0x80000000 load:0xffffffff
     1003997000	     50098	800025c8	0545a823	sw	x20,80(x11)	 x11:0x80025c60 x20:0x00000040 PA:0x80025cb0 store:0x00000040 load:0xffffffff
     1004057000	     50101	800025cc	0555aa23	sw	x21,84(x11)	 x11:0x80025c60 x21:0x3ffde1a0 PA:0x80025cb4 store:0x3ffde1a0 load:0xffffffff
     1004477000	     50122	800025d0	0565ac23	sw	x22,88(x11)	 x11:0x80025c60 x22:0x00000000 PA:0x80025cb8 store:0x00000000 load:0xffffffff
     1004597000	     50128	800025d4	0575ae23	sw	x23,92(x11)	 x11:0x80025c60 x23:0x80022142 PA:0x80025cbc store:0x80022142 load:0xffffffff
     1013597000	     50578	800025d8	0785a023	sw	x24,96(x11)	 x11:0x80025c60 x24:0x00000004 PA:0x80025cc0 store:0x00000004 load:0xffffffff
     1014057000	     50601	800025dc	0795a223	sw	x25,100(x11)	 x11:0x80025c60 x25:0x80021e73 PA:0x80025cc4 store:0x80021e73 load:0xffffffff
     1014197000	     50608	800025e0	07a5a423	sw	x26,104(x11)	 x11:0x80025c60 x26:0x00000000 PA:0x80025cc8 store:0x00000000 load:0xffffffff
     1014517000	     50624	800025e4	07b5a623	sw	x27,108(x11)	 x11:0x80025c60 x27:0xffffffff PA:0x80025ccc store:0xffffffff load:0xffffffff
     1014977000	     50647	800025e8	07c5a823	sw	x28,112(x11)	 x11:0x80025c60 x28:0x80021e64 PA:0x80025cd0 store:0x80021e64 load:0xffffffff
     1015377000	     50667	800025ec	07d5aa23	sw	x29,116(x11)	 x11:0x80025c60 x29:0x00000001 PA:0x80025cd4 store:0x00000001 load:0xffffffff
     1015557000	     50676	800025f0	07e5ac23	sw	x30,120(x11)	 x11:0x80025c60 x30:0x80025f78 PA:0x80025cd8 store:0x80025f78 load:0xffffffff
     1015617000	     50679	800025f4	07f5ae23	sw	x31,124(x11)	 x11:0x80025c60 x31:0xfffffd0c PA:0x80025cdc store:0xfffffd0c load:0xffffffff
     1015637000	     50680	800025f8	000586b3	add	x13,x11,x0	 x11:0x80025c60  x0:0x00000000 x13=0x80025c60
     1015657000	     50681	800025fc	90000db7	lui	x27,0x90000	 x27=0x90000000
     1015677000	     50682	80002600	1df1	c.addi	x27,-4	 x27:0x90000000 x27=0x8ffffffc
     1015697000	     50683	80002602	4921	c.li	x18,8	 x18=0x00000008
     1015717000	     50684	80002604	0922	c.slli	x18,0x8	 x18:0x00000008 x18=0x00000800
     1015737000	     50685	80002606	00090913	addi	x18,x18,0	 x18:0x00000800 x18=0x00000800
     1016197000	     50708	8000260a	012da023	sw	x18,0(x27)	 x27:0x8ffffffc x18:0x00000800 PA:0x8ffffffc store:0x00000800 load:0xffffffff
     1016217000	     50709	8000260e	34102973	csrrs	x18,mepc,x0	  x0:0x00000000 x18=0x80006e60
     1016237000	     50710	80002612	34202973	csrrs	x18,mcause,x0	  x0:0x00000000 x18=0x00000002
     1016257000	     50711	80002616	4d8d	c.li	x27,3	 x27=0x00000003
     1016277000	     50712	80002618	01b91463	bne	x18,x27,80002620	 x18:0x00000002 x27:0x00000003
     1016317000	     50714	80002620	4da1	c.li	x27,8	 x27=0x00000008
     1016337000	     50715	80002622	05b90d63	beq	x18,x27,8000267c	 x18:0x00000002 x27:0x00000008
     1016357000	     50716	80002626	4da5	c.li	x27,9	 x27=0x00000009
     1016577000	     50727	80002628	05b90a63	beq	x18,x27,8000267c	 x18:0x00000002 x27:0x00000009
     1016597000	     50728	8000262c	4dad	c.li	x27,11	 x27=0x0000000b
     1016677000	     50732	8000262e	05b90763	beq	x18,x27,8000267c	 x18:0x00000002 x27:0x0000000b
     1016697000	     50733	80002632	4d85	c.li	x27,1	 x27=0x00000001
     1016717000	     50734	80002634	35b90363	beq	x18,x27,8000297a	 x18:0x00000002 x27:0x00000001
     1016737000	     50735	80002638	4d95	c.li	x27,5	 x27=0x00000005
     1016797000	     50738	8000263a	63b90963	beq	x18,x27,80002c6c	 x18:0x00000002 x27:0x00000005
     1016817000	     50739	8000263e	4d9d	c.li	x27,7	 x27=0x00000007
     1016837000	     50740	80002640	15b90ae3	beq	x18,x27,80002f94	 x18:0x00000002 x27:0x00000007
     1016997000	     50748	80002644	4db1	c.li	x27,12	 x27=0x0000000c
     1017117000	     50754	80002646	01b91463	bne	x18,x27,8000264e	 x18:0x00000002 x27:0x0000000c
     1017937000	     50795	8000264e	4db5	c.li	x27,13	 x27=0x0000000d
     1018417000	     50819	80002650	01b91463	bne	x18,x27,80002658	 x18:0x00000002 x27:0x0000000d
     1018457000	     50821	80002658	4dbd	c.li	x27,15	 x27=0x0000000f
     1018477000	     50822	8000265a	01b91463	bne	x18,x27,80002662	 x18:0x00000002 x27:0x0000000f
     1019397000	     50868	80002662	4d89	c.li	x27,2	 x27=0x00000002
     1019417000	     50869	80002664	01b91463	bne	x18,x27,8000266c	 x18:0x00000002 x27:0x00000002
     1019557000	     50876	80002668	45c0906f	jal	x0,8000bac4	  x0=0x00000000
     1020217000	     50909	8000bac4	90000db7	lui	x27,0x90000	 x27=0x90000000
     1020257000	     50911	8000bac8	1df1	c.addi	x27,-4	 x27:0x90000000 x27=0x8ffffffc
     1020277000	     50912	8000baca	4929	c.li	x18,10	 x18=0x0000000a
     1020477000	     50922	8000bacc	0922	c.slli	x18,0x8	 x18:0x0000000a x18=0x00000a00
     1020897000	     50943	8000bace	00090913	addi	x18,x18,0	 x18:0x00000a00 x18=0x00000a00
     1021137000	     50955	8000bad2	012da023	sw	x18,0(x27)	 x27:0x8ffffffc x18:0x00000a00 PA:0x8ffffffc store:0x00000a00 load:0xffffffff
     1021157000	     50956	8000bad6	90000db7	lui	x27,0x90000	 x27=0x90000000
     1021177000	     50957	8000bada	1df1	c.addi	x27,-4	 x27:0x90000000 x27=0x8ffffffc
     1021197000	     50958	8000badc	34200913	addi	x18,x0,834	  x0:0x00000000 x18=0x00000342
     1021497000	     50973	8000bae0	0922	c.slli	x18,0x8	 x18:0x00000342 x18=0x00034200
     1021517000	     50974	8000bae2	090d	c.addi	x18,3	 x18:0x00034200 x18=0x00034203
     1021817000	     50989	8000bae4	012da023	sw	x18,0(x27)	 x27:0x8ffffffc x18:0x00034203 PA:0x8ffffffc store:0x00034203 load:0xffffffff
     1021837000	     50990	8000bae8	34202973	csrrs	x18,mcause,x0	  x0:0x00000000 x18=0x00000002
     1021897000	     50993	8000baec	012da023	sw	x18,0(x27)	 x27:0x8ffffffc x18:0x00000002 PA:0x8ffffffc store:0x00000002 load:0xffffffff
     1021917000	     50994	8000baf0	34102973	csrrs	x18,mepc,x0	  x0:0x00000000 x18=0x80006e60
     1021937000	     50995	8000baf4	0911	c.addi	x18,4	 x18:0x80006e60 x18=0x80006e64
     1021957000	     50996	8000baf6	34191073	csrrw	x0,mepc,x18	 x18:0x80006e64  x0=0x00000000
     1021977000	     50997	8000bafa	000685b3	add	x11,x13,x0	 x13:0x80025c60  x0:0x00000000 x11=0x80025c60
     1022117000	     51004	8000bafe	0045a083	lw	x1,4(x11)	 x11:0x80025c60  x1=0x00000001 PA:0x80025c64 load:0x00000001
     1022177000	     51007	8000bb02	0085a103	lw	x2,8(x11)	 x11:0x80025c60  x2=0x00000040 PA:0x80025c68 load:0x00000040
     1022597000	     51028	8000bb06	00c5a183	lw	x3,12(x11)	 x11:0x80025c60  x3=0x00000000 PA:0x80025c6c load:0x00000000
     1023137000	     51055	8000bb0a	0105a203	lw	x4,16(x11)	 x11:0x80025c60  x4=0x00000004 PA:0x80025c70 load:0x00000004
     1023237000	     51060	8000bb0e	0145a283	lw	x5,20(x11)	 x11:0x80025c60  x5=0x00040000 PA:0x80025c74 load:0x00040000
     1023437000	     51070	8000bb12	0185a303	lw	x6,24(x11)	 x11:0x80025c60  x6=0x00000001 PA:0x80025c78 load:0x00000001
     1023457000	     51071	8000bb16	01c5a383	lw	x7,28(x11)	 x11:0x80025c60  x7=0x00000000 PA:0x80025c7c load:0x00000000
     1023637000	     51080	8000bb1a	5180	c.lw	x8,32(x11)	 x11:0x80025c60  x8=0x80025f78 PA:0x80025c80 load:0x80025f78
     1024057000	     51101	8000bb1c	51c4	c.lw	x9,36(x11)	 x11:0x80025c60  x9=0xffe00088 PA:0x80025c84 load:0xffe00088
     1024637000	     51130	8000bb1e	5588	c.lw	x10,40(x11)	 x11:0x80025c60 x10=0x000001f0 PA:0x80025c88 load:0x000001f0
     1024897000	     51143	8000bb20	55cc	c.lw	x11,44(x11)	 x11:0x80025c60 x11=0x80025c60 PA:0x80025c8c load:0x80025c60
     1025137000	     51155	8000bb22	5990	c.lw	x12,48(x11)	 x11:0x80025c60 x12=0x00000000 PA:0x80025c90 load:0x00000000
     1025717000	     51184	8000bb24	59d4	c.lw	x13,52(x11)	 x11:0x80025c60 x13=0x80025ce0 PA:0x80025c94 load:0x80025ce0
     1026177000	     51207	8000bb26	5d98	c.lw	x14,56(x11)	 x11:0x80025c60 x14=0x00000000 PA:0x80025c98 load:0x00000000
     1026297000	     51213	8000bb28	5ddc	c.lw	x15,60(x11)	 x11:0x80025c60 x15=0x00000000 PA:0x80025c9c load:0x00000000
     1026457000	     51221	8000bb2a	0405a803	lw	x16,64(x11)	 x11:0x80025c60 x16=0x00000000 PA:0x80025ca0 load:0x00000000
     1026677000	     51232	8000bb2e	0445a883	lw	x17,68(x11)	 x11:0x80025c60 x17=0x80000000 PA:0x80025ca4 load:0x80000000
     1026837000	     51240	8000bb32	0485a903	lw	x18,72(x11)	 x11:0x80025c60 x18=0x00000000 PA:0x80025ca8 load:0x00000000
     1026957000	     51246	8000bb36	04c5a983	lw	x19,76(x11)	 x11:0x80025c60 x19=0x80000000 PA:0x80025cac load:0x80000000
     1027277000	     51262	8000bb3a	0505aa03	lw	x20,80(x11)	 x11:0x80025c60 x20=0x00000040 PA:0x80025cb0 load:0x00000040
     1027337000	     51265	8000bb3e	0545aa83	lw	x21,84(x11)	 x11:0x80025c60 x21=0x3ffde1a0 PA:0x80025cb4 load:0x3ffde1a0
     1027437000	     51270	8000bb42	0585ab03	lw	x22,88(x11)	 x11:0x80025c60 x22=0x00000000 PA:0x80025cb8 load:0x00000000
     1027597000	     51278	8000bb46	05c5ab83	lw	x23,92(x11)	 x11:0x80025c60 x23=0x80022142 PA:0x80025cbc load:0x80022142
     1027617000	     51279	8000bb4a	0605ac03	lw	x24,96(x11)	 x11:0x80025c60 x24=0x00000004 PA:0x80025cc0 load:0x00000004
     1027657000	     51281	8000bb4e	0645ac83	lw	x25,100(x11)	 x11:0x80025c60 x25=0x80021e73 PA:0x80025cc4 load:0x80021e73
     1027697000	     51283	8000bb52	0685ad03	lw	x26,104(x11)	 x11:0x80025c60 x26=0x00000000 PA:0x80025cc8 load:0x00000000
     1027997000	     51298	8000bb56	06c5ad83	lw	x27,108(x11)	 x11:0x80025c60 x27=0xffffffff PA:0x80025ccc load:0xffffffff
     1028417000	     51319	8000bb5a	0705ae03	lw	x28,112(x11)	 x11:0x80025c60 x28=0x80021e64 PA:0x80025cd0 load:0x80021e64
     1028797000	     51338	8000bb5e	0745ae83	lw	x29,116(x11)	 x11:0x80025c60 x29=0x00000001 PA:0x80025cd4 load:0x00000001
     1028997000	     51348	8000bb62	0785af03	lw	x30,120(x11)	 x11:0x80025c60 x30=0x80025f78 PA:0x80025cd8 load:0x80025f78
     1029057000	     51351	8000bb66	07c5af83	lw	x31,124(x11)	 x11:0x80025c60 x31=0xfffffd0c PA:0x80025cdc load:0xfffffd0c
     1029077000	     51352	8000bb6a	08058593	addi	x11,x11,128	 x11:0x80025c60 x11=0x80025ce0
     1029097000	     51353	8000bb6e	000586b3	add	x13,x11,x0	 x11:0x80025ce0  x0:0x00000000 x13=0x80025ce0
     1029157000	     51356	8000bb72	428c	c.lw	x11,0(x13)	 x13:0x80025ce0 x11=0x80021e64 PA:0x80025ce0 load:0x80021e64
     1029177000	     51357	8000bb74	0691	c.addi	x13,4	 x13:0x80025ce0 x13=0x80025ce4
     1029197000	     51358	8000bb76	30200073	mret	
     1029257000	     51361	80006e64	02c46b63	bltu	x8,x12,80006e9a	  x8:0x80025f78 x12:0x00000000
     1029317000	     51364	80006e68	1a870113	addi	x2,x14,424	 x14:0x00000000  x2=0x000001a8
     1029337000	     51365	80006e6c	0322	c.slli	x6,0x8	  x6:0x00000001  x6=0x00000100
     1030057000	     51401	80006e6e	0116f9b3	and	x19,x13,x17	 x13:0x80025ce4 x17:0x80000000 x19=0x80000000
     1030077000	     51402	80006e72	0488	c.addi4spn	x10,x2,576	 x10=0x000003e8
     1030097000	     51403	80006e74	b09dd273	csrrwi	x4,mhpmcounter9,27	  x4=0x00000038
     1030197000	     51408	80006e78	01e81e13	slli	x28,x16,0x1e	 x16:0x00000000 x28=0x00000000
     1030217000	     51409	80006e7c	94e6	c.add	x9,x25	  x9:0xffe00088 x25:0x80021e73  x9=0x7fe21efb
     1030237000	     51410	80006e7e	dbab3193	sltiu	x3,x22,-582	 x22:0x00000000  x3=0x00000001
     1030257000	     51411	80006e82	8f59	c.or	x14,x14	 x14:0x00000000 x14:0x00000000 x14=0x00000000
     1030277000	     51412	80006e84	30103073	csrrc	x0,misa,x0	  x0:0x00000000  x0=0x00000000
     1030597000	     51428	80006e88	0e21	c.addi	x28,8	 x28:0x00000000 x28=0x00000008
     1030617000	     51429	80006e8a	8f71	c.and	x14,x12	 x14:0x00000000 x12:0x00000000 x14=0x00000000
     1030677000	     51432	80006e8c	40c58db3	sub	x27,x11,x12	 x11:0x80021e64 x12:0x00000000 x27=0x80021e64
     1030697000	     51433	80006e90	0001	c.addi	x0,0	  x0:0x00000000  x0=0x00000000
     1030717000	     51434	80006e92	037a7f63	bgeu	x20,x23,80006ed0	 x20:0x00000040 x23:0x80022142
     1030977000	     51447	80006e96	00da5e33	srl	x28,x20,x13	 x20:0x00000040 x13:0x80025ce4 x28=0x00000004
     1030997000	     51448	80006e9a	854d	c.srai	x10,0x13	 x10:0x000003e8 x10=0x00000000
     1031017000	     51449	80006e9c	41195e13	srai	x28,x18,0x11	 x18:0x00000000 x28=0x00000000
     1031037000	     51450	80006ea0	3ad1f093	andi	x1,x3,941	  x3:0x00000001  x1=0x00000001
     1031317000	     51464	80006ea4	e1afff13	andi	x30,x31,-486	 x31:0xfffffd0c x30=0xfffffc08
     1031477000	     51472	80006ea8	40bb8533	sub	x10,x23,x11	 x23:0x80022142 x11:0x80021e64 x10=0x000002de
     1031497000	     51473	80006eac	88e9	c.andi	x9,26	  x9:0x7fe21efb  x9=0x0000001a
     1031617000	     51479	80006eae	342350f3	csrrwi	x1,mcause,6	  x1=0x00000002
     1031677000	     51482	80006eb2	8605	c.srai	x12,0x1	 x12:0x00000000 x12=0x00000000
     1031977000	     51497	80006eb4	037d1ab3	mulh	x21,x26,x23	 x26:0x00000000 x23:0x80022142 x21=0x00000000
     1032837000	     51540	80006eb8	03bac533	div	x10,x21,x27	 x21:0x00000000 x27:0x80021e64 x10=0x00000000
     1032857000	     51541	80006ebc	1105d237	lui	x4,0x1105d	  x4=0x1105d000
     1033597000	     51578	80006ec0	025d7d33	remu	x26,x26,x5	 x26:0x00000000  x5:0x00040000 x26=0x00000000
     1033617000	     51579	80006ec4	3bd06d73	csrrsi	x26,pmpaddr13,0	 x26=0x17778420
     1033637000	     51580	80006ec8	0001	c.addi	x0,0	  x0:0x00000000  x0=0x00000000
     1033657000	     51581	80006eca	0001	c.addi	x0,0	  x0:0x00000000  x0=0x00000000
     1033677000	     51582	80006ecc	05fac063	blt	x21,x31,80006f0c	 x21:0x00000000 x31:0xfffffd0c
     1033697000	     51583	80006ed0	41510ab3	sub	x21,x2,x21	  x2:0x000001a8 x21:0x00000000 x21=0x000001a8
     1033717000	     51584	80006ed4	0ff0000f	fence	iorw,iorw	
     1033737000	     51585	80006ed8	5c6ca337	lui	x6,0x5c6ca	  x6=0x5c6ca000
     1033757000	     51586	80006edc	0001	c.addi	x0,0	  x0:0x00000000  x0=0x00000000
     1033897000	     51593	80006ede	414e0cb3	sub	x25,x28,x20	 x28:0x00000000 x20:0x00000040 x25=0xffffffc0
     1033917000	     51594	80006ee2	011cdd13	srli	x26,x25,0x11	 x25:0xffffffc0 x26=0x00007fff
     1033997000	     51598	80006ee6	0088be33	sltu	x28,x17,x8	 x17:0x80000000  x8:0x80025f78 x28=0x00000001
     1034017000	     51599	80006eea	3b9068f3	csrrsi	x17,pmpaddr9,0	 x17=0x0666730f
     1034237000	     51610	80006eee	d7454913	xori	x18,x10,-652	 x10:0x00000000 x18=0xfffffd74
     1034277000	     51612	80006ef2	0397f963	bgeu	x15,x25,80006f24	 x15:0x00000000 x25:0xffffffc0
     1034297000	     51613	80006ef6	0146e433	or	x8,x13,x20	 x13:0x80025ce4 x20:0x00000040  x8=0x80025ce4
     1034317000	     51614	80006efa	3bb02673	csrrs	x12,pmpaddr11,x0	  x0:0x00000000 x12=0x0eeefb97
     1034337000	     51615	80006efe	08aa	c.slli	x17,0xa	 x17:0x0666730f x17=0x99cc3c00
     1034357000	     51616	80006f00	002b8c63	beq	x23,x2,80006f18	 x23:0x80022142  x2:0x000001a8
     1034397000	     51618	80006f04	0302a833	mulhsu	x16,x5,x16	  x5:0x00040000 x16:0x00000000 x16=0x00000000
     1034577000	     51627	80006f08	0001	c.addi	x0,0	  x0:0x00000000  x0=0x00000000
     1034597000	     51628	80006f0a	6915	c.lui	x18,0x5	 x18=0x00005000
     1034717000	     51634	80006f0c	3b807373	csrrci	x6,pmpaddr8,0	  x6=0x02222ecb
     1035017000	     51649	80006f10	028f12b3	mulh	x5,x30,x8	 x30:0xfffffc08  x8:0x80025ce4  x5=0x000001fb
     1035377000	     51667	80006f14	0038cc63	blt	x17,x3,80006f2c	 x17:0x99cc3c00  x3:0x00000001
     1035657000	     51681	80006f2c	309d0a93	addi	x21,x26,777	 x26:0x00007fff x21=0x00008308
     1035957000	     51696	80006f30	1ef06a13	ori	x20,x0,495	  x0:0x00000000 x20=0x000001ef
     1035977000	     51697	80006f34	0ce9	c.addi	x25,26	 x25:0xffffffc0 x25=0xffffffda
     1035997000	     51698	80006f36	41e45733	sra	x14,x8,x30	  x8:0x80025ce4 x30:0xfffffc08 x14=0xff80025c
     1036037000	     51700	80006f3a	0292b4b3	mulhu	x9,x5,x9	  x5:0x000001fb  x9:0x0000001a  x9=0x00000000
     1036057000	     51701	80006f3e	009d7e63	bgeu	x26,x9,80006f5a	 x26:0x00007fff  x9:0x00000000
     1036697000	     51733	80006f5a	03ec4063	blt	x24,x30,80006f7a	 x24:0x00000004 x30:0xfffffc08
     1036757000	     51736	80006f5e	0234f763	bgeu	x9,x3,80006f8c	  x9:0x00000000  x3:0x00000001
     1036777000	     51737	80006f62	41545993	srai	x19,x8,0x15	  x8:0x80025ce4 x19=0xfffffc00
     1036797000	     51738	80006f66	8e71	c.and	x12,x12	 x12:0x0eeefb97 x12:0x0eeefb97 x12=0x0eeefb97
     1036817000	     51739	80006f68	05c9f063	bgeu	x19,x28,80006fa8	 x19:0xfffffc00 x28:0x00000001
     1037257000	     51761	80006fa8	1100	c.addi4spn	x8,x2,160	  x8=0x00000248
     1037277000	     51762	80006faa	197d	c.addi	x18,-1	 x18:0x00005000 x18=0x00004fff
     1038017000	     51799	80006fac	03ad5d33	divu	x26,x26,x26	 x26:0x00007fff x26:0x00007fff x26=0x00000001
     1038037000	     51800	80006fb0	8f91	c.sub	x15,x12	 x15:0x00000000 x12:0x0eeefb97 x15=0xf1110469
     1038057000	     51801	80006fb2	4077d513	srai	x10,x15,0x7	 x15:0xf1110469 x10=0xffe22208
     1038077000	     51802	80006fb6	016f32b3	sltu	x5,x30,x22	 x30:0xfffffc08 x22:0x00000000  x5=0x00000000
     1038097000	     51803	80006fba	03af8463	beq	x31,x26,80006fe2	 x31:0xfffffd0c x26:0x00000001
     1038117000	     51804	80006fbe	327074f3	csrrci	x9,mhpmevent7,0	  x9=0x00000010
     1038137000	     51805	80006fc2	09e57793	andi	x15,x10,158	 x10:0xffe22208 x15=0x00000008
     1038157000	     51806	80006fc6	8ce5	c.and	x9,x9	  x9:0x00000010  x9:0x00000010  x9=0x00000010
     1038437000	     51820	80006fc8	6b09	c.lui	x22,0x2	 x22=0x00002000
     1038457000	     51821	80006fca	1a18	c.addi4spn	x14,x2,304	 x14=0x000002d8
     1038477000	     51822	80006fcc	32c03873	csrrc	x16,mhpmevent12,x0	  x0:0x00000000 x16=0x00000200
     1039257000	     51861	80006fd0	02a6e333	rem	x6,x13,x10	 x13:0x80025ce4 x10:0xffe22208  x6=0xfffe889c
     1039297000	     51863	80006fd4	025811b3	mulh	x3,x16,x5	 x16:0x00000200  x5:0x00000000  x3=0x00000000
     1039317000	     51864	80006fd8	8be2	c.mv	x23,x24	  x0:0x00000000 x24:0x00000004 x23=0x00000004
     1039357000	     51866	80006fda	024fa1b3	mulhsu	x3,x31,x4	 x31:0xfffffd0c  x4:0x1105d000  x3=0xffffffcd
     1039377000	     51867	80006fde	02cc84b3	mul	x9,x25,x12	 x25:0xffffffda x12:0x0eeefb97  x9=0xc886a796
     1039397000	     51868	80006fe2	8c71	c.and	x8,x12	  x8:0x00000248 x12:0x0eeefb97  x8=0x00000200
     1039417000	     51869	80006fe4	0789	c.addi	x15,2	 x15:0x00000008 x15=0x0000000a
     1039677000	     51882	80006fe6	003cd833	srl	x16,x25,x3	 x25:0xffffffda  x3:0xffffffcd x16=0x0007ffff
     1039697000	     51883	80006fea	9b1a	c.add	x22,x6	 x22:0x00002000  x6:0xfffe889c x22=0xfffea89c
     1039717000	     51884	80006fec	b06e90f3	csrrw	x1,mhpmcounter6,x29	 x29:0x00000001  x1=0xea9ef0b4
     1039777000	     51887	80006ff0	02e15d63	bge	x2,x14,8000702a	  x2:0x000001a8 x14:0x000002d8
     1039857000	     51891	80006ff4	00d2a033	slt	x0,x5,x13	  x5:0x00000000 x13:0x80025ce4  x0=0x00000000
     1039917000	     51894	80006ff8	039e9c63	bne	x29,x25,80007030	 x29:0x00000001 x25:0xffffffda
     1040757000	     51936	80007030	03c21eb3	mulh	x29,x4,x28	  x4:0x1105d000 x28:0x00000001 x29=0x00000000
     1041097000	     51953	80007034	dd73a737	lui	x14,0xdd73a	 x14=0xdd73a000
     1041837000	     51990	80007038	03ecfc33	remu	x24,x25,x30	 x25:0xffffffda x30:0xfffffc08 x24=0x000003d2
     1041857000	     51991	8000703c	340f1373	csrrw	x6,mscratch,x30	 x30:0xfffffc08  x6=0x00000000
     1042597000	     52028	80007040	024ef233	remu	x4,x29,x4	 x29:0x00000000  x4:0x1105d000  x4=0x00000000
     1042617000	     52029	80007044	00a19433	sll	x8,x3,x10	  x3:0xffffffcd x10:0xffe22208  x8=0xffffcd00
     1042637000	     52030	80007048	02d50933	mul	x18,x10,x13	 x10:0xffe22208 x13:0x80025ce4 x18=0x6db12f20
     1042657000	     52031	8000704c	03885e63	bge	x16,x24,80007088	 x16:0x0007ffff x24:0x000003d2
     1044197000	     52108	80007088	0306d0b3	divu	x1,x13,x16	 x13:0x80025ce4 x16:0x0007ffff  x1=0x00001000
     1044217000	     52109	8000708c	8f29	c.xor	x14,x10	 x14:0xdd73a000 x10:0xffe22208 x14=0x22918208
     1044237000	     52110	8000708e	0003fdb3	and	x27,x7,x0	  x7:0x00000000  x0:0x00000000 x27=0x00000000
     1044257000	     52111	80007092	01e39a13	slli	x20,x7,0x1e	  x7:0x00000000 x20=0x00000000
     1044277000	     52112	80007096	00e0cdb3	xor	x27,x1,x14	  x1:0x00001000 x14:0x22918208 x27=0x22919208
     1044297000	     52113	8000709a	e499	c.bnez	x9,800070a8	  x9:0xc886a796
     1045217000	     52159	800070a8	8c85	c.sub	x9,x9	  x9:0xc886a796  x9:0xc886a796  x9=0x00000000
     1045237000	     52160	800070aa	0000100f	fence.i	
     1046137000	     52205	800070ae	9a4d4237	lui	x4,0x9a4d4	  x4=0x9a4d4000
     1046157000	     52206	800070b2	4ab9	c.li	x21,14	 x21=0x0000000e
     1046177000	     52207	800070b4	fd447e13	andi	x28,x8,-44	  x8:0xffffcd00 x28=0xffffcd00
     1057877000	     52792	800070b8	b0731173	csrrw	x2,mhpmcounter7,x6	  x6:0x00000000  x2=0x0000001d
     1057937000	     52795	800070bc	49e62e13	slti	x28,x12,1182	 x12:0x0eeefb97 x28=0x00000000
     1057957000	     52796	800070c0	41efd613	srai	x12,x31,0x1e	 x31:0xfffffd0c x12=0xffffffff
     1057977000	     52797	800070c4	b8066173	csrrsi	x2,mcycleh,12	  x2=0x00000004
     1058037000	     52800	800070c8	0190dfb3	srl	x31,x1,x25	  x1:0x00001000 x25:0xffffffda x31=0x00000000
     1058057000	     52801	800070cc	8845	c.andi	x8,17	  x8:0xffffcd00  x8=0x00000000
     1058077000	     52802	800070ce	0001	c.addi	x0,0	  x0:0x00000000  x0=0x00000000
     1058097000	     52803	800070d0	843d	c.srai	x8,0xf	  x8:0x00000000  x8=0x00000000
     1058137000	     52805	800070d2	011e98b3	sll	x17,x29,x17	 x29:0x00000000 x17:0x99cc3c00 x17=0x00000000
     1058157000	     52806	800070d6	4065d193	srai	x3,x11,0x6	 x11:0x80021e64  x3=0xfe000879
     1058277000	     52812	800070da	0432f263	bgeu	x5,x3,8000711e	  x5:0x00000000  x3:0xfe000879
     1058697000	     52833	800070de	004a5b93	srli	x23,x20,0x4	 x20:0x00000000 x23=0x00000000
     1058717000	     52834	800070e2	343074f3	csrrci	x9,mtval,0	  x9=0xf13a5ff3
     1058737000	     52835	800070e6	9a7d	c.andi	x12,-1	 x12:0xffffffff x12=0xffffffff
     1058757000	     52836	800070e8	00fe58b3	srl	x17,x28,x15	 x28:0x00000000 x15:0x0000000a x17=0x00000000
     1059157000	     52856	800070ec	997d	c.andi	x10,-1	 x10:0xffe22208 x10=0xffe22208
     1059177000	     52857	800070ee	960a	c.add	x12,x2	 x12:0xffffffff  x2:0x00000004 x12=0x00000003
     1059197000	     52858	800070f0	408c0a33	sub	x20,x24,x8	 x24:0x000003d2  x8:0x00000000 x20=0x000003d2
     1059217000	     52859	800070f4	717d	c.addi16sp	x2,-16	  x2:0x00000004  x2=0xfffffff4
     1059257000	     52861	800070f6	033d3c33	mulhu	x24,x26,x19	 x26:0x00000001 x19:0xfffffc00 x24=0x00000000
     1059277000	     52862	800070fa	4e94f193	andi	x3,x9,1257	  x9:0xf13a5ff3  x3=0x000004e1
     1059297000	     52863	800070fe	808d0613	addi	x12,x26,-2040	 x26:0x00000001 x12=0xfffff809
     1060037000	     52900	80007102	02235f33	divu	x30,x6,x2	  x6:0x00000000  x2:0xfffffff4 x30=0x00000000
     1060057000	     52901	80007106	e9407913	andi	x18,x0,-364	  x0:0x00000000 x18=0x00000000
     1060797000	     52938	8000710a	02f05433	divu	x8,x0,x15	  x0:0x00000000 x15:0x0000000a  x8=0x00000000
     1060817000	     52939	8000710e	93580093	addi	x1,x16,-1739	 x16:0x0007ffff  x1=0x0007f934
     1060837000	     52940	80007112	a5d07413	andi	x8,x0,-1443	  x0:0x00000000  x8=0x00000000
     1060857000	     52941	80007116	ac5ba237	lui	x4,0xac5ba	  x4=0xac5ba000
     1060897000	     52943	8000711a	0228ad33	mulhsu	x26,x17,x2	 x17:0x00000000  x2:0xfffffff4 x26=0x00000000
     1060917000	     52944	8000711e	8419	c.srai	x8,0x6	  x8:0x00000000  x8=0x00000000
     1060937000	     52945	80007120	3ec368b7	lui	x17,0x3ec36	 x17=0x3ec36000
     1061097000	     52953	80007124	01f06eb3	or	x29,x0,x31	  x0:0x00000000 x31:0x00000000 x29=0x00000000
     1061117000	     52954	80007128	be09ce13	xori	x28,x19,-1056	 x19:0xfffffc00 x28=0x000007e0
     1061517000	     52974	8000712c	021c1fb3	mulh	x31,x24,x1	 x24:0x00000000  x1:0x0007f934 x31=0x00000000
     1061677000	     52982	80007130	8791	c.srai	x15,0x4	 x15:0x0000000a x15=0x00000000
     1061697000	     52983	80007132	05ace163	bltu	x25,x26,80007174	 x25:0xffffffda x26:0x00000000
     1062097000	     53003	80007136	01669893	slli	x17,x13,0x16	 x13:0x80025ce4 x17=0x39000000
     1062117000	     53004	8000713a	c799	c.beqz	x15,80007148	 x15:0x00000000
     1063097000	     53053	80007148	0001	c.addi	x0,0	  x0:0x00000000  x0=0x00000000
     1063117000	     53054	8000714a	0000100f	fence.i	
     1063297000	     53063	8000714e	ef15	c.bnez	x14,8000718a	 x14:0x22918208
     1063597000	     53078	8000718a	03d1ce33	div	x28,x3,x29	  x3:0x000004e1 x29:0x00000000 x28=0xffffffff
     1064017000	     53099	8000718e	03c039b3	mulhu	x19,x0,x28	  x0:0x00000000 x28:0xffffffff x19=0x00000000
     1064037000	     53100	80007192	8b41	c.andi	x14,16	 x14:0x22918208 x14=0x00000000
     1064057000	     53101	80007194	3a007973	csrrci	x18,pmpcfg0,0	 x18=0x0f0f0f0f
     1064077000	     53102	80007198	0000100f	fence.i	
     1064837000	     53140	8000719c	ae33cb13	xori	x22,x7,-1309	  x7:0x00000000 x22=0xfffffae3
     1064877000	     53142	800071a0	00615493	srli	x9,x2,0x6	  x2:0xfffffff4  x9=0x03ffffff
     1065157000	     53156	800071a4	0965	c.addi	x18,25	 x18:0x0f0f0f0f x18=0x0f0f0f28
     1065177000	     53157	800071a6	0179d613	srli	x12,x19,0x17	 x19:0x00000000 x12=0x00000000
     1065597000	     53178	800071aa	1e28e093	ori	x1,x17,482	 x17:0x39000000  x1=0x390001e2
     1065617000	     53179	800071ae	9bfd	c.andi	x15,-1	 x15:0x00000000 x15=0x00000000
     1066737000	     53235	800071b0	02a0dbb3	divu	x23,x1,x10	  x1:0x390001e2 x10:0xffe22208 x23=0x00000000
     1066757000	     53236	800071b4	b0525073	csrrwi	x0,mhpmcounter5,4	  x0=0x00000000
     1066817000	     53239	800071b8	328e3af3	csrrc	x21,mhpmevent8,x28	 x28:0xffffffff x21=0x00000020
     1066877000	     53242	800071bc	005daab3	slt	x21,x27,x5	 x27:0x22919208  x5:0x00000000 x21=0x00000000
     1066897000	     53243	800071c0	011de963	bltu	x27,x17,800071d2	 x27:0x22919208 x17:0x39000000
     1067577000	     53277	800071d2	8de2	c.mv	x27,x24	  x0:0x00000000 x24:0x00000000 x27=0x00000000
     1067697000	     53283	800071d4	40d1d793	srai	x15,x3,0xd	  x3:0x000004e1 x15=0x00000000
     1067717000	     53284	800071d8	e29b4d13	xori	x26,x22,-471	 x22:0xfffffae3 x26=0x000004ca
     1067737000	     53285	800071dc	89fe	c.mv	x19,x31	  x0:0x00000000 x31:0x00000000 x19=0x00000000
     1067757000	     53286	800071de	01d71e93	slli	x29,x14,0x1d	 x14:0x00000000 x29=0x00000000
     1067777000	     53287	800071e2	419a04b3	sub	x9,x20,x25	 x20:0x000003d2 x25:0xffffffda  x9=0x000003f8
     1067797000	     53288	800071e6	8fb1	c.xor	x15,x12	 x15:0x00000000 x12:0x00000000 x15=0x00000000
     1067817000	     53289	800071e8	8221	c.srli	x12,0x8	 x12:0x00000000 x12=0x00000000
     1067837000	     53290	800071ea	8e05	c.sub	x12,x9	 x12:0x00000000  x9:0x000003f8 x12=0xfffffc08
     1067877000	     53292	800071ec	03efd433	divu	x8,x31,x30	 x31:0x00000000 x30:0x00000000  x8=0xffffffff
     1067897000	     53293	800071f0	4055dbb3	sra	x23,x11,x5	 x11:0x80021e64  x5:0x00000000 x23=0x80021e64
     1068017000	     53299	800071f4	41405113	srai	x2,x0,0x14	  x0:0x00000000  x2=0x00000000
     1068037000	     53300	800071f8	8cfd	c.and	x9,x15	  x9:0x000003f8 x15:0x00000000  x9=0x00000000
     1068077000	     53302	800071fa	035f5ab3	divu	x21,x30,x21	 x30:0x00000000 x21:0x00000000 x21=0xffffffff
     1068097000	     53303	800071fe	0bee	c.slli	x23,0x1b	 x23:0x80021e64 x23=0x20000000
     1068177000	     53307	80007200	0001	c.addi	x0,0	  x0:0x00000000  x0=0x00000000
     1069317000	     53364	80007202	03607333	remu	x6,x0,x22	  x0:0x00000000 x22:0xfffffae3  x6=0x00000000
     1069357000	     53366	80007206	039e3133	mulhu	x2,x28,x25	 x28:0xffffffff x25:0xffffffda  x2=0xffffffd9
     1069377000	     53367	8000720a	717d	c.addi16sp	x2,-16	  x2:0xffffffd9  x2=0xffffffc9
     1069397000	     53368	8000720c	8d39	c.xor	x10,x14	 x10:0xffe22208 x14:0x00000000 x10=0xffe22208
     1069417000	     53369	8000720e	7c1069f3	csrrsi	x19,0x7c1,0	 x19=0x00000000
     1069437000	     53370	80007212	6619	c.lui	x12,0x6	 x12=0x00006000
     1069457000	     53371	80007214	69f9	c.lui	x19,0x1e	 x19=0x0001e000
     1069477000	     53372	80007216	4dcab513	sltiu	x10,x21,1244	 x21:0xffffffff x10=0x00000000
     1069497000	     53373	8000721a	014992b3	sll	x5,x19,x20	 x19:0x0001e000 x20:0x000003d2  x5=0x80000000
     1069517000	     53374	8000721e	8019	c.srli	x8,0x6	  x8:0xffffffff  x8=0x03ffffff
     1069597000	     53378	80007220	021aa2b3	mulhsu	x5,x21,x1	 x21:0xffffffff  x1:0x390001e2  x5=0xffffffff
     1069617000	     53379	80007224	f0057e93	andi	x29,x10,-256	 x10:0x00000000 x29=0x00000000
     1069697000	     53383	80007228	01fc5463	bge	x24,x31,80007230	 x24:0x00000000 x31:0x00000000
     1070037000	     53400	80007230	01afeeb3	or	x29,x31,x26	 x31:0x00000000 x26:0x000004ca x29=0x000004ca
     1070077000	     53402	80007234	b88ad973	csrrwi	x18,mhpmcounter8h,21	 x18=0x00000000
     1070157000	     53406	80007238	8d11	c.sub	x10,x12	 x10:0x00000000 x12:0x00006000 x10=0xffffa000
     1070257000	     53411	8000723a	03253b33	mulhu	x22,x10,x18	 x10:0xffffa000 x18:0x00000000 x22=0x00000000
     1070557000	     53426	8000723e	038418b3	mulh	x17,x8,x24	  x8:0x03ffffff x24:0x00000000 x17=0x00000000
     1070957000	     53446	80007242	0071a833	slt	x16,x3,x7	  x3:0x000004e1  x7:0x00000000 x16=0x00000000
     1070977000	     53447	80007246	c54de413	ori	x8,x27,-940	 x27:0x00000000  x8=0xfffffc54
     1071217000	     53459	8000724a	436c8313	addi	x6,x25,1078	 x25:0xffffffda  x6=0x00000410
     1071437000	     53470	8000724e	02f4c133	div	x2,x9,x15	  x9:0x00000000 x15:0x00000000  x2=0xffffffff
     1071457000	     53471	80007252	0001	c.addi	x0,0	  x0:0x00000000  x0=0x00000000
     1071617000	     53479	80007254	864d	c.srai	x12,0x13	 x12:0x00006000 x12=0x00000000
     1071637000	     53480	80007256	3a3070f3	csrrci	x1,pmpcfg3,0	  x1=0x0f0f0f0f
     1071837000	     53490	8000725a	ec8ffab7	lui	x21,0xec8ff	 x21=0xec8ff000
     1071857000	     53491	8000725e	8045	c.srli	x8,0x11	  x8:0xfffffc54  x8=0x00007fff
     1071877000	     53492	80007260	8f8d	c.sub	x15,x11	 x15:0x00000000 x11:0x80021e64 x15=0x7ffde19c
     1071897000	     53493	80007262	03af7663	bgeu	x30,x26,8000728e	 x30:0x00000000 x26:0x000004ca
     1071917000	     53494	80007266	6131	c.addi16sp	x2,320	  x2:0xffffffff  x2=0x0000013f
     1071937000	     53495	80007268	e139	c.bnez	x10,800072ae	 x10:0xffffa000
     1072437000	     53520	800072ae	1ffd	c.addi	x31,-1	 x31:0x00000000 x31=0xffffffff
     1072717000	     53534	800072b0	8d35	c.xor	x10,x13	 x10:0xffffa000 x13:0x80025ce4 x10=0x7ffdfce4
     1072737000	     53535	800072b2	8fb5	c.xor	x15,x13	 x15:0x7ffde19c x13:0x80025ce4 x15=0xffffbd78
     1073077000	     53552	800072b4	034fa133	mulhsu	x2,x31,x20	 x31:0xffffffff x20:0x000003d2  x2=0xffffffff
     1073237000	     53560	800072b8	4172db93	srai	x23,x5,0x17	  x5:0xffffffff x23=0xffffffff
     1073417000	     53569	800072bc	ce05	c.beqz	x12,800072f4	 x12:0x00000000
     1074097000	     53603	800072f4	8fb9	c.xor	x15,x14	 x15:0xffffbd78 x14:0x00000000 x15=0xffffbd78
     1074417000	     53619	800072f6	019fc533	xor	x10,x31,x25	 x31:0xffffffff x25:0xffffffda x10=0x00000025
     1074437000	     53620	800072fa	919e	c.add	x3,x7	  x3:0x000004e1  x7:0x00000000  x3=0x000004e1
     1074837000	     53640	800072fc	00d27ab3	and	x21,x4,x13	  x4:0xac5ba000 x13:0x80025ce4 x21=0x80020000
     1074857000	     53641	80007300	0350c763	blt	x1,x21,8000732e	  x1:0x0f0f0f0f x21:0x80020000
     1075277000	     53662	80007304	035ceb63	bltu	x25,x21,8000733a	 x25:0xffffffda x21:0x80020000
     1075377000	     53667	80007308	0146fdb3	and	x27,x13,x20	 x13:0x80025ce4 x20:0x000003d2 x27=0x000000c0
     1075397000	     53668	8000730c	0149a133	slt	x2,x19,x20	 x19:0x0001e000 x20:0x000003d2  x2=0x00000000
     1075417000	     53669	80007310	6161	c.addi16sp	x2,80	  x2:0x00000000  x2=0x00000050
     1075437000	     53670	80007312	0411	c.addi	x8,4	  x8:0x00007fff  x8=0x00008003
     1076177000	     53707	80007314	0260f833	remu	x16,x1,x6	  x1:0x0f0f0f0f  x6:0x00000410 x16=0x0000000f
     1076197000	     53708	80007318	8529	c.srai	x10,0xa	 x10:0x00000025 x10=0x00000000
     1076217000	     53709	8000731a	0001	c.addi	x0,0	  x0:0x00000000  x0=0x00000000
     1076237000	     53710	8000731c	11a6ca13	xori	x20,x13,282	 x13:0x80025ce4 x20=0x80025dfe
     1076257000	     53711	80007320	f11d7773	csrrci	x0,mvendorid,26	  x0=0x00000000
     1077197000	     53758	80002500	0800006f	jal	x0,80002580	  x0=0x00000000
     1077517000	     53774	80002580	16f1	c.addi	x13,-4	 x13:0x80025ce4 x13=0x80025ce0
     1077577000	     53777	80002582	c28c	c.sw	x11,0(x13)	 x13:0x80025ce0 x11:0x80021e64 PA:0x80025ce0 store:0x80021e64 load:0xffffffff
     1077637000	     53780	80002584	000685b3	add	x11,x13,x0	 x13:0x80025ce0  x0:0x00000000 x11=0x80025ce0
     1077657000	     53781	80002588	f8058593	addi	x11,x11,-128	 x11:0x80025ce0 x11=0x80025c60
     1078017000	     53799	8000258c	0015a223	sw	x1,4(x11)	 x11:0x80025c60  x1:0x0f0f0f0f PA:0x80025c64 store:0x0f0f0f0f load:0xffffffff
     1078077000	     53802	80002590	0025a423	sw	x2,8(x11)	 x11:0x80025c60  x2:0x00000050 PA:0x80025c68 store:0x00000050 load:0xffffffff
     1078777000	     53837	80002594	0035a623	sw	x3,12(x11)	 x11:0x80025c60  x3:0x000004e1 PA:0x80025c6c store:0x000004e1 load:0xffffffff
     1079177000	     53857	80002598	0045a823	sw	x4,16(x11)	 x11:0x80025c60  x4:0xac5ba000 PA:0x80025c70 store:0xac5ba000 load:0xffffffff
     1079257000	     53861	8000259c	0055aa23	sw	x5,20(x11)	 x11:0x80025c60  x5:0xffffffff PA:0x80025c74 store:0xffffffff load:0xffffffff
     1079437000	     53870	800025a0	0065ac23	sw	x6,24(x11)	 x11:0x80025c60  x6:0x00000410 PA:0x80025c78 store:0x00000410 load:0xffffffff
     1079537000	     53875	800025a4	0075ae23	sw	x7,28(x11)	 x11:0x80025c60  x7:0x00000000 PA:0x80025c7c store:0x00000000 load:0xffffffff
     1079597000	     53878	800025a8	d180	c.sw	x8,32(x11)	 x11:0x80025c60  x8:0x00008003 PA:0x80025c80 store:0x00008003 load:0xffffffff
     1079797000	     53888	800025aa	d1c4	c.sw	x9,36(x11)	 x11:0x80025c60  x9:0x00000000 PA:0x80025c84 store:0x00000000 load:0xffffffff
     1079937000	     53895	800025ac	d588	c.sw	x10,40(x11)	 x11:0x80025c60 x10:0x00000000 PA:0x80025c88 store:0x00000000 load:0xffffffff
     1080397000	     53918	800025ae	d5cc	c.sw	x11,44(x11)	 x11:0x80025c60 x11:0x80025c60 PA:0x80025c8c store:0x80025c60 load:0xffffffff
     1080517000	     53924	800025b0	d990	c.sw	x12,48(x11)	 x11:0x80025c60 x12:0x00000000 PA:0x80025c90 store:0x00000000 load:0xffffffff
     1080577000	     53927	800025b2	d9d4	c.sw	x13,52(x11)	 x11:0x80025c60 x13:0x80025ce0 PA:0x80025c94 store:0x80025ce0 load:0xffffffff
     1080997000	     53948	800025b4	dd98	c.sw	x14,56(x11)	 x11:0x80025c60 x14:0x00000000 PA:0x80025c98 store:0x00000000 load:0xffffffff
     1081057000	     53951	800025b6	dddc	c.sw	x15,60(x11)	 x11:0x80025c60 x15:0xffffbd78 PA:0x80025c9c store:0xffffbd78 load:0xffffffff
     1081177000	     53957	800025b8	0505a023	sw	x16,64(x11)	 x11:0x80025c60 x16:0x0000000f PA:0x80025ca0 store:0x0000000f load:0xffffffff
     1081237000	     53960	800025bc	0515a223	sw	x17,68(x11)	 x11:0x80025c60 x17:0x00000000 PA:0x80025ca4 store:0x00000000 load:0xffffffff
     1081397000	     53968	800025c0	0525a423	sw	x18,72(x11)	 x11:0x80025c60 x18:0x00000000 PA:0x80025ca8 store:0x00000000 load:0xffffffff
     1081597000	     53978	800025c4	0535a623	sw	x19,76(x11)	 x11:0x80025c60 x19:0x0001e000 PA:0x80025cac store:0x0001e000 load:0xffffffff
     1081657000	     53981	800025c8	0545a823	sw	x20,80(x11)	 x11:0x80025c60 x20:0x80025dfe PA:0x80025cb0 store:0x80025dfe load:0xffffffff
     1081857000	     53991	800025cc	0555aa23	sw	x21,84(x11)	 x11:0x80025c60 x21:0x80020000 PA:0x80025cb4 store:0x80020000 load:0xffffffff
     1082057000	     54001	800025d0	0565ac23	sw	x22,88(x11)	 x11:0x80025c60 x22:0x00000000 PA:0x80025cb8 store:0x00000000 load:0xffffffff
     1082117000	     54004	800025d4	0575ae23	sw	x23,92(x11)	 x11:0x80025c60 x23:0xffffffff PA:0x80025cbc store:0xffffffff load:0xffffffff
     1113017000	     55549	800025d8	0785a023	sw	x24,96(x11)	 x11:0x80025c60 x24:0x00000000 PA:0x80025cc0 store:0x00000000 load:0xffffffff
     1113457000	     55571	800025dc	0795a223	sw	x25,100(x11)	 x11:0x80025c60 x25:0xffffffda PA:0x80025cc4 store:0xffffffda load:0xffffffff
     1113557000	     55576	800025e0	07a5a423	sw	x26,104(x11)	 x11:0x80025c60 x26:0x000004ca PA:0x80025cc8 store:0x000004ca load:0xffffffff
     1113597000	     55578	800025e4	07b5a623	sw	x27,108(x11)	 x11:0x80025c60 x27:0x000000c0 PA:0x80025ccc store:0x000000c0 load:0xffffffff
     1113617000	     55579	800025e8	07c5a823	sw	x28,112(x11)	 x11:0x80025c60 x28:0xffffffff PA:0x80025cd0 store:0xffffffff load:0xffffffff
     1113817000	     55589	800025ec	07d5aa23	sw	x29,116(x11)	 x11:0x80025c60 x29:0x000004ca PA:0x80025cd4 store:0x000004ca load:0xffffffff
     1113877000	     55592	800025f0	07e5ac23	sw	x30,120(x11)	 x11:0x80025c60 x30:0x00000000 PA:0x80025cd8 store:0x00000000 load:0xffffffff
     1114257000	     55611	800025f4	07f5ae23	sw	x31,124(x11)	 x11:0x80025c60 x31:0xffffffff PA:0x80025cdc store:0xffffffff load:0xffffffff
     1114277000	     55612	800025f8	000586b3	add	x13,x11,x0	 x11:0x80025c60  x0:0x00000000 x13=0x80025c60
     1114297000	     55613	800025fc	90000db7	lui	x27,0x90000	 x27=0x90000000
     1114317000	     55614	80002600	1df1	c.addi	x27,-4	 x27:0x90000000 x27=0x8ffffffc
     1114337000	     55615	80002602	4921	c.li	x18,8	 x18=0x00000008
     1114357000	     55616	80002604	0922	c.slli	x18,0x8	 x18:0x00000008 x18=0x00000800
     1114497000	     55623	80002606	00090913	addi	x18,x18,0	 x18:0x00000800 x18=0x00000800
     1114917000	     55644	8000260a	012da023	sw	x18,0(x27)	 x27:0x8ffffffc x18:0x00000800 PA:0x8ffffffc store:0x00000800 load:0xffffffff
     1114937000	     55645	8000260e	34102973	csrrs	x18,mepc,x0	  x0:0x00000000 x18=0x80007320
     1115237000	     55660	80002612	34202973	csrrs	x18,mcause,x0	  x0:0x00000000 x18=0x00000002
     1115257000	     55661	80002616	4d8d	c.li	x27,3	 x27=0x00000003
     1115617000	     55679	80002618	01b91463	bne	x18,x27,80002620	 x18:0x00000002 x27:0x00000003
     1116517000	     55724	80002620	4da1	c.li	x27,8	 x27=0x00000008
     1116537000	     55725	80002622	05b90d63	beq	x18,x27,8000267c	 x18:0x00000002 x27:0x00000008
     1116557000	     55726	80002626	4da5	c.li	x27,9	 x27=0x00000009
     1116577000	     55727	80002628	05b90a63	beq	x18,x27,8000267c	 x18:0x00000002 x27:0x00000009
     1116597000	     55728	8000262c	4dad	c.li	x27,11	 x27=0x0000000b
     1116617000	     55729	8000262e	05b90763	beq	x18,x27,8000267c	 x18:0x00000002 x27:0x0000000b
     1116637000	     55730	80002632	4d85	c.li	x27,1	 x27=0x00000001
     1116657000	     55731	80002634	35b90363	beq	x18,x27,8000297a	 x18:0x00000002 x27:0x00000001
     1116697000	     55733	80002638	4d95	c.li	x27,5	 x27=0x00000005
     1116857000	     55741	8000263a	63b90963	beq	x18,x27,80002c6c	 x18:0x00000002 x27:0x00000005
     1116877000	     55742	8000263e	4d9d	c.li	x27,7	 x27=0x00000007
     1116897000	     55743	80002640	15b90ae3	beq	x18,x27,80002f94	 x18:0x00000002 x27:0x00000007
     1117317000	     55764	80002644	4db1	c.li	x27,12	 x27=0x0000000c
     1117357000	     55766	80002646	01b91463	bne	x18,x27,8000264e	 x18:0x00000002 x27:0x0000000c
     1118217000	     55809	8000264e	4db5	c.li	x27,13	 x27=0x0000000d
     1118417000	     55819	80002650	01b91463	bne	x18,x27,80002658	 x18:0x00000002 x27:0x0000000d
     1118957000	     55846	80002658	4dbd	c.li	x27,15	 x27=0x0000000f
     1118977000	     55847	8000265a	01b91463	bne	x18,x27,80002662	 x18:0x00000002 x27:0x0000000f
     1119037000	     55850	80002662	4d89	c.li	x27,2	 x27=0x00000002
     1119057000	     55851	80002664	01b91463	bne	x18,x27,8000266c	 x18:0x00000002 x27:0x00000002
     1119337000	     55865	80002668	45c0906f	jal	x0,8000bac4	  x0=0x00000000
     1120877000	     55942	8000bac4	90000db7	lui	x27,0x90000	 x27=0x90000000
     1120917000	     55944	8000bac8	1df1	c.addi	x27,-4	 x27:0x90000000 x27=0x8ffffffc
     1120937000	     55945	8000baca	4929	c.li	x18,10	 x18=0x0000000a
     1120957000	     55946	8000bacc	0922	c.slli	x18,0x8	 x18:0x0000000a x18=0x00000a00
     1120977000	     55947	8000bace	00090913	addi	x18,x18,0	 x18:0x00000a00 x18=0x00000a00
     1121037000	     55950	8000bad2	012da023	sw	x18,0(x27)	 x27:0x8ffffffc x18:0x00000a00 PA:0x8ffffffc store:0x00000a00 load:0xffffffff
     1121057000	     55951	8000bad6	90000db7	lui	x27,0x90000	 x27=0x90000000
     1121077000	     55952	8000bada	1df1	c.addi	x27,-4	 x27:0x90000000 x27=0x8ffffffc
     1121117000	     55954	8000badc	34200913	addi	x18,x0,834	  x0:0x00000000 x18=0x00000342
     1121677000	     55982	8000bae0	0922	c.slli	x18,0x8	 x18:0x00000342 x18=0x00034200
     1121697000	     55983	8000bae2	090d	c.addi	x18,3	 x18:0x00034200 x18=0x00034203
     1121757000	     55986	8000bae4	012da023	sw	x18,0(x27)	 x27:0x8ffffffc x18:0x00034203 PA:0x8ffffffc store:0x00034203 load:0xffffffff
     1121777000	     55987	8000bae8	34202973	csrrs	x18,mcause,x0	  x0:0x00000000 x18=0x00000002
     1121897000	     55993	8000baec	012da023	sw	x18,0(x27)	 x27:0x8ffffffc x18:0x00000002 PA:0x8ffffffc store:0x00000002 load:0xffffffff
     1122037000	     56000	8000baf0	34102973	csrrs	x18,mepc,x0	  x0:0x00000000 x18=0x80007320
     1122457000	     56021	8000baf4	0911	c.addi	x18,4	 x18:0x80007320 x18=0x80007324
     1122477000	     56022	8000baf6	34191073	csrrw	x0,mepc,x18	 x18:0x80007324  x0=0x00000000
     1122497000	     56023	8000bafa	000685b3	add	x11,x13,x0	 x13:0x80025c60  x0:0x00000000 x11=0x80025c60
     1122957000	     56046	8000bafe	0045a083	lw	x1,4(x11)	 x11:0x80025c60  x1=0x0f0f0f0f PA:0x80025c64 load:0x0f0f0f0f
     1123197000	     56058	8000bb02	0085a103	lw	x2,8(x11)	 x11:0x80025c60  x2=0x00000050 PA:0x80025c68 load:0x00000050
     1123657000	     56081	8000bb06	00c5a183	lw	x3,12(x11)	 x11:0x80025c60  x3=0x000004e1 PA:0x80025c6c load:0x000004e1
     1123817000	     56089	8000bb0a	0105a203	lw	x4,16(x11)	 x11:0x80025c60  x4=0xac5ba000 PA:0x80025c70 load:0xac5ba000
     1123877000	     56092	8000bb0e	0145a283	lw	x5,20(x11)	 x11:0x80025c60  x5=0xffffffff PA:0x80025c74 load:0xffffffff
     1124297000	     56113	8000bb12	0185a303	lw	x6,24(x11)	 x11:0x80025c60  x6=0x00000410 PA:0x80025c78 load:0x00000410
     1124377000	     56117	8000bb16	01c5a383	lw	x7,28(x11)	 x11:0x80025c60  x7=0x00000000 PA:0x80025c7c load:0x00000000
     1124397000	     56118	8000bb1a	5180	c.lw	x8,32(x11)	 x11:0x80025c60  x8=0x00008003 PA:0x80025c80 load:0x00008003
     1124437000	     56120	8000bb1c	51c4	c.lw	x9,36(x11)	 x11:0x80025c60  x9=0x00000000 PA:0x80025c84 load:0x00000000
     1124837000	     56140	8000bb1e	5588	c.lw	x10,40(x11)	 x11:0x80025c60 x10=0x00000000 PA:0x80025c88 load:0x00000000
     1124937000	     56145	8000bb20	55cc	c.lw	x11,44(x11)	 x11:0x80025c60 x11=0x80025c60 PA:0x80025c8c load:0x80025c60
     1125017000	     56149	8000bb22	5990	c.lw	x12,48(x11)	 x11:0x80025c60 x12=0x00000000 PA:0x80025c90 load:0x00000000
     1125037000	     56150	8000bb24	59d4	c.lw	x13,52(x11)	 x11:0x80025c60 x13=0x80025ce0 PA:0x80025c94 load:0x80025ce0
     1125517000	     56174	8000bb26	5d98	c.lw	x14,56(x11)	 x11:0x80025c60 x14=0x00000000 PA:0x80025c98 load:0x00000000
     1125577000	     56177	8000bb28	5ddc	c.lw	x15,60(x11)	 x11:0x80025c60 x15=0xffffbd78 PA:0x80025c9c load:0xffffbd78
     1125697000	     56183	8000bb2a	0405a803	lw	x16,64(x11)	 x11:0x80025c60 x16=0x0000000f PA:0x80025ca0 load:0x0000000f
     1126117000	     56204	8000bb2e	0445a883	lw	x17,68(x11)	 x11:0x80025c60 x17=0x00000000 PA:0x80025ca4 load:0x00000000
     1126357000	     56216	8000bb32	0485a903	lw	x18,72(x11)	 x11:0x80025c60 x18=0x00000000 PA:0x80025ca8 load:0x00000000
     1126657000	     56231	8000bb36	04c5a983	lw	x19,76(x11)	 x11:0x80025c60 x19=0x0001e000 PA:0x80025cac load:0x0001e000
     1126717000	     56234	8000bb3a	0505aa03	lw	x20,80(x11)	 x11:0x80025c60 x20=0x80025dfe PA:0x80025cb0 load:0x80025dfe
     1126897000	     56243	8000bb3e	0545aa83	lw	x21,84(x11)	 x11:0x80025c60 x21=0x80020000 PA:0x80025cb4 load:0x80020000
     1127197000	     56258	8000bb42	0585ab03	lw	x22,88(x11)	 x11:0x80025c60 x22=0x00000000 PA:0x80025cb8 load:0x00000000
     1127277000	     56262	8000bb46	05c5ab83	lw	x23,92(x11)	 x11:0x80025c60 x23=0xffffffff PA:0x80025cbc load:0xffffffff
     1127397000	     56268	8000bb4a	0605ac03	lw	x24,96(x11)	 x11:0x80025c60 x24=0x00000000 PA:0x80025cc0 load:0x00000000
     1127457000	     56271	8000bb4e	0645ac83	lw	x25,100(x11)	 x11:0x80025c60 x25=0xffffffda PA:0x80025cc4 load:0xffffffda
     1127877000	     56292	8000bb52	0685ad03	lw	x26,104(x11)	 x11:0x80025c60 x26=0x000004ca PA:0x80025cc8 load:0x000004ca
     1127937000	     56295	8000bb56	06c5ad83	lw	x27,108(x11)	 x11:0x80025c60 x27=0x000000c0 PA:0x80025ccc load:0x000000c0
     1128117000	     56304	8000bb5a	0705ae03	lw	x28,112(x11)	 x11:0x80025c60 x28=0xffffffff PA:0x80025cd0 load:0xffffffff
     1128137000	     56305	8000bb5e	0745ae83	lw	x29,116(x11)	 x11:0x80025c60 x29=0x000004ca PA:0x80025cd4 load:0x000004ca
     1128317000	     56314	8000bb62	0785af03	lw	x30,120(x11)	 x11:0x80025c60 x30=0x00000000 PA:0x80025cd8 load:0x00000000
     1128597000	     56328	8000bb66	07c5af83	lw	x31,124(x11)	 x11:0x80025c60 x31=0xffffffff PA:0x80025cdc load:0xffffffff
     1128617000	     56329	8000bb6a	08058593	addi	x11,x11,128	 x11:0x80025c60 x11=0x80025ce0
     1128637000	     56330	8000bb6e	000586b3	add	x13,x11,x0	 x11:0x80025ce0  x0:0x00000000 x13=0x80025ce0
     1128897000	     56343	8000bb72	428c	c.lw	x11,0(x13)	 x13:0x80025ce0 x11=0x80021e64 PA:0x80025ce0 load:0x80021e64
     1128917000	     56344	8000bb74	0691	c.addi	x13,4	 x13:0x80025ce0 x13=0x80025ce4
     1128937000	     56345	8000bb76	30200073	mret	
     1128997000	     56348	80007324	0ff0000f	fence	iorw,iorw	
     1129057000	     56351	80007328	4ca47913	andi	x18,x8,1226	  x8:0x00008003 x18=0x00000002
     1129077000	     56352	8000732c	0001	c.addi	x0,0	  x0:0x00000000  x0=0x00000000
     1129137000	     56355	8000732e	00acd213	srli	x4,x25,0xa	 x25:0xffffffda  x4=0x003fffff
     1129157000	     56356	80007332	67ac2093	slti	x1,x24,1658	 x24:0x00000000  x1=0x00000001
     1129797000	     56388	80007336	5eacb8b7	lui	x17,0x5eacb	 x17=0x5eacb000
     1129817000	     56389	8000733a	9942	c.add	x18,x16	 x18:0x00000002 x16:0x0000000f x18=0x00000011
     1129837000	     56390	8000733c	41435b33	sra	x22,x6,x20	  x6:0x00000410 x20:0x80025dfe x22=0x00000000
     1129857000	     56391	80007340	7a202373	csrrs	x6,tdata2,x0	  x0:0x00000000  x6=0x00000000
     1130257000	     56411	80007344	3a87b913	sltiu	x18,x15,936	 x15:0xffffbd78 x18=0x00000000
     1130277000	     56412	80007348	f3a00313	addi	x6,x0,-198	  x0:0x00000000  x6=0xffffff3a
     1130297000	     56413	8000734c	40b0de93	srai	x29,x1,0xb	  x1:0x00000001 x29=0x00000000
     1130317000	     56414	80007350	12418b93	addi	x23,x3,292	  x3:0x000004e1 x23=0x00000605
     1130357000	     56416	80007354	047d4063	blt	x26,x7,80007394	 x26:0x000004ca  x7:0x00000000
     1130397000	     56418	80007358	01ab2433	slt	x8,x22,x26	 x22:0x00000000 x26:0x000004ca  x8=0x00000001
     1130537000	     56425	8000735c	b069dd73	csrrwi	x26,mhpmcounter6,19	 x26=0x00000025
     1130677000	     56432	80007360	8f8a	c.mv	x31,x2	  x0:0x00000000  x2:0x00000050 x31=0x00000050
     1130757000	     56436	80007362	3d69b713	sltiu	x14,x19,982	 x19:0x0001e000 x14=0x00000000
     1130877000	     56442	80007366	03bcd763	bge	x25,x27,80007394	 x25:0xffffffda x27:0x000000c0
     1131057000	     56451	8000736a	32606ef3	csrrsi	x29,mhpmevent6,0	 x29=0x00000008
     1132137000	     56505	8000736e	02426ab3	rem	x21,x4,x4	  x4:0x003fffff  x4:0x003fffff x21=0x00000000
     1132157000	     56506	80007372	7a3078f3	csrrci	x17,tdata3,0	 x17=0x00000000
     1132177000	     56507	80007376	00144d63	blt	x8,x1,80007390	  x8:0x00000001  x1:0x00000001
     1132197000	     56508	8000737a	025e0c63	beq	x28,x5,800073b2	 x28:0xffffffff  x5:0xffffffff
     1132877000	     56542	800073b2	00dca9b3	slt	x19,x25,x13	 x25:0xffffffda x13:0x80025ce4 x19=0x00000000
     1132897000	     56543	800073b6	c139	c.beqz	x10,800073fc	 x10:0x00000000
     1134537000	     56625	800073fc	015d1993	slli	x19,x26,0x15	 x26:0x00000025 x19=0x04a00000
     1134677000	     56632	80007400	7738cb13	xori	x22,x17,1907	 x17:0x00000000 x22=0x00000773
     1134697000	     56633	80007404	002c4133	xor	x2,x24,x2	 x24:0x00000000  x2:0x00000050  x2=0x00000050
     1134717000	     56634	80007408	919da093	slti	x1,x27,-1767	 x27:0x000000c0  x1=0x00000000
     1134737000	     56635	8000740c	006d8833	add	x16,x27,x6	 x27:0x000000c0  x6:0xffffff3a x16=0xfffffffa
     1134977000	     56647	80007410	8fbd	c.xor	x15,x15	 x15:0xffffbd78 x15:0xffffbd78 x15=0x00000000
     1134997000	     56648	80007412	61e9	c.lui	x3,0x1a	  x3=0x0001a000
     1135017000	     56649	80007414	9bfe	c.add	x23,x31	 x23:0x00000605 x31:0x00000050 x23=0x00000655
     1135037000	     56650	80007416	87b9	c.srai	x15,0xe	 x15:0x00000000 x15=0x00000000
     1135057000	     56651	80007418	01b8b9b3	sltu	x19,x17,x27	 x17:0x00000000 x27:0x000000c0 x19=0x00000001
     1135157000	     56656	8000741c	034b0433	mul	x8,x22,x20	 x22:0x00000773 x20:0x80025dfe  x8=0x91a22b1a
     1135197000	     56658	80007420	02de9b33	mulh	x22,x29,x13	 x29:0x00000008 x13:0x80025ce4 x22=0xfffffffc
     1135217000	     56659	80007424	8735	c.srai	x14,0xd	 x14:0x00000000 x14=0x00000000
     1135237000	     56660	80007426	cd503293	sltiu	x5,x0,-811	  x0:0x00000000  x5=0x00000001
     1135257000	     56661	8000742a	1e88	c.addi4spn	x10,x2,880	 x10=0x000003c0
     1135377000	     56667	8000742c	413cd213	srai	x4,x25,0x13	 x25:0xffffffda  x4=0xffffffff
     1135497000	     56673	80007430	c83ccc93	xori	x25,x25,-893	 x25:0xffffffda x25=0x00000359
     1135917000	     56694	80007434	0001	c.addi	x0,0	  x0:0x00000000  x0=0x00000000
     1136337000	     56715	80007436	00a36e33	or	x28,x6,x10	  x6:0xffffff3a x10:0x000003c0 x28=0xfffffffa
     1136357000	     56716	8000743a	01b33ab3	sltu	x21,x6,x27	  x6:0xffffff3a x27:0x000000c0 x21=0x00000000
     1136737000	     56735	8000743e	413fda33	sra	x20,x31,x19	 x31:0x00000050 x19:0x00000001 x20=0x00000028
     1136757000	     56736	80007442	8c45	c.or	x8,x9	  x8:0x91a22b1a  x9:0x00000000  x8=0x91a22b1a
     1136837000	     56740	80007444	396cef97	auipc	x31,0x396ce	 x31=0xb96d5444
     1137257000	     56761	80007448	015b7733	and	x14,x22,x21	 x22:0xfffffffc x21:0x00000000 x14=0x00000000
     1137597000	     56778	8000744c	0323b733	mulhu	x14,x7,x18	  x7:0x00000000 x18:0x00000000 x14=0x00000000
     1137617000	     56779	80007450	648fef93	ori	x31,x31,1608	 x31:0xb96d5444 x31=0xb96d564c
     1137637000	     56780	80007454	7b3071f3	csrrci	x0,0x7b3,0	  x0=0x00000000
     1137697000	     56783	80002500	0800006f	jal	x0,80002580	  x0=0x00000000
     1137757000	     56786	80002580	16f1	c.addi	x13,-4	 x13:0x80025ce4 x13=0x80025ce0
     1137817000	     56789	80002582	c28c	c.sw	x11,0(x13)	 x13:0x80025ce0 x11:0x80021e64 PA:0x80025ce0 store:0x80021e64 load:0xffffffff
     1137837000	     56790	80002584	000685b3	add	x11,x13,x0	 x13:0x80025ce0  x0:0x00000000 x11=0x80025ce0
     1137857000	     56791	80002588	f8058593	addi	x11,x11,-128	 x11:0x80025ce0 x11=0x80025c60
     1138377000	     56817	8000258c	0015a223	sw	x1,4(x11)	 x11:0x80025c60  x1:0x00000000 PA:0x80025c64 store:0x00000000 load:0xffffffff
     1138457000	     56821	80002590	0025a423	sw	x2,8(x11)	 x11:0x80025c60  x2:0x00000050 PA:0x80025c68 store:0x00000050 load:0xffffffff
     1138737000	     56835	80002594	0035a623	sw	x3,12(x11)	 x11:0x80025c60  x3:0x0001a000 PA:0x80025c6c store:0x0001a000 load:0xffffffff
     1139197000	     56858	80002598	0045a823	sw	x4,16(x11)	 x11:0x80025c60  x4:0xffffffff PA:0x80025c70 store:0xffffffff load:0xffffffff
     1139257000	     56861	8000259c	0055aa23	sw	x5,20(x11)	 x11:0x80025c60  x5:0x00000001 PA:0x80025c74 store:0x00000001 load:0xffffffff
     1139377000	     56867	800025a0	0065ac23	sw	x6,24(x11)	 x11:0x80025c60  x6:0xffffff3a PA:0x80025c78 store:0xffffff3a load:0xffffffff
     1139817000	     56889	800025a4	0075ae23	sw	x7,28(x11)	 x11:0x80025c60  x7:0x00000000 PA:0x80025c7c store:0x00000000 load:0xffffffff
     1139957000	     56896	800025a8	d180	c.sw	x8,32(x11)	 x11:0x80025c60  x8:0x91a22b1a PA:0x80025c80 store:0x91a22b1a load:0xffffffff
     1140017000	     56899	800025aa	d1c4	c.sw	x9,36(x11)	 x11:0x80025c60  x9:0x00000000 PA:0x80025c84 store:0x00000000 load:0xffffffff
     1140157000	     56906	800025ac	d588	c.sw	x10,40(x11)	 x11:0x80025c60 x10:0x000003c0 PA:0x80025c88 store:0x000003c0 load:0xffffffff
     1140217000	     56909	800025ae	d5cc	c.sw	x11,44(x11)	 x11:0x80025c60 x11:0x80025c60 PA:0x80025c8c store:0x80025c60 load:0xffffffff
     1140277000	     56912	800025b0	d990	c.sw	x12,48(x11)	 x11:0x80025c60 x12:0x00000000 PA:0x80025c90 store:0x00000000 load:0xffffffff
     1140337000	     56915	800025b2	d9d4	c.sw	x13,52(x11)	 x11:0x80025c60 x13:0x80025ce0 PA:0x80025c94 store:0x80025ce0 load:0xffffffff
     1140497000	     56923	800025b4	dd98	c.sw	x14,56(x11)	 x11:0x80025c60 x14:0x00000000 PA:0x80025c98 store:0x00000000 load:0xffffffff
     1140757000	     56936	800025b6	dddc	c.sw	x15,60(x11)	 x11:0x80025c60 x15:0x00000000 PA:0x80025c9c store:0x00000000 load:0xffffffff
     1155557000	     57676	800025b8	0505a023	sw	x16,64(x11)	 x11:0x80025c60 x16:0xfffffffa PA:0x80025ca0 store:0xfffffffa load:0xffffffff
     1155577000	     57677	800025bc	0515a223	sw	x17,68(x11)	 x11:0x80025c60 x17:0x00000000 PA:0x80025ca4 store:0x00000000 load:0xffffffff
     1155637000	     57680	800025c0	0525a423	sw	x18,72(x11)	 x11:0x80025c60 x18:0x00000000 PA:0x80025ca8 store:0x00000000 load:0xffffffff
     1155757000	     57686	800025c4	0535a623	sw	x19,76(x11)	 x11:0x80025c60 x19:0x00000001 PA:0x80025cac store:0x00000001 load:0xffffffff
     1155777000	     57687	800025c8	0545a823	sw	x20,80(x11)	 x11:0x80025c60 x20:0x00000028 PA:0x80025cb0 store:0x00000028 load:0xffffffff
     1155917000	     57694	800025cc	0555aa23	sw	x21,84(x11)	 x11:0x80025c60 x21:0x00000000 PA:0x80025cb4 store:0x00000000 load:0xffffffff
     1156137000	     57705	800025d0	0565ac23	sw	x22,88(x11)	 x11:0x80025c60 x22:0xfffffffc PA:0x80025cb8 store:0xfffffffc load:0xffffffff
     1156197000	     57708	800025d4	0575ae23	sw	x23,92(x11)	 x11:0x80025c60 x23:0x00000655 PA:0x80025cbc store:0x00000655 load:0xffffffff
     1156377000	     57717	800025d8	0785a023	sw	x24,96(x11)	 x11:0x80025c60 x24:0x00000000 PA:0x80025cc0 store:0x00000000 load:0xffffffff
     1156617000	     57729	800025dc	0795a223	sw	x25,100(x11)	 x11:0x80025c60 x25:0x00000359 PA:0x80025cc4 store:0x00000359 load:0xffffffff
     1156677000	     57732	800025e0	07a5a423	sw	x26,104(x11)	 x11:0x80025c60 x26:0x00000025 PA:0x80025cc8 store:0x00000025 load:0xffffffff
     1156697000	     57733	800025e4	07b5a623	sw	x27,108(x11)	 x11:0x80025c60 x27:0x000000c0 PA:0x80025ccc store:0x000000c0 load:0xffffffff
     1156717000	     57734	800025e8	07c5a823	sw	x28,112(x11)	 x11:0x80025c60 x28:0xfffffffa PA:0x80025cd0 store:0xfffffffa load:0xffffffff
     1156757000	     57736	800025ec	07d5aa23	sw	x29,116(x11)	 x11:0x80025c60 x29:0x00000008 PA:0x80025cd4 store:0x00000008 load:0xffffffff
     1157017000	     57749	800025f0	07e5ac23	sw	x30,120(x11)	 x11:0x80025c60 x30:0x00000000 PA:0x80025cd8 store:0x00000000 load:0xffffffff
     1157077000	     57752	800025f4	07f5ae23	sw	x31,124(x11)	 x11:0x80025c60 x31:0xb96d564c PA:0x80025cdc store:0xb96d564c load:0xffffffff
     1157097000	     57753	800025f8	000586b3	add	x13,x11,x0	 x11:0x80025c60  x0:0x00000000 x13=0x80025c60
     1157117000	     57754	800025fc	90000db7	lui	x27,0x90000	 x27=0x90000000
     1157137000	     57755	80002600	1df1	c.addi	x27,-4	 x27:0x90000000 x27=0x8ffffffc
     1157157000	     57756	80002602	4921	c.li	x18,8	 x18=0x00000008
     1157177000	     57757	80002604	0922	c.slli	x18,0x8	 x18:0x00000008 x18=0x00000800
     1157197000	     57758	80002606	00090913	addi	x18,x18,0	 x18:0x00000800 x18=0x00000800
     1157417000	     57769	8000260a	012da023	sw	x18,0(x27)	 x27:0x8ffffffc x18:0x00000800 PA:0x8ffffffc store:0x00000800 load:0xffffffff
     1157437000	     57770	8000260e	34102973	csrrs	x18,mepc,x0	  x0:0x00000000 x18=0x80007454
     1157457000	     57771	80002612	34202973	csrrs	x18,mcause,x0	  x0:0x00000000 x18=0x00000002
     1157477000	     57772	80002616	4d8d	c.li	x27,3	 x27=0x00000003
     1157497000	     57773	80002618	01b91463	bne	x18,x27,80002620	 x18:0x00000002 x27:0x00000003
     1157537000	     57775	80002620	4da1	c.li	x27,8	 x27=0x00000008
     1157557000	     57776	80002622	05b90d63	beq	x18,x27,8000267c	 x18:0x00000002 x27:0x00000008
     1157577000	     57777	80002626	4da5	c.li	x27,9	 x27=0x00000009
     1157597000	     57778	80002628	05b90a63	beq	x18,x27,8000267c	 x18:0x00000002 x27:0x00000009
     1157617000	     57779	8000262c	4dad	c.li	x27,11	 x27=0x0000000b
     1157637000	     57780	8000262e	05b90763	beq	x18,x27,8000267c	 x18:0x00000002 x27:0x0000000b
     1157657000	     57781	80002632	4d85	c.li	x27,1	 x27=0x00000001
     1157677000	     57782	80002634	35b90363	beq	x18,x27,8000297a	 x18:0x00000002 x27:0x00000001
     1157697000	     57783	80002638	4d95	c.li	x27,5	 x27=0x00000005
     1157717000	     57784	8000263a	63b90963	beq	x18,x27,80002c6c	 x18:0x00000002 x27:0x00000005
     1157737000	     57785	8000263e	4d9d	c.li	x27,7	 x27=0x00000007
     1157757000	     57786	80002640	15b90ae3	beq	x18,x27,80002f94	 x18:0x00000002 x27:0x00000007
     1157777000	     57787	80002644	4db1	c.li	x27,12	 x27=0x0000000c
     1157797000	     57788	80002646	01b91463	bne	x18,x27,8000264e	 x18:0x00000002 x27:0x0000000c
     1157837000	     57790	8000264e	4db5	c.li	x27,13	 x27=0x0000000d
     1157857000	     57791	80002650	01b91463	bne	x18,x27,80002658	 x18:0x00000002 x27:0x0000000d
     1157897000	     57793	80002658	4dbd	c.li	x27,15	 x27=0x0000000f
     1157917000	     57794	8000265a	01b91463	bne	x18,x27,80002662	 x18:0x00000002 x27:0x0000000f
     1157957000	     57796	80002662	4d89	c.li	x27,2	 x27=0x00000002
     1157977000	     57797	80002664	01b91463	bne	x18,x27,8000266c	 x18:0x00000002 x27:0x00000002
     1157997000	     57798	80002668	45c0906f	jal	x0,8000bac4	  x0=0x00000000
     1158037000	     57800	8000bac4	90000db7	lui	x27,0x90000	 x27=0x90000000
     1158057000	     57801	8000bac8	1df1	c.addi	x27,-4	 x27:0x90000000 x27=0x8ffffffc
     1158077000	     57802	8000baca	4929	c.li	x18,10	 x18=0x0000000a
     1158097000	     57803	8000bacc	0922	c.slli	x18,0x8	 x18:0x0000000a x18=0x00000a00
     1158117000	     57804	8000bace	00090913	addi	x18,x18,0	 x18:0x00000a00 x18=0x00000a00
     1158177000	     57807	8000bad2	012da023	sw	x18,0(x27)	 x27:0x8ffffffc x18:0x00000a00 PA:0x8ffffffc store:0x00000a00 load:0xffffffff
     1158197000	     57808	8000bad6	90000db7	lui	x27,0x90000	 x27=0x90000000
     1158217000	     57809	8000bada	1df1	c.addi	x27,-4	 x27:0x90000000 x27=0x8ffffffc
     1158237000	     57810	8000badc	34200913	addi	x18,x0,834	  x0:0x00000000 x18=0x00000342
     1158257000	     57811	8000bae0	0922	c.slli	x18,0x8	 x18:0x00000342 x18=0x00034200
     1158277000	     57812	8000bae2	090d	c.addi	x18,3	 x18:0x00034200 x18=0x00034203
     1158337000	     57815	8000bae4	012da023	sw	x18,0(x27)	 x27:0x8ffffffc x18:0x00034203 PA:0x8ffffffc store:0x00034203 load:0xffffffff
     1158357000	     57816	8000bae8	34202973	csrrs	x18,mcause,x0	  x0:0x00000000 x18=0x00000002
     1158777000	     57837	8000baec	012da023	sw	x18,0(x27)	 x27:0x8ffffffc x18:0x00000002 PA:0x8ffffffc store:0x00000002 load:0xffffffff
     1158797000	     57838	8000baf0	34102973	csrrs	x18,mepc,x0	  x0:0x00000000 x18=0x80007454
     1158817000	     57839	8000baf4	0911	c.addi	x18,4	 x18:0x80007454 x18=0x80007458
     1158837000	     57840	8000baf6	34191073	csrrw	x0,mepc,x18	 x18:0x80007458  x0=0x00000000
     1158857000	     57841	8000bafa	000685b3	add	x11,x13,x0	 x13:0x80025c60  x0:0x00000000 x11=0x80025c60
     1158917000	     57844	8000bafe	0045a083	lw	x1,4(x11)	 x11:0x80025c60  x1=0x00000000 PA:0x80025c64 load:0x00000000
     1158937000	     57845	8000bb02	0085a103	lw	x2,8(x11)	 x11:0x80025c60  x2=0x00000050 PA:0x80025c68 load:0x00000050
     1158957000	     57846	8000bb06	00c5a183	lw	x3,12(x11)	 x11:0x80025c60  x3=0x0001a000 PA:0x80025c6c load:0x0001a000
     1159377000	     57867	8000bb0a	0105a203	lw	x4,16(x11)	 x11:0x80025c60  x4=0xffffffff PA:0x80025c70 load:0xffffffff
     1159837000	     57890	8000bb0e	0145a283	lw	x5,20(x11)	 x11:0x80025c60  x5=0x00000001 PA:0x80025c74 load:0x00000001
     1159897000	     57893	8000bb12	0185a303	lw	x6,24(x11)	 x11:0x80025c60  x6=0xffffff3a PA:0x80025c78 load:0xffffff3a
     1159917000	     57894	8000bb16	01c5a383	lw	x7,28(x11)	 x11:0x80025c60  x7=0x00000000 PA:0x80025c7c load:0x00000000
     1159937000	     57895	8000bb1a	5180	c.lw	x8,32(x11)	 x11:0x80025c60  x8=0x91a22b1a PA:0x80025c80 load:0x91a22b1a
     1160137000	     57905	8000bb1c	51c4	c.lw	x9,36(x11)	 x11:0x80025c60  x9=0x00000000 PA:0x80025c84 load:0x00000000
     1160537000	     57925	8000bb1e	5588	c.lw	x10,40(x11)	 x11:0x80025c60 x10=0x000003c0 PA:0x80025c88 load:0x000003c0
     1160697000	     57933	8000bb20	55cc	c.lw	x11,44(x11)	 x11:0x80025c60 x11=0x80025c60 PA:0x80025c8c load:0x80025c60
     1160777000	     57937	8000bb22	5990	c.lw	x12,48(x11)	 x11:0x80025c60 x12=0x00000000 PA:0x80025c90 load:0x00000000
     1161197000	     57958	8000bb24	59d4	c.lw	x13,52(x11)	 x11:0x80025c60 x13=0x80025ce0 PA:0x80025c94 load:0x80025ce0
     1161337000	     57965	8000bb26	5d98	c.lw	x14,56(x11)	 x11:0x80025c60 x14=0x00000000 PA:0x80025c98 load:0x00000000
     1161777000	     57987	8000bb28	5ddc	c.lw	x15,60(x11)	 x11:0x80025c60 x15=0x00000000 PA:0x80025c9c load:0x00000000
     1161837000	     57990	8000bb2a	0405a803	lw	x16,64(x11)	 x11:0x80025c60 x16=0xfffffffa PA:0x80025ca0 load:0xfffffffa
     1162077000	     58002	8000bb2e	0445a883	lw	x17,68(x11)	 x11:0x80025c60 x17=0x00000000 PA:0x80025ca4 load:0x00000000
     1162137000	     58005	8000bb32	0485a903	lw	x18,72(x11)	 x11:0x80025c60 x18=0x00000000 PA:0x80025ca8 load:0x00000000
     1162297000	     58013	8000bb36	04c5a983	lw	x19,76(x11)	 x11:0x80025c60 x19=0x00000001 PA:0x80025cac load:0x00000001
     1162417000	     58019	8000bb3a	0505aa03	lw	x20,80(x11)	 x11:0x80025c60 x20=0x00000028 PA:0x80025cb0 load:0x00000028
     1162477000	     58022	8000bb3e	0545aa83	lw	x21,84(x11)	 x11:0x80025c60 x21=0x00000000 PA:0x80025cb4 load:0x00000000
     1162497000	     58023	8000bb42	0585ab03	lw	x22,88(x11)	 x11:0x80025c60 x22=0xfffffffc PA:0x80025cb8 load:0xfffffffc
     1162597000	     58028	8000bb46	05c5ab83	lw	x23,92(x11)	 x11:0x80025c60 x23=0x00000655 PA:0x80025cbc load:0x00000655
     1162797000	     58038	8000bb4a	0605ac03	lw	x24,96(x11)	 x11:0x80025c60 x24=0x00000000 PA:0x80025cc0 load:0x00000000
     1163037000	     58050	8000bb4e	0645ac83	lw	x25,100(x11)	 x11:0x80025c60 x25=0x00000359 PA:0x80025cc4 load:0x00000359
     1163297000	     58063	8000bb52	0685ad03	lw	x26,104(x11)	 x11:0x80025c60 x26=0x00000025 PA:0x80025cc8 load:0x00000025
     1163317000	     58064	8000bb56	06c5ad83	lw	x27,108(x11)	 x11:0x80025c60 x27=0x000000c0 PA:0x80025ccc load:0x000000c0
     1163657000	     58081	8000bb5a	0705ae03	lw	x28,112(x11)	 x11:0x80025c60 x28=0xfffffffa PA:0x80025cd0 load:0xfffffffa
     1163917000	     58094	8000bb5e	0745ae83	lw	x29,116(x11)	 x11:0x80025c60 x29=0x00000008 PA:0x80025cd4 load:0x00000008
     1164037000	     58100	8000bb62	0785af03	lw	x30,120(x11)	 x11:0x80025c60 x30=0x00000000 PA:0x80025cd8 load:0x00000000
     1164097000	     58103	8000bb66	07c5af83	lw	x31,124(x11)	 x11:0x80025c60 x31=0xb96d564c PA:0x80025cdc load:0xb96d564c
     1164117000	     58104	8000bb6a	08058593	addi	x11,x11,128	 x11:0x80025c60 x11=0x80025ce0
     1164137000	     58105	8000bb6e	000586b3	add	x13,x11,x0	 x11:0x80025ce0  x0:0x00000000 x13=0x80025ce0
     1164477000	     58122	8000bb72	428c	c.lw	x11,0(x13)	 x13:0x80025ce0 x11=0x80021e64 PA:0x80025ce0 load:0x80021e64
     1164497000	     58123	8000bb74	0691	c.addi	x13,4	 x13:0x80025ce0 x13=0x80025ce4
     1164517000	     58124	8000bb76	30200073	mret	
     1164577000	     58127	80007458	00340ab3	add	x21,x8,x3	  x8:0x91a22b1a  x3:0x0001a000 x21=0x91a3cb1a
     1165317000	     58164	8000745c	02227a33	remu	x20,x4,x2	  x4:0xffffffff  x2:0x00000050 x20=0x0000000f
     1165337000	     58165	80007460	7a006b73	csrrsi	x22,tselect,0	 x22=0x00000000
     1165357000	     58166	80007464	8fb5	c.xor	x15,x13	 x15:0x00000000 x13:0x80025ce4 x15=0x80025ce4
     1165397000	     58168	80007466	031c77b3	remu	x15,x24,x17	 x24:0x00000000 x17:0x00000000 x15=0x00000000
     1165417000	     58169	8000746a	8e71	c.and	x12,x12	 x12:0x00000000 x12:0x00000000 x12=0x00000000
     1165437000	     58170	8000746c	40275893	srai	x17,x14,0x2	 x14:0x00000000 x17=0x00000000
     1165457000	     58171	80007470	8cc1	c.or	x9,x8	  x9:0x00000000  x8:0x91a22b1a  x9=0x91a22b1a
     1165477000	     58172	80007472	41498cb3	sub	x25,x19,x20	 x19:0x00000001 x20:0x0000000f x25=0xfffffff2
     1165517000	     58174	80007476	b0c06473	csrrsi	x8,mhpmcounter12,0	  x8=0x00001412
     1165557000	     58176	8000747a	02ab4d63	blt	x22,x10,800074b4	 x22:0x00000000 x10:0x000003c0
     1166337000	     58215	800074b4	0ff0000f	fence	iorw,iorw	
     1166377000	     58217	800074b8	01a7c333	xor	x6,x15,x26	 x15:0x00000000 x26:0x00000025  x6=0x00000025
     1166537000	     58225	800074bc	00d660b3	or	x1,x12,x13	 x12:0x00000000 x13:0x80025ce4  x1=0x80025ce4
     1166557000	     58226	800074c0	0001	c.addi	x0,0	  x0:0x00000000  x0=0x00000000
     1166577000	     58227	800074c2	0286c363	blt	x13,x8,800074e8	 x13:0x80025ce4  x8:0x00001412
     1166757000	     58236	800074e8	b069aef3	csrrs	x29,mhpmcounter6,x19	 x19:0x00000001 x29=0x00000037
     1166817000	     58239	800074ec	0001	c.addi	x0,0	  x0:0x00000000  x0=0x00000000
     1166837000	     58240	800074ee	f8d88f93	addi	x31,x17,-115	 x17:0x00000000 x31=0xffffff8d
     1166857000	     58241	800074f2	80b9	c.srli	x9,0xe	  x9:0x91a22b1a  x9=0x00024688
     1166877000	     58242	800074f4	010b0733	add	x14,x22,x16	 x22:0x00000000 x16:0xfffffffa x14=0xfffffffa
     1167617000	     58279	800074f8	022970b3	remu	x1,x18,x2	 x18:0x00000000  x2:0x00000050  x1=0x00000000
     1167637000	     58280	800074fc	e321	c.bnez	x14,8000753c	 x14:0xfffffffa
     1167877000	     58292	8000753c	0104a133	slt	x2,x9,x16	  x9:0x00024688 x16:0xfffffffa  x2=0x00000000
     1167957000	     58296	80007540	0d36	c.slli	x26,0xd	 x26:0x00000025 x26=0x0004a000
     1167997000	     58298	80007542	0383d433	divu	x8,x7,x24	  x7:0x00000000 x24:0x00000000  x8=0xffffffff
     1168037000	     58300	80007546	01d06e33	or	x28,x0,x29	  x0:0x00000000 x29:0x00000037 x28=0x00000037
     1168057000	     58301	8000754a	e819	c.bnez	x8,80007560	  x8:0xffffffff
     1168437000	     58320	80007560	8c9d	c.sub	x9,x15	  x9:0x00024688 x15:0x00000000  x9=0x00024688
     1168457000	     58321	80007562	40f35713	srai	x14,x6,0xf	  x6:0x00000025 x14=0x00000000
     1169197000	     58358	80007566	02ad5433	divu	x8,x26,x10	 x26:0x0004a000 x10:0x000003c0  x8=0x0000013b
     1169217000	     58359	8000756a	b6423a93	sltiu	x21,x4,-1180	  x4:0xffffffff x21=0x00000000
     1169237000	     58360	8000756e	5e5ee413	ori	x8,x29,1509	 x29:0x00000037  x8=0x000005f7
     1169277000	     58362	80007572	40d380b3	sub	x1,x7,x13	  x7:0x00000000 x13:0x80025ce4  x1=0x7ffda31c
     1169337000	     58365	80007576	0327ee33	rem	x28,x15,x18	 x15:0x00000000 x18:0x00000000 x28=0x00000000
     1169437000	     58370	8000757a	00722fb3	slt	x31,x4,x7	  x4:0xffffffff  x7:0x00000000 x31=0x00000001
     1169457000	     58371	8000757e	035d1e63	bne	x26,x21,800075ba	 x26:0x0004a000 x21:0x00000000
     1170137000	     58405	800075ba	1b18	c.addi4spn	x14,x2,432	 x14=0x000001b0
     1170157000	     58406	800075bc	0001	c.addi	x0,0	  x0:0x00000000  x0=0x00000000
     1170177000	     58407	800075be	8649	c.srai	x12,0x12	 x12:0x00000000 x12=0x00000000
     1170197000	     58408	800075c0	0436	c.slli	x8,0xd	  x8:0x000005f7  x8=0x00bee000
     1170597000	     58428	800075c2	0ff0000f	fence	iorw,iorw	
     1170977000	     58447	800075c6	34317ef3	csrrci	x29,mtval,2	 x29=0x7b3071f3
     1171037000	     58450	800075ca	89973a13	sltiu	x20,x14,-1895	 x14:0x000001b0 x20=0x00000001
     1171197000	     58458	800075ce	19096993	ori	x19,x18,400	 x18:0x00000000 x19=0x00000190
     1171337000	     58465	800075d2	03de3ab3	mulhu	x21,x28,x29	 x28:0x00000000 x29:0x7b3071f3 x21=0x00000000
     1171357000	     58466	800075d6	c40d	c.beqz	x8,80007600	  x8:0x00bee000
     1171377000	     58467	800075d8	da984293	xori	x5,x16,-599	 x16:0xfffffffa  x5=0x00000253
     1171397000	     58468	800075dc	00fe5e63	bge	x28,x15,800075f8	 x28:0x00000000 x15:0x00000000
     1171977000	     58497	800075f8	0000100f	fence.i	
     1173297000	     58563	800075fc	01c81913	slli	x18,x16,0x1c	 x16:0xfffffffa x18=0xa0000000
     1173457000	     58571	80007600	865d	c.srai	x12,0x17	 x12:0x00000000 x12=0x00000000
     1173477000	     58572	80007602	1618	c.addi4spn	x14,x2,800	 x14=0x00000320
     1173557000	     58576	80007604	0b43b493	sltiu	x9,x7,180	  x7:0x00000000  x9=0x00000001
     1173637000	     58580	80007608	8bf2	c.mv	x23,x28	  x0:0x00000000 x28:0x00000000 x23=0x00000000
     1173657000	     58581	8000760a	00d778b3	and	x17,x14,x13	 x14:0x00000320 x13:0x80025ce4 x17=0x00000020
     1173677000	     58582	8000760e	32c06073	csrrsi	x0,mhpmevent12,0	  x0=0x00000000
     1174117000	     58604	80007612	023cab33	mulhsu	x22,x25,x3	 x25:0xfffffff2  x3:0x0001a000 x22=0xffffffff
     1174137000	     58605	80007616	03e50b33	mul	x22,x10,x30	 x10:0x000003c0 x30:0x00000000 x22=0x00000000
     1174157000	     58606	8000761a	a1e64e13	xori	x28,x12,-1506	 x12:0x00000000 x28=0xfffffa1e
     1174277000	     58612	8000761e	40015a33	sra	x20,x2,x0	  x2:0x00000000  x0:0x00000000 x20=0x00000000
     1174697000	     58633	80007622	019598b3	sll	x17,x11,x25	 x11:0x80021e64 x25:0xfffffff2 x17=0x79900000
     1174717000	     58634	80007626	1980	c.addi4spn	x8,x2,240	  x8=0x000000f0
     1174737000	     58635	80007628	8e11	c.sub	x12,x12	 x12:0x00000000 x12:0x00000000 x12=0x00000000
     1174777000	     58637	8000762a	0373dbb3	divu	x23,x7,x23	  x7:0x00000000 x23:0x00000000 x23=0xffffffff
     1174877000	     58642	8000762e	441d3d93	sltiu	x27,x26,1089	 x26:0x0004a000 x27=0x00000000
     1174897000	     58643	80007632	0006d733	srl	x14,x13,x0	 x13:0x80025ce4  x0:0x00000000 x14=0x80025ce4
     1174917000	     58644	80007636	633d	c.lui	x6,0xf	  x6=0x0000f000
     1174937000	     58645	80007638	0ef9	c.addi	x29,30	 x29:0x7b3071f3 x29=0x7b307211
     1174957000	     58646	8000763a	05851063	bne	x10,x24,8000767a	 x10:0x000003c0 x24:0x00000000
     1175517000	     58674	8000767a	033f11b3	mulh	x3,x30,x19	 x30:0x00000000 x19:0x00000190  x3=0x00000000
     1176397000	     58718	8000767e	03fef4b3	remu	x9,x29,x31	 x29:0x7b307211 x31:0x00000001  x9=0x00000000
     1176417000	     58719	80007682	8219	c.srli	x12,0x6	 x12:0x00000000 x12=0x00000000
     1176437000	     58720	80007684	0c2e	c.slli	x24,0xb	 x24:0x00000000 x24=0x00000000
     1176457000	     58721	80007686	4d05	c.li	x26,1	 x26=0x00000001
     1176477000	     58722	80007688	b5404613	xori	x12,x0,-1196	  x0:0x00000000 x12=0xfffffb54
     1176497000	     58723	8000768c	8635	c.srai	x12,0xd	 x12:0xfffffb54 x12=0xffffffff
     1176517000	     58724	8000768e	466127b7	lui	x15,0x46612	 x15=0x46612000
     1176537000	     58725	80007692	8f91	c.sub	x15,x12	 x15:0x46612000 x12:0xffffffff x15=0x46612001
     1176557000	     58726	80007694	0001	c.addi	x0,0	  x0:0x00000000  x0=0x00000000
     1176917000	     58744	80007696	32b03b73	csrrc	x22,mhpmevent11,x0	  x0:0x00000000 x22=0x00000100
     1177117000	     58754	8000769a	7a303073	csrrc	x0,tdata3,x0	  x0:0x00000000  x0=0x00000000
     1177137000	     58755	8000769e	4111	c.li	x2,4	  x2=0x00000004
     1177157000	     58756	800076a0	c0a9	c.beqz	x9,800076e2	  x9:0x00000000
     1177877000	     58792	800076e2	07f6	c.slli	x15,0x1d	 x15:0x46612001 x15=0x20000000
     1178297000	     58813	800076e4	03a90e33	mul	x28,x18,x26	 x18:0xa0000000 x26:0x00000001 x28=0xa0000000
     1178317000	     58814	800076e8	998a	c.add	x19,x2	 x19:0x00000190  x2:0x00000004 x19=0x00000194
     1178337000	     58815	800076ea	0158abb3	slt	x23,x17,x21	 x17:0x79900000 x21:0x00000000 x23=0x00000000
     1178657000	     58831	800076ee	b8772d73	csrrs	x26,mhpmcounter7h,x14	 x14:0x80025ce4 x26=0x00000000
     1178737000	     58835	800076f2	03119bb3	mulh	x23,x3,x17	  x3:0x00000000 x17:0x79900000 x23=0x00000000
     1179097000	     58853	800076f6	b050dbf3	csrrwi	x23,mhpmcounter5,1	 x23=0x00000044
     1179157000	     58856	800076fa	0001	c.addi	x0,0	  x0:0x00000000  x0=0x00000000
     1179277000	     58862	800076fc	0001	c.addi	x0,0	  x0:0x00000000  x0=0x00000000
     1179297000	     58863	800076fe	8c79	c.and	x8,x14	  x8:0x000000f0 x14:0x80025ce4  x8=0x000000e0
     1179317000	     58864	80007700	8c79	c.and	x8,x14	  x8:0x000000e0 x14:0x80025ce4  x8=0x000000e0
     1179337000	     58865	80007702	ed15	c.bnez	x10,8000773e	 x10:0x000003c0
     1180157000	     58906	8000773e	02b03133	mulhu	x2,x0,x11	  x0:0x00000000 x11:0x80021e64  x2=0x00000000
     1180177000	     58907	80007742	4070ef13	ori	x30,x1,1031	  x1:0x7ffda31c x30=0x7ffda71f
     1180257000	     58911	80007746	00c601b3	add	x3,x12,x12	 x12:0xffffffff x12:0xffffffff  x3=0xfffffffe
     1180277000	     58912	8000774a	9a5a	c.add	x20,x22	 x20:0x00000000 x22:0x00000100 x20=0x00000100
     1180297000	     58913	8000774c	c7bb4a93	xori	x21,x22,-901	 x22:0x00000100 x21=0xfffffd7b
     1180317000	     58914	80007750	05666263	bltu	x12,x22,80007794	 x12:0xffffffff x22:0x00000100
     1180337000	     58915	80007754	8576	c.mv	x10,x29	  x0:0x00000000 x29:0x7b307211 x10=0x7b307211
     1180357000	     58916	80007756	5865ee13	ori	x28,x11,1414	 x11:0x80021e64 x28=0x80021fe6
     1180477000	     58922	8000775a	00385133	srl	x2,x16,x3	 x16:0xfffffffa  x3:0xfffffffe  x2=0x00000003
     1180517000	     58924	8000775e	02e30433	mul	x8,x6,x14	  x6:0x0000f000 x14:0x80025ce4  x8=0x3715c000
     1180937000	     58945	80007762	04a5d163	bge	x11,x10,800077a4	 x11:0x80021e64 x10:0x7b307211
     1181277000	     58962	80007766	f548feb7	lui	x29,0xf548f	 x29=0xf548f000
     1181637000	     58980	8000776a	418edfb3	sra	x31,x29,x24	 x29:0xf548f000 x24:0x00000000 x31=0xf548f000
     1181657000	     58981	8000776e	41ead313	srai	x6,x21,0x1e	 x21:0xfffffd7b  x6=0xffffffff
     1181677000	     58982	80007772	00ce5913	srli	x18,x28,0xc	 x28:0x80021fe6 x18=0x00080021
     1181817000	     58989	80007776	34102ff3	csrrs	x31,mepc,x0	  x0:0x00000000 x31=0x80007458
     1181837000	     58990	8000777a	717d	c.addi16sp	x2,-16	  x2:0x00000003  x2=0xfffffff3
     1181857000	     58991	8000777c	41ba5d13	srai	x26,x20,0x1b	 x20:0x00000100 x26=0x00000000
     1181897000	     58993	80007780	02997d33	remu	x26,x18,x9	 x18:0x00080021  x9:0x00000000 x26=0x00080021
     1181917000	     58994	80007784	918a	c.add	x3,x2	  x3:0xfffffffe  x2:0xfffffff3  x3=0xfffffff1
     1181997000	     58998	80007786	a8490113	addi	x2,x18,-1404	 x18:0x00080021  x2=0x0007faa5
     1182417000	     59019	8000778a	2130b413	sltiu	x8,x1,531	  x1:0x7ffda31c  x8=0x00000000
     1182437000	     59020	8000778e	1bfd	c.addi	x23,-1	 x23:0x00000044 x23=0x00000043
     1182457000	     59021	80007790	016bd733	srl	x14,x23,x22	 x23:0x00000043 x22:0x00000100 x14=0x00000043
     1182477000	     59022	80007794	015e9133	sll	x2,x29,x21	 x29:0xf548f000 x21:0xfffffd7b  x2=0x00000000
     1182497000	     59023	80007798	8d71	c.and	x10,x12	 x10:0x7b307211 x12:0xffffffff x10=0x7b307211
     1182517000	     59024	8000779a	40b104b3	sub	x9,x2,x11	  x2:0x00000000 x11:0x80021e64  x9=0x7ffde19c
     1182677000	     59032	8000779e	03071a63	bne	x14,x16,800077d2	 x14:0x00000043 x16:0xfffffffa
     1200577000	     59927	800077d2	405b5213	srai	x4,x22,0x5	 x22:0x00000100  x4=0x00000008
     1200597000	     59928	800077d6	843d	c.srai	x8,0xf	  x8:0x00000000  x8=0x00000000
     1200617000	     59929	800077d8	717d	c.addi16sp	x2,-16	  x2:0x00000000  x2=0xfffffff0
     1200637000	     59930	800077da	0f10	c.addi4spn	x12,x2,912	 x12=0x00000380
     1200657000	     59931	800077dc	01850733	add	x14,x10,x24	 x10:0x7b307211 x24:0x00000000 x14=0x7b307211
     1200677000	     59932	800077e0	00634863	blt	x6,x6,800077f0	  x6:0xffffffff  x6:0xffffffff
     1200697000	     59933	800077e4	01a34c33	xor	x24,x6,x26	  x6:0xffffffff x26:0x00080021 x24=0xfff7ffde
     1201077000	     59952	800077e8	b0c021f3	csrrs	x3,mhpmcounter12,x0	  x0:0x00000000  x3=0x00001482
     1201277000	     59962	800077ec	c5c36937	lui	x18,0xc5c36	 x18=0xc5c36000
     1201697000	     59983	800077f0	01bd	c.addi	x3,15	  x3:0x00001482  x3=0x00001491
     1201717000	     59984	800077f2	4079df33	sra	x30,x19,x7	 x19:0x00000194  x7:0x00000000 x30=0x00000194
     1201737000	     59985	800077f6	b0a07873	csrrci	x16,mhpmcounter10,0	 x16=0x00000120
     1201757000	     59986	800077fa	835d	c.srli	x14,0x17	 x14:0x7b307211 x14=0x000000f6
     1201777000	     59987	800077fc	41c3d013	srai	x0,x7,0x1c	  x7:0x00000000  x0=0x00000000
     1201797000	     59988	80007800	55e30493	addi	x9,x6,1374	  x6:0xffffffff  x9=0x0000055d
     1201817000	     59989	80007804	8639	c.srai	x12,0xe	 x12:0x00000380 x12=0x00000000
     1202257000	     60011	80007806	0183b2b3	sltu	x5,x7,x24	  x7:0x00000000 x24:0xfff7ffde  x5=0x00000001
     1202277000	     60012	8000780a	8515	c.srai	x10,0x5	 x10:0x7b307211 x10=0x03d98390
     1202297000	     60013	8000780c	04c89063	bne	x17,x12,8000784c	 x17:0x79900000 x12:0x00000000
     1202697000	     60033	8000784c	7a202cf3	csrrs	x25,tdata2,x0	  x0:0x00000000 x25=0x00000000
     1202797000	     60038	80007850	01c78bb3	add	x23,x15,x28	 x15:0x20000000 x28:0x80021fe6 x23=0xa0021fe6
     1203017000	     60049	80007854	004d5eb3	srl	x29,x26,x4	 x26:0x00080021  x4:0x00000008 x29=0x00000800
     1203037000	     60050	80007858	016e2333	slt	x6,x28,x22	 x28:0x80021fe6 x22:0x00000100  x6=0x00000001
     1203077000	     60052	8000785c	03beeb33	rem	x22,x29,x27	 x29:0x00000800 x27:0x00000000 x22=0x00000800
     1203177000	     60057	80007860	0ff0000f	fence	iorw,iorw	
     1203197000	     60058	80007864	97ba	c.add	x15,x14	 x15:0x20000000 x14:0x000000f6 x15=0x200000f6
     1203217000	     60059	80007866	0000100f	fence.i	
     1203517000	     60074	8000786a	00dccdb3	xor	x27,x25,x13	 x25:0x00000000 x13:0x80025ce4 x27=0x80025ce4
     1203537000	     60075	8000786e	8d842bb7	lui	x23,0x8d842	 x23=0x8d842000
     1203557000	     60076	80007872	04fe	c.slli	x9,0x1f	  x9:0x0000055d  x9=0x80000000
     1203577000	     60077	80007874	8e5d	c.or	x12,x15	 x12:0x00000000 x15:0x200000f6 x12=0x200000f6
     1203977000	     60097	80007876	00a26033	or	x0,x4,x10	  x4:0x00000008 x10:0x03d98390  x0=0x00000000
     1203997000	     60098	8000787a	0001	c.addi	x0,0	  x0:0x00000000  x0=0x00000000
     1204397000	     60118	8000787c	41225f13	srai	x30,x4,0x12	  x4:0x00000008 x30=0x00000000
     1204417000	     60119	80007880	8a21	c.andi	x12,8	 x12:0x200000f6 x12=0x00000000
     1204437000	     60120	80007882	007fb733	sltu	x14,x31,x7	 x31:0x80007458  x7:0x00000000 x14=0x00000000
     1204597000	     60128	80007886	1f634793	xori	x15,x6,502	  x6:0x00000001 x15=0x000001f7
     1204617000	     60129	8000788a	8d1d	c.sub	x10,x15	 x10:0x03d98390 x15:0x000001f7 x10=0x03d98199
     1204637000	     60130	8000788c	01e44eb3	xor	x29,x8,x30	  x8:0x00000000 x30:0x00000000 x29=0x00000000
     1204657000	     60131	80007890	00bb0eb3	add	x29,x22,x11	 x22:0x00000800 x11:0x80021e64 x29=0x80022664
     1205057000	     60151	80007894	001fe033	or	x0,x31,x1	 x31:0x80007458  x1:0x7ffda31c  x0=0x00000000
     1205477000	     60172	80007898	b8b07673	csrrci	x12,mhpmcounter11h,0	 x12=0x00000000
     1205497000	     60173	8000789c	0000100f	fence.i	
     1206277000	     60212	800078a0	eb91	c.bnez	x15,800078b4	 x15:0x000001f7
     1206997000	     60248	800078b4	03f37263	bgeu	x6,x31,800078d8	  x6:0x00000001 x31:0x80007458
     1207017000	     60249	800078b8	0000100f	fence.i	
     1208177000	     60307	800078bc	02d104b3	mul	x9,x2,x13	  x2:0xfffffff0 x13:0x80025ce4  x9=0xffda31c0
     1208197000	     60308	800078c0	0d46	c.slli	x26,0x11	 x26:0x00080021 x26=0x00420000
     1208217000	     60309	800078c2	0001	c.addi	x0,0	  x0:0x00000000  x0=0x00000000
     1208617000	     60329	800078c4	8c15	c.sub	x8,x13	  x8:0x00000000 x13:0x80025ce4  x8=0x7ffda31c
     1208637000	     60330	800078c6	0001	c.addi	x0,0	  x0:0x00000000  x0=0x00000000
     1208797000	     60338	800078c8	3b306ef3	csrrsi	x29,pmpaddr3,0	 x29=0x2cccd975
     1209537000	     60375	800078cc	024f7233	remu	x4,x30,x4	 x30:0x00000000  x4:0x00000008  x4=0x00000000
     1209557000	     60376	800078d0	611d4893	xori	x17,x26,1553	 x26:0x00420000 x17=0x00420611
     1209577000	     60377	800078d4	8e59	c.or	x12,x14	 x12:0x00000000 x14:0x00000000 x12=0x00000000
     1209597000	     60378	800078d6	8cc9	c.or	x9,x10	  x9:0xffda31c0 x10:0x03d98199  x9=0xffdbb1d9
     1209617000	     60379	800078d8	19fd	c.addi	x19,-1	 x19:0x00000194 x19=0x00000193
     1209637000	     60380	800078da	8e15	c.sub	x12,x13	 x12:0x00000000 x13:0x80025ce4 x12=0x7ffda31c
     1209657000	     60381	800078dc	8f9d	c.sub	x15,x15	 x15:0x000001f7 x15:0x000001f7 x15=0x00000000
     1210397000	     60418	800078de	02bdec33	rem	x24,x27,x11	 x27:0x80025ce4 x11:0x80021e64 x24=0x80025ce4
     1210417000	     60419	800078e2	0000100f	fence.i	
     1210877000	     60442	800078e6	32a06973	csrrsi	x18,mhpmevent10,0	 x18=0x00000080
     1211077000	     60452	800078ea	3a103173	csrrc	x2,pmpcfg1,x0	  x0:0x00000000  x2=0x0f0f0f0f
     1211137000	     60455	800078ee	03089163	bne	x17,x16,80007910	 x17:0x00420611 x16:0x00000120
     1211677000	     60482	80007910	dc920f93	addi	x31,x4,-567	  x4:0x00000000 x31=0xfffffdc9
     1211857000	     60491	80007914	3b006b73	csrrsi	x22,pmpaddr0,0	 x22=0x20000ca9
     1211877000	     60492	80007918	40d75d33	sra	x26,x14,x13	 x14:0x00000000 x13:0x80025ce4 x26=0x00000000
     1211897000	     60493	8000791c	009ec1b3	xor	x3,x29,x9	 x29:0x2cccd975  x9:0xffdbb1d9  x3=0xd31768ac
     1211937000	     60495	80007920	1afd	c.addi	x21,-1	 x21:0xfffffd7b x21=0xfffffd7a
     1211957000	     60496	80007922	0019db13	srli	x22,x19,0x1	 x19:0x00000193 x22=0x000000c9
     1212877000	     60542	80007926	0339ff33	remu	x30,x19,x19	 x19:0x00000193 x19:0x00000193 x30=0x00000000
     1212897000	     60543	8000792a	004cf233	and	x4,x25,x4	 x25:0x00000000  x4:0x00000000  x4=0x00000000
     1212917000	     60544	8000792e	7a003973	csrrc	x18,tselect,x0	  x0:0x00000000 x18=0x00000000
     1213017000	     60549	80007932	da6ffa93	andi	x21,x31,-602	 x31:0xfffffdc9 x21=0xfffffd80
     1213357000	     60566	80007936	021b0e63	beq	x22,x1,80007972	 x22:0x000000c9  x1:0x7ffda31c
     1213557000	     60576	8000793a	003b3333	sltu	x6,x22,x3	 x22:0x000000c9  x3:0xd31768ac  x6=0x00000001
     1213577000	     60577	8000793e	01b15233	srl	x4,x2,x27	  x2:0x0f0f0f0f x27:0x80025ce4  x4=0x00f0f0f0
     1213757000	     60586	80007942	7a006a73	csrrsi	x20,tselect,0	 x20=0x00000000
     1213777000	     60587	80007946	c131	c.beqz	x10,8000798a	 x10:0x03d98199
     1213797000	     60588	80007948	0000100f	fence.i	
     1214137000	     60605	8000794c	23e9e493	ori	x9,x19,574	 x19:0x00000193  x9=0x000003bf
     1214517000	     60624	80007950	01205463	bge	x0,x18,80007958	  x0:0x00000000 x18:0x00000000
     1215357000	     60666	80007958	0ff0000f	fence	iorw,iorw	
     1215457000	     60671	8000795c	825d	c.srli	x12,0x17	 x12:0x7ffda31c x12=0x000000ff
     1215477000	     60672	8000795e	0904	c.addi4spn	x9,x2,144	  x9=0x0f0f0f9f
     1215497000	     60673	80007960	0001	c.addi	x0,0	  x0:0x00000000  x0=0x00000000
     1215537000	     60675	80007962	021ba733	mulhsu	x14,x23,x1	 x23:0x8d842000  x1:0x7ffda31c x14=0xc6c31e82
     1215677000	     60682	80007966	03037063	bgeu	x6,x16,80007986	  x6:0x00000001 x16:0x00000120
     1215697000	     60683	8000796a	01113933	sltu	x18,x2,x17	  x2:0x0f0f0f0f x17:0x00420611 x18=0x00000000
     1215777000	     60687	8000796e	0000100f	fence.i	
     1216637000	     60730	80007972	01afbbb3	sltu	x23,x31,x26	 x31:0xfffffdc9 x26:0x00000000 x23=0x00000000
     1216797000	     60738	80007976	b00bea73	csrrsi	x20,mcycle,23	 x20=0x80024bcf
     1216857000	     60741	8000797a	8d61	c.and	x10,x8	 x10:0x03d98199  x8:0x7ffda31c x10=0x03d98118
     1216877000	     60742	8000797c	03c35d63	bge	x6,x28,800079b6	  x6:0x00000001 x28:0x80021fe6
     1217497000	     60773	800079b6	01058eb3	add	x29,x11,x16	 x11:0x80021e64 x16:0x00000120 x29=0x80021f84
     1217517000	     60774	800079ba	8b0d	c.andi	x14,3	 x14:0xc6c31e82 x14=0x00000002
     1217797000	     60788	800079bc	6aa5	c.lui	x21,0x9	 x21=0x00009000
     1217817000	     60789	800079be	02c58833	mul	x16,x11,x12	 x11:0x80021e64 x12:0x000000ff x16=0x821c459c
     1217837000	     60790	800079c2	717d	c.addi16sp	x2,-16	  x2:0x0f0f0f0f  x2=0x0f0f0eff
     1217857000	     60791	800079c4	02817063	bgeu	x2,x8,800079e4	  x2:0x0f0f0eff  x8:0x7ffda31c
     1217877000	     60792	800079c8	7a207373	csrrci	x6,tdata2,0	  x6=0x00000000
     1217897000	     60793	800079cc	0ff0000f	fence	iorw,iorw	
     1218517000	     60824	800079d0	9a16	c.add	x20,x5	 x20:0x80024bcf  x5:0x00000001 x20=0x80024bd0
     1218537000	     60825	800079d2	abcfa513	slti	x10,x31,-1348	 x31:0xfffffdc9 x10=0x00000000
     1218557000	     60826	800079d6	8d45	c.or	x10,x9	 x10:0x00000000  x9:0x0f0f0f9f x10=0x0f0f0f9f
     1219297000	     60863	800079d8	029d4133	div	x2,x26,x9	 x26:0x00000000  x9:0x0f0f0f9f  x2=0x00000000
     1219317000	     60864	800079dc	0060da33	srl	x20,x1,x6	  x1:0x7ffda31c  x6:0x00000000 x20=0x7ffda31c
     1219337000	     60865	800079e0	3b7029f3	csrrs	x19,pmpaddr7,x0	  x0:0x00000000 x19=0x3dddea86
     1220077000	     60902	800079e4	0383d2b3	divu	x5,x7,x24	  x7:0x00000000 x24:0x80025ce4  x5=0x00000000
     1220817000	     60939	800079e8	03f0ce33	div	x28,x1,x31	  x1:0x7ffda31c x31:0xfffffdc9 x28=0xffc63658
     1220837000	     60940	800079ec	00796033	or	x0,x18,x7	 x18:0x00000000  x7:0x00000000  x0=0x00000000
     1220857000	     60941	800079f0	00895b93	srli	x23,x18,0x8	 x18:0x00000000 x23=0x00000000
     1220877000	     60942	800079f4	0d90f413	andi	x8,x1,217	  x1:0x7ffda31c  x8=0x00000018
     1221617000	     60979	800079f8	0367ff33	remu	x30,x15,x22	 x15:0x00000000 x22:0x000000c9 x30=0x00000000
     1221637000	     60980	800079fc	0000100f	fence.i	
     1222097000	     61003	80007a00	404ddc33	sra	x24,x27,x4	 x27:0x80025ce4  x4:0x00f0f0f0 x24=0xffff8002
     1222837000	     61040	80007a04	02ad6c33	rem	x24,x26,x10	 x26:0x00000000 x10:0x0f0f0f9f x24=0x00000000
     1222857000	     61041	80007a08	010d04b3	add	x9,x26,x16	 x26:0x00000000 x16:0x821c459c  x9=0x821c459c
     1222877000	     61042	80007a0c	717d	c.addi16sp	x2,-16	  x2:0x00000000  x2=0xfffffff0
     1222897000	     61043	80007a0e	012fd333	srl	x6,x31,x18	 x31:0xfffffdc9 x18:0x00000000  x6=0xfffffdc9
     1222917000	     61044	80007a12	018b5d93	srli	x27,x22,0x18	 x22:0x000000c9 x27=0x00000000
     1222937000	     61045	80007a16	00ec9913	slli	x18,x25,0xe	 x25:0x00000000 x18=0x00000000
     1223677000	     61082	80007a1a	03f2f933	remu	x18,x5,x31	  x5:0x00000000 x31:0xfffffdc9 x18=0x00000000
     1224417000	     61119	80007a1e	033dd833	divu	x16,x27,x19	 x27:0x00000000 x19:0x3dddea86 x16=0x00000000
     1230937000	     61445	80007a22	0001	c.addi	x0,0	  x0:0x00000000  x0=0x00000000
     1230957000	     61446	80007a24	3b9071f3	csrrci	x3,pmpaddr9,0	  x3=0x0666730f
     1230977000	     61447	80007a28	0001	c.addi	x0,0	  x0:0x00000000  x0=0x00000000
     1230997000	     61448	80007a2a	98fd	c.andi	x9,-1	  x9:0x821c459c  x9=0x821c459c
     1231017000	     61449	80007a2c	30797617	auipc	x12,0x30797	 x12=0xb079ea2c
     1231037000	     61450	80007a30	717d	c.addi16sp	x2,-16	  x2:0xfffffff0  x2=0xffffffe0
     1231057000	     61451	80007a32	00a90433	add	x8,x18,x10	 x18:0x00000000 x10:0x0f0f0f9f  x8=0x0f0f0f9f
     1231077000	     61452	80007a36	8f01	c.sub	x14,x8	 x14:0x00000002  x8:0x0f0f0f9f x14=0xf0f0f063
     1231097000	     61453	80007a38	1e7d	c.addi	x28,-1	 x28:0xffc63658 x28=0xffc63657
     1232397000	     61518	80007a3a	03164bb3	div	x23,x12,x17	 x12:0xb079ea2c x17:0x00420611 x23=0xfffffecc
     1232417000	     61519	80007a3e	41e08bb3	sub	x23,x1,x30	  x1:0x7ffda31c x30:0x00000000 x23=0x7ffda31c
     1232437000	     61520	80007a42	00b8eb33	or	x22,x17,x11	 x17:0x00420611 x11:0x80021e64 x22=0x80421e75
     1232457000	     61521	80007a46	34065ef3	csrrwi	x29,mscratch,12	 x29=0xfffffc08
     1232477000	     61522	80007a4a	3b802373	csrrs	x6,pmpaddr8,x0	  x0:0x00000000  x6=0x02222ecb
     1232497000	     61523	80007a4e	40c45493	srai	x9,x8,0xc	  x8:0x0f0f0f9f  x9=0x0000f0f0
     1232517000	     61524	80007a52	411b8b33	sub	x22,x23,x17	 x23:0x7ffda31c x17:0x00420611 x22=0x7fbb9d0b
     1232557000	     61526	80007a56	012aca63	blt	x21,x18,80007a6a	 x21:0x00009000 x18:0x00000000
     1232597000	     61528	80007a5a	02f257b3	divu	x15,x4,x15	  x4:0x00f0f0f0 x15:0x00000000 x15=0xffffffff
     1232617000	     61529	80007a5e	8151	c.srli	x10,0x14	 x10:0x0f0f0f9f x10=0x000000f0
     1232997000	     61548	80007a60	bda0aa93	slti	x21,x1,-1062	  x1:0x7ffda31c x21=0x00000000
     1233017000	     61549	80007a64	8c81	c.sub	x9,x8	  x9:0x0000f0f0  x8:0x0f0f0f9f  x9=0xf0f1e151
     1233257000	     61561	80007a66	e571c813	xori	x16,x3,-425	  x3:0x0666730f x16=0xf9998d58
     1233277000	     61562	80007a6a	8739	c.srai	x14,0xe	 x14:0xf0f0f063 x14=0xffffc3c3
     1233357000	     61566	80007a6c	b0916c73	csrrsi	x24,mhpmcounter9,2	 x24=0x00000040
     1233417000	     61569	80007a70	035b8e63	beq	x23,x21,80007aac	 x23:0x7ffda31c x21:0x00000000
     1233457000	     61571	80007a74	418e5633	sra	x12,x28,x24	 x28:0xffc63657 x24:0x00000040 x12=0xffc63657
     1233477000	     61572	80007a78	8f5d	c.or	x14,x15	 x14:0xffffc3c3 x15:0xffffffff x14=0xffffffff
     1233497000	     61573	80007a7a	010b5c13	srli	x24,x22,0x10	 x22:0x7fbb9d0b x24=0x00007fbb
     1233517000	     61574	80007a7e	e61d	c.bnez	x12,80007aac	 x12:0xffc63657
     1234457000	     61621	80007aac	03479db3	mulh	x27,x15,x20	 x15:0xffffffff x20:0x7ffda31c x27=0xffffffff
     1234917000	     61644	80007ab0	022f0a33	mul	x20,x30,x2	 x30:0x00000000  x2:0xffffffe0 x20=0x00000000
     1235057000	     61651	80007ab4	02652d33	mulhsu	x26,x10,x6	 x10:0x000000f0  x6:0x02222ecb x26=0x00000002
     1235077000	     61652	80007ab8	e519	c.bnez	x10,80007ac6	 x10:0x000000f0
     1235157000	     61656	80007ac6	8f6e	c.mv	x30,x27	  x0:0x00000000 x27:0xffffffff x30=0xffffffff
     1235197000	     61658	80007ac8	416d0233	sub	x4,x26,x22	 x26:0x00000002 x22:0x7fbb9d0b  x4=0x804462f7
     1235217000	     61659	80007acc	00a8da33	srl	x20,x17,x10	 x17:0x00420611 x10:0x000000f0 x20=0x00000042
     1235237000	     61660	80007ad0	401c0233	sub	x4,x24,x1	 x24:0x00007fbb  x1:0x7ffda31c  x4=0x8002dc9f
     1235277000	     61662	80007ad4	025332b3	mulhu	x5,x6,x5	  x6:0x02222ecb  x5:0x00000000  x5=0x00000000
     1235417000	     61669	80007ad8	4008d413	srai	x8,x17,0x0	 x17:0x00420611  x8=0x00420611
     1235437000	     61670	80007adc	a0505137	lui	x2,0xa0505	  x2=0xa0505000
     1235497000	     61673	80007ae0	020a	c.slli	x4,0x2	  x4:0x8002dc9f  x4=0x000b727c
     1235537000	     61675	80007ae2	34403a73	csrrc	x20,mip,x0	  x0:0x00000000 x20=0x00000000
     1235957000	     61696	80007ae6	03cddf63	bge	x27,x28,80007b24	 x27:0xffffffff x28:0xffc63657
     1236517000	     61724	80007b24	808e	c.mv	x1,x3	  x0:0x00000000  x3:0x0666730f  x1=0x0666730f
     1236697000	     61733	80007b26	002a9993	slli	x19,x21,0x2	 x21:0x00000000 x19=0x00000000
     1236717000	     61734	80007b2a	0001	c.addi	x0,0	  x0:0x00000000  x0=0x00000000
     1236737000	     61735	80007b2c	41b004b3	sub	x9,x0,x27	  x0:0x00000000 x27:0xffffffff  x9=0x00000001
     1236757000	     61736	80007b30	0001	c.addi	x0,0	  x0:0x00000000  x0=0x00000000
     1236777000	     61737	80007b32	0001	c.addi	x0,0	  x0:0x00000000  x0=0x00000000
     1236897000	     61743	80007b34	03247d63	bgeu	x8,x18,80007b6e	  x8:0x00420611 x18:0x00000000
     1237737000	     61785	80007b6e	023b5b63	bge	x22,x3,80007ba4	 x22:0x7fbb9d0b  x3:0x0666730f
     1238577000	     61827	80007ba4	002f4c33	xor	x24,x30,x2	 x30:0xffffffff  x2:0xa0505000 x24=0x5fafafff
     1238737000	     61835	80007ba8	03b90f63	beq	x18,x27,80007be6	 x18:0x00000000 x27:0xffffffff
     1238757000	     61836	80007bac	01543933	sltu	x18,x8,x21	  x8:0x00420611 x21:0x00000000 x18=0x00000000
     1238937000	     61845	80007bb0	0080	c.addi4spn	x8,x2,64	  x8=0xa0505040
     1238957000	     61846	80007bb2	d7680093	addi	x1,x16,-650	 x16:0xf9998d58  x1=0xf9998ace
     1238977000	     61847	80007bb6	8e55	c.or	x12,x13	 x12:0xffc63657 x13:0x80025ce4 x12=0xffc67ef7
     1238997000	     61848	80007bb8	023c5b63	bge	x24,x3,80007bee	 x24:0x5fafafff  x3:0x0666730f
     1239237000	     61860	80007bee	1818	c.addi4spn	x14,x2,48	 x14=0xa0505030
     1239277000	     61862	80007bf0	c01be013	ori	x0,x23,-1023	 x23:0x7ffda31c  x0=0x00000000
     1239297000	     61863	80007bf4	00650033	add	x0,x10,x6	 x10:0x000000f0  x6:0x02222ecb  x0=0x00000000
     1239317000	     61864	80007bf8	0000100f	fence.i	
     1239457000	     61871	80007bfc	00c17d63	bgeu	x2,x12,80007c16	  x2:0xa0505000 x12:0xffc67ef7
     1239477000	     61872	80007c00	7e4f8d17	auipc	x26,0x7e4f8	 x26=0xfe4ffc00
     1239597000	     61878	80007c04	810e	c.mv	x2,x3	  x0:0x00000000  x3:0x0666730f  x2=0x0666730f
     1239637000	     61880	80007c06	03652fb3	mulhsu	x31,x10,x22	 x10:0x000000f0 x22:0x7fbb9d0b x31=0x00000077
     1239657000	     61881	80007c0a	b86c1373	csrrw	x6,mhpmcounter6h,x24	 x24:0x5fafafff  x6=0x00000000
     1239757000	     61886	80007c0e	f137a1f3	csrrs	x0,mimpid,x0	  x0:0x00000000  x0=0x00000000
     1240217000	     61909	80002500	0800006f	jal	x0,80002580	  x0=0x00000000
     1241257000	     61961	80002580	16f1	c.addi	x13,-4	 x13:0x80025ce4 x13=0x80025ce0
     1241597000	     61978	80002582	c28c	c.sw	x11,0(x13)	 x13:0x80025ce0 x11:0x80021e64 PA:0x80025ce0 store:0x80021e64 load:0xffffffff
     1241617000	     61979	80002584	000685b3	add	x11,x13,x0	 x13:0x80025ce0  x0:0x00000000 x11=0x80025ce0
     1241637000	     61980	80002588	f8058593	addi	x11,x11,-128	 x11:0x80025ce0 x11=0x80025c60
     1241997000	     61998	8000258c	0015a223	sw	x1,4(x11)	 x11:0x80025c60  x1:0xf9998ace PA:0x80025c64 store:0xf9998ace load:0xffffffff
     1242437000	     62020	80002590	0025a423	sw	x2,8(x11)	 x11:0x80025c60  x2:0x0666730f PA:0x80025c68 store:0x0666730f load:0xffffffff
     1242577000	     62027	80002594	0035a623	sw	x3,12(x11)	 x11:0x80025c60  x3:0x0666730f PA:0x80025c6c store:0x0666730f load:0xffffffff
     1242637000	     62030	80002598	0045a823	sw	x4,16(x11)	 x11:0x80025c60  x4:0x000b727c PA:0x80025c70 store:0x000b727c load:0xffffffff
     1243057000	     62051	8000259c	0055aa23	sw	x5,20(x11)	 x11:0x80025c60  x5:0x00000000 PA:0x80025c74 store:0x00000000 load:0xffffffff
     1243477000	     62072	800025a0	0065ac23	sw	x6,24(x11)	 x11:0x80025c60  x6:0x00000000 PA:0x80025c78 store:0x00000000 load:0xffffffff
     1243537000	     62075	800025a4	0075ae23	sw	x7,28(x11)	 x11:0x80025c60  x7:0x00000000 PA:0x80025c7c store:0x00000000 load:0xffffffff
     1243737000	     62085	800025a8	d180	c.sw	x8,32(x11)	 x11:0x80025c60  x8:0xa0505040 PA:0x80025c80 store:0xa0505040 load:0xffffffff
     1243937000	     62095	800025aa	d1c4	c.sw	x9,36(x11)	 x11:0x80025c60  x9:0x00000001 PA:0x80025c84 store:0x00000001 load:0xffffffff
     1243957000	     62096	800025ac	d588	c.sw	x10,40(x11)	 x11:0x80025c60 x10:0x000000f0 PA:0x80025c88 store:0x000000f0 load:0xffffffff
     1243977000	     62097	800025ae	d5cc	c.sw	x11,44(x11)	 x11:0x80025c60 x11:0x80025c60 PA:0x80025c8c store:0x80025c60 load:0xffffffff
     1244117000	     62104	800025b0	d990	c.sw	x12,48(x11)	 x11:0x80025c60 x12:0xffc67ef7 PA:0x80025c90 store:0xffc67ef7 load:0xffffffff
     1244557000	     62126	800025b2	d9d4	c.sw	x13,52(x11)	 x11:0x80025c60 x13:0x80025ce0 PA:0x80025c94 store:0x80025ce0 load:0xffffffff
     1244617000	     62129	800025b4	dd98	c.sw	x14,56(x11)	 x11:0x80025c60 x14:0xa0505030 PA:0x80025c98 store:0xa0505030 load:0xffffffff
     1245037000	     62150	800025b6	dddc	c.sw	x15,60(x11)	 x11:0x80025c60 x15:0xffffffff PA:0x80025c9c store:0xffffffff load:0xffffffff
     1245397000	     62168	800025b8	0505a023	sw	x16,64(x11)	 x11:0x80025c60 x16:0xf9998d58 PA:0x80025ca0 store:0xf9998d58 load:0xffffffff
     1245617000	     62179	800025bc	0515a223	sw	x17,68(x11)	 x11:0x80025c60 x17:0x00420611 PA:0x80025ca4 store:0x00420611 load:0xffffffff
     1245657000	     62181	800025c0	0525a423	sw	x18,72(x11)	 x11:0x80025c60 x18:0x00000000 PA:0x80025ca8 store:0x00000000 load:0xffffffff
     1245677000	     62182	800025c4	0535a623	sw	x19,76(x11)	 x11:0x80025c60 x19:0x00000000 PA:0x80025cac store:0x00000000 load:0xffffffff
     1245917000	     62194	800025c8	0545a823	sw	x20,80(x11)	 x11:0x80025c60 x20:0x00000000 PA:0x80025cb0 store:0x00000000 load:0xffffffff
     1245977000	     62197	800025cc	0555aa23	sw	x21,84(x11)	 x11:0x80025c60 x21:0x00000000 PA:0x80025cb4 store:0x00000000 load:0xffffffff
     1246297000	     62213	800025d0	0565ac23	sw	x22,88(x11)	 x11:0x80025c60 x22:0x7fbb9d0b PA:0x80025cb8 store:0x7fbb9d0b load:0xffffffff
     1246357000	     62216	800025d4	0575ae23	sw	x23,92(x11)	 x11:0x80025c60 x23:0x7ffda31c PA:0x80025cbc store:0x7ffda31c load:0xffffffff
     1246537000	     62225	800025d8	0785a023	sw	x24,96(x11)	 x11:0x80025c60 x24:0x5fafafff PA:0x80025cc0 store:0x5fafafff load:0xffffffff
     1246657000	     62231	800025dc	0795a223	sw	x25,100(x11)	 x11:0x80025c60 x25:0x00000000 PA:0x80025cc4 store:0x00000000 load:0xffffffff
     1247217000	     62259	800025e0	07a5a423	sw	x26,104(x11)	 x11:0x80025c60 x26:0xfe4ffc00 PA:0x80025cc8 store:0xfe4ffc00 load:0xffffffff
     1247277000	     62262	800025e4	07b5a623	sw	x27,108(x11)	 x11:0x80025c60 x27:0xffffffff PA:0x80025ccc store:0xffffffff load:0xffffffff
     1247377000	     62267	800025e8	07c5a823	sw	x28,112(x11)	 x11:0x80025c60 x28:0xffc63657 PA:0x80025cd0 store:0xffc63657 load:0xffffffff
     1247697000	     62283	800025ec	07d5aa23	sw	x29,116(x11)	 x11:0x80025c60 x29:0xfffffc08 PA:0x80025cd4 store:0xfffffc08 load:0xffffffff
     1247837000	     62290	800025f0	07e5ac23	sw	x30,120(x11)	 x11:0x80025c60 x30:0xffffffff PA:0x80025cd8 store:0xffffffff load:0xffffffff
     1247897000	     62293	800025f4	07f5ae23	sw	x31,124(x11)	 x11:0x80025c60 x31:0x00000077 PA:0x80025cdc store:0x00000077 load:0xffffffff
     1247917000	     62294	800025f8	000586b3	add	x13,x11,x0	 x11:0x80025c60  x0:0x00000000 x13=0x80025c60
     1247937000	     62295	800025fc	90000db7	lui	x27,0x90000	 x27=0x90000000
     1247957000	     62296	80002600	1df1	c.addi	x27,-4	 x27:0x90000000 x27=0x8ffffffc
     1247977000	     62297	80002602	4921	c.li	x18,8	 x18=0x00000008
     1247997000	     62298	80002604	0922	c.slli	x18,0x8	 x18:0x00000008 x18=0x00000800
     1248017000	     62299	80002606	00090913	addi	x18,x18,0	 x18:0x00000800 x18=0x00000800
     1248157000	     62306	8000260a	012da023	sw	x18,0(x27)	 x27:0x8ffffffc x18:0x00000800 PA:0x8ffffffc store:0x00000800 load:0xffffffff
     1248177000	     62307	8000260e	34102973	csrrs	x18,mepc,x0	  x0:0x00000000 x18=0x80007c0e
     1248237000	     62310	80002612	34202973	csrrs	x18,mcause,x0	  x0:0x00000000 x18=0x00000002
     1248257000	     62311	80002616	4d8d	c.li	x27,3	 x27=0x00000003
     1248657000	     62331	80002618	01b91463	bne	x18,x27,80002620	 x18:0x00000002 x27:0x00000003
     1249237000	     62360	80002620	4da1	c.li	x27,8	 x27=0x00000008
     1249257000	     62361	80002622	05b90d63	beq	x18,x27,8000267c	 x18:0x00000002 x27:0x00000008
     1249277000	     62362	80002626	4da5	c.li	x27,9	 x27=0x00000009
     1249417000	     62369	80002628	05b90a63	beq	x18,x27,8000267c	 x18:0x00000002 x27:0x00000009
     1249437000	     62370	8000262c	4dad	c.li	x27,11	 x27=0x0000000b
     1249457000	     62371	8000262e	05b90763	beq	x18,x27,8000267c	 x18:0x00000002 x27:0x0000000b
     1249477000	     62372	80002632	4d85	c.li	x27,1	 x27=0x00000001
     1249657000	     62381	80002634	35b90363	beq	x18,x27,8000297a	 x18:0x00000002 x27:0x00000001
     1250077000	     62402	80002638	4d95	c.li	x27,5	 x27=0x00000005
     1250277000	     62412	8000263a	63b90963	beq	x18,x27,80002c6c	 x18:0x00000002 x27:0x00000005
     1250297000	     62413	8000263e	4d9d	c.li	x27,7	 x27=0x00000007
     1250697000	     62433	80002640	15b90ae3	beq	x18,x27,80002f94	 x18:0x00000002 x27:0x00000007
     1250717000	     62434	80002644	4db1	c.li	x27,12	 x27=0x0000000c
     1250737000	     62435	80002646	01b91463	bne	x18,x27,8000264e	 x18:0x00000002 x27:0x0000000c
     1251517000	     62474	8000264e	4db5	c.li	x27,13	 x27=0x0000000d
     1251677000	     62482	80002650	01b91463	bne	x18,x27,80002658	 x18:0x00000002 x27:0x0000000d
     1254237000	     62610	80002658	4dbd	c.li	x27,15	 x27=0x0000000f
     1254257000	     62611	8000265a	01b91463	bne	x18,x27,80002662	 x18:0x00000002 x27:0x0000000f
     1254297000	     62613	80002662	4d89	c.li	x27,2	 x27=0x00000002
     1254317000	     62614	80002664	01b91463	bne	x18,x27,8000266c	 x18:0x00000002 x27:0x00000002
     1254477000	     62622	80002668	45c0906f	jal	x0,8000bac4	  x0=0x00000000
     1254657000	     62631	8000bac4	90000db7	lui	x27,0x90000	 x27=0x90000000
     1254697000	     62633	8000bac8	1df1	c.addi	x27,-4	 x27:0x90000000 x27=0x8ffffffc
     1254717000	     62634	8000baca	4929	c.li	x18,10	 x18=0x0000000a
     1254777000	     62637	8000bacc	0922	c.slli	x18,0x8	 x18:0x0000000a x18=0x00000a00
     1255077000	     62652	8000bace	00090913	addi	x18,x18,0	 x18:0x00000a00 x18=0x00000a00
     1255617000	     62679	8000bad2	012da023	sw	x18,0(x27)	 x27:0x8ffffffc x18:0x00000a00 PA:0x8ffffffc store:0x00000a00 load:0xffffffff
     1255917000	     62694	8000bad6	90000db7	lui	x27,0x90000	 x27=0x90000000
     1255937000	     62695	8000bada	1df1	c.addi	x27,-4	 x27:0x90000000 x27=0x8ffffffc
     1256337000	     62715	8000badc	34200913	addi	x18,x0,834	  x0:0x00000000 x18=0x00000342
     1256357000	     62716	8000bae0	0922	c.slli	x18,0x8	 x18:0x00000342 x18=0x00034200
     1256377000	     62717	8000bae2	090d	c.addi	x18,3	 x18:0x00034200 x18=0x00034203
     1256437000	     62720	8000bae4	012da023	sw	x18,0(x27)	 x27:0x8ffffffc x18:0x00034203 PA:0x8ffffffc store:0x00034203 load:0xffffffff
     1256457000	     62721	8000bae8	34202973	csrrs	x18,mcause,x0	  x0:0x00000000 x18=0x00000002
     1256577000	     62727	8000baec	012da023	sw	x18,0(x27)	 x27:0x8ffffffc x18:0x00000002 PA:0x8ffffffc store:0x00000002 load:0xffffffff
     1256877000	     62742	8000baf0	34102973	csrrs	x18,mepc,x0	  x0:0x00000000 x18=0x80007c0e
     1256957000	     62746	8000baf4	0911	c.addi	x18,4	 x18:0x80007c0e x18=0x80007c12
     1256977000	     62747	8000baf6	34191073	csrrw	x0,mepc,x18	 x18:0x80007c12  x0=0x00000000
     1257397000	     62768	8000bafa	000685b3	add	x11,x13,x0	 x13:0x80025c60  x0:0x00000000 x11=0x80025c60
     1257577000	     62777	8000bafe	0045a083	lw	x1,4(x11)	 x11:0x80025c60  x1=0xf9998ace PA:0x80025c64 load:0xf9998ace
     1257657000	     62781	8000bb02	0085a103	lw	x2,8(x11)	 x11:0x80025c60  x2=0x0666730f PA:0x80025c68 load:0x0666730f
     1258077000	     62802	8000bb06	00c5a183	lw	x3,12(x11)	 x11:0x80025c60  x3=0x0666730f PA:0x80025c6c load:0x0666730f
     1258137000	     62805	8000bb0a	0105a203	lw	x4,16(x11)	 x11:0x80025c60  x4=0x000b727c PA:0x80025c70 load:0x000b727c
     1258557000	     62826	8000bb0e	0145a283	lw	x5,20(x11)	 x11:0x80025c60  x5=0x00000000 PA:0x80025c74 load:0x00000000
     1258777000	     62837	8000bb12	0185a303	lw	x6,24(x11)	 x11:0x80025c60  x6=0x00000000 PA:0x80025c78 load:0x00000000
     1258837000	     62840	8000bb16	01c5a383	lw	x7,28(x11)	 x11:0x80025c60  x7=0x00000000 PA:0x80025c7c load:0x00000000
     1258857000	     62841	8000bb1a	5180	c.lw	x8,32(x11)	 x11:0x80025c60  x8=0xa0505040 PA:0x80025c80 load:0xa0505040
     1258877000	     62842	8000bb1c	51c4	c.lw	x9,36(x11)	 x11:0x80025c60  x9=0x00000001 PA:0x80025c84 load:0x00000001
     1258897000	     62843	8000bb1e	5588	c.lw	x10,40(x11)	 x11:0x80025c60 x10=0x000000f0 PA:0x80025c88 load:0x000000f0
     1259057000	     62851	8000bb20	55cc	c.lw	x11,44(x11)	 x11:0x80025c60 x11=0x80025c60 PA:0x80025c8c load:0x80025c60
     1259337000	     62865	8000bb22	5990	c.lw	x12,48(x11)	 x11:0x80025c60 x12=0xffc67ef7 PA:0x80025c90 load:0xffc67ef7
     1259397000	     62868	8000bb24	59d4	c.lw	x13,52(x11)	 x11:0x80025c60 x13=0x80025ce0 PA:0x80025c94 load:0x80025ce0
     1259497000	     62873	8000bb26	5d98	c.lw	x14,56(x11)	 x11:0x80025c60 x14=0xa0505030 PA:0x80025c98 load:0xa0505030
     1259697000	     62883	8000bb28	5ddc	c.lw	x15,60(x11)	 x11:0x80025c60 x15=0xffffffff PA:0x80025c9c load:0xffffffff
     1259757000	     62886	8000bb2a	0405a803	lw	x16,64(x11)	 x11:0x80025c60 x16=0xf9998d58 PA:0x80025ca0 load:0xf9998d58
     1259777000	     62887	8000bb2e	0445a883	lw	x17,68(x11)	 x11:0x80025c60 x17=0x00420611 PA:0x80025ca4 load:0x00420611
     1259797000	     62888	8000bb32	0485a903	lw	x18,72(x11)	 x11:0x80025c60 x18=0x00000000 PA:0x80025ca8 load:0x00000000
     1259957000	     62896	8000bb36	04c5a983	lw	x19,76(x11)	 x11:0x80025c60 x19=0x00000000 PA:0x80025cac load:0x00000000
     1260077000	     62902	8000bb3a	0505aa03	lw	x20,80(x11)	 x11:0x80025c60 x20=0x00000000 PA:0x80025cb0 load:0x00000000
     1260537000	     62925	8000bb3e	0545aa83	lw	x21,84(x11)	 x11:0x80025c60 x21=0x00000000 PA:0x80025cb4 load:0x00000000
     1260677000	     62932	8000bb42	0585ab03	lw	x22,88(x11)	 x11:0x80025c60 x22=0x7fbb9d0b PA:0x80025cb8 load:0x7fbb9d0b
     1261117000	     62954	8000bb46	05c5ab83	lw	x23,92(x11)	 x11:0x80025c60 x23=0x7ffda31c PA:0x80025cbc load:0x7ffda31c
     1261317000	     62964	8000bb4a	0605ac03	lw	x24,96(x11)	 x11:0x80025c60 x24=0x5fafafff PA:0x80025cc0 load:0x5fafafff
     1261377000	     62967	8000bb4e	0645ac83	lw	x25,100(x11)	 x11:0x80025c60 x25=0x00000000 PA:0x80025cc4 load:0x00000000
     1261497000	     62973	8000bb52	0685ad03	lw	x26,104(x11)	 x11:0x80025c60 x26=0xfe4ffc00 PA:0x80025cc8 load:0xfe4ffc00
     1261597000	     62978	8000bb56	06c5ad83	lw	x27,108(x11)	 x11:0x80025c60 x27=0xffffffff PA:0x80025ccc load:0xffffffff
     1261657000	     62981	8000bb5a	0705ae03	lw	x28,112(x11)	 x11:0x80025c60 x28=0xffc63657 PA:0x80025cd0 load:0xffc63657
     1261677000	     62982	8000bb5e	0745ae83	lw	x29,116(x11)	 x11:0x80025c60 x29=0xfffffc08 PA:0x80025cd4 load:0xfffffc08
     1261697000	     62983	8000bb62	0785af03	lw	x30,120(x11)	 x11:0x80025c60 x30=0xffffffff PA:0x80025cd8 load:0xffffffff
     1261757000	     62986	8000bb66	07c5af83	lw	x31,124(x11)	 x11:0x80025c60 x31=0x00000077 PA:0x80025cdc load:0x00000077
     1262117000	     63004	8000bb6a	08058593	addi	x11,x11,128	 x11:0x80025c60 x11=0x80025ce0
     1262137000	     63005	8000bb6e	000586b3	add	x13,x11,x0	 x11:0x80025ce0  x0:0x00000000 x13=0x80025ce0
     1262277000	     63012	8000bb72	428c	c.lw	x11,0(x13)	 x13:0x80025ce0 x11=0x80021e64 PA:0x80025ce0 load:0x80021e64
     1262297000	     63013	8000bb74	0691	c.addi	x13,4	 x13:0x80025ce0 x13=0x80025ce4
     1262317000	     63014	8000bb76	30200073	mret	
     1263237000	     63060	80007c12	001b4463	blt	x22,x1,80007c1a	 x22:0x7fbb9d0b  x1:0xf9998ace
     1263577000	     63077	80007c16	01081513	slli	x10,x16,0x10	 x16:0xf9998d58 x10=0x8d580000
     1263597000	     63078	80007c1a	6165	c.addi16sp	x2,112	  x2:0x0666730f  x2=0x0666737f
     1263617000	     63079	80007c1c	03160e63	beq	x12,x17,80007c58	 x12:0xffc67ef7 x17:0x00420611
     1264417000	     63119	80007c20	0315ed33	rem	x26,x11,x17	 x11:0x80021e64 x17:0x00420611 x26=0xffeddf54
     1264437000	     63120	80007c24	0000100f	fence.i	
     1264997000	     63148	80007c28	d8900e97	auipc	x29,0xd8900	 x29=0x58907c28
     1265417000	     63169	80007c2c	8491	c.srai	x9,0x4	  x9:0x00000001  x9=0x00000000
     1265437000	     63170	80007c2e	4d96f793	andi	x15,x13,1241	 x13:0x80025ce4 x15=0x000004c0
     1265477000	     63172	80007c32	03782533	mulhsu	x10,x16,x23	 x16:0xf9998d58 x23:0x7ffda31c x10=0xfcccd5cb
     1265497000	     63173	80007c36	8e45	c.or	x12,x9	 x12:0xffc67ef7  x9:0x00000000 x12=0xffc67ef7
     1265537000	     63175	80007c38	01a2de63	bge	x5,x26,80007c54	  x5:0x00000000 x26:0xffeddf54
     1265817000	     63189	80007c54	02f34d63	blt	x6,x15,80007c8e	  x6:0x00000000 x15:0x000004c0
     1266437000	     63220	80007c8e	01b8bab3	sltu	x21,x17,x27	 x17:0x00420611 x27:0xffffffff x21=0x00000001
     1266457000	     63221	80007c92	324258f3	csrrwi	x17,mhpmevent4,4	 x17=0x00000002
     1266617000	     63229	80007c96	ddad6d13	ori	x26,x26,-550	 x26:0xffeddf54 x26=0xffffffde
     1266757000	     63236	80007c9a	003eb033	sltu	x0,x29,x3	 x29:0x58907c28  x3:0x0666730f  x0=0x00000000
     1266777000	     63237	80007c9e	8451	c.srai	x8,0x14	  x8:0xa0505040  x8=0xfffffa05
     1266797000	     63238	80007ca0	b8c077f3	csrrci	x15,mhpmcounter12h,0	 x15=0x00000000
     1266977000	     63247	80007ca4	0304	c.addi4spn	x9,x2,384	  x9=0x066674ff
     1266997000	     63248	80007ca6	8d1d	c.sub	x10,x15	 x10:0xfcccd5cb x15:0x00000000 x10=0xfcccd5cb
     1267017000	     63249	80007ca8	0100ce33	xor	x28,x1,x16	  x1:0xf9998ace x16:0xf9998d58 x28=0x00000796
     1267037000	     63250	80007cac	0accba13	sltiu	x20,x25,172	 x25:0x00000000 x20=0x00000001
     1267297000	     63263	80007cb0	40195493	srai	x9,x18,0x1	 x18:0x00000000  x9=0x00000000
     1268337000	     63315	80007cb4	02d5d133	divu	x2,x11,x13	 x11:0x80021e64 x13:0x80025ce4  x2=0x00000000
     1268357000	     63316	80007cb8	00bbc8b3	xor	x17,x23,x11	 x23:0x7ffda31c x11:0x80021e64 x17=0xffffbd78
     1268377000	     63317	80007cbc	8c45	c.or	x8,x9	  x8:0xfffffa05  x9:0x00000000  x8=0xfffffa05
     1268397000	     63318	80007cbe	023e6563	bltu	x28,x3,80007ce8	 x28:0x00000796  x3:0x0666730f
     1268637000	     63330	80007ce8	b0006d73	csrrsi	x26,mcycle,0	 x26=0x800255fe
     1268657000	     63331	80007cec	001962b3	or	x5,x18,x1	 x18:0x00000000  x1:0xf9998ace  x5=0xf9998ace
     1268697000	     63333	80007cf0	9e9e	c.add	x29,x7	 x29:0x58907c28  x7:0x00000000 x29=0x58907c28
     1268757000	     63336	80007cf2	d4b70c13	addi	x24,x14,-693	 x14:0xa0505030 x24=0xa0504d7b
     1268777000	     63337	80007cf6	032e0833	mul	x16,x28,x18	 x28:0x00000796 x18:0x00000000 x16=0x00000000
     1268797000	     63338	80007cfa	6102f4b7	lui	x9,0x6102f	  x9=0x6102f000
     1268817000	     63339	80007cfe	58fd	c.li	x17,-1	 x17=0xffffffff
     1268837000	     63340	80007d00	8e41	c.or	x12,x8	 x12:0xffc67ef7  x8:0xfffffa05 x12=0xfffffef7
     1268917000	     63344	80007d02	e616e113	ori	x2,x13,-415	 x13:0x80025ce4  x2=0xfffffee5
     1268937000	     63345	80007d06	8e11	c.sub	x12,x12	 x12:0xfffffef7 x12:0xfffffef7 x12=0x00000000
     1269237000	     63360	80007d08	00f5c933	xor	x18,x11,x15	 x11:0x80021e64 x15:0x00000000 x18=0x80021e64
     1269977000	     63397	80007d0c	0235f8b3	remu	x17,x11,x3	 x11:0x80021e64  x3:0x0666730f x17=0x00012138
     1269997000	     63398	80007d10	04e90263	beq	x18,x14,80007d54	 x18:0x80021e64 x14:0xa0505030
     1270737000	     63435	80007d14	034af733	remu	x14,x21,x20	 x21:0x00000001 x20:0x00000001 x14=0x00000000
     1271477000	     63472	80007d18	036acdb3	div	x27,x21,x22	 x21:0x00000001 x22:0x7fbb9d0b x27=0x00000000
     1271497000	     63473	80007d1c	000a51b3	srl	x3,x20,x0	 x20:0x00000001  x0:0x00000000  x3=0x00000001
     1271517000	     63474	80007d20	005b34b3	sltu	x9,x22,x5	 x22:0x7fbb9d0b  x5:0xf9998ace  x9=0x00000001
     1271537000	     63475	80007d24	03588ab3	mul	x21,x17,x21	 x17:0x00012138 x21:0x00000001 x21=0x00012138
     1271577000	     63477	80007d28	03375733	divu	x14,x14,x19	 x14:0x00000000 x19:0x00000000 x14=0xffffffff
     1271597000	     63478	80007d2c	897e	c.mv	x18,x31	  x0:0x00000000 x31:0x00000077 x18=0x00000077
     1272337000	     63515	80007d2e	035a6933	rem	x18,x20,x21	 x20:0x00000001 x21:0x00012138 x18=0x00000001
     1273077000	     63552	80007d32	03a8e0b3	rem	x1,x17,x26	 x17:0x00012138 x26:0x800255fe  x1=0x00012138
     1273097000	     63553	80007d36	7ef23293	sltiu	x5,x4,2031	  x4:0x000b727c  x5=0x00000000
     1273117000	     63554	80007d3a	8fc5	c.or	x15,x9	 x15:0x00000000  x9:0x00000001 x15=0x00000001
     1273157000	     63556	80007d3c	036120b3	mulhsu	x1,x2,x22	  x2:0xfffffee5 x22:0x7fbb9d0b  x1=0xffffff72
     1273197000	     63558	80007d40	02cacb33	div	x22,x21,x12	 x21:0x00012138 x12:0x00000000 x22=0xffffffff
     1273217000	     63559	80007d44	b03a1373	csrrw	x6,mhpmcounter3,x20	 x20:0x00000001  x6=0x00000572
     1273277000	     63562	80007d48	0000100f	fence.i	
     1273937000	     63595	80007d4c	3bc03273	csrrc	x4,pmpaddr12,x0	  x0:0x00000000  x4=0x13333fdc
     1274357000	     63616	80007d50	023ef663	bgeu	x29,x3,80007d7c	 x29:0x58907c28  x3:0x00000001
     1275117000	     63654	80007d7c	ed05	c.bnez	x10,80007db4	 x10:0xfcccd5cb
     1275277000	     63662	80007db4	8765	c.srai	x14,0x19	 x14:0xffffffff x14=0xffffffff
     1275297000	     63663	80007db6	41dbd613	srai	x12,x23,0x1d	 x23:0x7ffda31c x12=0x00000003
     1275317000	     63664	80007dba	164f8737	lui	x14,0x164f8	 x14=0x164f8000
     1275337000	     63665	80007dbe	611d	c.addi16sp	x2,416	  x2:0xfffffee5  x2=0x00000085
     1275717000	     63684	80007dc0	b88e5173	csrrwi	x2,mhpmcounter8h,28	  x2=0x00000000
     1275997000	     63698	80007dc4	f1107c73	csrrci	x24,mvendorid,0	 x24=0x00000000
     1276017000	     63699	80007dc8	8f35	c.xor	x14,x13	 x14:0x164f8000 x13:0x80025ce4 x14=0x964ddce4
     1276757000	     63736	80007dca	03d3d933	divu	x18,x7,x29	  x7:0x00000000 x29:0x58907c28 x18=0x00000000
     1276777000	     63737	80007dce	01be8a63	beq	x29,x27,80007de2	 x29:0x58907c28 x27:0x00000000
     1276797000	     63738	80007dd2	0b2e	c.slli	x22,0xb	 x22:0xffffffff x22=0xfffff800
     1276817000	     63739	80007dd4	8341	c.srli	x14,0x10	 x14:0x964ddce4 x14=0x0000964d
     1276857000	     63741	80007dd6	021e12b3	mulh	x5,x28,x1	 x28:0x00000796  x1:0xffffff72  x5=0xffffffff
     1276877000	     63742	80007dda	b0307073	csrrci	x0,mhpmcounter3,0	  x0=0x00000000
     1276897000	     63743	80007dde	87f2	c.mv	x15,x28	  x0:0x00000000 x28:0x00000796 x15=0x00000796
     1276917000	     63744	80007de0	0001	c.addi	x0,0	  x0:0x00000000  x0=0x00000000
     1276937000	     63745	80007de2	61dd	c.lui	x3,0x17	  x3=0x00017000
     1276957000	     63746	80007de4	0ff0000f	fence	iorw,iorw	
     1277337000	     63765	80007de8	32359cf3	csrrw	x25,mhpmevent3,x11	 x11:0x80021e64 x25=0x00000001
     1277717000	     63784	80007dec	03005fb3	divu	x31,x0,x16	  x0:0x00000000 x16:0x00000000 x31=0xffffffff
     1277937000	     63795	80007df0	0001	c.addi	x0,0	  x0:0x00000000  x0=0x00000000
     1278037000	     63800	80007df2	019e6c33	or	x24,x28,x25	 x28:0x00000796 x25:0x00000001 x24=0x00000797
     1278057000	     63801	80007df6	403d0ab3	sub	x21,x26,x3	 x26:0x800255fe  x3:0x00017000 x21=0x8000e5fe
     1278797000	     63838	80007dfa	035a6f33	rem	x30,x20,x21	 x20:0x00000001 x21:0x8000e5fe x30=0x00000001
     1278837000	     63840	80007dfe	039aac33	mulhsu	x24,x21,x25	 x21:0x8000e5fe x25:0x00000001 x24=0xffffffff
     1278857000	     63841	80007e02	00fa4463	blt	x20,x15,80007e0a	 x20:0x00000001 x15:0x00000796
     1278937000	     63845	80007e0a	4a1d	c.li	x20,7	 x20=0x00000007
     1278957000	     63846	80007e0c	8d45	c.or	x10,x9	 x10:0xfcccd5cb  x9:0x00000001 x10=0xfcccd5cb
     1279377000	     63867	80007e0e	01f43b33	sltu	x22,x8,x31	  x8:0xfffffa05 x31:0xffffffff x22=0x00000001
     1279397000	     63868	80007e12	8a0d	c.andi	x12,3	 x12:0x00000003 x12=0x00000003
     1279477000	     63872	80007e14	034620b3	mulhsu	x1,x12,x20	 x12:0x00000003 x20:0x00000007  x1=0x00000000
     1279497000	     63873	80007e18	8fa5	c.xor	x15,x9	 x15:0x00000796  x9:0x00000001 x15=0x00000797
     1279537000	     63875	80007e1a	02b038b3	mulhu	x17,x0,x11	  x0:0x00000000 x11:0x80021e64 x17=0x00000000
     1279557000	     63876	80007e1e	0198f763	bgeu	x17,x25,80007e2c	 x17:0x00000000 x25:0x00000001
     1279577000	     63877	80007e22	0436	c.slli	x8,0xd	  x8:0xfffffa05  x8=0xff40a000
     1279597000	     63878	80007e24	028104b3	mul	x9,x2,x8	  x2:0x00000000  x8:0xff40a000  x9=0x00000000
     1280337000	     63915	80007e28	02dfc433	div	x8,x31,x13	 x31:0xffffffff x13:0x80025ce4  x8=0x00000000
     1280377000	     63917	80007e2c	03899d33	mulh	x26,x19,x24	 x19:0x00000000 x24:0xffffffff x26=0x00000000
     1280397000	     63918	80007e30	01004eb3	xor	x29,x0,x16	  x0:0x00000000 x16:0x00000000 x29=0x00000000
     1280417000	     63919	80007e34	8d59	c.or	x10,x14	 x10:0xfcccd5cb x14:0x0000964d x10=0xfcccd7cf
     1280437000	     63920	80007e36	8c15	c.sub	x8,x13	  x8:0x00000000 x13:0x80025ce4  x8=0x7ffda31c
     1280457000	     63921	80007e38	8fed	c.and	x15,x11	 x15:0x00000797 x11:0x80021e64 x15=0x00000604
     1280477000	     63922	80007e3a	406950b3	sra	x1,x18,x6	 x18:0x00000000  x6:0x00000572  x1=0x00000000
     1280937000	     63945	80007e3e	02c1aab3	mulhsu	x21,x3,x12	  x3:0x00017000 x12:0x00000003 x21=0x00000000
     1280957000	     63946	80007e42	936e	c.add	x6,x27	  x6:0x00000572 x27:0x00000000  x6=0x00000572
     1281117000	     63954	80007e44	8fa5	c.xor	x15,x9	 x15:0x00000604  x9:0x00000000 x15=0x00000604
     1281537000	     63975	80007e46	0127afb3	slt	x31,x15,x18	 x15:0x00000604 x18:0x00000000 x31=0x00000000
     1281917000	     63994	80007e4a	02c10e63	beq	x2,x12,80007e86	  x2:0x00000000 x12:0x00000003
     1282037000	     64000	80007e4e	01b4ee63	bltu	x9,x27,80007e6a	  x9:0x00000000 x27:0x00000000
     1282177000	     64007	80007e52	4d858f93	addi	x31,x11,1240	 x11:0x80021e64 x31=0x8002233c
     1282197000	     64008	80007e56	02ca	c.slli	x5,0x12	  x5:0xffffffff  x5=0xfffc0000
     1282217000	     64009	80007e58	6165	c.addi16sp	x2,112	  x2:0x00000000  x2=0x00000070
     1282277000	     64012	80007e5a	41a97317	auipc	x6,0x41a97	  x6=0xc1a9ee5a
     1282297000	     64013	80007e5e	1bfd	c.addi	x23,-1	 x23:0x7ffda31c x23=0x7ffda31b
     1282317000	     64014	80007e60	050e	c.slli	x10,0x3	 x10:0xfcccd7cf x10=0xe666be78
     1288817000	     64339	80007e62	0299cbb3	div	x23,x19,x9	 x19:0x00000000  x9:0x00000000 x23=0xffffffff
     1288837000	     64340	80007e66	0163bdb3	sltu	x27,x7,x22	  x7:0x00000000 x22:0x00000001 x27=0x00000001
     1288857000	     64341	80007e6a	00eafc63	bgeu	x21,x14,80007e82	 x21:0x00000000 x14:0x0000964d
     1288877000	     64342	80007e6e	00956233	or	x4,x10,x9	 x10:0xe666be78  x9:0x00000000  x4=0xe666be78
     1288897000	     64343	80007e72	8a9a	c.mv	x21,x6	  x0:0x00000000  x6:0xc1a9ee5a x21=0xc1a9ee5a
     1288917000	     64344	80007e74	cc58c917	auipc	x18,0xcc58c	 x18=0x4c593e74
     1288937000	     64345	80007e78	40f3d113	srai	x2,x7,0xf	  x7:0x00000000  x2=0x00000000
     1288957000	     64346	80007e7c	8e1d	c.sub	x12,x15	 x12:0x00000003 x15:0x00000604 x12=0xfffff9ff
     1288977000	     64347	80007e7e	9b5fec93	ori	x25,x31,-1611	 x31:0x8002233c x25=0xfffffbbd
     1288997000	     64348	80007e82	0096bfb3	sltu	x31,x13,x9	 x13:0x80025ce4  x9:0x00000000 x31=0x00000000
     1289017000	     64349	80007e86	8239	c.srli	x12,0xe	 x12:0xfffff9ff x12=0x0003ffff
     1289217000	     64359	80007e88	017a5c13	srli	x24,x20,0x17	 x20:0x00000007 x24=0x00000000
     1289637000	     64380	80007e8c	87b1	c.srai	x15,0xc	 x15:0x00000604 x15=0x00000000
     1289657000	     64381	80007e8e	02635e63	bge	x6,x6,80007eca	  x6:0xc1a9ee5a  x6:0xc1a9ee5a
     1289737000	     64385	80007eca	0001	c.addi	x0,0	  x0:0x00000000  x0=0x00000000
     1289757000	     64386	80007ecc	00d5eeb3	or	x29,x11,x13	 x11:0x80021e64 x13:0x80025ce4 x29=0x80025ee4
     1289777000	     64387	80007ed0	044f7c13	andi	x24,x30,68	 x30:0x00000001 x24=0x00000000
     1289797000	     64388	80007ed4	c6448417	auipc	x8,0xc6448	  x8=0x4644fed4
     1289817000	     64389	80007ed8	00f40663	beq	x8,x15,80007ee4	  x8:0x4644fed4 x15:0x00000000
     1289837000	     64390	80007edc	00bd7ab3	and	x21,x26,x11	 x26:0x00000000 x11:0x80021e64 x21=0x00000000
     1290057000	     64401	80007ee0	0001	c.addi	x0,0	  x0:0x00000000  x0=0x00000000
     1290077000	     64402	80007ee2	07ad	c.addi	x15,11	 x15:0x00000000 x15=0x0000000b
     1290097000	     64403	80007ee4	01609c13	slli	x24,x1,0x16	  x1:0x00000000 x24=0x00000000
     1290117000	     64404	80007ee8	0311cd63	blt	x3,x17,80007f22	  x3:0x00017000 x17:0x00000000
     1290217000	     64409	80007eec	9a7d	c.andi	x12,-1	 x12:0x0003ffff x12=0x0003ffff
     1290257000	     64411	80007eee	035a9c33	mulh	x24,x21,x21	 x21:0x00000000 x21:0x00000000 x24=0x00000000
     1290277000	     64412	80007ef2	014db533	sltu	x10,x27,x20	 x27:0x00000001 x20:0x00000007 x10=0x00000001
     1290297000	     64413	80007ef6	018d6a33	or	x20,x26,x24	 x26:0x00000000 x24:0x00000000 x20=0x00000000
     1290397000	     64418	80007efa	7a007773	csrrci	x14,tselect,0	 x14=0x00000000
     1290417000	     64419	80007efe	021fea63	bltu	x31,x1,80007f32	 x31:0x00000000  x1:0x00000000
     1290437000	     64420	80007f02	029a7a63	bgeu	x20,x9,80007f36	 x20:0x00000000  x9:0x00000000
     1291157000	     64456	80007f36	c9094b13	xori	x22,x18,-880	 x18:0x4c593e74 x22=0xb3a6c2e4
     1291577000	     64477	80007f3a	4124dfb3	sra	x31,x9,x18	  x9:0x00000000 x18:0x4c593e74 x31=0x00000000
     1291597000	     64478	80007f3e	8f11	c.sub	x14,x12	 x14:0x00000000 x12:0x0003ffff x14=0xfffc0001
     1291617000	     64479	80007f40	0001	c.addi	x0,0	  x0:0x00000000  x0=0x00000000
     1291637000	     64480	80007f42	0dfd	c.addi	x27,31	 x27:0x00000001 x27=0x00000020
     1291777000	     64487	80007f44	80d6eb13	ori	x22,x13,-2035	 x13:0x80025ce4 x22=0xfffffced
     1291997000	     64498	80007f48	83ea7613	andi	x12,x20,-1986	 x20:0x00000000 x12=0x00000000
     1292417000	     64519	80007f4c	873d	c.srai	x14,0xf	 x14:0xfffc0001 x14=0xfffffff8
     1292617000	     64529	80007f4e	4a3c3837	lui	x16,0x4a3c3	 x16=0x4a3c3000
     1292637000	     64530	80007f52	8d35	c.xor	x10,x13	 x10:0x00000001 x13:0x80025ce4 x10=0x80025ce5
     1292657000	     64531	80007f54	008a8033	add	x0,x21,x8	 x21:0x00000000  x8:0x4644fed4  x0=0x00000000
     1292677000	     64532	80007f58	e131	c.bnez	x10,80007f9c	 x10:0x80025ce5
     1292897000	     64543	80007f9c	0ff0000f	fence	iorw,iorw	
     1292937000	     64545	80007fa0	8169	c.srli	x10,0x1a	 x10:0x80025ce5 x10=0x00000020
     1292977000	     64547	80007fa2	02024733	div	x14,x4,x0	  x4:0xe666be78  x0:0x00000000 x14=0xffffffff
     1292997000	     64548	80007fa6	0000100f	fence.i	
     1293497000	     64573	80007faa	036b3e33	mulhu	x28,x22,x22	 x22:0xfffffced x22:0xfffffced x28=0xfffff9da
     1293517000	     64574	80007fae	03e86963	bltu	x16,x30,80007fe0	 x16:0x4a3c3000 x30:0x00000001
     1293537000	     64575	80007fb2	b8579673	csrrw	x12,mhpmcounter5h,x15	 x15:0x0000000b x12=0x00000000
     1293597000	     64578	80007fb6	8c25	c.xor	x8,x9	  x8:0x4644fed4  x9:0x00000000  x8=0x4644fed4
     1293857000	     64591	80007fb8	b06be073	csrrsi	x0,mhpmcounter6,23	  x0=0x00000000
     1293917000	     64594	80007fbc	3a306bf3	csrrsi	x23,pmpcfg3,0	 x23=0x0f0f0f0f
     1294037000	     64600	80007fc0	027b0e33	mul	x28,x22,x7	 x22:0xfffffced  x7:0x00000000 x28=0x00000000
     1294137000	     64605	80007fc4	83e5	c.srli	x15,0x19	 x15:0x0000000b x15=0x00000000
     1294557000	     64626	80007fc6	03ade163	bltu	x27,x26,80007fe8	 x27:0x00000020 x26:0x00000000
     1294737000	     64635	80007fca	009879b3	and	x19,x16,x9	 x16:0x4a3c3000  x9:0x00000000 x19=0x00000000
     1294757000	     64636	80007fce	028e8763	beq	x29,x8,80007ffc	 x29:0x80025ee4  x8:0x4644fed4
     1294937000	     64645	80007fd2	031c47b3	div	x15,x24,x17	 x24:0x00000000 x17:0x00000000 x15=0xffffffff
     1295057000	     64651	80007fd6	e64b4e93	xori	x29,x22,-412	 x22:0xfffffced x29=0x00000289
     1295077000	     64652	80007fda	0001	c.addi	x0,0	  x0:0x00000000  x0=0x00000000
     1295137000	     64655	80007fdc	83656d93	ori	x27,x10,-1994	 x10:0x00000020 x27=0xfffff836
     1295337000	     64665	80007fe0	019afc63	bgeu	x21,x25,80007ff8	 x21:0x00000000 x25:0xfffffbbd
     1295357000	     64666	80007fe4	a6a2ef93	ori	x31,x5,-1430	  x5:0xfffc0000 x31=0xfffffa6a
     1295377000	     64667	80007fe8	34107573	csrrci	x10,mepc,0	 x10=0x80007c12
     1295757000	     64686	80007fec	310b1ff3	csrrw	x31,0x310,x22	 x22:0xfffffced x31=0x00000000
     1295817000	     64689	80007ff0	0144b633	sltu	x12,x9,x20	  x9:0x00000000 x20:0x00000000 x12=0x00000000
     1295837000	     64690	80007ff4	00fa40b3	xor	x1,x20,x15	 x20:0x00000000 x15:0xffffffff  x1=0xffffffff
     1295857000	     64691	80007ff8	acd9f993	andi	x19,x19,-1331	 x19:0x00000000 x19=0x00000000
     1296277000	     64712	80007ffc	01d92233	slt	x4,x18,x29	 x18:0x4c593e74 x29:0x00000289  x4=0x00000000
     1296397000	     64718	80008000	b650e293	ori	x5,x1,-1179	  x1:0xffffffff  x5=0xffffffff
     1296417000	     64719	80008004	832d	c.srli	x14,0xb	 x14:0xffffffff x14=0x001fffff
     1297157000	     64756	80008006	0286c9b3	div	x19,x13,x8	 x13:0x80025ce4  x8:0x4644fed4 x19=0xffffffff
     1297197000	     64758	8000800a	03372933	mulhsu	x18,x14,x19	 x14:0x001fffff x19:0xffffffff x18=0x001ffffe
     1297217000	     64759	8000800e	84b9	c.srai	x9,0xe	  x9:0x00000000  x9=0x00000000
     1297237000	     64760	80008010	007a6eb3	or	x29,x20,x7	 x20:0x00000000  x7:0x00000000 x29=0x00000000
     1297277000	     64762	80008014	0200a733	mulhsu	x14,x1,x0	  x1:0xffffffff  x0:0x00000000 x14=0x00000000
     1297297000	     64763	80008018	e899	c.bnez	x9,8000802e	  x9:0x00000000
     1297377000	     64767	8000801a	02034e63	blt	x6,x0,80008056	  x6:0xc1a9ee5a  x0:0x00000000
     1297637000	     64780	80008056	0baa	c.slli	x23,0xa	 x23:0x0f0f0f0f x23=0x3c3c3c00
     1297657000	     64781	80008058	91c6	c.add	x3,x17	  x3:0x00017000 x17:0x00000000  x3=0x00017000
     1297677000	     64782	8000805a	017c9713	slli	x14,x25,0x17	 x25:0xfffffbbd x14=0xde800000
     1298097000	     64803	8000805e	6f82ad13	slti	x26,x5,1784	  x5:0xffffffff x26=0x00000001
     1298137000	     64805	80008062	0262d763	bge	x5,x6,80008090	  x5:0xffffffff  x6:0xc1a9ee5a
     1298597000	     64828	80008090	03a05163	bge	x0,x26,800080b2	  x0:0x00000000 x26:0x00000001
     1298777000	     64837	80008094	1f08	c.addi4spn	x10,x2,944	 x10=0x000003b0
     1299197000	     64858	80008096	41e4da33	sra	x20,x9,x30	  x9:0x00000000 x30:0x00000001 x20=0x00000000
     1299337000	     64865	8000809a	01a2cd63	blt	x5,x26,800080b4	  x5:0xffffffff x26:0x00000001
     1299937000	     64895	800080b4	41320933	sub	x18,x4,x19	  x4:0x00000000 x19:0xffffffff x18=0x00000001
     1300097000	     64903	800080b8	02cb2933	mulhsu	x18,x22,x12	 x22:0xfffffced x12:0x00000000 x18=0x00000000
     1300437000	     64920	800080bc	02e19763	bne	x3,x14,800080ea	  x3:0x00017000 x14:0xde800000
     1300937000	     64945	800080ea	8d69	c.and	x10,x10	 x10:0x000003b0 x10:0x000003b0 x10=0x000003b0
     1300957000	     64946	800080ec	00c01333	sll	x6,x0,x12	  x0:0x00000000 x12:0x00000000  x6=0x00000000
     1301017000	     64949	800080f0	000edd13	srli	x26,x29,0x0	 x29:0x00000000 x26=0x00000000
     1301157000	     64956	800080f4	1698	c.addi4spn	x14,x2,864	 x14=0x00000360
     1301177000	     64957	800080f6	ae55ed13	ori	x26,x11,-1307	 x11:0x80021e64 x26=0xfffffee5
     1301197000	     64958	800080fa	0029d8b3	srl	x17,x19,x2	 x19:0xffffffff  x2:0x00000000 x17=0xffffffff
     1301477000	     64972	800080fe	00e79493	slli	x9,x15,0xe	 x15:0xffffffff  x9=0xffffc000
     1301497000	     64973	80008102	8e51	c.or	x12,x12	 x12:0x00000000 x12:0x00000000 x12=0x00000000
     1301537000	     64975	80008104	6155	c.addi16sp	x2,304	  x2:0x00000000  x2=0x00000130
     1301557000	     64976	80008106	613d	c.addi16sp	x2,480	  x2:0x00000130  x2=0x00000310
     1301617000	     64979	80008108	0001	c.addi	x0,0	  x0:0x00000000  x0=0x00000000
     1302037000	     65000	8000810a	00725233	srl	x4,x4,x7	  x4:0x00000000  x7:0x00000000  x4=0x00000000
     1302057000	     65001	8000810e	02a50f63	beq	x10,x10,8000814c	 x10:0x000003b0 x10:0x000003b0
     1302337000	     65015	8000814c	40405433	sra	x8,x0,x4	  x0:0x00000000  x4:0x00000000  x8=0x00000000
     1302737000	     65035	80008150	0067b9b3	sltu	x19,x15,x6	 x15:0xffffffff  x6:0x00000000 x19=0x00000000
     1302757000	     65036	80008154	6c51	c.lui	x24,0x14	 x24=0x00014000
     1302777000	     65037	80008156	02775c63	bge	x14,x7,8000818e	 x14:0x00000360  x7:0x00000000
     1303677000	     65082	8000818e	01ffd363	bge	x31,x31,80008194	 x31:0x00000000 x31:0x00000000
     1304317000	     65114	80008194	006ca733	slt	x14,x25,x6	 x25:0xfffffbbd  x6:0x00000000 x14=0x00000001
     1304757000	     65136	80008198	7d04fc97	auipc	x25,0x7d04f	 x25=0xfd057198
     1305057000	     65151	8000819c	0020f733	and	x14,x1,x2	  x1:0xffffffff  x2:0x00000310 x14=0x00000310
     1305077000	     65152	800081a0	02f11f63	bne	x2,x15,800081de	  x2:0x00000310 x15:0xffffffff
     1305577000	     65177	800081de	74707d73	csrrci	x26,0x747,0	 x26=0x00000004
     1305597000	     65178	800081e2	0ff0000f	fence	iorw,iorw	
     1306337000	     65215	800081e6	0306f9b3	remu	x19,x13,x16	 x13:0x80025ce4 x16:0x4a3c3000 x19=0x35c62ce4
     1306357000	     65216	800081ea	01a99a33	sll	x20,x19,x26	 x19:0x35c62ce4 x26:0x00000004 x20=0x5c62ce40
     1306377000	     65217	800081ee	1c00	c.addi4spn	x8,x2,560	  x8=0x00000540
     1306397000	     65218	800081f0	875d	c.srai	x14,0x17	 x14:0x00000310 x14=0x00000000
     1306417000	     65219	800081f2	0037b633	sltu	x12,x15,x3	 x15:0xffffffff  x3:0x00017000 x12=0x00000000
     1306437000	     65220	800081f6	0199cd63	blt	x19,x25,80008210	 x19:0x35c62ce4 x25:0xfd057198
     1306457000	     65221	800081fa	400f00b3	sub	x1,x30,x0	 x30:0x00000001  x0:0x00000000  x1=0x00000001
     1306517000	     65224	800081fe	00405fb3	srl	x31,x0,x4	  x0:0x00000000  x4:0x00000000 x31=0x00000000
     1307577000	     65277	80008202	022541b3	div	x3,x10,x2	 x10:0x000003b0  x2:0x00000310  x3=0x00000001
     1307597000	     65278	80008206	8c79	c.and	x8,x14	  x8:0x00000540 x14:0x00000000  x8=0x00000000
     1307617000	     65279	80008208	00551633	sll	x12,x10,x5	 x10:0x000003b0  x5:0xffffffff x12=0x00000000
     1307637000	     65280	8000820c	0158b4b3	sltu	x9,x17,x21	 x17:0xffffffff x21:0x00000000  x9=0x00000000
     1308377000	     65317	80008210	02275a33	divu	x20,x14,x2	 x14:0x00000000  x2:0x00000310 x20=0x00000000
     1308397000	     65318	80008214	6179	c.addi16sp	x2,464	  x2:0x00000310  x2=0x000004e0
     1308417000	     65319	80008216	3bf02673	csrrs	x12,pmpaddr15,x0	  x0:0x00000000 x12=0x20000ca8
     1308437000	     65320	8000821a	8c59	c.or	x8,x14	  x8:0x00000000 x14:0x00000000  x8=0x00000000
     1309177000	     65357	8000821c	03b55cb3	divu	x25,x10,x27	 x10:0x000003b0 x27:0xfffff836 x25=0x00000000
     1309197000	     65358	80008220	0ff0000f	fence	iorw,iorw	
     1309217000	     65359	80008224	8cb5	c.xor	x9,x13	  x9:0x00000000 x13:0x80025ce4  x9=0x80025ce4
     1309257000	     65361	80008226	03daee33	rem	x28,x21,x29	 x21:0x00000000 x29:0x00000000 x28=0x00000000
     1309277000	     65362	8000822a	717d	c.addi16sp	x2,-16	  x2:0x000004e0  x2=0x000004d0
     1309297000	     65363	8000822c	414b8cb3	sub	x25,x23,x20	 x23:0x3c3c3c00 x20:0x00000000 x25=0x3c3c3c00
     1309337000	     65365	80008230	03cedab3	divu	x21,x29,x28	 x29:0x00000000 x28:0x00000000 x21=0xffffffff
     1309357000	     65366	80008234	c04d4c97	auipc	x25,0xc04d4	 x25=0x404dc234
     1309537000	     65375	80008238	341aecf3	csrrsi	x25,mepc,21	 x25=0x80007c12
     1309797000	     65388	8000823c	34002273	csrrs	x4,mscratch,x0	  x0:0x00000000  x4=0x0000000c
     1310057000	     65401	80008240	01638833	add	x16,x7,x22	  x7:0x00000000 x22:0xfffffced x16=0xfffffced
     1310477000	     65422	80008244	8a8a	c.mv	x21,x2	  x0:0x00000000  x2:0x000004d0 x21=0x000004d0
     1310897000	     65443	80008246	02fb01b3	mul	x3,x22,x15	 x22:0xfffffced x15:0xffffffff  x3=0x00000313
     1310917000	     65444	8000824a	0e21	c.addi	x28,8	 x28:0x00000000 x28=0x00000008
     1310937000	     65445	8000824c	001c38b3	sltu	x17,x24,x1	 x24:0x00014000  x1:0x00000001 x17=0x00000000
     1311337000	     65465	80008250	989e	c.add	x17,x7	 x17:0x00000000  x7:0x00000000 x17=0x00000000
     1311357000	     65466	80008252	846d	c.srai	x8,0x1b	  x8:0x00000000  x8=0x00000000
     1311377000	     65467	80008254	34103573	csrrc	x10,mepc,x0	  x0:0x00000000 x10=0x80007c16
     1311457000	     65471	80008258	b8a07073	csrrci	x0,mhpmcounter10h,0	  x0=0x00000000
     1311477000	     65472	8000825c	1f90	c.addi4spn	x12,x2,1008	 x12=0x000008c0
     1311497000	     65473	8000825e	cad52cb7	lui	x25,0xcad52	 x25=0xcad52000
     1311517000	     65474	80008262	008a9f33	sll	x30,x21,x8	 x21:0x000004d0  x8:0x00000000 x30=0x000004d0
     1311537000	     65475	80008266	6239	c.lui	x4,0xe	  x4=0x0000e000
     1311777000	     65487	80008268	0000100f	fence.i	
     1311957000	     65496	8000826c	8f59	c.or	x14,x14	 x14:0x00000000 x14:0x00000000 x14=0x00000000
     1311977000	     65497	8000826e	8d09	c.sub	x10,x10	 x10:0x80007c16 x10:0x80007c16 x10=0x00000000
     1312377000	     65517	80008270	98fd	c.andi	x9,-1	  x9:0x80025ce4  x9=0x80025ce4
     1312597000	     65528	80008272	02528663	beq	x5,x5,8000829e	  x5:0xffffffff  x5:0xffffffff
     1312957000	     65546	8000829e	ee1d	c.bnez	x12,800082dc	 x12:0x000008c0
     1313377000	     65567	800082dc	b0569173	csrrw	x2,mhpmcounter5,x13	 x13:0x80025ce4  x2=0x00000021
     1313437000	     65570	800082e0	0001	c.addi	x0,0	  x0:0x00000000  x0=0x00000000
     1313457000	     65571	800082e2	32721873	csrrw	x16,mhpmevent7,x4	  x4:0x0000e000 x16=0x00000010
     1313597000	     65578	800082e6	f372c613	xori	x12,x5,-201	  x5:0xffffffff x12=0x000000c8
     1313637000	     65580	800082ea	0121f2b3	and	x5,x3,x18	  x3:0x00000313 x18:0x00000000  x5=0x00000000
     1313917000	     65594	800082ee	0ff0000f	fence	iorw,iorw	
     1313937000	     65595	800082f2	986e2f13	slti	x30,x28,-1658	 x28:0x00000008 x30=0x00000000
     1313957000	     65596	800082f6	00d09413	slli	x8,x1,0xd	  x1:0x00000001  x8=0x00002000
     1313977000	     65597	800082fa	04881063	bne	x16,x8,8000833a	 x16:0x00000010  x8:0x00002000
     1314457000	     65621	8000833a	00a7ca63	blt	x15,x10,8000834e	 x15:0xffffffff x10:0x00000000
     1315357000	     65666	8000834e	8d21	c.xor	x10,x8	 x10:0x00000000  x8:0x00002000 x10=0x00002000
     1316217000	     65709	80008350	0337c533	div	x10,x15,x19	 x15:0xffffffff x19:0x35c62ce4 x10=0x00000000
     1316237000	     65710	80008354	0026f463	bgeu	x13,x2,8000835c	 x13:0x80025ce4  x2:0x00000021
     1316337000	     65715	8000835c	022a92b3	mulh	x5,x21,x2	 x21:0x000004d0  x2:0x00000021  x5=0x00000000
     1316417000	     65719	80008360	b0b07773	csrrci	x14,mhpmcounter11,0	 x14=0x00000092
     1316557000	     65726	80008364	8029	c.srli	x8,0xa	  x8:0x00002000  x8=0x00000008
     1316577000	     65727	80008366	6c2d	c.lui	x24,0xb	 x24=0x0000b000
     1316597000	     65728	80008368	b84dbaf3	csrrc	x21,mhpmcounter4h,x27	 x27:0xfffff836 x21=0x00000000
     1316657000	     65731	8000836c	41715813	srai	x16,x2,0x17	  x2:0x00000021 x16=0x00000000
     1316677000	     65732	80008370	01e7de33	srl	x28,x15,x30	 x15:0xffffffff x30:0x00000000 x28=0xffffffff
     1316697000	     65733	80008374	8d3d	c.xor	x10,x15	 x10:0x00000000 x15:0xffffffff x10=0xffffffff
     1316777000	     65737	80008376	012d9cb7	lui	x25,0x12d9	 x25=0x012d9000
     1316797000	     65738	8000837a	8f5d	c.or	x14,x15	 x14:0x00000092 x15:0xffffffff x14=0xffffffff
     1316817000	     65739	8000837c	8f3d	c.xor	x14,x15	 x14:0xffffffff x15:0xffffffff x14=0x00000000
     1316837000	     65740	8000837e	b8303b73	csrrc	x22,mhpmcounter3h,x0	  x0:0x00000000 x22=0x00000000
     1316857000	     65741	80008382	8e29	c.xor	x12,x10	 x12:0x000000c8 x10:0xffffffff x12=0xffffff37
     1316877000	     65742	80008384	01f701b3	add	x3,x14,x31	 x14:0x00000000 x31:0x00000000  x3=0x00000000
     1317037000	     65750	80008388	01617d33	and	x26,x2,x22	  x2:0x00000021 x22:0x00000000 x26=0x00000000
     1317057000	     65751	8000838c	41388c33	sub	x24,x17,x19	 x17:0x00000000 x19:0x35c62ce4 x24=0xca39d31c
     1317137000	     65755	80008390	617d	c.addi16sp	x2,496	  x2:0x00000021  x2=0x00000211
     1317157000	     65756	80008392	00caf133	and	x2,x21,x12	 x21:0x00000000 x12:0xffffff37  x2=0x00000000
     1317177000	     65757	80008396	9a7d	c.andi	x12,-1	 x12:0xffffff37 x12=0xffffff37
     1317337000	     65765	80008398	404b5733	sra	x14,x22,x4	 x22:0x00000000  x4:0x0000e000 x14=0x00000000
     1317357000	     65766	8000839c	6e45	c.lui	x28,0x11	 x28=0x00011000
     1317437000	     65770	8000839e	01669913	slli	x18,x13,0x16	 x13:0x80025ce4 x18=0x39000000
     1317597000	     65778	800083a2	340c58f3	csrrwi	x17,mscratch,24	 x17=0x0000000c
     1317897000	     65793	800083a6	340074f3	csrrci	x9,mscratch,0	  x9=0x00000018
     1317917000	     65794	800083aa	84f1	c.srai	x9,0x1c	  x9:0x00000018  x9=0x00000000
     1318657000	     65831	800083ac	02475fb3	divu	x31,x14,x4	 x14:0x00000000  x4:0x0000e000 x31=0x00000000
     1318697000	     65833	800083b0	020a5833	divu	x16,x20,x0	 x20:0x00000000  x0:0x00000000 x16=0xffffffff
     1318717000	     65834	800083b4	0e04	c.addi4spn	x9,x2,784	  x9=0x00000310
     1318737000	     65835	800083b6	50fd	c.li	x1,-1	  x1=0xffffffff
     1318757000	     65836	800083b8	8c4a	c.mv	x24,x18	  x0:0x00000000 x18:0x39000000 x24=0x39000000
     1318777000	     65837	800083ba	5f863c93	sltiu	x25,x12,1528	 x12:0xffffff37 x25=0x00000000
     1318797000	     65838	800083be	00efd533	srl	x10,x31,x14	 x31:0x00000000 x14:0x00000000 x10=0x00000000
     1318817000	     65839	800083c2	cf11	c.beqz	x14,800083de	 x14:0x00000000
     1319377000	     65867	800083de	8715	c.srai	x14,0x5	 x14:0x00000000 x14=0x00000000
     1319817000	     65889	800083e0	002067b3	or	x15,x0,x2	  x0:0x00000000  x2:0x00000000 x15=0x00000000
     1319837000	     65890	800083e4	8c01	c.sub	x8,x8	  x8:0x00000008  x8:0x00000008  x8=0x00000000
     1320577000	     65927	800083e6	030a6633	rem	x12,x20,x16	 x20:0x00000000 x16:0xffffffff x12=0x00000000
     1320597000	     65928	800083ea	01ad0233	add	x4,x26,x26	 x26:0x00000000 x26:0x00000000  x4=0x00000000
     1320617000	     65929	800083ee	851d	c.srai	x10,0x7	 x10:0x00000000 x10=0x00000000
     1320637000	     65930	800083f0	4198d433	sra	x8,x17,x25	 x17:0x0000000c x25:0x00000000  x8=0x0000000c
     1320657000	     65931	800083f4	8669	c.srai	x12,0x1a	 x12:0x00000000 x12=0x00000000
     1320677000	     65932	800083f6	c219	c.beqz	x12,800083fc	 x12:0x00000000
     1320717000	     65934	800083fc	b8402373	csrrs	x6,mhpmcounter4h,x0	  x0:0x00000000  x6=0x00000000
     1321357000	     65966	80008400	03a71c33	mulh	x24,x14,x26	 x14:0x00000000 x26:0x00000000 x24=0x00000000
     1321437000	     65970	80008404	012e1f63	bne	x28,x18,80008422	 x28:0x00011000 x18:0x39000000
     1322157000	     66006	80008422	8f31	c.xor	x14,x12	 x14:0x00000000 x12:0x00000000 x14=0x00000000
     1322257000	     66011	80008424	268ab793	sltiu	x15,x21,616	 x21:0x00000000 x15=0x00000001
     1322337000	     66015	80008428	01b8bf33	sltu	x30,x17,x27	 x17:0x0000000c x27:0xfffff836 x30=0x00000001
     1322377000	     66017	8000842c	038e24b3	mulhsu	x9,x28,x24	 x28:0x00011000 x24:0x00000000  x9=0x00000000
     1322517000	     66024	80008430	5b6adab7	lui	x21,0x5b6ad	 x21=0x5b6ad000
     1322657000	     66031	80008434	537d	c.li	x6,-1	  x6=0xffffffff
     1322677000	     66032	80008436	01b8d4b3	srl	x9,x17,x27	 x17:0x0000000c x27:0xfffff836  x9=0x00000000
     1323097000	     66053	8000843a	2d166613	ori	x12,x12,721	 x12:0x00000000 x12=0x000002d1
     1323117000	     66054	8000843e	0000100f	fence.i	
     1323697000	     66083	80008442	03507d63	bgeu	x0,x21,8000847c	  x0:0x00000000 x21:0x5b6ad000
     1323717000	     66084	80008446	011524b3	slt	x9,x10,x17	 x10:0x00000000 x17:0x0000000c  x9=0x00000001
     1323737000	     66085	8000844a	1bfd	c.addi	x23,-1	 x23:0x3c3c3c00 x23=0x3c3c3bff
     1323817000	     66089	8000844c	8cd9	c.or	x9,x14	  x9:0x00000001 x14:0x00000000  x9=0x00000001
     1323837000	     66090	8000844e	52fd	c.li	x5,-1	  x5=0xffffffff
     1323897000	     66093	80008450	8fb5	c.xor	x15,x13	 x15:0x00000001 x13:0x80025ce4 x15=0x80025ce5
     1323917000	     66094	80008452	02c38d63	beq	x7,x12,8000848c	  x7:0x00000000 x12:0x000002d1
     1324217000	     66109	80008456	01c58033	add	x0,x11,x28	 x11:0x80021e64 x28:0x00011000  x0=0x00000000
     1324297000	     66113	8000845a	01e4a233	slt	x4,x9,x30	  x9:0x00000001 x30:0x00000001  x4=0x00000000
     1324317000	     66114	8000845e	03044b63	blt	x8,x16,80008494	  x8:0x0000000c x16:0xffffffff
     1324657000	     66131	80008462	6a1f3713	sltiu	x14,x30,1697	 x30:0x00000001 x14=0x00000001
     1324677000	     66132	80008466	00188663	beq	x17,x1,80008472	 x17:0x0000000c  x1:0xffffffff
     1324697000	     66133	8000846a	866d	c.srai	x12,0x1b	 x12:0x000002d1 x12=0x00000000
     1324857000	     66141	8000846c	8f45	c.or	x14,x9	 x14:0x00000001  x9:0x00000001 x14=0x00000001
     1324997000	     66148	8000846e	cc7c8f93	addi	x31,x25,-825	 x25:0x00000000 x31=0xfffffcc7
     1325017000	     66149	80008472	025ade63	bge	x21,x5,800084ae	 x21:0x5b6ad000  x5:0xffffffff
     1325957000	     66196	800084ae	8b21	c.andi	x14,8	 x14:0x00000001 x14=0x00000000
     1326057000	     66201	800084b0	01cc0533	add	x10,x24,x28	 x24:0x00000000 x28:0x00011000 x10=0x00011000
     1326217000	     66209	800084b4	b0859ef3	csrrw	x29,mhpmcounter8,x11	 x11:0x80021e64 x29=0x00000123
     1326277000	     66212	800084b8	67b5	c.lui	x15,0xd	 x15=0x0000d000
     1352837000	     67540	800084ba	00b5af33	slt	x30,x11,x11	 x11:0x80021e64 x11:0x80021e64 x30=0x00000000
     1352857000	     67541	800084be	d8feaa93	slti	x21,x29,-625	 x29:0x00000123 x21=0x00000000
     1352877000	     67542	800084c2	00984c63	blt	x16,x9,800084da	 x16:0xffffffff  x9:0x00000001
     1353537000	     67575	800084da	025b3e33	mulhu	x28,x22,x5	 x22:0x00000000  x5:0xffffffff x28=0x00000000
     1353557000	     67576	800084de	7b307e73	csrrci	x0,0x7b3,0	  x0=0x00000000
     1353837000	     67590	80002500	0800006f	jal	x0,80002580	  x0=0x00000000
     1354097000	     67603	80002580	16f1	c.addi	x13,-4	 x13:0x80025ce4 x13=0x80025ce0
     1354157000	     67606	80002582	c28c	c.sw	x11,0(x13)	 x13:0x80025ce0 x11:0x80021e64 PA:0x80025ce0 store:0x80021e64 load:0xffffffff
     1354177000	     67607	80002584	000685b3	add	x11,x13,x0	 x13:0x80025ce0  x0:0x00000000 x11=0x80025ce0
     1354277000	     67612	80002588	f8058593	addi	x11,x11,-128	 x11:0x80025ce0 x11=0x80025c60
     1354397000	     67618	8000258c	0015a223	sw	x1,4(x11)	 x11:0x80025c60  x1:0xffffffff PA:0x80025c64 store:0xffffffff load:0xffffffff
     1354757000	     67636	80002590	0025a423	sw	x2,8(x11)	 x11:0x80025c60  x2:0x00000000 PA:0x80025c68 store:0x00000000 load:0xffffffff
     1355357000	     67666	80002594	0035a623	sw	x3,12(x11)	 x11:0x80025c60  x3:0x00000000 PA:0x80025c6c store:0x00000000 load:0xffffffff
     1355417000	     67669	80002598	0045a823	sw	x4,16(x11)	 x11:0x80025c60  x4:0x00000000 PA:0x80025c70 store:0x00000000 load:0xffffffff
     1355557000	     67676	8000259c	0055aa23	sw	x5,20(x11)	 x11:0x80025c60  x5:0xffffffff PA:0x80025c74 store:0xffffffff load:0xffffffff
     1355777000	     67687	800025a0	0065ac23	sw	x6,24(x11)	 x11:0x80025c60  x6:0xffffffff PA:0x80025c78 store:0xffffffff load:0xffffffff
     1355797000	     67688	800025a4	0075ae23	sw	x7,28(x11)	 x11:0x80025c60  x7:0x00000000 PA:0x80025c7c store:0x00000000 load:0xffffffff
     1356217000	     67709	800025a8	d180	c.sw	x8,32(x11)	 x11:0x80025c60  x8:0x0000000c PA:0x80025c80 store:0x0000000c load:0xffffffff
     1356277000	     67712	800025aa	d1c4	c.sw	x9,36(x11)	 x11:0x80025c60  x9:0x00000001 PA:0x80025c84 store:0x00000001 load:0xffffffff
     1356297000	     67713	800025ac	d588	c.sw	x10,40(x11)	 x11:0x80025c60 x10:0x00011000 PA:0x80025c88 store:0x00011000 load:0xffffffff
     1356317000	     67714	800025ae	d5cc	c.sw	x11,44(x11)	 x11:0x80025c60 x11:0x80025c60 PA:0x80025c8c store:0x80025c60 load:0xffffffff
     1356737000	     67735	800025b0	d990	c.sw	x12,48(x11)	 x11:0x80025c60 x12:0x00000000 PA:0x80025c90 store:0x00000000 load:0xffffffff
     1356797000	     67738	800025b2	d9d4	c.sw	x13,52(x11)	 x11:0x80025c60 x13:0x80025ce0 PA:0x80025c94 store:0x80025ce0 load:0xffffffff
     1356817000	     67739	800025b4	dd98	c.sw	x14,56(x11)	 x11:0x80025c60 x14:0x00000000 PA:0x80025c98 store:0x00000000 load:0xffffffff
     1356837000	     67740	800025b6	dddc	c.sw	x15,60(x11)	 x11:0x80025c60 x15:0x0000d000 PA:0x80025c9c store:0x0000d000 load:0xffffffff
     1356997000	     67748	800025b8	0505a023	sw	x16,64(x11)	 x11:0x80025c60 x16:0xffffffff PA:0x80025ca0 store:0xffffffff load:0xffffffff
     1357117000	     67754	800025bc	0515a223	sw	x17,68(x11)	 x11:0x80025c60 x17:0x0000000c PA:0x80025ca4 store:0x0000000c load:0xffffffff
     1357177000	     67757	800025c0	0525a423	sw	x18,72(x11)	 x11:0x80025c60 x18:0x39000000 PA:0x80025ca8 store:0x39000000 load:0xffffffff
     1357277000	     67762	800025c4	0535a623	sw	x19,76(x11)	 x11:0x80025c60 x19:0x35c62ce4 PA:0x80025cac store:0x35c62ce4 load:0xffffffff
     1357697000	     67783	800025c8	0545a823	sw	x20,80(x11)	 x11:0x80025c60 x20:0x00000000 PA:0x80025cb0 store:0x00000000 load:0xffffffff
     1357757000	     67786	800025cc	0555aa23	sw	x21,84(x11)	 x11:0x80025c60 x21:0x00000000 PA:0x80025cb4 store:0x00000000 load:0xffffffff
     1357897000	     67793	800025d0	0565ac23	sw	x22,88(x11)	 x11:0x80025c60 x22:0x00000000 PA:0x80025cb8 store:0x00000000 load:0xffffffff
     1357957000	     67796	800025d4	0575ae23	sw	x23,92(x11)	 x11:0x80025c60 x23:0x3c3c3bff PA:0x80025cbc store:0x3c3c3bff load:0xffffffff
     1358197000	     67808	800025d8	0785a023	sw	x24,96(x11)	 x11:0x80025c60 x24:0x00000000 PA:0x80025cc0 store:0x00000000 load:0xffffffff
     1358317000	     67814	800025dc	0795a223	sw	x25,100(x11)	 x11:0x80025c60 x25:0x00000000 PA:0x80025cc4 store:0x00000000 load:0xffffffff
     1358457000	     67821	800025e0	07a5a423	sw	x26,104(x11)	 x11:0x80025c60 x26:0x00000000 PA:0x80025cc8 store:0x00000000 load:0xffffffff
     1358477000	     67822	800025e4	07b5a623	sw	x27,108(x11)	 x11:0x80025c60 x27:0xfffff836 PA:0x80025ccc store:0xfffff836 load:0xffffffff
     1358497000	     67823	800025e8	07c5a823	sw	x28,112(x11)	 x11:0x80025c60 x28:0x00000000 PA:0x80025cd0 store:0x00000000 load:0xffffffff
     1358677000	     67832	800025ec	07d5aa23	sw	x29,116(x11)	 x11:0x80025c60 x29:0x00000123 PA:0x80025cd4 store:0x00000123 load:0xffffffff
     1359017000	     67849	800025f0	07e5ac23	sw	x30,120(x11)	 x11:0x80025c60 x30:0x00000000 PA:0x80025cd8 store:0x00000000 load:0xffffffff
     1359077000	     67852	800025f4	07f5ae23	sw	x31,124(x11)	 x11:0x80025c60 x31:0xfffffcc7 PA:0x80025cdc store:0xfffffcc7 load:0xffffffff
     1359097000	     67853	800025f8	000586b3	add	x13,x11,x0	 x11:0x80025c60  x0:0x00000000 x13=0x80025c60
     1359117000	     67854	800025fc	90000db7	lui	x27,0x90000	 x27=0x90000000
     1359377000	     67867	80002600	1df1	c.addi	x27,-4	 x27:0x90000000 x27=0x8ffffffc
     1359397000	     67868	80002602	4921	c.li	x18,8	 x18=0x00000008
     1359417000	     67869	80002604	0922	c.slli	x18,0x8	 x18:0x00000008 x18=0x00000800
     1359837000	     67890	80002606	00090913	addi	x18,x18,0	 x18:0x00000800 x18=0x00000800
     1359957000	     67896	8000260a	012da023	sw	x18,0(x27)	 x27:0x8ffffffc x18:0x00000800 PA:0x8ffffffc store:0x00000800 load:0xffffffff
     1359977000	     67897	8000260e	34102973	csrrs	x18,mepc,x0	  x0:0x00000000 x18=0x800084de
     1359997000	     67898	80002612	34202973	csrrs	x18,mcause,x0	  x0:0x00000000 x18=0x00000002
     1360017000	     67899	80002616	4d8d	c.li	x27,3	 x27=0x00000003
     1360037000	     67900	80002618	01b91463	bne	x18,x27,80002620	 x18:0x00000002 x27:0x00000003
     1360937000	     67945	80002620	4da1	c.li	x27,8	 x27=0x00000008
     1361137000	     67955	80002622	05b90d63	beq	x18,x27,8000267c	 x18:0x00000002 x27:0x00000008
     1361157000	     67956	80002626	4da5	c.li	x27,9	 x27=0x00000009
     1361177000	     67957	80002628	05b90a63	beq	x18,x27,8000267c	 x18:0x00000002 x27:0x00000009
     1361577000	     67977	8000262c	4dad	c.li	x27,11	 x27=0x0000000b
     1361597000	     67978	8000262e	05b90763	beq	x18,x27,8000267c	 x18:0x00000002 x27:0x0000000b
     1361617000	     67979	80002632	4d85	c.li	x27,1	 x27=0x00000001
     1361657000	     67981	80002634	35b90363	beq	x18,x27,8000297a	 x18:0x00000002 x27:0x00000001
     1361677000	     67982	80002638	4d95	c.li	x27,5	 x27=0x00000005
     1361857000	     67991	8000263a	63b90963	beq	x18,x27,80002c6c	 x18:0x00000002 x27:0x00000005
     1361877000	     67992	8000263e	4d9d	c.li	x27,7	 x27=0x00000007
     1361977000	     67997	80002640	15b90ae3	beq	x18,x27,80002f94	 x18:0x00000002 x27:0x00000007
     1361997000	     67998	80002644	4db1	c.li	x27,12	 x27=0x0000000c
     1362017000	     67999	80002646	01b91463	bne	x18,x27,8000264e	 x18:0x00000002 x27:0x0000000c
     1362457000	     68021	8000264e	4db5	c.li	x27,13	 x27=0x0000000d
     1362697000	     68033	80002650	01b91463	bne	x18,x27,80002658	 x18:0x00000002 x27:0x0000000d
     1362957000	     68046	80002658	4dbd	c.li	x27,15	 x27=0x0000000f
     1362977000	     68047	8000265a	01b91463	bne	x18,x27,80002662	 x18:0x00000002 x27:0x0000000f
     1363037000	     68050	80002662	4d89	c.li	x27,2	 x27=0x00000002
     1363057000	     68051	80002664	01b91463	bne	x18,x27,8000266c	 x18:0x00000002 x27:0x00000002
     1364097000	     68103	80002668	45c0906f	jal	x0,8000bac4	  x0=0x00000000
     1364717000	     68134	8000bac4	90000db7	lui	x27,0x90000	 x27=0x90000000
     1365237000	     68160	8000bac8	1df1	c.addi	x27,-4	 x27:0x90000000 x27=0x8ffffffc
     1365257000	     68161	8000baca	4929	c.li	x18,10	 x18=0x0000000a
     1365277000	     68162	8000bacc	0922	c.slli	x18,0x8	 x18:0x0000000a x18=0x00000a00
     1365297000	     68163	8000bace	00090913	addi	x18,x18,0	 x18:0x00000a00 x18=0x00000a00
     1365357000	     68166	8000bad2	012da023	sw	x18,0(x27)	 x27:0x8ffffffc x18:0x00000a00 PA:0x8ffffffc store:0x00000a00 load:0xffffffff
     1365377000	     68167	8000bad6	90000db7	lui	x27,0x90000	 x27=0x90000000
     1365397000	     68168	8000bada	1df1	c.addi	x27,-4	 x27:0x90000000 x27=0x8ffffffc
     1365417000	     68169	8000badc	34200913	addi	x18,x0,834	  x0:0x00000000 x18=0x00000342
     1365437000	     68170	8000bae0	0922	c.slli	x18,0x8	 x18:0x00000342 x18=0x00034200
     1365457000	     68171	8000bae2	090d	c.addi	x18,3	 x18:0x00034200 x18=0x00034203
     1365917000	     68194	8000bae4	012da023	sw	x18,0(x27)	 x27:0x8ffffffc x18:0x00034203 PA:0x8ffffffc store:0x00034203 load:0xffffffff
     1365937000	     68195	8000bae8	34202973	csrrs	x18,mcause,x0	  x0:0x00000000 x18=0x00000002
     1366057000	     68201	8000baec	012da023	sw	x18,0(x27)	 x27:0x8ffffffc x18:0x00000002 PA:0x8ffffffc store:0x00000002 load:0xffffffff
     1366077000	     68202	8000baf0	34102973	csrrs	x18,mepc,x0	  x0:0x00000000 x18=0x800084de
     1366097000	     68203	8000baf4	0911	c.addi	x18,4	 x18:0x800084de x18=0x800084e2
     1366137000	     68205	8000baf6	34191073	csrrw	x0,mepc,x18	 x18:0x800084e2  x0=0x00000000
     1366157000	     68206	8000bafa	000685b3	add	x11,x13,x0	 x13:0x80025c60  x0:0x00000000 x11=0x80025c60
     1366757000	     68236	8000bafe	0045a083	lw	x1,4(x11)	 x11:0x80025c60  x1=0xffffffff PA:0x80025c64 load:0xffffffff
     1366817000	     68239	8000bb02	0085a103	lw	x2,8(x11)	 x11:0x80025c60  x2=0x00000000 PA:0x80025c68 load:0x00000000
     1367017000	     68249	8000bb06	00c5a183	lw	x3,12(x11)	 x11:0x80025c60  x3=0x00000000 PA:0x80025c6c load:0x00000000
     1367277000	     68262	8000bb0a	0105a203	lw	x4,16(x11)	 x11:0x80025c60  x4=0x00000000 PA:0x80025c70 load:0x00000000
     1367337000	     68265	8000bb0e	0145a283	lw	x5,20(x11)	 x11:0x80025c60  x5=0xffffffff PA:0x80025c74 load:0xffffffff
     1367757000	     68286	8000bb12	0185a303	lw	x6,24(x11)	 x11:0x80025c60  x6=0xffffffff PA:0x80025c78 load:0xffffffff
     1368357000	     68316	8000bb16	01c5a383	lw	x7,28(x11)	 x11:0x80025c60  x7=0x00000000 PA:0x80025c7c load:0x00000000
     1368417000	     68319	8000bb1a	5180	c.lw	x8,32(x11)	 x11:0x80025c60  x8=0x0000000c PA:0x80025c80 load:0x0000000c
     1368437000	     68320	8000bb1c	51c4	c.lw	x9,36(x11)	 x11:0x80025c60  x9=0x00000001 PA:0x80025c84 load:0x00000001
     1368497000	     68323	8000bb1e	5588	c.lw	x10,40(x11)	 x11:0x80025c60 x10=0x00011000 PA:0x80025c88 load:0x00011000
     1368557000	     68326	8000bb20	55cc	c.lw	x11,44(x11)	 x11:0x80025c60 x11=0x80025c60 PA:0x80025c8c load:0x80025c60
     1368797000	     68338	8000bb22	5990	c.lw	x12,48(x11)	 x11:0x80025c60 x12=0x00000000 PA:0x80025c90 load:0x00000000
     1368817000	     68339	8000bb24	59d4	c.lw	x13,52(x11)	 x11:0x80025c60 x13=0x80025ce0 PA:0x80025c94 load:0x80025ce0
     1368837000	     68340	8000bb26	5d98	c.lw	x14,56(x11)	 x11:0x80025c60 x14=0x00000000 PA:0x80025c98 load:0x00000000
     1369057000	     68351	8000bb28	5ddc	c.lw	x15,60(x11)	 x11:0x80025c60 x15=0x0000d000 PA:0x80025c9c load:0x0000d000
     1369077000	     68352	8000bb2a	0405a803	lw	x16,64(x11)	 x11:0x80025c60 x16=0xffffffff PA:0x80025ca0 load:0xffffffff
     1369457000	     68371	8000bb2e	0445a883	lw	x17,68(x11)	 x11:0x80025c60 x17=0x0000000c PA:0x80025ca4 load:0x0000000c
     1369917000	     68394	8000bb32	0485a903	lw	x18,72(x11)	 x11:0x80025c60 x18=0x39000000 PA:0x80025ca8 load:0x39000000
     1370037000	     68400	8000bb36	04c5a983	lw	x19,76(x11)	 x11:0x80025c60 x19=0x35c62ce4 PA:0x80025cac load:0x35c62ce4
     1370097000	     68403	8000bb3a	0505aa03	lw	x20,80(x11)	 x11:0x80025c60 x20=0x00000000 PA:0x80025cb0 load:0x00000000
     1370197000	     68408	8000bb3e	0545aa83	lw	x21,84(x11)	 x11:0x80025c60 x21=0x00000000 PA:0x80025cb4 load:0x00000000
     1370217000	     68409	8000bb42	0585ab03	lw	x22,88(x11)	 x11:0x80025c60 x22=0x00000000 PA:0x80025cb8 load:0x00000000
     1370237000	     68410	8000bb46	05c5ab83	lw	x23,92(x11)	 x11:0x80025c60 x23=0x3c3c3bff PA:0x80025cbc load:0x3c3c3bff
     1370657000	     68431	8000bb4a	0605ac03	lw	x24,96(x11)	 x11:0x80025c60 x24=0x00000000 PA:0x80025cc0 load:0x00000000
     1370977000	     68447	8000bb4e	0645ac83	lw	x25,100(x11)	 x11:0x80025c60 x25=0x00000000 PA:0x80025cc4 load:0x00000000
     1371037000	     68450	8000bb52	0685ad03	lw	x26,104(x11)	 x11:0x80025c60 x26=0x00000000 PA:0x80025cc8 load:0x00000000
     1371657000	     68481	8000bb56	06c5ad83	lw	x27,108(x11)	 x11:0x80025c60 x27=0xfffff836 PA:0x80025ccc load:0xfffff836
     1372117000	     68504	8000bb5a	0705ae03	lw	x28,112(x11)	 x11:0x80025c60 x28=0x00000000 PA:0x80025cd0 load:0x00000000
     1372177000	     68507	8000bb5e	0745ae83	lw	x29,116(x11)	 x11:0x80025c60 x29=0x00000123 PA:0x80025cd4 load:0x00000123
     1372317000	     68514	8000bb62	0785af03	lw	x30,120(x11)	 x11:0x80025c60 x30=0x00000000 PA:0x80025cd8 load:0x00000000
     1372437000	     68520	8000bb66	07c5af83	lw	x31,124(x11)	 x11:0x80025c60 x31=0xfffffcc7 PA:0x80025cdc load:0xfffffcc7
     1372457000	     68521	8000bb6a	08058593	addi	x11,x11,128	 x11:0x80025c60 x11=0x80025ce0
     1372477000	     68522	8000bb6e	000586b3	add	x13,x11,x0	 x11:0x80025ce0  x0:0x00000000 x13=0x80025ce0
     1372637000	     68530	8000bb72	428c	c.lw	x11,0(x13)	 x13:0x80025ce0 x11=0x80021e64 PA:0x80025ce0 load:0x80021e64
     1372657000	     68531	8000bb74	0691	c.addi	x13,4	 x13:0x80025ce0 x13=0x80025ce4
     1372877000	     68542	8000bb76	30200073	mret	
     1372957000	     68546	800084e2	05373e93	sltiu	x29,x14,83	 x14:0x00000000 x29=0x00000001
     1372977000	     68547	800084e6	6529	c.lui	x10,0xa	 x10=0x0000a000
     1372997000	     68548	800084e8	00ac9cb3	sll	x25,x25,x10	 x25:0x00000000 x10:0x0000a000 x25=0x00000000
     1373017000	     68549	800084ec	0a3e	c.slli	x20,0xf	 x20:0x00000000 x20=0x00000000
     1373077000	     68552	800084ee	ee304a13	xori	x20,x0,-285	  x0:0x00000000 x20=0xfffffee3
     1373097000	     68553	800084f2	32a12073	csrrs	x0,mhpmevent10,x2	  x2:0x00000000  x0=0x00000000
     1373717000	     68584	800084f6	01f80233	add	x4,x16,x31	 x16:0xffffffff x31:0xfffffcc7  x4=0xfffffcc6
     1373737000	     68585	800084fa	00434b33	xor	x22,x6,x4	  x6:0xffffffff  x4:0xfffffcc6 x22=0x00000339
     1374117000	     68604	800084fe	17218413	addi	x8,x3,370	  x3:0x00000000  x8=0x00000172
     1374137000	     68605	80008502	03969563	bne	x13,x25,8000852c	 x13:0x80025ce4 x25:0x00000000
     1374797000	     68638	8000852c	02c85c63	bge	x16,x12,80008564	 x16:0xffffffff x12:0x00000000
     1374857000	     68641	80008530	01b5d413	srli	x8,x11,0x1b	 x11:0x80021e64  x8=0x00000010
     1374897000	     68643	80008534	01e380b3	add	x1,x7,x30	  x7:0x00000000 x30:0x00000000  x1=0x00000000
     1374917000	     68644	80008538	b037e273	csrrsi	x4,mhpmcounter3,15	  x4=0x00000140
     1375077000	     68652	8000853c	4311	c.li	x6,4	  x6=0x00000004
     1375237000	     68660	8000853e	37962017	auipc	x0,0x37962	  x0=0x00000000
     1375257000	     68661	80008542	8c75	c.and	x8,x13	  x8:0x00000010 x13:0x80025ce4  x8=0x00000000
     1375537000	     68675	80008544	018a17b3	sll	x15,x20,x24	 x20:0xfffffee3 x24:0x00000000 x15=0xfffffee3
     1375957000	     68696	80008548	015621b3	slt	x3,x12,x21	 x12:0x00000000 x21:0x00000000  x3=0x00000000
     1375977000	     68697	8000854c	0001	c.addi	x0,0	  x0:0x00000000  x0=0x00000000
     1375997000	     68698	8000854e	8cf6	c.mv	x25,x29	  x0:0x00000000 x29:0x00000001 x25=0x00000001
     1376037000	     68700	80008550	03093cb3	mulhu	x25,x18,x16	 x18:0x39000000 x16:0xffffffff x25=0x38ffffff
     1376217000	     68709	80008554	0083ec33	or	x24,x7,x8	  x7:0x00000000  x8:0x00000000 x24=0x00000000
     1376237000	     68710	80008558	0000100f	fence.i	
     1377557000	     68776	8000855c	34333273	csrrc	x4,mtval,x6	  x6:0x00000004  x4=0x7b307e73
     1377957000	     68796	80008560	01b558b3	srl	x17,x10,x27	 x10:0x0000a000 x27:0xfffff836 x17=0x00000000
     1377977000	     68797	80008564	40928fb3	sub	x31,x5,x9	  x5:0xffffffff  x9:0x00000001 x31=0xfffffffe
     1378157000	     68806	80008568	0001	c.addi	x0,0	  x0:0x00000000  x0=0x00000000
     1378177000	     68807	8000856a	01b837b3	sltu	x15,x16,x27	 x16:0xffffffff x27:0xfffff836 x15=0x00000000
     1382557000	     69026	8000856e	01fcd663	bge	x25,x31,8000857a	 x25:0x38ffffff x31:0xfffffffe
     1382657000	     69031	8000857a	f6f56513	ori	x10,x10,-145	 x10:0x0000a000 x10=0xffffff6f
     1382817000	     69039	8000857e	4043d913	srai	x18,x7,0x4	  x7:0x00000000 x18=0x00000000
     1383597000	     69078	80008582	03f9cab3	div	x21,x19,x31	 x19:0x35c62ce4 x31:0xfffffffe x21=0xe51ce98e
     1384337000	     69115	80008586	034369b3	rem	x19,x6,x20	  x6:0x00000004 x20:0xfffffee3 x19=0x00000004
     1384377000	     69117	8000858a	03ba1933	mulh	x18,x20,x27	 x20:0xfffffee3 x27:0xfffff836 x18=0x00000000
     1384397000	     69118	8000858e	0172a433	slt	x8,x5,x23	  x5:0xffffffff x23:0x3c3c3bff  x8=0x00000001
     1384417000	     69119	80008592	8cb9	c.xor	x9,x14	  x9:0x00000001 x14:0x00000000  x9=0x00000001
     1384437000	     69120	80008594	0000100f	fence.i	
     1384897000	     69143	80008598	34103df3	csrrc	x27,mepc,x0	  x0:0x00000000 x27=0x800084e2
     1384917000	     69144	8000859c	00a49fb3	sll	x31,x9,x10	  x9:0x00000001 x10:0xffffff6f x31=0x00008000
     1385037000	     69150	800085a0	0bb9	c.addi	x23,14	 x23:0x3c3c3bff x23=0x3c3c3c0d
     1385097000	     69153	800085a2	03711ab3	mulh	x21,x2,x23	  x2:0x00000000 x23:0x3c3c3c0d x21=0x00000000
     1385117000	     69154	800085a6	0302d663	bge	x5,x16,800085d2	  x5:0xffffffff x16:0xffffffff
     1385757000	     69186	800085d2	4bf1	c.li	x23,28	 x23=0x0000001c
     1385777000	     69187	800085d4	001b5133	srl	x2,x22,x1	 x22:0x00000339  x1:0x00000000  x2=0x00000339
     1385977000	     69197	800085d8	e5594bb7	lui	x23,0xe5594	 x23=0xe5594000
     1386317000	     69214	800085dc	0000100f	fence.i	
     1386817000	     69239	800085e0	40dd5293	srai	x5,x26,0xd	 x26:0x00000000  x5=0x00000000
     1387017000	     69249	800085e4	002ea233	slt	x4,x29,x2	 x29:0x00000001  x2:0x00000339  x4=0x00000001
     1387217000	     69259	800085e8	03041fb3	mulh	x31,x8,x16	  x8:0x00000001 x16:0xffffffff x31=0xffffffff
     1387237000	     69260	800085ec	41e58db3	sub	x27,x11,x30	 x11:0x80021e64 x30:0x00000000 x27=0x80021e64
     1387277000	     69262	800085f0	8319	c.srli	x14,0x6	 x14:0x00000000 x14=0x00000000
     1387297000	     69263	800085f2	01f69893	slli	x17,x13,0x1f	 x13:0x80025ce4 x17=0x00000000
     1387317000	     69264	800085f6	00aedb93	srli	x23,x29,0xa	 x29:0x00000001 x23=0x00000000
     1387337000	     69265	800085fa	8045	c.srli	x8,0x11	  x8:0x00000001  x8=0x00000000
     1387357000	     69266	800085fc	006c1733	sll	x14,x24,x6	 x24:0x00000000  x6:0x00000004 x14=0x00000000
     1387457000	     69271	80008600	03e361b3	rem	x3,x6,x30	  x6:0x00000004 x30:0x00000000  x3=0x00000004
     1387477000	     69272	80008604	37aaeb93	ori	x23,x21,890	 x21:0x00000000 x23=0x0000037a
     1387517000	     69274	80008608	03e33d33	mulhu	x26,x6,x30	  x6:0x00000004 x30:0x00000000 x26=0x00000000
     1387557000	     69276	8000860c	0253ecb3	rem	x25,x7,x5	  x7:0x00000000  x5:0x00000000 x25=0x00000000
     1387577000	     69277	80008610	0165d1b3	srl	x3,x11,x22	 x11:0x80021e64 x22:0x00000339  x3=0x00000040
     1387637000	     69280	80008614	00fbda33	srl	x20,x23,x15	 x23:0x0000037a x15:0x00000000 x20=0x0000037a
     1387657000	     69281	80008618	01459a63	bne	x11,x20,8000862c	 x11:0x80021e64 x20:0x0000037a
     1387917000	     69294	8000862c	6985	c.lui	x19,0x1	 x19=0x00001000
     1387997000	     69298	8000862e	2ae9a293	slti	x5,x19,686	 x19:0x00001000  x5=0x00000000
     1388017000	     69299	80008632	0001	c.addi	x0,0	  x0:0x00000000  x0=0x00000000
     1388137000	     69305	80008634	02090963	beq	x18,x0,80008666	 x18:0x00000000  x0:0x00000000
     1388877000	     69342	80008666	02b8da63	bge	x17,x11,8000869a	 x17:0x00000000 x11:0x80021e64
     1389137000	     69355	8000869a	8efe	c.mv	x29,x31	  x0:0x00000000 x31:0xffffffff x29=0xffffffff
     1389157000	     69356	8000869c	9a7d	c.andi	x12,-1	 x12:0x00000000 x12=0x00000000
     1389177000	     69357	8000869e	3a002df3	csrrs	x27,pmpcfg0,x0	  x0:0x00000000 x27=0x0f0f0f0f
     1389197000	     69358	800086a2	8cf9	c.and	x9,x14	  x9:0x00000001 x14:0x00000000  x9=0x00000000
     1389237000	     69360	800086a4	03cfe133	rem	x2,x31,x28	 x31:0xffffffff x28:0x00000000  x2=0xffffffff
     1389257000	     69361	800086a8	00be2633	slt	x12,x28,x11	 x28:0x00000000 x11:0x80021e64 x12=0x00000000
     1389277000	     69362	800086ac	8d56	c.mv	x26,x21	  x0:0x00000000 x21:0x00000000 x26=0x00000000
     1389417000	     69369	800086ae	0000100f	fence.i	
     1390017000	     69399	800086b2	d4497b93	andi	x23,x18,-700	 x18:0x00000000 x23=0x00000000
     1390757000	     69436	800086b6	03624a33	div	x20,x4,x22	  x4:0x00000001 x22:0x00000339 x20=0x00000000
     1390777000	     69437	800086ba	34051af3	csrrw	x21,mscratch,x10	 x10:0xffffff6f x21=0x00000018
     1390797000	     69438	800086be	01d2d2b3	srl	x5,x5,x29	  x5:0x00000000 x29:0xffffffff  x5=0x00000000
     1390817000	     69439	800086c2	40bc5733	sra	x14,x24,x11	 x24:0x00000000 x11:0x80021e64 x14=0x00000000
     1390837000	     69440	800086c6	b0acdff3	csrrwi	x31,mhpmcounter10,25	 x31=0x0000022d
     1391057000	     69451	800086ca	03bbab33	mulhsu	x22,x23,x27	 x23:0x00000000 x27:0x0f0f0f0f x22=0x00000000
     1391077000	     69452	800086ce	408384b3	sub	x9,x7,x8	  x7:0x00000000  x8:0x00000000  x9=0x00000000
     1391097000	     69453	800086d2	00ba0633	add	x12,x20,x11	 x20:0x00000000 x11:0x80021e64 x12=0x80021e64
     1391277000	     69462	800086d6	0ff0000f	fence	iorw,iorw	
     1391297000	     69463	800086da	036aec63	bltu	x21,x22,80008712	 x21:0x00000018 x22:0x00000000
     1391317000	     69464	800086de	984a	c.add	x16,x18	 x16:0xffffffff x18:0x00000000 x16=0xffffffff
     1391337000	     69465	800086e0	003dc2b3	xor	x5,x27,x3	 x27:0x0f0f0f0f  x3:0x00000040  x5=0x0f0f0f4f
     1391717000	     69484	800086e4	0243a833	mulhsu	x16,x7,x4	  x7:0x00000000  x4:0x00000001 x16=0x00000000
     1391737000	     69485	800086e8	0001	c.addi	x0,0	  x0:0x00000000  x0=0x00000000
     1391837000	     69490	800086ea	2b9cac13	slti	x24,x25,697	 x25:0x00000000 x24=0x00000001
     1391857000	     69491	800086ee	8c3d	c.xor	x8,x15	  x8:0x00000000 x15:0x00000000  x8=0x00000000
     1391877000	     69492	800086f0	0f9a	c.slli	x31,0x6	 x31:0x0000022d x31=0x00008b40
     1392777000	     69537	800086f2	03b6fc33	remu	x24,x13,x27	 x13:0x80025ce4 x27:0x0f0f0f0f x24=0x0789e46c
     1392797000	     69538	800086f6	8f26	c.mv	x30,x9	  x0:0x00000000  x9:0x00000000 x30=0x00000000
     1392817000	     69539	800086f8	02850233	mul	x4,x10,x8	 x10:0xffffff6f  x8:0x00000000  x4=0x00000000
     1392857000	     69541	800086fc	02fc62b3	rem	x5,x24,x15	 x24:0x0789e46c x15:0x00000000  x5=0x0789e46c
     1392877000	     69542	80008700	e485	c.bnez	x9,80008728	  x9:0x00000000
     1392897000	     69543	80008702	1408	c.addi4spn	x10,x2,544	 x10=0x0000021f
     1392917000	     69544	80008704	013d5933	srl	x18,x26,x19	 x26:0x00000000 x19:0x00001000 x18=0x00000000
     1392937000	     69545	80008708	0000100f	fence.i	
     1393177000	     69557	8000870c	52a50c13	addi	x24,x10,1322	 x10:0x0000021f x24=0x00000749
     1393277000	     69562	80008710	8fd1	c.or	x15,x12	 x15:0x00000000 x12:0x80021e64 x15=0x80021e64
     1393317000	     69564	80008712	6f4cec37	lui	x24,0x6f4ce	 x24=0x6f4ce000
     1393337000	     69565	80008716	1510	c.addi4spn	x12,x2,672	 x12=0x0000029f
     1393437000	     69570	80008718	110c7093	andi	x1,x24,272	 x24:0x6f4ce000  x1=0x00000000
     1393577000	     69577	8000871c	03461f33	mulh	x30,x12,x20	 x12:0x0000029f x20:0x00000000 x30=0x00000000
     1393597000	     69578	80008720	6218e113	ori	x2,x17,1569	 x17:0x00000000  x2=0x00000621
     1393617000	     69579	80008724	717d	c.addi16sp	x2,-16	  x2:0x00000621  x2=0x00000611
     1393637000	     69580	80008726	8a42	c.mv	x20,x16	  x0:0x00000000 x16:0x00000000 x20=0x00000000
     1393657000	     69581	80008728	bcff7893	andi	x17,x30,-1073	 x30:0x00000000 x17=0x00000000
     1394037000	     69600	8000872c	c37a7cb7	lui	x25,0xc37a7	 x25=0xc37a7000
     1394457000	     69621	80008730	021a7993	andi	x19,x20,33	 x20:0x00000000 x19=0x00000000
     1394477000	     69622	80008734	8449	c.srai	x8,0x12	  x8:0x00000000  x8=0x00000000
     1394497000	     69623	80008736	05210263	beq	x2,x18,8000877a	  x2:0x00000611 x18:0x00000000
     1394917000	     69644	8000873a	417c5b13	srai	x22,x24,0x17	 x24:0x6f4ce000 x22=0x000000de
     1395297000	     69663	8000873e	03609e63	bne	x1,x22,8000877a	  x1:0x00000000 x22:0x000000de
     1396057000	     69701	8000877a	8cf1	c.and	x9,x12	  x9:0x00000000 x12:0x0000029f  x9=0x00000000
     1396077000	     69702	8000877c	1788	c.addi4spn	x10,x2,992	 x10=0x000009f1
     1396137000	     69705	8000877e	05665263	bge	x12,x22,800087c2	 x12:0x0000029f x22:0x000000de
     1396937000	     69745	800087c2	341519f3	csrrw	x19,mepc,x10	 x10:0x000009f1 x19=0x800084e2
     1396957000	     69746	800087c6	6f0d	c.lui	x30,0x3	 x30=0x00003000
     1396977000	     69747	800087c8	072a	c.slli	x14,0xa	 x14:0x00000000 x14=0x00000000
     1396997000	     69748	800087ca	9d136213	ori	x4,x6,-1583	  x6:0x00000004  x4=0xfffff9d5
     1397017000	     69749	800087ce	41405893	srai	x17,x0,0x14	  x0:0x00000000 x17=0x00000000
     1397037000	     69750	800087d2	8f01	c.sub	x14,x8	 x14:0x00000000  x8:0x00000000 x14=0x00000000
     1397057000	     69751	800087d4	40a087b3	sub	x15,x1,x10	  x1:0x00000000 x10:0x000009f1 x15=0xfffff60f
     1397657000	     69781	800087d8	40f15d93	srai	x27,x2,0xf	  x2:0x00000611 x27=0x00000000
     1397817000	     69789	800087dc	ee15	c.bnez	x12,80008818	 x12:0x0000029f
     1398357000	     69816	80008818	3075f217	auipc	x4,0x3075f	  x4=0xb0767818
     1398377000	     69817	8000881c	3404d473	csrrwi	x8,mscratch,9	  x8=0xffffff6f
     1398397000	     69818	80008820	0000100f	fence.i	
     1398817000	     69839	80008824	f121d8f3	csrrwi	x0,marchid,3	  x0=0x00000000
     1398937000	     69845	80002500	0800006f	jal	x0,80002580	  x0=0x00000000
     1399417000	     69869	80002580	16f1	c.addi	x13,-4	 x13:0x80025ce4 x13=0x80025ce0
     1399877000	     69892	80002582	c28c	c.sw	x11,0(x13)	 x13:0x80025ce0 x11:0x80021e64 PA:0x80025ce0 store:0x80021e64 load:0xffffffff
     1399897000	     69893	80002584	000685b3	add	x11,x13,x0	 x13:0x80025ce0  x0:0x00000000 x11=0x80025ce0
     1399917000	     69894	80002588	f8058593	addi	x11,x11,-128	 x11:0x80025ce0 x11=0x80025c60
     1400537000	     69925	8000258c	0015a223	sw	x1,4(x11)	 x11:0x80025c60  x1:0x00000000 PA:0x80025c64 store:0x00000000 load:0xffffffff
     1400677000	     69932	80002590	0025a423	sw	x2,8(x11)	 x11:0x80025c60  x2:0x00000611 PA:0x80025c68 store:0x00000611 load:0xffffffff
     1400737000	     69935	80002594	0035a623	sw	x3,12(x11)	 x11:0x80025c60  x3:0x00000040 PA:0x80025c6c store:0x00000040 load:0xffffffff
     1400757000	     69936	80002598	0045a823	sw	x4,16(x11)	 x11:0x80025c60  x4:0xb0767818 PA:0x80025c70 store:0xb0767818 load:0xffffffff
     1400777000	     69937	8000259c	0055aa23	sw	x5,20(x11)	 x11:0x80025c60  x5:0x0789e46c PA:0x80025c74 store:0x0789e46c load:0xffffffff
     1400997000	     69948	800025a0	0065ac23	sw	x6,24(x11)	 x11:0x80025c60  x6:0x00000004 PA:0x80025c78 store:0x00000004 load:0xffffffff
     1401197000	     69958	800025a4	0075ae23	sw	x7,28(x11)	 x11:0x80025c60  x7:0x00000000 PA:0x80025c7c store:0x00000000 load:0xffffffff
     1401257000	     69961	800025a8	d180	c.sw	x8,32(x11)	 x11:0x80025c60  x8:0xffffff6f PA:0x80025c80 store:0xffffff6f load:0xffffffff
     1401277000	     69962	800025aa	d1c4	c.sw	x9,36(x11)	 x11:0x80025c60  x9:0x00000000 PA:0x80025c84 store:0x00000000 load:0xffffffff
     1401497000	     69973	800025ac	d588	c.sw	x10,40(x11)	 x11:0x80025c60 x10:0x000009f1 PA:0x80025c88 store:0x000009f1 load:0xffffffff
     1401917000	     69994	800025ae	d5cc	c.sw	x11,44(x11)	 x11:0x80025c60 x11:0x80025c60 PA:0x80025c8c store:0x80025c60 load:0xffffffff
     1401977000	     69997	800025b0	d990	c.sw	x12,48(x11)	 x11:0x80025c60 x12:0x0000029f PA:0x80025c90 store:0x0000029f load:0xffffffff
     1401997000	     69998	800025b2	d9d4	c.sw	x13,52(x11)	 x11:0x80025c60 x13:0x80025ce0 PA:0x80025c94 store:0x80025ce0 load:0xffffffff
     1402317000	     70014	800025b4	dd98	c.sw	x14,56(x11)	 x11:0x80025c60 x14:0x00000000 PA:0x80025c98 store:0x00000000 load:0xffffffff
     1402377000	     70017	800025b6	dddc	c.sw	x15,60(x11)	 x11:0x80025c60 x15:0xfffff60f PA:0x80025c9c store:0xfffff60f load:0xffffffff
     1402397000	     70018	800025b8	0505a023	sw	x16,64(x11)	 x11:0x80025c60 x16:0x00000000 PA:0x80025ca0 store:0x00000000 load:0xffffffff
     1402417000	     70019	800025bc	0515a223	sw	x17,68(x11)	 x11:0x80025c60 x17:0x00000000 PA:0x80025ca4 store:0x00000000 load:0xffffffff
     1402437000	     70020	800025c0	0525a423	sw	x18,72(x11)	 x11:0x80025c60 x18:0x00000000 PA:0x80025ca8 store:0x00000000 load:0xffffffff
     1402457000	     70021	800025c4	0535a623	sw	x19,76(x11)	 x11:0x80025c60 x19:0x800084e2 PA:0x80025cac store:0x800084e2 load:0xffffffff
     1402617000	     70029	800025c8	0545a823	sw	x20,80(x11)	 x11:0x80025c60 x20:0x00000000 PA:0x80025cb0 store:0x00000000 load:0xffffffff
     1403017000	     70049	800025cc	0555aa23	sw	x21,84(x11)	 x11:0x80025c60 x21:0x00000018 PA:0x80025cb4 store:0x00000018 load:0xffffffff
     1403077000	     70052	800025d0	0565ac23	sw	x22,88(x11)	 x11:0x80025c60 x22:0x000000de PA:0x80025cb8 store:0x000000de load:0xffffffff
     1403237000	     70060	800025d4	0575ae23	sw	x23,92(x11)	 x11:0x80025c60 x23:0x00000000 PA:0x80025cbc store:0x00000000 load:0xffffffff
     1403637000	     70080	800025d8	0785a023	sw	x24,96(x11)	 x11:0x80025c60 x24:0x6f4ce000 PA:0x80025cc0 store:0x6f4ce000 load:0xffffffff
     1403977000	     70097	800025dc	0795a223	sw	x25,100(x11)	 x11:0x80025c60 x25:0xc37a7000 PA:0x80025cc4 store:0xc37a7000 load:0xffffffff
     1404037000	     70100	800025e0	07a5a423	sw	x26,104(x11)	 x11:0x80025c60 x26:0x00000000 PA:0x80025cc8 store:0x00000000 load:0xffffffff
     1404077000	     70102	800025e4	07b5a623	sw	x27,108(x11)	 x11:0x80025c60 x27:0x00000000 PA:0x80025ccc store:0x00000000 load:0xffffffff
     1404097000	     70103	800025e8	07c5a823	sw	x28,112(x11)	 x11:0x80025c60 x28:0x00000000 PA:0x80025cd0 store:0x00000000 load:0xffffffff
     1404517000	     70124	800025ec	07d5aa23	sw	x29,116(x11)	 x11:0x80025c60 x29:0xffffffff PA:0x80025cd4 store:0xffffffff load:0xffffffff
     1404577000	     70127	800025f0	07e5ac23	sw	x30,120(x11)	 x11:0x80025c60 x30:0x00003000 PA:0x80025cd8 store:0x00003000 load:0xffffffff
     1404997000	     70148	800025f4	07f5ae23	sw	x31,124(x11)	 x11:0x80025c60 x31:0x00008b40 PA:0x80025cdc store:0x00008b40 load:0xffffffff
     1405017000	     70149	800025f8	000586b3	add	x13,x11,x0	 x11:0x80025c60  x0:0x00000000 x13=0x80025c60
     1405037000	     70150	800025fc	90000db7	lui	x27,0x90000	 x27=0x90000000
     1405057000	     70151	80002600	1df1	c.addi	x27,-4	 x27:0x90000000 x27=0x8ffffffc
     1405077000	     70152	80002602	4921	c.li	x18,8	 x18=0x00000008
     1405097000	     70153	80002604	0922	c.slli	x18,0x8	 x18:0x00000008 x18=0x00000800
     1405117000	     70154	80002606	00090913	addi	x18,x18,0	 x18:0x00000800 x18=0x00000800
     1405657000	     70181	8000260a	012da023	sw	x18,0(x27)	 x27:0x8ffffffc x18:0x00000800 PA:0x8ffffffc store:0x00000800 load:0xffffffff
     1405677000	     70182	8000260e	34102973	csrrs	x18,mepc,x0	  x0:0x00000000 x18=0x80008824
     1405697000	     70183	80002612	34202973	csrrs	x18,mcause,x0	  x0:0x00000000 x18=0x00000002
     1405717000	     70184	80002616	4d8d	c.li	x27,3	 x27=0x00000003
     1405737000	     70185	80002618	01b91463	bne	x18,x27,80002620	 x18:0x00000002 x27:0x00000003
     1405777000	     70187	80002620	4da1	c.li	x27,8	 x27=0x00000008
     1405797000	     70188	80002622	05b90d63	beq	x18,x27,8000267c	 x18:0x00000002 x27:0x00000008
     1405817000	     70189	80002626	4da5	c.li	x27,9	 x27=0x00000009
     1406697000	     70233	80002628	05b90a63	beq	x18,x27,8000267c	 x18:0x00000002 x27:0x00000009
     1406837000	     70240	8000262c	4dad	c.li	x27,11	 x27=0x0000000b
     1406857000	     70241	8000262e	05b90763	beq	x18,x27,8000267c	 x18:0x00000002 x27:0x0000000b
     1406877000	     70242	80002632	4d85	c.li	x27,1	 x27=0x00000001
     1406897000	     70243	80002634	35b90363	beq	x18,x27,8000297a	 x18:0x00000002 x27:0x00000001
     1406997000	     70248	80002638	4d95	c.li	x27,5	 x27=0x00000005
     1407017000	     70249	8000263a	63b90963	beq	x18,x27,80002c6c	 x18:0x00000002 x27:0x00000005
     1407037000	     70250	8000263e	4d9d	c.li	x27,7	 x27=0x00000007
     1407337000	     70265	80002640	15b90ae3	beq	x18,x27,80002f94	 x18:0x00000002 x27:0x00000007
     1407377000	     70267	80002644	4db1	c.li	x27,12	 x27=0x0000000c
     1407397000	     70268	80002646	01b91463	bne	x18,x27,8000264e	 x18:0x00000002 x27:0x0000000c
     1407477000	     70272	8000264e	4db5	c.li	x27,13	 x27=0x0000000d
     1407697000	     70283	80002650	01b91463	bne	x18,x27,80002658	 x18:0x00000002 x27:0x0000000d
     1408597000	     70328	80002658	4dbd	c.li	x27,15	 x27=0x0000000f
     1408737000	     70335	8000265a	01b91463	bne	x18,x27,80002662	 x18:0x00000002 x27:0x0000000f
     1409617000	     70379	80002662	4d89	c.li	x27,2	 x27=0x00000002
     1409677000	     70382	80002664	01b91463	bne	x18,x27,8000266c	 x18:0x00000002 x27:0x00000002
     1409697000	     70383	80002668	45c0906f	jal	x0,8000bac4	  x0=0x00000000
     1410037000	     70400	8000bac4	90000db7	lui	x27,0x90000	 x27=0x90000000
     1410557000	     70426	8000bac8	1df1	c.addi	x27,-4	 x27:0x90000000 x27=0x8ffffffc
     1410577000	     70427	8000baca	4929	c.li	x18,10	 x18=0x0000000a
     1410637000	     70430	8000bacc	0922	c.slli	x18,0x8	 x18:0x0000000a x18=0x00000a00
     1410697000	     70433	8000bace	00090913	addi	x18,x18,0	 x18:0x00000a00 x18=0x00000a00
     1410817000	     70439	8000bad2	012da023	sw	x18,0(x27)	 x27:0x8ffffffc x18:0x00000a00 PA:0x8ffffffc store:0x00000a00 load:0xffffffff
     1410837000	     70440	8000bad6	90000db7	lui	x27,0x90000	 x27=0x90000000
     1410857000	     70441	8000bada	1df1	c.addi	x27,-4	 x27:0x90000000 x27=0x8ffffffc
     1410877000	     70442	8000badc	34200913	addi	x18,x0,834	  x0:0x00000000 x18=0x00000342
     1410897000	     70443	8000bae0	0922	c.slli	x18,0x8	 x18:0x00000342 x18=0x00034200
     1410917000	     70444	8000bae2	090d	c.addi	x18,3	 x18:0x00034200 x18=0x00034203
     1410977000	     70447	8000bae4	012da023	sw	x18,0(x27)	 x27:0x8ffffffc x18:0x00034203 PA:0x8ffffffc store:0x00034203 load:0xffffffff
     1410997000	     70448	8000bae8	34202973	csrrs	x18,mcause,x0	  x0:0x00000000 x18=0x00000002
     1411117000	     70454	8000baec	012da023	sw	x18,0(x27)	 x27:0x8ffffffc x18:0x00000002 PA:0x8ffffffc store:0x00000002 load:0xffffffff
     1411177000	     70457	8000baf0	34102973	csrrs	x18,mepc,x0	  x0:0x00000000 x18=0x80008824
     1411477000	     70472	8000baf4	0911	c.addi	x18,4	 x18:0x80008824 x18=0x80008828
     1411617000	     70479	8000baf6	34191073	csrrw	x0,mepc,x18	 x18:0x80008828  x0=0x00000000
     1412037000	     70500	8000bafa	000685b3	add	x11,x13,x0	 x13:0x80025c60  x0:0x00000000 x11=0x80025c60
     1412097000	     70503	8000bafe	0045a083	lw	x1,4(x11)	 x11:0x80025c60  x1=0x00000000 PA:0x80025c64 load:0x00000000
     1412117000	     70504	8000bb02	0085a103	lw	x2,8(x11)	 x11:0x80025c60  x2=0x00000611 PA:0x80025c68 load:0x00000611
     1412497000	     70523	8000bb06	00c5a183	lw	x3,12(x11)	 x11:0x80025c60  x3=0x00000040 PA:0x80025c6c load:0x00000040
     1412517000	     70524	8000bb0a	0105a203	lw	x4,16(x11)	 x11:0x80025c60  x4=0xb0767818 PA:0x80025c70 load:0xb0767818
     1413177000	     70557	8000bb0e	0145a283	lw	x5,20(x11)	 x11:0x80025c60  x5=0x0789e46c PA:0x80025c74 load:0x0789e46c
     1413377000	     70567	8000bb12	0185a303	lw	x6,24(x11)	 x11:0x80025c60  x6=0x00000004 PA:0x80025c78 load:0x00000004
     1413417000	     70569	8000bb16	01c5a383	lw	x7,28(x11)	 x11:0x80025c60  x7=0x00000000 PA:0x80025c7c load:0x00000000
     1413837000	     70590	8000bb1a	5180	c.lw	x8,32(x11)	 x11:0x80025c60  x8=0xffffff6f PA:0x80025c80 load:0xffffff6f
     1413917000	     70594	8000bb1c	51c4	c.lw	x9,36(x11)	 x11:0x80025c60  x9=0x00000000 PA:0x80025c84 load:0x00000000
     1413937000	     70595	8000bb1e	5588	c.lw	x10,40(x11)	 x11:0x80025c60 x10=0x000009f1 PA:0x80025c88 load:0x000009f1
     1414097000	     70603	8000bb20	55cc	c.lw	x11,44(x11)	 x11:0x80025c60 x11=0x80025c60 PA:0x80025c8c load:0x80025c60
     1414517000	     70624	8000bb22	5990	c.lw	x12,48(x11)	 x11:0x80025c60 x12=0x0000029f PA:0x80025c90 load:0x0000029f
     1414597000	     70628	8000bb24	59d4	c.lw	x13,52(x11)	 x11:0x80025c60 x13=0x80025ce0 PA:0x80025c94 load:0x80025ce0
     1414837000	     70640	8000bb26	5d98	c.lw	x14,56(x11)	 x11:0x80025c60 x14=0x00000000 PA:0x80025c98 load:0x00000000
     1414997000	     70648	8000bb28	5ddc	c.lw	x15,60(x11)	 x11:0x80025c60 x15=0xfffff60f PA:0x80025c9c load:0xfffff60f
     1415477000	     70672	8000bb2a	0405a803	lw	x16,64(x11)	 x11:0x80025c60 x16=0x00000000 PA:0x80025ca0 load:0x00000000
     1415537000	     70675	8000bb2e	0445a883	lw	x17,68(x11)	 x11:0x80025c60 x17=0x00000000 PA:0x80025ca4 load:0x00000000
     1415737000	     70685	8000bb32	0485a903	lw	x18,72(x11)	 x11:0x80025c60 x18=0x00000000 PA:0x80025ca8 load:0x00000000
     1415957000	     70696	8000bb36	04c5a983	lw	x19,76(x11)	 x11:0x80025c60 x19=0x800084e2 PA:0x80025cac load:0x800084e2
     1415977000	     70697	8000bb3a	0505aa03	lw	x20,80(x11)	 x11:0x80025c60 x20=0x00000000 PA:0x80025cb0 load:0x00000000
     1416217000	     70709	8000bb3e	0545aa83	lw	x21,84(x11)	 x11:0x80025c60 x21=0x00000018 PA:0x80025cb4 load:0x00000018
     1416637000	     70730	8000bb42	0585ab03	lw	x22,88(x11)	 x11:0x80025c60 x22=0x000000de PA:0x80025cb8 load:0x000000de
     1416697000	     70733	8000bb46	05c5ab83	lw	x23,92(x11)	 x11:0x80025c60 x23=0x00000000 PA:0x80025cbc load:0x00000000
     1417037000	     70750	8000bb4a	0605ac03	lw	x24,96(x11)	 x11:0x80025c60 x24=0x6f4ce000 PA:0x80025cc0 load:0x6f4ce000
     1417097000	     70753	8000bb4e	0645ac83	lw	x25,100(x11)	 x11:0x80025c60 x25=0xc37a7000 PA:0x80025cc4 load:0xc37a7000
     1417157000	     70756	8000bb52	0685ad03	lw	x26,104(x11)	 x11:0x80025c60 x26=0x00000000 PA:0x80025cc8 load:0x00000000
     1417617000	     70779	8000bb56	06c5ad83	lw	x27,108(x11)	 x11:0x80025c60 x27=0x00000000 PA:0x80025ccc load:0x00000000
     1417977000	     70797	8000bb5a	0705ae03	lw	x28,112(x11)	 x11:0x80025c60 x28=0x00000000 PA:0x80025cd0 load:0x00000000
     1418037000	     70800	8000bb5e	0745ae83	lw	x29,116(x11)	 x11:0x80025c60 x29=0xffffffff PA:0x80025cd4 load:0xffffffff
     1418077000	     70802	8000bb62	0785af03	lw	x30,120(x11)	 x11:0x80025c60 x30=0x00003000 PA:0x80025cd8 load:0x00003000
     1418097000	     70803	8000bb66	07c5af83	lw	x31,124(x11)	 x11:0x80025c60 x31=0x00008b40 PA:0x80025cdc load:0x00008b40
     1418117000	     70804	8000bb6a	08058593	addi	x11,x11,128	 x11:0x80025c60 x11=0x80025ce0
     1418137000	     70805	8000bb6e	000586b3	add	x13,x11,x0	 x11:0x80025ce0  x0:0x00000000 x13=0x80025ce0
     1418197000	     70808	8000bb72	428c	c.lw	x11,0(x13)	 x13:0x80025ce0 x11=0x80021e64 PA:0x80025ce0 load:0x80021e64
     1418217000	     70809	8000bb74	0691	c.addi	x13,4	 x13:0x80025ce0 x13=0x80025ce4
     1418337000	     70815	8000bb76	30200073	mret	
     1428937000	     71345	80008828	02f18b63	beq	x3,x15,8000885e	  x3:0x00000040 x15:0xfffff60f
     1428977000	     71347	8000882c	03d43ab3	mulhu	x21,x8,x29	  x8:0xffffff6f x29:0xffffffff x21=0xffffff6e
     1428997000	     71348	80008830	e329	c.bnez	x14,80008872	 x14:0x00000000
     1429017000	     71349	80008832	00f23cb3	sltu	x25,x4,x15	  x4:0xb0767818 x15:0xfffff60f x25=0x00000001
     1429037000	     71350	80008836	0001	c.addi	x0,0	  x0:0x00000000  x0=0x00000000
     1429057000	     71351	80008838	0000100f	fence.i	
     1429137000	     71355	8000883c	02053b33	mulhu	x22,x10,x0	 x10:0x000009f1  x0:0x00000000 x22=0x00000000
     1429217000	     71359	80008840	0548c263	blt	x17,x20,80008884	 x17:0x00000000 x20:0x00000000
     1429297000	     71363	80008844	01509b13	slli	x22,x1,0x15	  x1:0x00000000 x22=0x00000000
     1429317000	     71364	80008848	89fbe4b7	lui	x9,0x89fbe	  x9=0x89fbe000
     1429397000	     71368	8000884c	8309	c.srli	x14,0x2	 x14:0x00000000 x14=0x00000000
     1429417000	     71369	8000884e	40b087b3	sub	x15,x1,x11	  x1:0x00000000 x11:0x80021e64 x15=0x7ffde19c
     1429437000	     71370	80008852	01a9ce63	blt	x19,x26,8000886e	 x19:0x800084e2 x26:0x00000000
     1429997000	     71398	8000886e	03be0863	beq	x28,x27,8000889e	 x28:0x00000000 x27:0x00000000
     1430577000	     71427	8000889e	3b002bf3	csrrs	x23,pmpaddr0,x0	  x0:0x00000000 x23=0x20000ca9
     1430597000	     71428	800088a2	03668963	beq	x13,x22,800088d4	 x13:0x80025ce4 x22:0x00000000
     1430617000	     71429	800088a6	00624f63	blt	x4,x6,800088c4	  x4:0xb0767818  x6:0x00000004
     1430937000	     71445	800088c4	418fd833	sra	x16,x31,x24	 x31:0x00008b40 x24:0x6f4ce000 x16=0x00008b40
     1430957000	     71446	800088c8	0000100f	fence.i	
     1431097000	     71453	800088cc	41b25933	sra	x18,x4,x27	  x4:0xb0767818 x27:0x00000000 x18=0xb0767818
     1431437000	     71470	800088d0	40858eb3	sub	x29,x11,x8	 x11:0x80021e64  x8:0xffffff6f x29=0x80021ef5
     1431557000	     71476	800088d4	864d	c.srai	x12,0x13	 x12:0x0000029f x12=0x00000000
     1431577000	     71477	800088d6	0258fe63	bgeu	x17,x5,80008912	 x17:0x00000000  x5:0x0789e46c
     1431677000	     71482	800088da	77068293	addi	x5,x13,1904	 x13:0x80025ce4  x5=0x80026454
     1431697000	     71483	800088de	717d	c.addi16sp	x2,-16	  x2:0x00000611  x2=0x00000601
     1431717000	     71484	800088e0	0125d913	srli	x18,x11,0x12	 x11:0x80021e64 x18=0x00002000
     1431837000	     71490	800088e4	03cda9b3	mulhsu	x19,x27,x28	 x27:0x00000000 x28:0x00000000 x19=0x00000000
     1432277000	     71512	800088e8	325fa273	csrrs	x4,mhpmevent5,x31	 x31:0x00008b40  x4=0x00000004
     1432337000	     71515	800088ec	0001	c.addi	x0,0	  x0:0x00000000  x0=0x00000000
     1432437000	     71520	800088ee	5f4182b7	lui	x5,0x5f418	  x5=0x5f418000
     1432637000	     71530	800088f2	b9777893	andi	x17,x14,-1129	 x14:0x00000000 x17=0x00000000
     1432657000	     71531	800088f6	07fe	c.slli	x15,0x1f	 x15:0x7ffde19c x15=0x00000000
     1433017000	     71549	800088f8	02769bb3	mulh	x23,x13,x7	 x13:0x80025ce4  x7:0x00000000 x23=0x00000000
     1433177000	     71557	800088fc	036de633	rem	x12,x27,x22	 x27:0x00000000 x22:0x00000000 x12=0x00000000
     1433257000	     71561	80008900	8715	c.srai	x14,0x5	 x14:0x00000000 x14=0x00000000
     1433277000	     71562	80008902	8c31	c.xor	x8,x12	  x8:0xffffff6f x12:0x00000000  x8=0xffffff6f
     1433377000	     71567	80008904	035a2833	mulhsu	x16,x20,x21	 x20:0x00000000 x21:0xffffff6e x16=0x00000000
     1433397000	     71568	80008908	0000100f	fence.i	
     1434077000	     71602	8000890c	8e39	c.xor	x12,x14	 x12:0x00000000 x14:0x00000000 x12=0x00000000
     1434097000	     71603	8000890e	3b0072f3	csrrci	x5,pmpaddr0,0	  x5=0x20000ca9
     1434517000	     71624	80008912	3f6b4613	xori	x12,x22,1014	 x22:0x00000000 x12=0x000003f6
     1434537000	     71625	80008916	0001	c.addi	x0,0	  x0:0x00000000  x0=0x00000000
     1434557000	     71626	80008918	5c866913	ori	x18,x12,1480	 x12:0x000003f6 x18=0x000007fe
     1434717000	     71634	8000891c	cb8d	c.beqz	x15,8000894e	 x15:0x00000000
     1434997000	     71648	8000894e	8a76	c.mv	x20,x29	  x0:0x00000000 x29:0x80021ef5 x20=0x80021ef5
     1435017000	     71649	80008950	32a07f73	csrrci	x30,mhpmevent10,0	 x30=0x00000080
     1435257000	     71661	80008954	01a89833	sll	x16,x17,x26	 x17:0x00000000 x26:0x00000000 x16=0x00000000
     1435277000	     71662	80008958	49e60413	addi	x8,x12,1182	 x12:0x000003f6  x8=0x00000894
     1435517000	     71674	8000895c	87f5	c.srai	x15,0x1d	 x15:0x00000000 x15=0x00000000
     1435537000	     71675	8000895e	8f85	c.sub	x15,x9	 x15:0x00000000  x9:0x89fbe000 x15=0x76042000
     1435557000	     71676	80008960	03690db3	mul	x27,x18,x22	 x18:0x000007fe x22:0x00000000 x27=0x00000000
     1435957000	     71696	80008964	4162de33	sra	x28,x5,x22	  x5:0x20000ca9 x22:0x00000000 x28=0x20000ca9
     1435977000	     71697	80008968	03c2c063	blt	x5,x28,80008988	  x5:0x20000ca9 x28:0x20000ca9
     1436037000	     71700	8000896c	40155713	srai	x14,x10,0x1	 x10:0x000009f1 x14=0x000004f8
     1436457000	     71721	80008970	8c89	c.sub	x9,x10	  x9:0x89fbe000 x10:0x000009f1  x9=0x89fbd60f
     1436477000	     71722	80008972	041a7263	bgeu	x20,x1,800089b6	 x20:0x80021ef5  x1:0x00000000
     1437057000	     71751	800089b6	8c55	c.or	x8,x13	  x8:0x00000894 x13:0x80025ce4  x8=0x80025cf4
     1437157000	     71756	800089b8	01555913	srli	x18,x10,0x15	 x10:0x000009f1 x18=0x00000000
     1437177000	     71757	800089bc	020d	c.addi	x4,3	  x4:0x00000004  x4=0x00000007
     1437257000	     71761	800089be	06283a37	lui	x20,0x6283	 x20=0x06283000
     1437277000	     71762	800089c2	4031d093	srai	x1,x3,0x3	  x3:0x00000040  x1=0x00000008
     1437297000	     71763	800089c6	8091	c.srli	x9,0x4	  x9:0x89fbd60f  x9=0x089fbd60
     1437317000	     71764	800089c8	0001	c.addi	x0,0	  x0:0x00000000  x0=0x00000000
     1437337000	     71765	800089ca	71bd3f13	sltiu	x30,x26,1819	 x26:0x00000000 x30=0x00000001
     1437357000	     71766	800089ce	00d994b3	sll	x9,x19,x13	 x19:0x00000000 x13:0x80025ce4  x9=0x00000000
     1437377000	     71767	800089d2	4a2d	c.li	x20,11	 x20=0x0000000b
     1437517000	     71774	800089d4	0000100f	fence.i	
     1437697000	     71783	800089d8	961a	c.add	x12,x6	 x12:0x000003f6  x6:0x00000004 x12=0x000003fa
     1437717000	     71784	800089da	6c69	c.lui	x24,0x1a	 x24=0x0001a000
     1437797000	     71788	800089dc	060e	c.slli	x12,0x3	 x12:0x000003fa x12=0x00001fd0
     1437817000	     71789	800089de	4835	c.li	x16,13	 x16=0x0000000d
     1437837000	     71790	800089e0	419d5633	sra	x12,x26,x25	 x26:0x00000000 x25:0x00000001 x12=0x00000000
     1437877000	     71792	800089e4	03eb9ab3	mulh	x21,x23,x30	 x23:0x00000000 x30:0x00000001 x21=0x00000000
     1438197000	     71808	800089e8	88c0cf13	xori	x30,x1,-1908	  x1:0x00000008 x30=0xfffff884
     1438217000	     71809	800089ec	0001	c.addi	x0,0	  x0:0x00000000  x0=0x00000000
     1438237000	     71810	800089ee	9956	c.add	x18,x21	 x18:0x00000000 x21:0x00000000 x18=0x00000000
     1438257000	     71811	800089f0	017d6e33	or	x28,x26,x23	 x26:0x00000000 x23:0x00000000 x28=0x00000000
     1438417000	     71819	800089f4	01918463	beq	x3,x25,800089fc	  x3:0x00000040 x25:0x00000001
     1439157000	     71856	800089f8	02dcc233	div	x4,x25,x13	 x25:0x00000001 x13:0x80025ce4  x4=0x00000000
     1439197000	     71858	800089fc	03a422b3	mulhsu	x5,x8,x26	  x8:0x80025cf4 x26:0x00000000  x5=0x00000000
     1439217000	     71859	80008a00	868d7f93	andi	x31,x26,-1944	 x26:0x00000000 x31=0x00000000
     1439237000	     71860	80008a04	0001	c.addi	x0,0	  x0:0x00000000  x0=0x00000000
     1439257000	     71861	80008a06	01fe1933	sll	x18,x28,x31	 x28:0x00000000 x31:0x00000000 x18=0x00000000
     1439277000	     71862	80008a0a	0c8a	c.slli	x25,0x2	 x25:0x00000001 x25=0x00000004
     1439297000	     71863	80008a0c	04b9	c.addi	x9,14	  x9:0x00000000  x9=0x0000000e
     1439317000	     71864	80008a0e	9bd6	c.add	x23,x21	 x23:0x00000000 x21:0x00000000 x23=0x00000000
     1439337000	     71865	80008a10	2951f8b7	lui	x17,0x2951f	 x17=0x2951f000
     1439357000	     71866	80008a14	0059eab3	or	x21,x19,x5	 x19:0x00000000  x5:0x00000000 x21=0x00000000
     1440097000	     71903	80008a18	038e7eb3	remu	x29,x28,x24	 x28:0x00000000 x24:0x0001a000 x29=0x00000000
     1440117000	     71904	80008a1c	0000100f	fence.i	
     1440677000	     71932	80008a20	02b92333	mulhsu	x6,x18,x11	 x18:0x00000000 x11:0x80021e64  x6=0x00000000
     1440757000	     71936	80008a24	035107b3	mul	x15,x2,x21	  x2:0x00000601 x21:0x00000000 x15=0x00000000
     1440777000	     71937	80008a28	e8154a37	lui	x20,0xe8154	 x20=0xe8154000
     1440797000	     71938	80008a2c	8c9d	c.sub	x9,x15	  x9:0x0000000e x15:0x00000000  x9=0x0000000e
     1440877000	     71942	80008a2e	37345537	lui	x10,0x37345	 x10=0x37345000
     1440897000	     71943	80008a32	7b307973	csrrci	x0,0x7b3,0	  x0=0x00000000
     1441297000	     71963	80002500	0800006f	jal	x0,80002580	  x0=0x00000000
     1441617000	     71979	80002580	16f1	c.addi	x13,-4	 x13:0x80025ce4 x13=0x80025ce0
     1441677000	     71982	80002582	c28c	c.sw	x11,0(x13)	 x13:0x80025ce0 x11:0x80021e64 PA:0x80025ce0 store:0x80021e64 load:0xffffffff
     1441697000	     71983	80002584	000685b3	add	x11,x13,x0	 x13:0x80025ce0  x0:0x00000000 x11=0x80025ce0
     1441717000	     71984	80002588	f8058593	addi	x11,x11,-128	 x11:0x80025ce0 x11=0x80025c60
     1441917000	     71994	8000258c	0015a223	sw	x1,4(x11)	 x11:0x80025c60  x1:0x00000008 PA:0x80025c64 store:0x00000008 load:0xffffffff
     1442097000	     72003	80002590	0025a423	sw	x2,8(x11)	 x11:0x80025c60  x2:0x00000601 PA:0x80025c68 store:0x00000601 load:0xffffffff
     1442337000	     72015	80002594	0035a623	sw	x3,12(x11)	 x11:0x80025c60  x3:0x00000040 PA:0x80025c6c store:0x00000040 load:0xffffffff
     1442357000	     72016	80002598	0045a823	sw	x4,16(x11)	 x11:0x80025c60  x4:0x00000000 PA:0x80025c70 store:0x00000000 load:0xffffffff
     1442957000	     72046	8000259c	0055aa23	sw	x5,20(x11)	 x11:0x80025c60  x5:0x00000000 PA:0x80025c74 store:0x00000000 load:0xffffffff
     1443617000	     72079	800025a0	0065ac23	sw	x6,24(x11)	 x11:0x80025c60  x6:0x00000000 PA:0x80025c78 store:0x00000000 load:0xffffffff
     1443857000	     72091	800025a4	0075ae23	sw	x7,28(x11)	 x11:0x80025c60  x7:0x00000000 PA:0x80025c7c store:0x00000000 load:0xffffffff
     1443937000	     72095	800025a8	d180	c.sw	x8,32(x11)	 x11:0x80025c60  x8:0x80025cf4 PA:0x80025c80 store:0x80025cf4 load:0xffffffff
     1443957000	     72096	800025aa	d1c4	c.sw	x9,36(x11)	 x11:0x80025c60  x9:0x0000000e PA:0x80025c84 store:0x0000000e load:0xffffffff
     1444377000	     72117	800025ac	d588	c.sw	x10,40(x11)	 x11:0x80025c60 x10:0x37345000 PA:0x80025c88 store:0x37345000 load:0xffffffff
     1444437000	     72120	800025ae	d5cc	c.sw	x11,44(x11)	 x11:0x80025c60 x11:0x80025c60 PA:0x80025c8c store:0x80025c60 load:0xffffffff
     1444457000	     72121	800025b0	d990	c.sw	x12,48(x11)	 x11:0x80025c60 x12:0x00000000 PA:0x80025c90 store:0x00000000 load:0xffffffff
     1444837000	     72140	800025b2	d9d4	c.sw	x13,52(x11)	 x11:0x80025c60 x13:0x80025ce0 PA:0x80025c94 store:0x80025ce0 load:0xffffffff
     1444897000	     72143	800025b4	dd98	c.sw	x14,56(x11)	 x11:0x80025c60 x14:0x000004f8 PA:0x80025c98 store:0x000004f8 load:0xffffffff
     1445317000	     72164	800025b6	dddc	c.sw	x15,60(x11)	 x11:0x80025c60 x15:0x00000000 PA:0x80025c9c store:0x00000000 load:0xffffffff
     1445697000	     72183	800025b8	0505a023	sw	x16,64(x11)	 x11:0x80025c60 x16:0x0000000d PA:0x80025ca0 store:0x0000000d load:0xffffffff
     1446337000	     72215	800025bc	0515a223	sw	x17,68(x11)	 x11:0x80025c60 x17:0x2951f000 PA:0x80025ca4 store:0x2951f000 load:0xffffffff
     1446497000	     72223	800025c0	0525a423	sw	x18,72(x11)	 x11:0x80025c60 x18:0x00000000 PA:0x80025ca8 store:0x00000000 load:0xffffffff
     1446637000	     72230	800025c4	0535a623	sw	x19,76(x11)	 x11:0x80025c60 x19:0x00000000 PA:0x80025cac store:0x00000000 load:0xffffffff
     1446677000	     72232	800025c8	0545a823	sw	x20,80(x11)	 x11:0x80025c60 x20:0xe8154000 PA:0x80025cb0 store:0xe8154000 load:0xffffffff
     1446697000	     72233	800025cc	0555aa23	sw	x21,84(x11)	 x11:0x80025c60 x21:0x00000000 PA:0x80025cb4 store:0x00000000 load:0xffffffff
     1447277000	     72262	800025d0	0565ac23	sw	x22,88(x11)	 x11:0x80025c60 x22:0x00000000 PA:0x80025cb8 store:0x00000000 load:0xffffffff
     1447477000	     72272	800025d4	0575ae23	sw	x23,92(x11)	 x11:0x80025c60 x23:0x00000000 PA:0x80025cbc store:0x00000000 load:0xffffffff
     1447817000	     72289	800025d8	0785a023	sw	x24,96(x11)	 x11:0x80025c60 x24:0x0001a000 PA:0x80025cc0 store:0x0001a000 load:0xffffffff
     1447877000	     72292	800025dc	0795a223	sw	x25,100(x11)	 x11:0x80025c60 x25:0x00000004 PA:0x80025cc4 store:0x00000004 load:0xffffffff
     1447897000	     72293	800025e0	07a5a423	sw	x26,104(x11)	 x11:0x80025c60 x26:0x00000000 PA:0x80025cc8 store:0x00000000 load:0xffffffff
     1447917000	     72294	800025e4	07b5a623	sw	x27,108(x11)	 x11:0x80025c60 x27:0x00000000 PA:0x80025ccc store:0x00000000 load:0xffffffff
     1448137000	     72305	800025e8	07c5a823	sw	x28,112(x11)	 x11:0x80025c60 x28:0x00000000 PA:0x80025cd0 store:0x00000000 load:0xffffffff
     1448157000	     72306	800025ec	07d5aa23	sw	x29,116(x11)	 x11:0x80025c60 x29:0x00000000 PA:0x80025cd4 store:0x00000000 load:0xffffffff
     1448317000	     72314	800025f0	07e5ac23	sw	x30,120(x11)	 x11:0x80025c60 x30:0xfffff884 PA:0x80025cd8 store:0xfffff884 load:0xffffffff
     1448517000	     72324	800025f4	07f5ae23	sw	x31,124(x11)	 x11:0x80025c60 x31:0x00000000 PA:0x80025cdc store:0x00000000 load:0xffffffff
     1448537000	     72325	800025f8	000586b3	add	x13,x11,x0	 x11:0x80025c60  x0:0x00000000 x13=0x80025c60
     1448557000	     72326	800025fc	90000db7	lui	x27,0x90000	 x27=0x90000000
     1448577000	     72327	80002600	1df1	c.addi	x27,-4	 x27:0x90000000 x27=0x8ffffffc
     1448597000	     72328	80002602	4921	c.li	x18,8	 x18=0x00000008
     1448617000	     72329	80002604	0922	c.slli	x18,0x8	 x18:0x00000008 x18=0x00000800
     1448637000	     72330	80002606	00090913	addi	x18,x18,0	 x18:0x00000800 x18=0x00000800
     1448837000	     72340	8000260a	012da023	sw	x18,0(x27)	 x27:0x8ffffffc x18:0x00000800 PA:0x8ffffffc store:0x00000800 load:0xffffffff
     1448857000	     72341	8000260e	34102973	csrrs	x18,mepc,x0	  x0:0x00000000 x18=0x80008a32
     1448877000	     72342	80002612	34202973	csrrs	x18,mcause,x0	  x0:0x00000000 x18=0x00000002
     1448897000	     72343	80002616	4d8d	c.li	x27,3	 x27=0x00000003
     1448917000	     72344	80002618	01b91463	bne	x18,x27,80002620	 x18:0x00000002 x27:0x00000003
     1449477000	     72372	80002620	4da1	c.li	x27,8	 x27=0x00000008
     1449877000	     72392	80002622	05b90d63	beq	x18,x27,8000267c	 x18:0x00000002 x27:0x00000008
     1449897000	     72393	80002626	4da5	c.li	x27,9	 x27=0x00000009
     1449917000	     72394	80002628	05b90a63	beq	x18,x27,8000267c	 x18:0x00000002 x27:0x00000009
     1449937000	     72395	8000262c	4dad	c.li	x27,11	 x27=0x0000000b
     1449957000	     72396	8000262e	05b90763	beq	x18,x27,8000267c	 x18:0x00000002 x27:0x0000000b
     1449977000	     72397	80002632	4d85	c.li	x27,1	 x27=0x00000001
     1450357000	     72416	80002634	35b90363	beq	x18,x27,8000297a	 x18:0x00000002 x27:0x00000001
     1450517000	     72424	80002638	4d95	c.li	x27,5	 x27=0x00000005
     1450537000	     72425	8000263a	63b90963	beq	x18,x27,80002c6c	 x18:0x00000002 x27:0x00000005
     1450557000	     72426	8000263e	4d9d	c.li	x27,7	 x27=0x00000007
     1450577000	     72427	80002640	15b90ae3	beq	x18,x27,80002f94	 x18:0x00000002 x27:0x00000007
     1450597000	     72428	80002644	4db1	c.li	x27,12	 x27=0x0000000c
     1450617000	     72429	80002646	01b91463	bne	x18,x27,8000264e	 x18:0x00000002 x27:0x0000000c
     1450897000	     72443	8000264e	4db5	c.li	x27,13	 x27=0x0000000d
     1451137000	     72455	80002650	01b91463	bne	x18,x27,80002658	 x18:0x00000002 x27:0x0000000d
     1452377000	     72517	80002658	4dbd	c.li	x27,15	 x27=0x0000000f
     1452397000	     72518	8000265a	01b91463	bne	x18,x27,80002662	 x18:0x00000002 x27:0x0000000f
     1452437000	     72520	80002662	4d89	c.li	x27,2	 x27=0x00000002
     1452457000	     72521	80002664	01b91463	bne	x18,x27,8000266c	 x18:0x00000002 x27:0x00000002
     1453697000	     72583	80002668	45c0906f	jal	x0,8000bac4	  x0=0x00000000
     1454557000	     72626	8000bac4	90000db7	lui	x27,0x90000	 x27=0x90000000
     1454917000	     72644	8000bac8	1df1	c.addi	x27,-4	 x27:0x90000000 x27=0x8ffffffc
     1454937000	     72645	8000baca	4929	c.li	x18,10	 x18=0x0000000a
     1455237000	     72660	8000bacc	0922	c.slli	x18,0x8	 x18:0x0000000a x18=0x00000a00
     1455437000	     72670	8000bace	00090913	addi	x18,x18,0	 x18:0x00000a00 x18=0x00000a00
     1455497000	     72673	8000bad2	012da023	sw	x18,0(x27)	 x27:0x8ffffffc x18:0x00000a00 PA:0x8ffffffc store:0x00000a00 load:0xffffffff
     1455557000	     72676	8000bad6	90000db7	lui	x27,0x90000	 x27=0x90000000
     1455577000	     72677	8000bada	1df1	c.addi	x27,-4	 x27:0x90000000 x27=0x8ffffffc
     1455797000	     72688	8000badc	34200913	addi	x18,x0,834	  x0:0x00000000 x18=0x00000342
     1455917000	     72694	8000bae0	0922	c.slli	x18,0x8	 x18:0x00000342 x18=0x00034200
     1455937000	     72695	8000bae2	090d	c.addi	x18,3	 x18:0x00034200 x18=0x00034203
     1455997000	     72698	8000bae4	012da023	sw	x18,0(x27)	 x27:0x8ffffffc x18:0x00034203 PA:0x8ffffffc store:0x00034203 load:0xffffffff
     1456177000	     72707	8000bae8	34202973	csrrs	x18,mcause,x0	  x0:0x00000000 x18=0x00000002
     1456457000	     72721	8000baec	012da023	sw	x18,0(x27)	 x27:0x8ffffffc x18:0x00000002 PA:0x8ffffffc store:0x00000002 load:0xffffffff
     1456477000	     72722	8000baf0	34102973	csrrs	x18,mepc,x0	  x0:0x00000000 x18=0x80008a32
     1456617000	     72729	8000baf4	0911	c.addi	x18,4	 x18:0x80008a32 x18=0x80008a36
     1457017000	     72749	8000baf6	34191073	csrrw	x0,mepc,x18	 x18:0x80008a36  x0=0x00000000
     1457177000	     72757	8000bafa	000685b3	add	x11,x13,x0	 x13:0x80025c60  x0:0x00000000 x11=0x80025c60
     1457597000	     72778	8000bafe	0045a083	lw	x1,4(x11)	 x11:0x80025c60  x1=0x00000008 PA:0x80025c64 load:0x00000008
     1457777000	     72787	8000bb02	0085a103	lw	x2,8(x11)	 x11:0x80025c60  x2=0x00000601 PA:0x80025c68 load:0x00000601
     1457857000	     72791	8000bb06	00c5a183	lw	x3,12(x11)	 x11:0x80025c60  x3=0x00000040 PA:0x80025c6c load:0x00000040
     1458257000	     72811	8000bb0a	0105a203	lw	x4,16(x11)	 x11:0x80025c60  x4=0x00000000 PA:0x80025c70 load:0x00000000
     1458337000	     72815	8000bb0e	0145a283	lw	x5,20(x11)	 x11:0x80025c60  x5=0x00000000 PA:0x80025c74 load:0x00000000
     1458357000	     72816	8000bb12	0185a303	lw	x6,24(x11)	 x11:0x80025c60  x6=0x00000000 PA:0x80025c78 load:0x00000000
     1458777000	     72837	8000bb16	01c5a383	lw	x7,28(x11)	 x11:0x80025c60  x7=0x00000000 PA:0x80025c7c load:0x00000000
     1458837000	     72840	8000bb1a	5180	c.lw	x8,32(x11)	 x11:0x80025c60  x8=0x80025cf4 PA:0x80025c80 load:0x80025cf4
     1459177000	     72857	8000bb1c	51c4	c.lw	x9,36(x11)	 x11:0x80025c60  x9=0x0000000e PA:0x80025c84 load:0x0000000e
     1459237000	     72860	8000bb1e	5588	c.lw	x10,40(x11)	 x11:0x80025c60 x10=0x37345000 PA:0x80025c88 load:0x37345000
     1459577000	     72877	8000bb20	55cc	c.lw	x11,44(x11)	 x11:0x80025c60 x11=0x80025c60 PA:0x80025c8c load:0x80025c60
     1459677000	     72882	8000bb22	5990	c.lw	x12,48(x11)	 x11:0x80025c60 x12=0x00000000 PA:0x80025c90 load:0x00000000
     1460037000	     72900	8000bb24	59d4	c.lw	x13,52(x11)	 x11:0x80025c60 x13=0x80025ce0 PA:0x80025c94 load:0x80025ce0
     1460097000	     72903	8000bb26	5d98	c.lw	x14,56(x11)	 x11:0x80025c60 x14=0x000004f8 PA:0x80025c98 load:0x000004f8
     1460517000	     72924	8000bb28	5ddc	c.lw	x15,60(x11)	 x11:0x80025c60 x15=0x00000000 PA:0x80025c9c load:0x00000000
     1460577000	     72927	8000bb2a	0405a803	lw	x16,64(x11)	 x11:0x80025c60 x16=0x0000000d PA:0x80025ca0 load:0x0000000d
     1460697000	     72933	8000bb2e	0445a883	lw	x17,68(x11)	 x11:0x80025c60 x17=0x2951f000 PA:0x80025ca4 load:0x2951f000
     1460757000	     72936	8000bb32	0485a903	lw	x18,72(x11)	 x11:0x80025c60 x18=0x00000000 PA:0x80025ca8 load:0x00000000
     1460777000	     72937	8000bb36	04c5a983	lw	x19,76(x11)	 x11:0x80025c60 x19=0x00000000 PA:0x80025cac load:0x00000000
     1460937000	     72945	8000bb3a	0505aa03	lw	x20,80(x11)	 x11:0x80025c60 x20=0xe8154000 PA:0x80025cb0 load:0xe8154000
     1460957000	     72946	8000bb3e	0545aa83	lw	x21,84(x11)	 x11:0x80025c60 x21=0x00000000 PA:0x80025cb4 load:0x00000000
     1461297000	     72963	8000bb42	0585ab03	lw	x22,88(x11)	 x11:0x80025c60 x22=0x00000000 PA:0x80025cb8 load:0x00000000
     1461757000	     72986	8000bb46	05c5ab83	lw	x23,92(x11)	 x11:0x80025c60 x23=0x00000000 PA:0x80025cbc load:0x00000000
     1462217000	     73009	8000bb4a	0605ac03	lw	x24,96(x11)	 x11:0x80025c60 x24=0x0001a000 PA:0x80025cc0 load:0x0001a000
     1462277000	     73012	8000bb4e	0645ac83	lw	x25,100(x11)	 x11:0x80025c60 x25=0x00000004 PA:0x80025cc4 load:0x00000004
     1462357000	     73016	8000bb52	0685ad03	lw	x26,104(x11)	 x11:0x80025c60 x26=0x00000000 PA:0x80025cc8 load:0x00000000
     1462837000	     73040	8000bb56	06c5ad83	lw	x27,108(x11)	 x11:0x80025c60 x27=0x00000000 PA:0x80025ccc load:0x00000000
     1462897000	     73043	8000bb5a	0705ae03	lw	x28,112(x11)	 x11:0x80025c60 x28=0x00000000 PA:0x80025cd0 load:0x00000000
     1462917000	     73044	8000bb5e	0745ae83	lw	x29,116(x11)	 x11:0x80025c60 x29=0x00000000 PA:0x80025cd4 load:0x00000000
     1463157000	     73056	8000bb62	0785af03	lw	x30,120(x11)	 x11:0x80025c60 x30=0xfffff884 PA:0x80025cd8 load:0xfffff884
     1463217000	     73059	8000bb66	07c5af83	lw	x31,124(x11)	 x11:0x80025c60 x31=0x00000000 PA:0x80025cdc load:0x00000000
     1463237000	     73060	8000bb6a	08058593	addi	x11,x11,128	 x11:0x80025c60 x11=0x80025ce0
     1463257000	     73061	8000bb6e	000586b3	add	x13,x11,x0	 x11:0x80025ce0  x0:0x00000000 x13=0x80025ce0
     1463497000	     73073	8000bb72	428c	c.lw	x11,0(x13)	 x13:0x80025ce0 x11=0x80021e64 PA:0x80025ce0 load:0x80021e64
     1463517000	     73074	8000bb74	0691	c.addi	x13,4	 x13:0x80025ce0 x13=0x80025ce4
     1463537000	     73075	8000bb76	30200073	mret	
     1464357000	     73116	80008a36	cd6b6993	ori	x19,x22,-810	 x22:0x00000000 x19=0xfffffcd6
     1464377000	     73117	80008a3a	011d2bb3	slt	x23,x26,x17	 x26:0x00000000 x17:0x2951f000 x23=0x00000001
     1464537000	     73125	80008a3e	059ce063	bltu	x25,x25,80008a7e	 x25:0x00000004 x25:0x00000004
     1464557000	     73126	80008a42	016e0433	add	x8,x28,x22	 x28:0x00000000 x22:0x00000000  x8=0x00000000
     1464837000	     73140	80008a46	05d36063	bltu	x6,x29,80008a86	  x6:0x00000000 x29:0x00000000
     1464977000	     73147	80008a4a	411402b3	sub	x5,x8,x17	  x8:0x00000000 x17:0x2951f000  x5=0xd6ae1000
     1464997000	     73148	80008a4e	817d	c.srli	x10,0x1f	 x10:0x37345000 x10=0x00000000
     1465237000	     73160	80008a50	d56aae93	slti	x29,x21,-682	 x21:0x00000000 x29=0x00000000
     1465257000	     73161	80008a54	0036cc33	xor	x24,x13,x3	 x13:0x80025ce4  x3:0x00000040 x24=0x80025ca4
     1465517000	     73174	80008a58	003b87b3	add	x15,x23,x3	 x23:0x00000001  x3:0x00000040 x15=0x00000041
     1465557000	     73176	80008a5c	7b303e73	csrrc	x0,0x7b3,x0	  x0:0x00000000  x0=0x00000000
     1476417000	     73719	80002500	0800006f	jal	x0,80002580	  x0=0x00000000
     1476677000	     73732	80002580	16f1	c.addi	x13,-4	 x13:0x80025ce4 x13=0x80025ce0
     1477137000	     73755	80002582	c28c	c.sw	x11,0(x13)	 x13:0x80025ce0 x11:0x80021e64 PA:0x80025ce0 store:0x80021e64 load:0xffffffff
     1477157000	     73756	80002584	000685b3	add	x11,x13,x0	 x13:0x80025ce0  x0:0x00000000 x11=0x80025ce0
     1477177000	     73757	80002588	f8058593	addi	x11,x11,-128	 x11:0x80025ce0 x11=0x80025c60
     1477617000	     73779	8000258c	0015a223	sw	x1,4(x11)	 x11:0x80025c60  x1:0x00000008 PA:0x80025c64 store:0x00000008 load:0xffffffff
     1477757000	     73786	80002590	0025a423	sw	x2,8(x11)	 x11:0x80025c60  x2:0x00000601 PA:0x80025c68 store:0x00000601 load:0xffffffff
     1477777000	     73787	80002594	0035a623	sw	x3,12(x11)	 x11:0x80025c60  x3:0x00000040 PA:0x80025c6c store:0x00000040 load:0xffffffff
     1478197000	     73808	80002598	0045a823	sw	x4,16(x11)	 x11:0x80025c60  x4:0x00000000 PA:0x80025c70 store:0x00000000 load:0xffffffff
     1478297000	     73813	8000259c	0055aa23	sw	x5,20(x11)	 x11:0x80025c60  x5:0xd6ae1000 PA:0x80025c74 store:0xd6ae1000 load:0xffffffff
     1478657000	     73831	800025a0	0065ac23	sw	x6,24(x11)	 x11:0x80025c60  x6:0x00000000 PA:0x80025c78 store:0x00000000 load:0xffffffff
     1478717000	     73834	800025a4	0075ae23	sw	x7,28(x11)	 x11:0x80025c60  x7:0x00000000 PA:0x80025c7c store:0x00000000 load:0xffffffff
     1478857000	     73841	800025a8	d180	c.sw	x8,32(x11)	 x11:0x80025c60  x8:0x00000000 PA:0x80025c80 store:0x00000000 load:0xffffffff
     1478917000	     73844	800025aa	d1c4	c.sw	x9,36(x11)	 x11:0x80025c60  x9:0x0000000e PA:0x80025c84 store:0x0000000e load:0xffffffff
     1478997000	     73848	800025ac	d588	c.sw	x10,40(x11)	 x11:0x80025c60 x10:0x00000000 PA:0x80025c88 store:0x00000000 load:0xffffffff
     1479437000	     73870	800025ae	d5cc	c.sw	x11,44(x11)	 x11:0x80025c60 x11:0x80025c60 PA:0x80025c8c store:0x80025c60 load:0xffffffff
     1479837000	     73890	800025b0	d990	c.sw	x12,48(x11)	 x11:0x80025c60 x12:0x00000000 PA:0x80025c90 store:0x00000000 load:0xffffffff
     1479897000	     73893	800025b2	d9d4	c.sw	x13,52(x11)	 x11:0x80025c60 x13:0x80025ce0 PA:0x80025c94 store:0x80025ce0 load:0xffffffff
     1480057000	     73901	800025b4	dd98	c.sw	x14,56(x11)	 x11:0x80025c60 x14:0x000004f8 PA:0x80025c98 store:0x000004f8 load:0xffffffff
     1480317000	     73914	800025b6	dddc	c.sw	x15,60(x11)	 x11:0x80025c60 x15:0x00000041 PA:0x80025c9c store:0x00000041 load:0xffffffff
     1480437000	     73920	800025b8	0505a023	sw	x16,64(x11)	 x11:0x80025c60 x16:0x0000000d PA:0x80025ca0 store:0x0000000d load:0xffffffff
     1480857000	     73941	800025bc	0515a223	sw	x17,68(x11)	 x11:0x80025c60 x17:0x2951f000 PA:0x80025ca4 store:0x2951f000 load:0xffffffff
     1480917000	     73944	800025c0	0525a423	sw	x18,72(x11)	 x11:0x80025c60 x18:0x00000000 PA:0x80025ca8 store:0x00000000 load:0xffffffff
     1480937000	     73945	800025c4	0535a623	sw	x19,76(x11)	 x11:0x80025c60 x19:0xfffffcd6 PA:0x80025cac store:0xfffffcd6 load:0xffffffff
     1481197000	     73958	800025c8	0545a823	sw	x20,80(x11)	 x11:0x80025c60 x20:0xe8154000 PA:0x80025cb0 store:0xe8154000 load:0xffffffff
     1481277000	     73962	800025cc	0555aa23	sw	x21,84(x11)	 x11:0x80025c60 x21:0x00000000 PA:0x80025cb4 store:0x00000000 load:0xffffffff
     1481377000	     73967	800025d0	0565ac23	sw	x22,88(x11)	 x11:0x80025c60 x22:0x00000000 PA:0x80025cb8 store:0x00000000 load:0xffffffff
     1481437000	     73970	800025d4	0575ae23	sw	x23,92(x11)	 x11:0x80025c60 x23:0x00000001 PA:0x80025cbc store:0x00000001 load:0xffffffff
     1481457000	     73971	800025d8	0785a023	sw	x24,96(x11)	 x11:0x80025c60 x24:0x80025ca4 PA:0x80025cc0 store:0x80025ca4 load:0xffffffff
     1481477000	     73972	800025dc	0795a223	sw	x25,100(x11)	 x11:0x80025c60 x25:0x00000004 PA:0x80025cc4 store:0x00000004 load:0xffffffff
     1481497000	     73973	800025e0	07a5a423	sw	x26,104(x11)	 x11:0x80025c60 x26:0x00000000 PA:0x80025cc8 store:0x00000000 load:0xffffffff
     1481517000	     73974	800025e4	07b5a623	sw	x27,108(x11)	 x11:0x80025c60 x27:0x00000000 PA:0x80025ccc store:0x00000000 load:0xffffffff
     1481677000	     73982	800025e8	07c5a823	sw	x28,112(x11)	 x11:0x80025c60 x28:0x00000000 PA:0x80025cd0 store:0x00000000 load:0xffffffff
     1481877000	     73992	800025ec	07d5aa23	sw	x29,116(x11)	 x11:0x80025c60 x29:0x00000000 PA:0x80025cd4 store:0x00000000 load:0xffffffff
     1481937000	     73995	800025f0	07e5ac23	sw	x30,120(x11)	 x11:0x80025c60 x30:0xfffff884 PA:0x80025cd8 store:0xfffff884 load:0xffffffff
     1482157000	     74006	800025f4	07f5ae23	sw	x31,124(x11)	 x11:0x80025c60 x31:0x00000000 PA:0x80025cdc store:0x00000000 load:0xffffffff
     1482177000	     74007	800025f8	000586b3	add	x13,x11,x0	 x11:0x80025c60  x0:0x00000000 x13=0x80025c60
     1482197000	     74008	800025fc	90000db7	lui	x27,0x90000	 x27=0x90000000
     1482217000	     74009	80002600	1df1	c.addi	x27,-4	 x27:0x90000000 x27=0x8ffffffc
     1482237000	     74010	80002602	4921	c.li	x18,8	 x18=0x00000008
     1482257000	     74011	80002604	0922	c.slli	x18,0x8	 x18:0x00000008 x18=0x00000800
     1482277000	     74012	80002606	00090913	addi	x18,x18,0	 x18:0x00000800 x18=0x00000800
     1482377000	     74017	8000260a	012da023	sw	x18,0(x27)	 x27:0x8ffffffc x18:0x00000800 PA:0x8ffffffc store:0x00000800 load:0xffffffff
     1482397000	     74018	8000260e	34102973	csrrs	x18,mepc,x0	  x0:0x00000000 x18=0x80008a5c
     1482417000	     74019	80002612	34202973	csrrs	x18,mcause,x0	  x0:0x00000000 x18=0x00000002
     1482437000	     74020	80002616	4d8d	c.li	x27,3	 x27=0x00000003
     1482457000	     74021	80002618	01b91463	bne	x18,x27,80002620	 x18:0x00000002 x27:0x00000003
     1482497000	     74023	80002620	4da1	c.li	x27,8	 x27=0x00000008
     1482517000	     74024	80002622	05b90d63	beq	x18,x27,8000267c	 x18:0x00000002 x27:0x00000008
     1482537000	     74025	80002626	4da5	c.li	x27,9	 x27=0x00000009
     1482557000	     74026	80002628	05b90a63	beq	x18,x27,8000267c	 x18:0x00000002 x27:0x00000009
     1482577000	     74027	8000262c	4dad	c.li	x27,11	 x27=0x0000000b
     1482597000	     74028	8000262e	05b90763	beq	x18,x27,8000267c	 x18:0x00000002 x27:0x0000000b
     1482617000	     74029	80002632	4d85	c.li	x27,1	 x27=0x00000001
     1482637000	     74030	80002634	35b90363	beq	x18,x27,8000297a	 x18:0x00000002 x27:0x00000001
     1482657000	     74031	80002638	4d95	c.li	x27,5	 x27=0x00000005
     1482677000	     74032	8000263a	63b90963	beq	x18,x27,80002c6c	 x18:0x00000002 x27:0x00000005
     1482697000	     74033	8000263e	4d9d	c.li	x27,7	 x27=0x00000007
     1482717000	     74034	80002640	15b90ae3	beq	x18,x27,80002f94	 x18:0x00000002 x27:0x00000007
     1482737000	     74035	80002644	4db1	c.li	x27,12	 x27=0x0000000c
     1482757000	     74036	80002646	01b91463	bne	x18,x27,8000264e	 x18:0x00000002 x27:0x0000000c
     1482797000	     74038	8000264e	4db5	c.li	x27,13	 x27=0x0000000d
     1482817000	     74039	80002650	01b91463	bne	x18,x27,80002658	 x18:0x00000002 x27:0x0000000d
     1482857000	     74041	80002658	4dbd	c.li	x27,15	 x27=0x0000000f
     1482877000	     74042	8000265a	01b91463	bne	x18,x27,80002662	 x18:0x00000002 x27:0x0000000f
     1482937000	     74045	80002662	4d89	c.li	x27,2	 x27=0x00000002
     1482957000	     74046	80002664	01b91463	bne	x18,x27,8000266c	 x18:0x00000002 x27:0x00000002
     1482977000	     74047	80002668	45c0906f	jal	x0,8000bac4	  x0=0x00000000
     1483017000	     74049	8000bac4	90000db7	lui	x27,0x90000	 x27=0x90000000
     1483037000	     74050	8000bac8	1df1	c.addi	x27,-4	 x27:0x90000000 x27=0x8ffffffc
     1483057000	     74051	8000baca	4929	c.li	x18,10	 x18=0x0000000a
     1483077000	     74052	8000bacc	0922	c.slli	x18,0x8	 x18:0x0000000a x18=0x00000a00
     1483097000	     74053	8000bace	00090913	addi	x18,x18,0	 x18:0x00000a00 x18=0x00000a00
     1483557000	     74076	8000bad2	012da023	sw	x18,0(x27)	 x27:0x8ffffffc x18:0x00000a00 PA:0x8ffffffc store:0x00000a00 load:0xffffffff
     1483577000	     74077	8000bad6	90000db7	lui	x27,0x90000	 x27=0x90000000
     1483597000	     74078	8000bada	1df1	c.addi	x27,-4	 x27:0x90000000 x27=0x8ffffffc
     1483617000	     74079	8000badc	34200913	addi	x18,x0,834	  x0:0x00000000 x18=0x00000342
     1483637000	     74080	8000bae0	0922	c.slli	x18,0x8	 x18:0x00000342 x18=0x00034200
     1483657000	     74081	8000bae2	090d	c.addi	x18,3	 x18:0x00034200 x18=0x00034203
     1483777000	     74087	8000bae4	012da023	sw	x18,0(x27)	 x27:0x8ffffffc x18:0x00034203 PA:0x8ffffffc store:0x00034203 load:0xffffffff
     1483797000	     74088	8000bae8	34202973	csrrs	x18,mcause,x0	  x0:0x00000000 x18=0x00000002
     1483897000	     74093	8000baec	012da023	sw	x18,0(x27)	 x27:0x8ffffffc x18:0x00000002 PA:0x8ffffffc store:0x00000002 load:0xffffffff
     1483917000	     74094	8000baf0	34102973	csrrs	x18,mepc,x0	  x0:0x00000000 x18=0x80008a5c
     1483937000	     74095	8000baf4	0911	c.addi	x18,4	 x18:0x80008a5c x18=0x80008a60
     1483957000	     74096	8000baf6	34191073	csrrw	x0,mepc,x18	 x18:0x80008a60  x0=0x00000000
     1483977000	     74097	8000bafa	000685b3	add	x11,x13,x0	 x13:0x80025c60  x0:0x00000000 x11=0x80025c60
     1484037000	     74100	8000bafe	0045a083	lw	x1,4(x11)	 x11:0x80025c60  x1=0x00000008 PA:0x80025c64 load:0x00000008
     1484097000	     74103	8000bb02	0085a103	lw	x2,8(x11)	 x11:0x80025c60  x2=0x00000601 PA:0x80025c68 load:0x00000601
     1484237000	     74110	8000bb06	00c5a183	lw	x3,12(x11)	 x11:0x80025c60  x3=0x00000040 PA:0x80025c6c load:0x00000040
     1484537000	     74125	8000bb0a	0105a203	lw	x4,16(x11)	 x11:0x80025c60  x4=0x00000000 PA:0x80025c70 load:0x00000000
     1484857000	     74141	8000bb0e	0145a283	lw	x5,20(x11)	 x11:0x80025c60  x5=0xd6ae1000 PA:0x80025c74 load:0xd6ae1000
     1485037000	     74150	8000bb12	0185a303	lw	x6,24(x11)	 x11:0x80025c60  x6=0x00000000 PA:0x80025c78 load:0x00000000
     1485097000	     74153	8000bb16	01c5a383	lw	x7,28(x11)	 x11:0x80025c60  x7=0x00000000 PA:0x80025c7c load:0x00000000
     1485237000	     74160	8000bb1a	5180	c.lw	x8,32(x11)	 x11:0x80025c60  x8=0x00000000 PA:0x80025c80 load:0x00000000
     1485457000	     74171	8000bb1c	51c4	c.lw	x9,36(x11)	 x11:0x80025c60  x9=0x0000000e PA:0x80025c84 load:0x0000000e
     1485557000	     74176	8000bb1e	5588	c.lw	x10,40(x11)	 x11:0x80025c60 x10=0x00000000 PA:0x80025c88 load:0x00000000
     1485577000	     74177	8000bb20	55cc	c.lw	x11,44(x11)	 x11:0x80025c60 x11=0x80025c60 PA:0x80025c8c load:0x80025c60
     1485917000	     74194	8000bb22	5990	c.lw	x12,48(x11)	 x11:0x80025c60 x12=0x00000000 PA:0x80025c90 load:0x00000000
     1485977000	     74197	8000bb24	59d4	c.lw	x13,52(x11)	 x11:0x80025c60 x13=0x80025ce0 PA:0x80025c94 load:0x80025ce0
     1485997000	     74198	8000bb26	5d98	c.lw	x14,56(x11)	 x11:0x80025c60 x14=0x000004f8 PA:0x80025c98 load:0x000004f8
     1486317000	     74214	8000bb28	5ddc	c.lw	x15,60(x11)	 x11:0x80025c60 x15=0x00000041 PA:0x80025c9c load:0x00000041
     1486397000	     74218	8000bb2a	0405a803	lw	x16,64(x11)	 x11:0x80025c60 x16=0x0000000d PA:0x80025ca0 load:0x0000000d
     1486597000	     74228	8000bb2e	0445a883	lw	x17,68(x11)	 x11:0x80025c60 x17=0x2951f000 PA:0x80025ca4 load:0x2951f000
     1486617000	     74229	8000bb32	0485a903	lw	x18,72(x11)	 x11:0x80025c60 x18=0x00000000 PA:0x80025ca8 load:0x00000000
     1486857000	     74241	8000bb36	04c5a983	lw	x19,76(x11)	 x11:0x80025c60 x19=0xfffffcd6 PA:0x80025cac load:0xfffffcd6
     1486957000	     74246	8000bb3a	0505aa03	lw	x20,80(x11)	 x11:0x80025c60 x20=0xe8154000 PA:0x80025cb0 load:0xe8154000
     1487177000	     74257	8000bb3e	0545aa83	lw	x21,84(x11)	 x11:0x80025c60 x21=0x00000000 PA:0x80025cb4 load:0x00000000
     1487357000	     74266	8000bb42	0585ab03	lw	x22,88(x11)	 x11:0x80025c60 x22=0x00000000 PA:0x80025cb8 load:0x00000000
     1487817000	     74289	8000bb46	05c5ab83	lw	x23,92(x11)	 x11:0x80025c60 x23=0x00000001 PA:0x80025cbc load:0x00000001
     1488077000	     74302	8000bb4a	0605ac03	lw	x24,96(x11)	 x11:0x80025c60 x24=0x80025ca4 PA:0x80025cc0 load:0x80025ca4
     1488097000	     74303	8000bb4e	0645ac83	lw	x25,100(x11)	 x11:0x80025c60 x25=0x00000004 PA:0x80025cc4 load:0x00000004
     1488277000	     74312	8000bb52	0685ad03	lw	x26,104(x11)	 x11:0x80025c60 x26=0x00000000 PA:0x80025cc8 load:0x00000000
     1488397000	     74318	8000bb56	06c5ad83	lw	x27,108(x11)	 x11:0x80025c60 x27=0x00000000 PA:0x80025ccc load:0x00000000
     1488637000	     74330	8000bb5a	0705ae03	lw	x28,112(x11)	 x11:0x80025c60 x28=0x00000000 PA:0x80025cd0 load:0x00000000
     1488697000	     74333	8000bb5e	0745ae83	lw	x29,116(x11)	 x11:0x80025c60 x29=0x00000000 PA:0x80025cd4 load:0x00000000
     1488977000	     74347	8000bb62	0785af03	lw	x30,120(x11)	 x11:0x80025c60 x30=0xfffff884 PA:0x80025cd8 load:0xfffff884
     1489157000	     74356	8000bb66	07c5af83	lw	x31,124(x11)	 x11:0x80025c60 x31=0x00000000 PA:0x80025cdc load:0x00000000
     1489177000	     74357	8000bb6a	08058593	addi	x11,x11,128	 x11:0x80025c60 x11=0x80025ce0
     1489197000	     74358	8000bb6e	000586b3	add	x13,x11,x0	 x11:0x80025ce0  x0:0x00000000 x13=0x80025ce0
     1489257000	     74361	8000bb72	428c	c.lw	x11,0(x13)	 x13:0x80025ce0 x11=0x80021e64 PA:0x80025ce0 load:0x80021e64
     1489277000	     74362	8000bb74	0691	c.addi	x13,4	 x13:0x80025ce0 x13=0x80025ce4
     1489297000	     74363	8000bb76	30200073	mret	
     1489357000	     74366	80008a60	6b71	c.lui	x22,0x1c	 x22=0x0001c000
     1489377000	     74367	80008a62	6d097613	andi	x12,x18,1744	 x18:0x00000000 x12=0x00000000
     1489417000	     74369	80008a66	034e2133	mulhsu	x2,x28,x20	 x28:0x00000000 x20:0xe8154000  x2=0x00000000
     1489437000	     74370	80008a6a	eb1d	c.bnez	x14,80008aa0	 x14:0x000004f8
     1489897000	     74393	80008aa0	007fe763	bltu	x31,x7,80008aae	 x31:0x00000000  x7:0x00000000
     1489917000	     74394	80008aa4	1f7d	c.addi	x30,-1	 x30:0xfffff884 x30=0xfffff883
     1490337000	     74415	80008aa6	b05f1df3	csrrw	x27,mhpmcounter5,x30	 x30:0xfffff883 x27=0x80025d64
     1491117000	     74454	80008aaa	02e45c33	divu	x24,x8,x14	  x8:0x00000000 x14:0x000004f8 x24=0x00000000
     1491137000	     74455	80008aae	8d01	c.sub	x10,x8	 x10:0x00000000  x8:0x00000000 x10=0x00000000
     1491157000	     74456	80008ab0	02551e63	bne	x10,x5,80008aec	 x10:0x00000000  x5:0xd6ae1000
     1491377000	     74467	80008aec	01d38633	add	x12,x7,x29	  x7:0x00000000 x29:0x00000000 x12=0x00000000
     1491577000	     74477	80008af0	0154ddb3	srl	x27,x9,x21	  x9:0x0000000e x21:0x00000000 x27=0x0000000e
     1491597000	     74478	80008af4	cb19	c.beqz	x14,80008b0a	 x14:0x000004f8
     1491617000	     74479	80008af6	ef81	c.bnez	x15,80008b0e	 x15:0x00000041
     1492297000	     74513	80008b0e	0ff0000f	fence	iorw,iorw	
     1493437000	     74570	80008b12	037bd8b3	divu	x17,x23,x23	 x23:0x00000001 x23:0x00000001 x17=0x00000001
     1493457000	     74571	80008b16	ed15	c.bnez	x10,80008b52	 x10:0x00000000
     1493477000	     74572	80008b18	1262ee93	ori	x29,x5,294	  x5:0xd6ae1000 x29=0xd6ae1126
     1493497000	     74573	80008b1c	0ff0000f	fence	iorw,iorw	
     1493517000	     74574	80008b20	003d0033	add	x0,x26,x3	 x26:0x00000000  x3:0x00000040  x0=0x00000000
     1493537000	     74575	80008b24	12fd	c.addi	x5,-1	  x5:0xd6ae1000  x5=0xd6ae0fff
     1493557000	     74576	80008b26	99a22993	slti	x19,x4,-1638	  x4:0x00000000 x19=0x00000000
     1493577000	     74577	80008b2a	41fede13	srai	x28,x29,0x1f	 x29:0xd6ae1126 x28=0xffffffff
     1493617000	     74579	80008b2e	02bf4863	blt	x30,x11,80008b5e	 x30:0xfffff883 x11:0x80021e64
     1493917000	     74594	80008b32	01c3ea33	or	x20,x7,x28	  x7:0x00000000 x28:0xffffffff x20=0xffffffff
     1495057000	     74651	80008b36	02fb60b3	rem	x1,x22,x15	 x22:0x0001c000 x15:0x00000041  x1=0x0000001c
     1495077000	     74652	80008b3a	8cfd	c.and	x9,x15	  x9:0x0000000e x15:0x00000041  x9=0x00000000
     1495097000	     74653	80008b3c	294c7913	andi	x18,x24,660	 x24:0x00000000 x18=0x00000000
     1495117000	     74654	80008b40	032e9c63	bne	x29,x18,80008b78	 x29:0xd6ae1126 x18:0x00000000
     1495217000	     74659	80008b78	01ae2fb3	slt	x31,x28,x26	 x28:0xffffffff x26:0x00000000 x31=0x00000001
     1495637000	     74680	80008b7c	e88d	c.bnez	x9,80008bae	  x9:0x00000000
     1495757000	     74686	80008b7e	027a3433	mulhu	x8,x20,x7	 x20:0xffffffff  x7:0x00000000  x8=0x00000000
     1496157000	     74706	80008b82	01dc7633	and	x12,x24,x29	 x24:0x00000000 x29:0xd6ae1126 x12=0x00000000
     1496577000	     74727	80008b86	b0379b73	csrrw	x22,mhpmcounter3,x15	 x15:0x00000041 x22=0x0000059b
     1496637000	     74730	80008b8a	5cfd	c.li	x25,-1	 x25=0xffffffff
     1496997000	     74748	80008b8c	01b77533	and	x10,x14,x27	 x14:0x000004f8 x27:0x0000000e x10=0x00000008
     1497217000	     74759	80008b90	0172d193	srli	x3,x5,0x17	  x5:0xd6ae0fff  x3=0x000001ad
     1497637000	     74780	80008b94	6ab9	c.lui	x21,0xe	 x21=0x0000e000
     1498617000	     74829	80008b96	03e8ddb3	divu	x27,x17,x30	 x17:0x00000001 x30:0xfffff883 x27=0x00000000
     1499357000	     74866	80008b9a	02eb64b3	rem	x9,x22,x14	 x22:0x0000059b x14:0x000004f8  x9=0x000000a3
     1499377000	     74867	80008b9e	cf9d	c.beqz	x15,80008bdc	 x15:0x00000041
     1499397000	     74868	80008ba0	8f7d	c.and	x14,x15	 x14:0x000004f8 x15:0x00000041 x14=0x00000040
     1499417000	     74869	80008ba2	fd130e93	addi	x29,x6,-47	  x6:0x00000000 x29=0xffffffd1
     1499437000	     74870	80008ba6	df052f13	slti	x30,x10,-528	 x10:0x00000008 x30=0x00000000
     1499457000	     74871	80008baa	03b94463	blt	x18,x27,80008bd2	 x18:0x00000000 x27:0x00000000
     1499477000	     74872	80008bae	001ff1b3	and	x3,x31,x1	 x31:0x00000001  x1:0x0000001c  x3=0x00000000
     1499497000	     74873	80008bb2	341e98f3	csrrw	x17,mepc,x29	 x29:0xffffffd1 x17=0x80008a60
     1499537000	     74875	80008bb6	3b6079f3	csrrci	x19,pmpaddr6,0	 x19=0x3999a642
     1499597000	     74878	80008bba	a1eee893	ori	x17,x29,-1506	 x29:0xffffffd1 x17=0xffffffdf
     1499817000	     74889	80008bbe	030a29b3	mulhsu	x19,x20,x16	 x20:0xffffffff x16:0x0000000d x19=0xffffffff
     1499937000	     74895	80008bc2	0233df63	bge	x7,x3,80008c00	  x7:0x00000000  x3:0x00000000
     1500457000	     74921	80008c00	006cb533	sltu	x10,x25,x6	 x25:0xffffffff  x6:0x00000000 x10=0x00000000
     1500477000	     74922	80008c04	811d	c.srli	x10,0x7	 x10:0x00000000 x10=0x00000000
     1500517000	     74924	80008c06	043bc063	blt	x23,x3,80008c46	 x23:0x00000001  x3:0x00000000
     1500537000	     74925	80008c0a	0001	c.addi	x0,0	  x0:0x00000000  x0=0x00000000
     1500557000	     74926	80008c0c	034e0233	mul	x4,x28,x20	 x28:0xffffffff x20:0xffffffff  x4=0x00000001
     1500637000	     74930	80008c10	046de263	bltu	x27,x6,80008c54	 x27:0x00000000  x6:0x00000000
     1500677000	     74932	80008c14	026b5ab3	divu	x21,x22,x6	 x22:0x0000059b  x6:0x00000000 x21=0xffffffff
     1500737000	     74935	80008c18	60cbd937	lui	x18,0x60cbd	 x18=0x60cbd000
     1500797000	     74938	80008c1c	0245b833	mulhu	x16,x11,x4	 x11:0x80021e64  x4:0x00000001 x16=0x00000000
     1500837000	     74940	80008c20	84dd	c.srai	x9,0x17	  x9:0x000000a3  x9=0x00000000
     1501037000	     74950	80008c22	40b98db3	sub	x27,x19,x11	 x19:0xffffffff x11:0x80021e64 x27=0x7ffde19b
     1501057000	     74951	80008c26	cbe2a813	slti	x16,x5,-834	  x5:0xd6ae0fff x16=0x00000001
     1501117000	     74954	80008c2a	b890d4f3	csrrwi	x9,mhpmcounter9h,1	  x9=0x00000000
     1501317000	     74964	80008c2e	407a0ab3	sub	x21,x20,x7	 x20:0xffffffff  x7:0x00000000 x21=0xffffffff
     1501737000	     74985	80008c32	0140d113	srli	x2,x1,0x14	  x1:0x0000001c  x2=0x00000000
     1501757000	     74986	80008c36	34299473	csrrw	x8,mcause,x19	 x19:0xffffffff  x8=0x00000002
     1501817000	     74989	80008c3a	8ee74093	xori	x1,x14,-1810	 x14:0x00000040  x1=0xfffff8ae
     1501837000	     74990	80008c3e	c41d	c.beqz	x8,80008c6c	  x8:0x00000002
     1501857000	     74991	80008c40	61ed	c.lui	x3,0x1b	  x3=0x0001b000
     1501877000	     74992	80008c42	31006173	csrrsi	x2,0x310,0	  x2=0x00000000
     1501897000	     74993	80008c46	00aef2b3	and	x5,x29,x10	 x29:0xffffffd1 x10:0x00000000  x5=0x00000000
     1501977000	     74997	80008c4a	02833533	mulhu	x10,x6,x8	  x6:0x00000000  x8:0x00000002 x10=0x00000000
     1501997000	     74998	80008c4e	8d21	c.xor	x10,x8	 x10:0x00000000  x8:0x00000002 x10=0x00000002
     1502017000	     74999	80008c50	f1407073	csrrci	x0,mhartid,0	  x0=0x00000000
     1502137000	     75005	80008c54	03beafb3	mulhsu	x31,x29,x27	 x29:0xffffffd1 x27:0x7ffde19b x31=0xffffffe8
     1502597000	     75028	80008c58	02bc0533	mul	x10,x24,x11	 x24:0x00000000 x11:0x80021e64 x10=0x00000000
     1502637000	     75030	80008c5c	03264763	blt	x12,x18,80008c8a	 x12:0x00000000 x18:0x60cbd000
     1503177000	     75057	80008c8a	026a	c.slli	x4,0x1a	  x4:0x00000001  x4=0x04000000
     1503377000	     75067	80008c8c	b8805ff3	csrrwi	x31,mhpmcounter8h,0	 x31=0x00000000
     1503457000	     75071	80008c90	3be07873	csrrci	x16,pmpaddr14,0	 x16=0x1bbbc864
     1503637000	     75080	80008c94	b8134b13	xori	x22,x6,-1151	  x6:0x00000000 x22=0xfffffb81
     1503657000	     75081	80008c98	f5cfc193	xori	x3,x31,-164	 x31:0x00000000  x3=0xffffff5c
     1503677000	     75082	80008c9c	0be2	c.slli	x23,0x18	 x23:0x00000001 x23=0x01000000
     1503697000	     75083	80008c9e	0d4a	c.slli	x26,0x12	 x26:0x00000000 x26=0x00000000
     1504097000	     75103	80008ca0	b84692f3	csrrw	x5,mhpmcounter4h,x13	 x13:0x80025ce4  x5=0x00000000
     1504197000	     75108	80008ca4	02a54d63	blt	x10,x10,80008cde	 x10:0x00000000 x10:0x00000000
     1504237000	     75110	80008ca8	db72bb93	sltiu	x23,x5,-585	  x5:0x00000000 x23=0x00000001
     1504257000	     75111	80008cac	00c65f93	srli	x31,x12,0xc	 x12:0x00000000 x31=0x00000000
     1504277000	     75112	80008cb0	b0321573	csrrw	x10,mhpmcounter3,x4	  x4:0x04000000 x10=0x00000041
     1504337000	     75115	80008cb4	997d	c.andi	x10,-1	 x10:0x00000041 x10=0x00000041
     1504357000	     75116	80008cb6	0ff0000f	fence	iorw,iorw	
     1504377000	     75117	80008cba	8c75	c.and	x8,x13	  x8:0x00000002 x13:0x80025ce4  x8=0x00000000
     1504557000	     75126	80008cbc	5ffd	c.li	x31,-1	 x31=0xffffffff
     1504577000	     75127	80008cbe	007cd213	srli	x4,x25,0x7	 x25:0xffffffff  x4=0x01ffffff
     1504597000	     75128	80008cc2	80c9	c.srli	x9,0x12	  x9:0x00000000  x9=0x00000000
     1504617000	     75129	80008cc4	0cc5	c.addi	x25,17	 x25:0xffffffff x25=0x00000010
     1505017000	     75149	80008cc6	01ae90b3	sll	x1,x29,x26	 x29:0xffffffd1 x26:0x00000000  x1=0xffffffd1
     1505037000	     75150	80008cca	1d896713	ori	x14,x18,472	 x18:0x60cbd000 x14=0x60cbd1d8
     1505057000	     75151	80008cce	00ab5313	srli	x6,x22,0xa	 x22:0xfffffb81  x6=0x003ffffe
     1505337000	     75165	80008cd2	402c5893	srai	x17,x24,0x2	 x24:0x00000000 x17=0x00000000
     1505357000	     75166	80008cd6	ec1d	c.bnez	x8,80008d14	  x8:0x00000000
     1505597000	     75178	80008cd8	8435	c.srai	x8,0xd	  x8:0x00000000  x8=0x00000000
     1506017000	     75199	80008cda	0ff0000f	fence	iorw,iorw	
     1506037000	     75200	80008cde	01f89093	slli	x1,x17,0x1f	 x17:0x00000000  x1=0x00000000
     1506837000	     75240	80008ce2	02de47b3	div	x15,x28,x13	 x28:0xffffffff x13:0x80025ce4 x15=0x00000000
     1506857000	     75241	80008ce6	cb81	c.beqz	x15,80008cf6	 x15:0x00000000
     1506917000	     75244	80008cf6	0155a1b3	slt	x3,x11,x21	 x11:0x80021e64 x21:0xffffffff  x3=0x00000001
     1506937000	     75245	80008cfa	8c4d	c.or	x8,x11	  x8:0x00000000 x11:0x80021e64  x8=0x80021e64
     1506957000	     75246	80008cfc	00250463	beq	x10,x2,80008d04	 x10:0x00000041  x2:0x00000000
     1506977000	     75247	80008d00	013e0933	add	x18,x28,x19	 x28:0xffffffff x19:0xffffffff x18=0xfffffffe
     1507137000	     75255	80008d04	32a65173	csrrwi	x2,mhpmevent10,12	  x2=0x00000080
     1507197000	     75258	80008d08	00ec8c63	beq	x25,x14,80008d20	 x25:0x00000010 x14:0x60cbd1d8
     1507217000	     75259	80008d0c	323290f3	csrrw	x1,mhpmevent3,x5	  x5:0x00000000  x1=0x00000001
     1507277000	     75262	80008d10	b00ade73	csrrwi	x28,mcycle,21	 x28=0x8002849a
     1507637000	     75280	80008d14	84b5	c.srai	x9,0xd	  x9:0x00000000  x9=0x00000000
     1507657000	     75281	80008d16	029f4a63	blt	x30,x9,80008d4a	 x30:0x00000000  x9:0x00000000
     1507677000	     75282	80008d1a	063e	c.slli	x12,0xf	 x12:0x00000000 x12=0x00000000
     1507697000	     75283	80008d1c	3bd07a73	csrrci	x20,pmpaddr13,0	 x20=0x17778420
     1507977000	     75297	80008d20	3405d2f3	csrrwi	x5,mscratch,11	  x5=0x00000009
     1508057000	     75301	80008d24	00544b63	blt	x8,x5,80008d3a	  x8:0x80021e64  x5:0x00000009
     1509057000	     75351	80008d3a	02e5c0b3	div	x1,x11,x14	 x11:0x80021e64 x14:0x60cbd1d8  x1=0xffffffff
     1509797000	     75388	80008d3e	0367d0b3	divu	x1,x15,x22	 x15:0x00000000 x22:0xfffffb81  x1=0x00000000
     1509817000	     75389	80008d42	0ff0000f	fence	iorw,iorw	
     1509837000	     75390	80008d46	b8507c73	csrrci	x24,mhpmcounter5h,0	 x24=0x00000000
     1509857000	     75391	80008d4a	51fd	c.li	x3,-1	  x3=0xffffffff
     1509877000	     75392	80008d4c	01548533	add	x10,x9,x21	  x9:0x00000000 x21:0xffffffff x10=0xffffffff
     1509897000	     75393	80008d50	6105	c.addi16sp	x2,32	  x2:0x00000080  x2=0x000000a0
     1510637000	     75430	80008d52	03575e33	divu	x28,x14,x21	 x14:0x60cbd1d8 x21:0xffffffff x28=0x00000000
     1510657000	     75431	80008d56	8c29	c.xor	x8,x10	  x8:0x80021e64 x10:0xffffffff  x8=0x7ffde19b
     1510677000	     75432	80008d58	305069f3	csrrsi	x19,mtvec,0	 x19=0x80002501
     1510697000	     75433	80008d5c	41425eb3	sra	x29,x4,x20	  x4:0x01ffffff x20:0x17778420 x29=0x01ffffff
     1510717000	     75434	80008d60	03c0ce63	blt	x1,x28,80008d9c	  x1:0x00000000 x28:0x00000000
     1510737000	     75435	80008d64	b0407bf3	csrrci	x23,mhpmcounter4,0	 x23=0x00007037
     1510757000	     75436	80008d68	01ddf9b3	and	x19,x27,x29	 x27:0x7ffde19b x29:0x01ffffff x19=0x01fde19b
     1510937000	     75445	80008d6c	849a	c.mv	x9,x6	  x0:0x00000000  x6:0x003ffffe  x9=0x003ffffe
     1510957000	     75446	80008d6e	8794b713	sltiu	x14,x9,-1927	  x9:0x003ffffe x14=0x00000001
     1510977000	     75447	80008d72	1a7d	c.addi	x20,-1	 x20:0x17778420 x20=0x1777841f
     1511377000	     75467	80008d74	83f5	c.srli	x15,0x1d	 x15:0x00000000 x15=0x00000000
     1511417000	     75469	80008d76	02f767b3	rem	x15,x14,x15	 x14:0x00000001 x15:0x00000000 x15=0x00000001
     1511437000	     75470	80008d7a	00c46863	bltu	x8,x12,80008d8a	  x8:0x7ffde19b x12:0x00000000
     1511617000	     75479	80008d7e	0082df13	srli	x30,x5,0x8	  x5:0x00000009 x30=0x00000000
     1511637000	     75480	80008d82	00a8df93	srli	x31,x17,0xa	 x17:0x00000000 x31=0x00000000
     1511857000	     75491	80008d86	016adab3	srl	x21,x21,x22	 x21:0xffffffff x22:0xfffffb81 x21=0x7fffffff
     1511877000	     75492	80008d8a	b8971773	csrrw	x14,mhpmcounter9h,x14	 x14:0x00000001 x14=0x00000000
     1511937000	     75495	80008d8e	018e1d93	slli	x27,x28,0x18	 x28:0x00000000 x27=0x00000000
     1511957000	     75496	80008d92	26875897	auipc	x17,0x26875	 x17=0xa687dd92
     1511977000	     75497	80008d96	8e29	c.xor	x12,x10	 x12:0x00000000 x10:0xffffffff x12=0xffffffff
     1511997000	     75498	80008d98	8cf1	c.and	x9,x12	  x9:0x003ffffe x12:0xffffffff  x9=0x003ffffe
     1512017000	     75499	80008d9a	547d	c.li	x8,-1	  x8=0xffffffff
     1512037000	     75500	80008d9c	02250a63	beq	x10,x2,80008dd0	 x10:0xffffffff  x2:0x000000a0
     1512137000	     75505	80008da0	414654b3	sra	x9,x12,x20	 x12:0xffffffff x20:0x1777841f  x9=0xffffffff
     1512157000	     75506	80008da4	00b02033	slt	x0,x0,x11	  x0:0x00000000 x11:0x80021e64  x0=0x00000000
     1512297000	     75513	80008da8	0cda	c.slli	x25,0x16	 x25:0x00000010 x25=0x04000000
     1512317000	     75514	80008daa	019bdfb3	srl	x31,x23,x25	 x23:0x00007037 x25:0x04000000 x31=0x00007037
     1512357000	     75516	80008dae	0367ad33	mulhsu	x26,x15,x22	 x15:0x00000001 x22:0xfffffb81 x26=0x00000000
     1512377000	     75517	80008db2	00144c63	blt	x8,x1,80008dca	  x8:0xffffffff  x1:0x00000000
     1512957000	     75546	80008dca	e9a03717	auipc	x14,0xe9a03	 x14=0x69a0bdca
     1512977000	     75547	80008dce	717d	c.addi16sp	x2,-16	  x2:0x000000a0  x2=0x00000090
     1512997000	     75548	80008dd0	576cad93	slti	x27,x25,1398	 x25:0x04000000 x27=0x00000000
     1513157000	     75556	80008dd4	32a02373	csrrs	x6,mhpmevent10,x0	  x0:0x00000000  x6=0x00000080
     1513377000	     75567	80008dd8	8d55	c.or	x10,x13	 x10:0xffffffff x13:0x80025ce4 x10=0xffffffff
     1513397000	     75568	80008dda	cea3a013	slti	x0,x7,-790	  x7:0x00000000  x0=0x00000000
     1514497000	     75623	80008dde	0240c033	div	x0,x1,x4	  x1:0x00000000  x4:0x01ffffff  x0=0x00000000
     1514517000	     75624	80008de2	7ebaf193	andi	x3,x21,2027	 x21:0x7fffffff  x3=0x000007eb
     1514537000	     75625	80008de6	340edaf3	csrrwi	x21,mscratch,29	 x21=0x0000000b
     1514557000	     75626	80008dea	8c31	c.xor	x8,x12	  x8:0xffffffff x12:0xffffffff  x8=0x00000000
     1514577000	     75627	80008dec	00028bb3	add	x23,x5,x0	  x5:0x00000009  x0:0x00000000 x23=0x00000009
     1514597000	     75628	80008df0	00c64733	xor	x14,x12,x12	 x12:0xffffffff x12:0xffffffff x14=0x00000000
     1514617000	     75629	80008df4	0156f333	and	x6,x13,x21	 x13:0x80025ce4 x21:0x0000000b  x6=0x00000000
     1514657000	     75631	80008df8	02ac94b3	mulh	x9,x25,x10	 x25:0x04000000 x10:0xffffffff  x9=0xffffffff
     1517677000	     75782	80008dfc	9452	c.add	x8,x20	  x8:0x00000000 x20:0x1777841f  x8=0x1777841f
     1517697000	     75783	80008dfe	018f40b3	xor	x1,x30,x24	 x30:0x00000000 x24:0x00000000  x1=0x00000000
     1517717000	     75784	80008e02	0161d463	bge	x3,x22,80008e0a	  x3:0x000007eb x22:0xfffffb81
     1517777000	     75787	80008e0a	03915e63	bge	x2,x25,80008e46	  x2:0x00000090 x25:0x04000000
     1519397000	     75868	80008e0e	02de6a33	rem	x20,x28,x13	 x28:0x00000000 x13:0x80025ce4 x20=0x00000000
     1519417000	     75869	80008e12	e495	c.bnez	x9,80008e3e	  x9:0xffffffff
     1520117000	     75904	80008e3e	40205a93	srai	x21,x0,0x2	  x0:0x00000000 x21=0x00000000
     1520437000	     75920	80008e42	33c27a93	andi	x21,x4,828	  x4:0x01ffffff x21=0x0000033c
     1520677000	     75932	80008e46	27026237	lui	x4,0x27026	  x4=0x27026000
     1520957000	     75946	80008e4a	40d45ab3	sra	x21,x8,x13	  x8:0x1777841f x13:0x80025ce4 x21=0x01777841
     1521157000	     75956	80008e4e	00f39a13	slli	x20,x7,0xf	  x7:0x00000000 x20=0x00000000
     1521177000	     75957	80008e52	341098f3	csrrw	x17,mepc,x1	  x1:0x00000000 x17=0xffffffd0
     1521197000	     75958	80008e56	41c288b3	sub	x17,x5,x28	  x5:0x00000009 x28:0x00000000 x17=0x00000009
     1521417000	     75969	80008e5a	02769633	mulh	x12,x13,x7	 x13:0x80025ce4  x7:0x00000000 x12=0x00000000
     1521437000	     75970	80008e5e	8415	c.srai	x8,0x5	  x8:0x1777841f  x8=0x00bbbc20
     1521557000	     75976	80008e60	02c5ce63	blt	x11,x12,80008e9c	 x11:0x80021e64 x12:0x00000000
     1522597000	     76028	80008e9c	22a22193	slti	x3,x4,554	  x4:0x27026000  x3=0x00000000
     1523037000	     76050	80008ea0	05ce4197	auipc	x3,0x5ce4	  x3=0x85cecea0
     1523057000	     76051	80008ea4	00a7da33	srl	x20,x15,x10	 x15:0x00000001 x10:0xffffffff x20=0x00000000
     1523117000	     76054	80008ea8	3a306e73	csrrsi	x28,pmpcfg3,0	 x28=0x0f0f0f0f
     1523137000	     76055	80008eac	04ab9263	bne	x23,x10,80008ef0	 x23:0x00000009 x10:0xffffffff
     1523597000	     76078	80008ef0	01512f33	slt	x30,x2,x21	  x2:0x00000090 x21:0x01777841 x30=0x00000001
     1523617000	     76079	80008ef4	8e7d	c.and	x12,x15	 x12:0x00000000 x15:0x00000001 x12=0x00000000
     1523857000	     76091	80008ef6	32641873	csrrw	x16,mhpmevent6,x8	  x8:0x00bbbc20 x16=0x00000008
     1523917000	     76094	80008efa	01cc0ab3	add	x21,x24,x28	 x24:0x00000000 x28:0x0f0f0f0f x21=0x0f0f0f0f
     1523977000	     76097	80008efe	ba687093	andi	x1,x16,-1114	 x16:0x00000008  x1=0x00000000
     1523997000	     76098	80008f02	41c9	c.li	x3,18	  x3=0x00000012
     1524737000	     76135	80008f04	03e54b33	div	x22,x10,x30	 x10:0xffffffff x30:0x00000001 x22=0xffffffff
     1524757000	     76136	80008f08	2e33c413	xori	x8,x7,739	  x7:0x00000000  x8=0x000002e3
     1524777000	     76137	80008f0c	00481cb3	sll	x25,x16,x4	 x16:0x00000008  x4:0x27026000 x25=0x00000008
     1525517000	     76174	80008f10	02fd7ab3	remu	x21,x26,x15	 x26:0x00000000 x15:0x00000001 x21=0x00000000
     1525537000	     76175	80008f14	00d7a833	slt	x16,x15,x13	 x15:0x00000001 x13:0x80025ce4 x16=0x00000000
     1525557000	     76176	80008f18	0dcd7b13	andi	x22,x26,220	 x26:0x00000000 x22=0x00000000
     1525577000	     76177	80008f1c	03250133	mul	x2,x10,x18	 x10:0xffffffff x18:0xfffffffe  x2=0x00000002
     1525597000	     76178	80008f20	408adb93	srai	x23,x21,0x8	 x21:0x00000000 x23=0x00000000
     1525617000	     76179	80008f24	6989	c.lui	x19,0x2	 x19=0x00002000
     1525737000	     76185	80008f26	03cbe463	bltu	x23,x28,80008f4e	 x23:0x00000000 x28:0x0f0f0f0f
     1526517000	     76224	80008f4e	035a8763	beq	x21,x21,80008f7c	 x21:0x00000000 x21:0x00000000
     1526737000	     76235	80008f7c	02d00033	mul	x0,x0,x13	  x0:0x00000000 x13:0x80025ce4  x0=0x00000000
     1527177000	     76257	80008f80	00b84333	xor	x6,x16,x11	 x16:0x00000000 x11:0x80021e64  x6=0x80021e64
     1527197000	     76258	80008f84	0035e8b3	or	x17,x11,x3	 x11:0x80021e64  x3:0x00000012 x17=0x80021e76
     1527217000	     76259	80008f88	9e500e13	addi	x28,x0,-1563	  x0:0x00000000 x28=0xfffff9e5
     1527237000	     76260	80008f8c	0000100f	fence.i	
     1527797000	     76288	80008f90	40dbd793	srai	x15,x23,0xd	 x23:0x00000000 x15=0x00000000
     1528217000	     76309	80008f94	00003633	sltu	x12,x0,x0	  x0:0x00000000  x0:0x00000000 x12=0x00000000
     1528237000	     76310	80008f98	008f5763	bge	x30,x8,80008fa6	 x30:0x00000001  x8:0x000002e3
     1528257000	     76311	80008f9c	8ce1	c.and	x9,x8	  x9:0xffffffff  x8:0x000002e3  x9=0x000002e3
     1528277000	     76312	80008f9e	00da71b3	and	x3,x20,x13	 x20:0x00000000 x13:0x80025ce4  x3=0x00000000
     1528297000	     76313	80008fa2	00e11933	sll	x18,x2,x14	  x2:0x00000002 x14:0x00000000 x18=0x00000002
     1528597000	     76328	80008fa6	03b72933	mulhsu	x18,x14,x27	 x14:0x00000000 x27:0x00000000 x18=0x00000000
     1528617000	     76329	80008faa	8c7d	c.and	x8,x15	  x8:0x000002e3 x15:0x00000000  x8=0x00000000
     1529157000	     76356	80008fac	951afc93	andi	x25,x21,-1711	 x21:0x00000000 x25=0x00000000
     1529597000	     76378	80008fb0	03dd20b3	mulhsu	x1,x26,x29	 x26:0x00000000 x29:0x01ffffff  x1=0x00000000
     1529997000	     76398	80008fb4	822d	c.srli	x12,0xb	 x12:0x00000000 x12=0x00000000
     1530017000	     76399	80008fb6	4027db33	sra	x22,x15,x2	 x15:0x00000000  x2:0x00000002 x22=0x00000000
     1530337000	     76415	80008fba	40735293	srai	x5,x6,0x7	  x6:0x80021e64  x5=0xff00043c
     1530357000	     76416	80008fbe	c52bc813	xori	x16,x23,-942	 x23:0x00000000 x16=0xfffffc52
     1530377000	     76417	80008fc2	021a0733	mul	x14,x20,x1	 x20:0x00000000  x1:0x00000000 x14=0x00000000
     1530397000	     76418	80008fc6	6db9	c.lui	x27,0xe	 x27=0x0000e000
     1530577000	     76427	80008fc8	0129b9b3	sltu	x19,x19,x18	 x19:0x00002000 x18:0x00000000 x19=0x00000000
     1530997000	     76448	80008fcc	007ce7b3	or	x15,x25,x7	 x25:0x00000000  x7:0x00000000 x15=0x00000000
     1531017000	     76449	80008fd0	871e	c.mv	x14,x7	  x0:0x00000000  x7:0x00000000 x14=0x00000000
     1531037000	     76450	80008fd2	b8503ef3	csrrc	x29,mhpmcounter5h,x0	  x0:0x00000000 x29=0x00000000
     1531057000	     76451	80008fd6	8f62	c.mv	x30,x24	  x0:0x00000000 x24:0x00000000 x30=0x00000000
     1531077000	     76452	80008fd8	0ff0000f	fence	iorw,iorw	
     1531097000	     76453	80008fdc	4281	c.li	x5,0	  x5=0x00000000
     1531297000	     76463	80008fde	30a81473	csrrw	x8,0x30a,x16	 x16:0xfffffc52  x8=0x00000000
     1531617000	     76479	80008fe2	3277df73	csrrwi	x30,mhpmevent7,15	 x30=0x00000010
     1531677000	     76482	80008fe6	cc95	c.beqz	x9,80009022	  x9:0x000002e3
     1531777000	     76487	80008fe8	1e00	c.addi4spn	x8,x2,816	  x8=0x00000332
     1531797000	     76488	80008fea	0047adb3	slt	x27,x15,x4	 x15:0x00000000  x4:0x27026000 x27=0x00000001
     1531817000	     76489	80008fee	0de2	c.slli	x27,0x18	 x27:0x00000001 x27=0x01000000
     1531857000	     76491	80008ff0	0315a7b3	mulhsu	x15,x11,x17	 x11:0x80021e64 x17:0x80021e76 x15=0xbffffffb
     1532237000	     76510	80008ff4	01475833	srl	x16,x14,x20	 x14:0x00000000 x20:0x00000000 x16=0x00000000
     1532357000	     76516	80008ff8	00a39113	slli	x2,x7,0xa	  x7:0x00000000  x2=0x00000000
     1532377000	     76517	80008ffc	6973ee13	ori	x28,x7,1687	  x7:0x00000000 x28=0x00000697
     1532397000	     76518	80009000	01ea9913	slli	x18,x21,0x1e	 x21:0x00000000 x18=0x00000000
     1532417000	     76519	80009004	fff50f13	addi	x30,x10,-1	 x10:0xffffffff x30=0xfffffffe
     1532597000	     76528	80009008	f1103f73	csrrc	x30,mvendorid,x0	  x0:0x00000000 x30=0x00000000
     1532797000	     76538	8000900c	0000100f	fence.i	
     1533297000	     76563	80009010	038357b3	divu	x15,x6,x24	  x6:0x80021e64 x24:0x00000000 x15=0xffffffff
     1533577000	     76577	80009014	031db2b3	mulhu	x5,x27,x17	 x27:0x01000000 x17:0x80021e76  x5=0x0080021e
     1533597000	     76578	80009018	8735	c.srai	x14,0xd	 x14:0x00000000 x14=0x00000000
     1533937000	     76595	8000901a	0ff0000f	fence	iorw,iorw	
     1533957000	     76596	8000901e	b8f17013	andi	x0,x2,-1137	  x2:0x00000000  x0=0x00000000
     1534377000	     76617	80009022	40c00fb3	sub	x31,x0,x12	  x0:0x00000000 x12:0x00000000 x31=0x00000000
     1534397000	     76618	80009026	89e6	c.mv	x19,x25	  x0:0x00000000 x25:0x00000000 x19=0x00000000
     1534417000	     76619	80009028	8c0d	c.sub	x8,x11	  x8:0x00000332 x11:0x80021e64  x8=0x7ffde4ce
     1534557000	     76626	8000902a	03fbebb3	rem	x23,x23,x31	 x23:0x00000000 x31:0x00000000 x23=0x00000000
     1534677000	     76632	8000902e	7c1c31f3	csrrc	x3,0x7c1,x24	 x24:0x00000000  x3=0x00000000
     1534737000	     76635	80009032	9604ed93	ori	x27,x9,-1696	  x9:0x000002e3 x27=0xfffffbe3
     1534777000	     76637	80009036	05b08063	beq	x1,x27,80009076	  x1:0x00000000 x27:0xfffffbe3
     1534917000	     76644	8000903a	005ed2b3	srl	x5,x29,x5	 x29:0x00000000  x5:0x0080021e  x5=0x00000000
     1534937000	     76645	8000903e	9f3a	c.add	x30,x14	 x30:0x00000000 x14:0x00000000 x30=0x00000000
     1534977000	     76647	80009040	02927463	bgeu	x4,x9,80009068	  x4:0x27026000  x9:0x000002e3
     1535077000	     76652	80009068	329e5c73	csrrwi	x24,mhpmevent9,28	 x24=0x00000040
     1535137000	     76655	8000906c	0001	c.addi	x0,0	  x0:0x00000000  x0=0x00000000
     1535157000	     76656	8000906e	00fa5433	srl	x8,x20,x15	 x20:0x00000000 x15:0xffffffff  x8=0x00000000
     1535537000	     76675	80009072	341b5873	csrrwi	x16,mepc,22	 x16=0x00000000
     1535717000	     76684	80009076	00e514b3	sll	x9,x10,x14	 x10:0xffffffff x14:0x00000000  x9=0xffffffff
     1536137000	     76705	8000907a	0363c1b3	div	x3,x7,x22	  x7:0x00000000 x22:0x00000000  x3=0xffffffff
     1536537000	     76725	8000907e	01a75013	srli	x0,x14,0x1a	 x14:0x00000000  x0=0x00000000
     1536697000	     76733	80009082	00312933	slt	x18,x2,x3	  x2:0x00000000  x3:0xffffffff x18=0x00000000
     1536717000	     76734	80009086	597d	c.li	x18,-1	 x18=0xffffffff
     1536897000	     76743	80009088	557d	c.li	x10,-1	 x10=0xffffffff
     1536957000	     76746	8000908a	01f7bc33	sltu	x24,x15,x31	 x15:0xffffffff x31:0x00000000 x24=0x00000000
     1537177000	     76757	8000908e	0223ac33	mulhsu	x24,x7,x2	  x7:0x00000000  x2:0x00000000 x24=0x00000000
     1537197000	     76758	80009092	1418	c.addi4spn	x14,x2,544	 x14=0x00000220
     1537237000	     76760	80009094	0354a7b3	mulhsu	x15,x9,x21	  x9:0xffffffff x21:0x00000000 x15=0x00000000
     1537597000	     76778	80009098	7786cf13	xori	x30,x13,1912	 x13:0x80025ce4 x30=0x80025b9c
     1537617000	     76779	8000909c	408dd133	sra	x2,x27,x8	 x27:0xfffffbe3  x8:0x00000000  x2=0xfffffbe3
     1537657000	     76781	800090a0	03aced33	rem	x26,x25,x26	 x25:0x00000000 x26:0x00000000 x26=0x00000000
     1537957000	     76796	800090a4	02057c63	bgeu	x10,x0,800090dc	 x10:0xffffffff  x0:0x00000000
     1538137000	     76805	800090dc	23c0c413	xori	x8,x1,572	  x1:0x00000000  x8=0x0000023c
     1538257000	     76811	800090e0	d23a5437	lui	x8,0xd23a5	  x8=0xd23a5000
     1538477000	     76822	800090e4	015394b3	sll	x9,x7,x21	  x7:0x00000000 x21:0x00000000  x9=0x00000000
     1538497000	     76823	800090e8	0f79	c.addi	x30,30	 x30:0x80025b9c x30=0x80025bba
     1538517000	     76824	800090ea	00d34463	blt	x6,x13,800090f2	  x6:0x80021e64 x13:0x80025ce4
     1539177000	     76857	800090f2	32a42773	csrrs	x14,mhpmevent10,x8	  x8:0xd23a5000 x14=0x00000080
     1539237000	     76860	800090f6	562a2c93	slti	x25,x20,1378	 x20:0x00000000 x25=0x00000001
     1539337000	     76865	800090fa	02027db3	remu	x27,x4,x0	  x4:0x27026000  x0:0x00000000 x27=0x27026000
     1539377000	     76867	800090fe	cb075497	auipc	x9,0xcb075	  x9=0x4b07e0fe
     1539397000	     76868	80009102	014d7033	and	x0,x26,x20	 x26:0x00000000 x20:0x00000000  x0=0x00000000
     1539417000	     76869	80009106	310024f3	csrrs	x9,0x310,x0	  x0:0x00000000  x9=0x00000000
     1539617000	     76879	8000910a	82df7713	andi	x14,x30,-2003	 x30:0x80025bba x14=0x80025828
     1539697000	     76883	8000910e	0182dc33	srl	x24,x5,x24	  x5:0x00000000 x24:0x00000000 x24=0x00000000
     1539717000	     76884	80009112	006a9233	sll	x4,x21,x6	 x21:0x00000000  x6:0x80021e64  x4=0x00000000
     1539737000	     76885	80009116	01f3bc33	sltu	x24,x7,x31	  x7:0x00000000 x31:0x00000000 x24=0x00000000
     1539877000	     76892	8000911a	03585333	divu	x6,x16,x21	 x16:0x00000000 x21:0x00000000  x6=0xffffffff
     1539917000	     76894	8000911e	05d67a63	bgeu	x12,x29,80009172	 x12:0x00000000 x29:0x00000000
     1541077000	     76952	80009172	003578b3	and	x17,x10,x3	 x10:0xffffffff  x3:0xffffffff x17=0xffffffff
     1541097000	     76953	80009176	b05adf73	csrrwi	x30,mhpmcounter5,21	 x30=0xfffff883
     1541177000	     76957	8000917a	02f6b133	mulhu	x2,x13,x15	 x13:0x80025ce4 x15:0x00000000  x2=0x00000000
     1541197000	     76958	8000917e	01e96b63	bltu	x18,x30,80009194	 x18:0xffffffff x30:0xfffff883
     1541237000	     76960	80009182	023d17b3	mulh	x15,x26,x3	 x26:0x00000000  x3:0xffffffff x15=0x00000000
     1541337000	     76965	80009186	03e48c63	beq	x9,x30,800091be	  x9:0x00000000 x30:0xfffff883
     1541357000	     76966	8000918a	48ec3497	auipc	x9,0x48ec3	  x9=0xc8ecc18a
     1541457000	     76971	8000918e	407007b3	sub	x15,x0,x7	  x0:0x00000000  x7:0x00000000 x15=0x00000000
     1541477000	     76972	80009192	4fa5	c.li	x31,9	 x31=0x00000009
     1541497000	     76973	80009194	c9d42093	slti	x1,x8,-867	  x8:0xd23a5000  x1=0x00000001
     1541617000	     76979	80009198	717d	c.addi16sp	x2,-16	  x2:0x00000000  x2=0xfffffff0
     1541637000	     76980	8000919a	88a6	c.mv	x17,x9	  x0:0x00000000  x9:0xc8ecc18a x17=0xc8ecc18a
     1552917000	     77544	8000919c	1cc23213	sltiu	x4,x4,460	  x4:0x00000000  x4=0x00000001
     1552937000	     77545	800091a0	f1106173	csrrsi	x2,mvendorid,0	  x2=0x00000000
     1552957000	     77546	800091a4	f1386cf3	csrrsi	x0,mimpid,16	  x0=0x00000000
     1553377000	     77567	80002500	0800006f	jal	x0,80002580	  x0=0x00000000
     1554077000	     77602	80002580	16f1	c.addi	x13,-4	 x13:0x80025ce4 x13=0x80025ce0
     1554537000	     77625	80002582	c28c	c.sw	x11,0(x13)	 x13:0x80025ce0 x11:0x80021e64 PA:0x80025ce0 store:0x80021e64 load:0xffffffff
     1554557000	     77626	80002584	000685b3	add	x11,x13,x0	 x13:0x80025ce0  x0:0x00000000 x11=0x80025ce0
     1554577000	     77627	80002588	f8058593	addi	x11,x11,-128	 x11:0x80025ce0 x11=0x80025c60
     1554637000	     77630	8000258c	0015a223	sw	x1,4(x11)	 x11:0x80025c60  x1:0x00000001 PA:0x80025c64 store:0x00000001 load:0xffffffff
     1554657000	     77631	80002590	0025a423	sw	x2,8(x11)	 x11:0x80025c60  x2:0x00000000 PA:0x80025c68 store:0x00000000 load:0xffffffff
     1554777000	     77637	80002594	0035a623	sw	x3,12(x11)	 x11:0x80025c60  x3:0xffffffff PA:0x80025c6c store:0xffffffff load:0xffffffff
     1554917000	     77644	80002598	0045a823	sw	x4,16(x11)	 x11:0x80025c60  x4:0x00000001 PA:0x80025c70 store:0x00000001 load:0xffffffff
     1555157000	     77656	8000259c	0055aa23	sw	x5,20(x11)	 x11:0x80025c60  x5:0x00000000 PA:0x80025c74 store:0x00000000 load:0xffffffff
     1555277000	     77662	800025a0	0065ac23	sw	x6,24(x11)	 x11:0x80025c60  x6:0xffffffff PA:0x80025c78 store:0xffffffff load:0xffffffff
     1555457000	     77671	800025a4	0075ae23	sw	x7,28(x11)	 x11:0x80025c60  x7:0x00000000 PA:0x80025c7c store:0x00000000 load:0xffffffff
     1555517000	     77674	800025a8	d180	c.sw	x8,32(x11)	 x11:0x80025c60  x8:0xd23a5000 PA:0x80025c80 store:0xd23a5000 load:0xffffffff
     1555537000	     77675	800025aa	d1c4	c.sw	x9,36(x11)	 x11:0x80025c60  x9:0xc8ecc18a PA:0x80025c84 store:0xc8ecc18a load:0xffffffff
     1555637000	     77680	800025ac	d588	c.sw	x10,40(x11)	 x11:0x80025c60 x10:0xffffffff PA:0x80025c88 store:0xffffffff load:0xffffffff
     1555897000	     77693	800025ae	d5cc	c.sw	x11,44(x11)	 x11:0x80025c60 x11:0x80025c60 PA:0x80025c8c store:0x80025c60 load:0xffffffff
     1555957000	     77696	800025b0	d990	c.sw	x12,48(x11)	 x11:0x80025c60 x12:0x00000000 PA:0x80025c90 store:0x00000000 load:0xffffffff
     1556097000	     77703	800025b2	d9d4	c.sw	x13,52(x11)	 x11:0x80025c60 x13:0x80025ce0 PA:0x80025c94 store:0x80025ce0 load:0xffffffff
     1556117000	     77704	800025b4	dd98	c.sw	x14,56(x11)	 x11:0x80025c60 x14:0x80025828 PA:0x80025c98 store:0x80025828 load:0xffffffff
     1556297000	     77713	800025b6	dddc	c.sw	x15,60(x11)	 x11:0x80025c60 x15:0x00000000 PA:0x80025c9c store:0x00000000 load:0xffffffff
     1556777000	     77737	800025b8	0505a023	sw	x16,64(x11)	 x11:0x80025c60 x16:0x00000000 PA:0x80025ca0 store:0x00000000 load:0xffffffff
     1556837000	     77740	800025bc	0515a223	sw	x17,68(x11)	 x11:0x80025c60 x17:0xc8ecc18a PA:0x80025ca4 store:0xc8ecc18a load:0xffffffff
     1556857000	     77741	800025c0	0525a423	sw	x18,72(x11)	 x11:0x80025c60 x18:0xffffffff PA:0x80025ca8 store:0xffffffff load:0xffffffff
     1557077000	     77752	800025c4	0535a623	sw	x19,76(x11)	 x11:0x80025c60 x19:0x00000000 PA:0x80025cac store:0x00000000 load:0xffffffff
     1557257000	     77761	800025c8	0545a823	sw	x20,80(x11)	 x11:0x80025c60 x20:0x00000000 PA:0x80025cb0 store:0x00000000 load:0xffffffff
     1557497000	     77773	800025cc	0555aa23	sw	x21,84(x11)	 x11:0x80025c60 x21:0x00000000 PA:0x80025cb4 store:0x00000000 load:0xffffffff
     1557557000	     77776	800025d0	0565ac23	sw	x22,88(x11)	 x11:0x80025c60 x22:0x00000000 PA:0x80025cb8 store:0x00000000 load:0xffffffff
     1557897000	     77793	800025d4	0575ae23	sw	x23,92(x11)	 x11:0x80025c60 x23:0x00000000 PA:0x80025cbc store:0x00000000 load:0xffffffff
     1558057000	     77801	800025d8	0785a023	sw	x24,96(x11)	 x11:0x80025c60 x24:0x00000000 PA:0x80025cc0 store:0x00000000 load:0xffffffff
     1558077000	     77802	800025dc	0795a223	sw	x25,100(x11)	 x11:0x80025c60 x25:0x00000001 PA:0x80025cc4 store:0x00000001 load:0xffffffff
     1558097000	     77803	800025e0	07a5a423	sw	x26,104(x11)	 x11:0x80025c60 x26:0x00000000 PA:0x80025cc8 store:0x00000000 load:0xffffffff
     1558377000	     77817	800025e4	07b5a623	sw	x27,108(x11)	 x11:0x80025c60 x27:0x27026000 PA:0x80025ccc store:0x27026000 load:0xffffffff
     1558437000	     77820	800025e8	07c5a823	sw	x28,112(x11)	 x11:0x80025c60 x28:0x00000697 PA:0x80025cd0 store:0x00000697 load:0xffffffff
     1558477000	     77822	800025ec	07d5aa23	sw	x29,116(x11)	 x11:0x80025c60 x29:0x00000000 PA:0x80025cd4 store:0x00000000 load:0xffffffff
     1558497000	     77823	800025f0	07e5ac23	sw	x30,120(x11)	 x11:0x80025c60 x30:0xfffff883 PA:0x80025cd8 store:0xfffff883 load:0xffffffff
     1558577000	     77827	800025f4	07f5ae23	sw	x31,124(x11)	 x11:0x80025c60 x31:0x00000009 PA:0x80025cdc store:0x00000009 load:0xffffffff
     1558597000	     77828	800025f8	000586b3	add	x13,x11,x0	 x11:0x80025c60  x0:0x00000000 x13=0x80025c60
     1558617000	     77829	800025fc	90000db7	lui	x27,0x90000	 x27=0x90000000
     1558697000	     77833	80002600	1df1	c.addi	x27,-4	 x27:0x90000000 x27=0x8ffffffc
     1558717000	     77834	80002602	4921	c.li	x18,8	 x18=0x00000008
     1558797000	     77838	80002604	0922	c.slli	x18,0x8	 x18:0x00000008 x18=0x00000800
     1558817000	     77839	80002606	00090913	addi	x18,x18,0	 x18:0x00000800 x18=0x00000800
     1559337000	     77865	8000260a	012da023	sw	x18,0(x27)	 x27:0x8ffffffc x18:0x00000800 PA:0x8ffffffc store:0x00000800 load:0xffffffff
     1559357000	     77866	8000260e	34102973	csrrs	x18,mepc,x0	  x0:0x00000000 x18=0x800091a4
     1559677000	     77882	80002612	34202973	csrrs	x18,mcause,x0	  x0:0x00000000 x18=0x00000002
     1559697000	     77883	80002616	4d8d	c.li	x27,3	 x27=0x00000003
     1559857000	     77891	80002618	01b91463	bne	x18,x27,80002620	 x18:0x00000002 x27:0x00000003
     1560937000	     77945	80002620	4da1	c.li	x27,8	 x27=0x00000008
     1560997000	     77948	80002622	05b90d63	beq	x18,x27,8000267c	 x18:0x00000002 x27:0x00000008
     1561017000	     77949	80002626	4da5	c.li	x27,9	 x27=0x00000009
     1561417000	     77969	80002628	05b90a63	beq	x18,x27,8000267c	 x18:0x00000002 x27:0x00000009
     1561537000	     77975	8000262c	4dad	c.li	x27,11	 x27=0x0000000b
     1561957000	     77996	8000262e	05b90763	beq	x18,x27,8000267c	 x18:0x00000002 x27:0x0000000b
     1561977000	     77997	80002632	4d85	c.li	x27,1	 x27=0x00000001
     1562217000	     78009	80002634	35b90363	beq	x18,x27,8000297a	 x18:0x00000002 x27:0x00000001
     1562257000	     78011	80002638	4d95	c.li	x27,5	 x27=0x00000005
     1562277000	     78012	8000263a	63b90963	beq	x18,x27,80002c6c	 x18:0x00000002 x27:0x00000005
     1562297000	     78013	8000263e	4d9d	c.li	x27,7	 x27=0x00000007
     1562317000	     78014	80002640	15b90ae3	beq	x18,x27,80002f94	 x18:0x00000002 x27:0x00000007
     1562557000	     78026	80002644	4db1	c.li	x27,12	 x27=0x0000000c
     1562577000	     78027	80002646	01b91463	bne	x18,x27,8000264e	 x18:0x00000002 x27:0x0000000c
     1563637000	     78080	8000264e	4db5	c.li	x27,13	 x27=0x0000000d
     1563757000	     78086	80002650	01b91463	bne	x18,x27,80002658	 x18:0x00000002 x27:0x0000000d
     1564257000	     78111	80002658	4dbd	c.li	x27,15	 x27=0x0000000f
     1564277000	     78112	8000265a	01b91463	bne	x18,x27,80002662	 x18:0x00000002 x27:0x0000000f
     1564677000	     78132	80002662	4d89	c.li	x27,2	 x27=0x00000002
     1564697000	     78133	80002664	01b91463	bne	x18,x27,8000266c	 x18:0x00000002 x27:0x00000002
     1564717000	     78134	80002668	45c0906f	jal	x0,8000bac4	  x0=0x00000000
     1564897000	     78143	8000bac4	90000db7	lui	x27,0x90000	 x27=0x90000000
     1565037000	     78150	8000bac8	1df1	c.addi	x27,-4	 x27:0x90000000 x27=0x8ffffffc
     1565057000	     78151	8000baca	4929	c.li	x18,10	 x18=0x0000000a
     1565197000	     78158	8000bacc	0922	c.slli	x18,0x8	 x18:0x0000000a x18=0x00000a00
     1565357000	     78166	8000bace	00090913	addi	x18,x18,0	 x18:0x00000a00 x18=0x00000a00
     1565717000	     78184	8000bad2	012da023	sw	x18,0(x27)	 x27:0x8ffffffc x18:0x00000a00 PA:0x8ffffffc store:0x00000a00 load:0xffffffff
     1565737000	     78185	8000bad6	90000db7	lui	x27,0x90000	 x27=0x90000000
     1565757000	     78186	8000bada	1df1	c.addi	x27,-4	 x27:0x90000000 x27=0x8ffffffc
     1565937000	     78195	8000badc	34200913	addi	x18,x0,834	  x0:0x00000000 x18=0x00000342
     1566097000	     78203	8000bae0	0922	c.slli	x18,0x8	 x18:0x00000342 x18=0x00034200
     1566117000	     78204	8000bae2	090d	c.addi	x18,3	 x18:0x00034200 x18=0x00034203
     1566297000	     78213	8000bae4	012da023	sw	x18,0(x27)	 x27:0x8ffffffc x18:0x00034203 PA:0x8ffffffc store:0x00034203 load:0xffffffff
     1566457000	     78221	8000bae8	34202973	csrrs	x18,mcause,x0	  x0:0x00000000 x18=0x00000002
     1566517000	     78224	8000baec	012da023	sw	x18,0(x27)	 x27:0x8ffffffc x18:0x00000002 PA:0x8ffffffc store:0x00000002 load:0xffffffff
     1566537000	     78225	8000baf0	34102973	csrrs	x18,mepc,x0	  x0:0x00000000 x18=0x800091a4
     1566917000	     78244	8000baf4	0911	c.addi	x18,4	 x18:0x800091a4 x18=0x800091a8
     1566937000	     78245	8000baf6	34191073	csrrw	x0,mepc,x18	 x18:0x800091a8  x0=0x00000000
     1566957000	     78246	8000bafa	000685b3	add	x11,x13,x0	 x13:0x80025c60  x0:0x00000000 x11=0x80025c60
     1567277000	     78262	8000bafe	0045a083	lw	x1,4(x11)	 x11:0x80025c60  x1=0x00000001 PA:0x80025c64 load:0x00000001
     1567737000	     78285	8000bb02	0085a103	lw	x2,8(x11)	 x11:0x80025c60  x2=0x00000000 PA:0x80025c68 load:0x00000000
     1568357000	     78316	8000bb06	00c5a183	lw	x3,12(x11)	 x11:0x80025c60  x3=0xffffffff PA:0x80025c6c load:0xffffffff
     1568417000	     78319	8000bb0a	0105a203	lw	x4,16(x11)	 x11:0x80025c60  x4=0x00000001 PA:0x80025c70 load:0x00000001
     1568437000	     78320	8000bb0e	0145a283	lw	x5,20(x11)	 x11:0x80025c60  x5=0x00000000 PA:0x80025c74 load:0x00000000
     1568617000	     78329	8000bb12	0185a303	lw	x6,24(x11)	 x11:0x80025c60  x6=0xffffffff PA:0x80025c78 load:0xffffffff
     1568697000	     78333	8000bb16	01c5a383	lw	x7,28(x11)	 x11:0x80025c60  x7=0x00000000 PA:0x80025c7c load:0x00000000
     1569117000	     78354	8000bb1a	5180	c.lw	x8,32(x11)	 x11:0x80025c60  x8=0xd23a5000 PA:0x80025c80 load:0xd23a5000
     1569437000	     78370	8000bb1c	51c4	c.lw	x9,36(x11)	 x11:0x80025c60  x9=0xc8ecc18a PA:0x80025c84 load:0xc8ecc18a
     1569897000	     78393	8000bb1e	5588	c.lw	x10,40(x11)	 x11:0x80025c60 x10=0xffffffff PA:0x80025c88 load:0xffffffff
     1569977000	     78397	8000bb20	55cc	c.lw	x11,44(x11)	 x11:0x80025c60 x11=0x80025c60 PA:0x80025c8c load:0x80025c60
     1570057000	     78401	8000bb22	5990	c.lw	x12,48(x11)	 x11:0x80025c60 x12=0x00000000 PA:0x80025c90 load:0x00000000
     1570197000	     78408	8000bb24	59d4	c.lw	x13,52(x11)	 x11:0x80025c60 x13=0x80025ce0 PA:0x80025c94 load:0x80025ce0
     1570277000	     78412	8000bb26	5d98	c.lw	x14,56(x11)	 x11:0x80025c60 x14=0x80025828 PA:0x80025c98 load:0x80025828
     1570437000	     78420	8000bb28	5ddc	c.lw	x15,60(x11)	 x11:0x80025c60 x15=0x00000000 PA:0x80025c9c load:0x00000000
     1570697000	     78433	8000bb2a	0405a803	lw	x16,64(x11)	 x11:0x80025c60 x16=0x00000000 PA:0x80025ca0 load:0x00000000
     1570737000	     78435	8000bb2e	0445a883	lw	x17,68(x11)	 x11:0x80025c60 x17=0xc8ecc18a PA:0x80025ca4 load:0xc8ecc18a
     1571037000	     78450	8000bb32	0485a903	lw	x18,72(x11)	 x11:0x80025c60 x18=0xffffffff PA:0x80025ca8 load:0xffffffff
     1571117000	     78454	8000bb36	04c5a983	lw	x19,76(x11)	 x11:0x80025c60 x19=0x00000000 PA:0x80025cac load:0x00000000
     1571237000	     78460	8000bb3a	0505aa03	lw	x20,80(x11)	 x11:0x80025c60 x20=0x00000000 PA:0x80025cb0 load:0x00000000
     1571697000	     78483	8000bb3e	0545aa83	lw	x21,84(x11)	 x11:0x80025c60 x21=0x00000000 PA:0x80025cb4 load:0x00000000
     1571757000	     78486	8000bb42	0585ab03	lw	x22,88(x11)	 x11:0x80025c60 x22=0x00000000 PA:0x80025cb8 load:0x00000000
     1571857000	     78491	8000bb46	05c5ab83	lw	x23,92(x11)	 x11:0x80025c60 x23=0x00000000 PA:0x80025cbc load:0x00000000
     1571997000	     78498	8000bb4a	0605ac03	lw	x24,96(x11)	 x11:0x80025c60 x24=0x00000000 PA:0x80025cc0 load:0x00000000
     1572157000	     78506	8000bb4e	0645ac83	lw	x25,100(x11)	 x11:0x80025c60 x25=0x00000001 PA:0x80025cc4 load:0x00000001
     1572497000	     78523	8000bb52	0685ad03	lw	x26,104(x11)	 x11:0x80025c60 x26=0x00000000 PA:0x80025cc8 load:0x00000000
     1572917000	     78544	8000bb56	06c5ad83	lw	x27,108(x11)	 x11:0x80025c60 x27=0x27026000 PA:0x80025ccc load:0x27026000
     1572997000	     78548	8000bb5a	0705ae03	lw	x28,112(x11)	 x11:0x80025c60 x28=0x00000697 PA:0x80025cd0 load:0x00000697
     1573097000	     78553	8000bb5e	0745ae83	lw	x29,116(x11)	 x11:0x80025c60 x29=0x00000000 PA:0x80025cd4 load:0x00000000
     1573117000	     78554	8000bb62	0785af03	lw	x30,120(x11)	 x11:0x80025c60 x30=0xfffff883 PA:0x80025cd8 load:0xfffff883
     1573137000	     78555	8000bb66	07c5af83	lw	x31,124(x11)	 x11:0x80025c60 x31=0x00000009 PA:0x80025cdc load:0x00000009
     1573157000	     78556	8000bb6a	08058593	addi	x11,x11,128	 x11:0x80025c60 x11=0x80025ce0
     1573177000	     78557	8000bb6e	000586b3	add	x13,x11,x0	 x11:0x80025ce0  x0:0x00000000 x13=0x80025ce0
     1573457000	     78571	8000bb72	428c	c.lw	x11,0(x13)	 x13:0x80025ce0 x11=0x80021e64 PA:0x80025ce0 load:0x80021e64
     1573477000	     78572	8000bb74	0691	c.addi	x13,4	 x13:0x80025ce0 x13=0x80025ce4
     1573497000	     78573	8000bb76	30200073	mret	
     1573557000	     78576	800091a8	f11619f3	csrrw	x0,mvendorid,x0	  x0:0x00000000  x0=0x00000000
     1573637000	     78580	80002500	0800006f	jal	x0,80002580	  x0=0x00000000
     1573697000	     78583	80002580	16f1	c.addi	x13,-4	 x13:0x80025ce4 x13=0x80025ce0
     1573757000	     78586	80002582	c28c	c.sw	x11,0(x13)	 x13:0x80025ce0 x11:0x80021e64 PA:0x80025ce0 store:0x80021e64 load:0xffffffff
     1573777000	     78587	80002584	000685b3	add	x11,x13,x0	 x13:0x80025ce0  x0:0x00000000 x11=0x80025ce0
     1573797000	     78588	80002588	f8058593	addi	x11,x11,-128	 x11:0x80025ce0 x11=0x80025c60
     1573857000	     78591	8000258c	0015a223	sw	x1,4(x11)	 x11:0x80025c60  x1:0x00000001 PA:0x80025c64 store:0x00000001 load:0xffffffff
     1573877000	     78592	80002590	0025a423	sw	x2,8(x11)	 x11:0x80025c60  x2:0x00000000 PA:0x80025c68 store:0x00000000 load:0xffffffff
     1573897000	     78593	80002594	0035a623	sw	x3,12(x11)	 x11:0x80025c60  x3:0xffffffff PA:0x80025c6c store:0xffffffff load:0xffffffff
     1574497000	     78623	80002598	0045a823	sw	x4,16(x11)	 x11:0x80025c60  x4:0x00000001 PA:0x80025c70 store:0x00000001 load:0xffffffff
     1574657000	     78631	8000259c	0055aa23	sw	x5,20(x11)	 x11:0x80025c60  x5:0x00000000 PA:0x80025c74 store:0x00000000 load:0xffffffff
     1574717000	     78634	800025a0	0065ac23	sw	x6,24(x11)	 x11:0x80025c60  x6:0xffffffff PA:0x80025c78 store:0xffffffff load:0xffffffff
     1574817000	     78639	800025a4	0075ae23	sw	x7,28(x11)	 x11:0x80025c60  x7:0x00000000 PA:0x80025c7c store:0x00000000 load:0xffffffff
     1575157000	     78656	800025a8	d180	c.sw	x8,32(x11)	 x11:0x80025c60  x8:0xd23a5000 PA:0x80025c80 store:0xd23a5000 load:0xffffffff
     1575417000	     78669	800025aa	d1c4	c.sw	x9,36(x11)	 x11:0x80025c60  x9:0xc8ecc18a PA:0x80025c84 store:0xc8ecc18a load:0xffffffff
     1575477000	     78672	800025ac	d588	c.sw	x10,40(x11)	 x11:0x80025c60 x10:0xffffffff PA:0x80025c88 store:0xffffffff load:0xffffffff
     1575657000	     78681	800025ae	d5cc	c.sw	x11,44(x11)	 x11:0x80025c60 x11:0x80025c60 PA:0x80025c8c store:0x80025c60 load:0xffffffff
     1575717000	     78684	800025b0	d990	c.sw	x12,48(x11)	 x11:0x80025c60 x12:0x00000000 PA:0x80025c90 store:0x00000000 load:0xffffffff
     1575757000	     78686	800025b2	d9d4	c.sw	x13,52(x11)	 x11:0x80025c60 x13:0x80025ce0 PA:0x80025c94 store:0x80025ce0 load:0xffffffff
     1576177000	     78707	800025b4	dd98	c.sw	x14,56(x11)	 x11:0x80025c60 x14:0x80025828 PA:0x80025c98 store:0x80025828 load:0xffffffff
     1576237000	     78710	800025b6	dddc	c.sw	x15,60(x11)	 x11:0x80025c60 x15:0x00000000 PA:0x80025c9c store:0x00000000 load:0xffffffff
     1576257000	     78711	800025b8	0505a023	sw	x16,64(x11)	 x11:0x80025c60 x16:0x00000000 PA:0x80025ca0 store:0x00000000 load:0xffffffff
     1576277000	     78712	800025bc	0515a223	sw	x17,68(x11)	 x11:0x80025c60 x17:0xc8ecc18a PA:0x80025ca4 store:0xc8ecc18a load:0xffffffff
     1591077000	     79452	800025c0	0525a423	sw	x18,72(x11)	 x11:0x80025c60 x18:0xffffffff PA:0x80025ca8 store:0xffffffff load:0xffffffff
     1591137000	     79455	800025c4	0535a623	sw	x19,76(x11)	 x11:0x80025c60 x19:0x00000000 PA:0x80025cac store:0x00000000 load:0xffffffff
     1591157000	     79456	800025c8	0545a823	sw	x20,80(x11)	 x11:0x80025c60 x20:0x00000000 PA:0x80025cb0 store:0x00000000 load:0xffffffff
     1591557000	     79476	800025cc	0555aa23	sw	x21,84(x11)	 x11:0x80025c60 x21:0x00000000 PA:0x80025cb4 store:0x00000000 load:0xffffffff
     1591617000	     79479	800025d0	0565ac23	sw	x22,88(x11)	 x11:0x80025c60 x22:0x00000000 PA:0x80025cb8 store:0x00000000 load:0xffffffff
     1591977000	     79497	800025d4	0575ae23	sw	x23,92(x11)	 x11:0x80025c60 x23:0x00000000 PA:0x80025cbc store:0x00000000 load:0xffffffff
     1592217000	     79509	800025d8	0785a023	sw	x24,96(x11)	 x11:0x80025c60 x24:0x00000000 PA:0x80025cc0 store:0x00000000 load:0xffffffff
     1592317000	     79514	800025dc	0795a223	sw	x25,100(x11)	 x11:0x80025c60 x25:0x00000001 PA:0x80025cc4 store:0x00000001 load:0xffffffff
     1592477000	     79522	800025e0	07a5a423	sw	x26,104(x11)	 x11:0x80025c60 x26:0x00000000 PA:0x80025cc8 store:0x00000000 load:0xffffffff
     1592497000	     79523	800025e4	07b5a623	sw	x27,108(x11)	 x11:0x80025c60 x27:0x27026000 PA:0x80025ccc store:0x27026000 load:0xffffffff
     1592537000	     79525	800025e8	07c5a823	sw	x28,112(x11)	 x11:0x80025c60 x28:0x00000697 PA:0x80025cd0 store:0x00000697 load:0xffffffff
     1592557000	     79526	800025ec	07d5aa23	sw	x29,116(x11)	 x11:0x80025c60 x29:0x00000000 PA:0x80025cd4 store:0x00000000 load:0xffffffff
     1592577000	     79527	800025f0	07e5ac23	sw	x30,120(x11)	 x11:0x80025c60 x30:0xfffff883 PA:0x80025cd8 store:0xfffff883 load:0xffffffff
     1592597000	     79528	800025f4	07f5ae23	sw	x31,124(x11)	 x11:0x80025c60 x31:0x00000009 PA:0x80025cdc store:0x00000009 load:0xffffffff
     1592617000	     79529	800025f8	000586b3	add	x13,x11,x0	 x11:0x80025c60  x0:0x00000000 x13=0x80025c60
     1592637000	     79530	800025fc	90000db7	lui	x27,0x90000	 x27=0x90000000
     1592657000	     79531	80002600	1df1	c.addi	x27,-4	 x27:0x90000000 x27=0x8ffffffc
     1592677000	     79532	80002602	4921	c.li	x18,8	 x18=0x00000008
     1592697000	     79533	80002604	0922	c.slli	x18,0x8	 x18:0x00000008 x18=0x00000800
     1592717000	     79534	80002606	00090913	addi	x18,x18,0	 x18:0x00000800 x18=0x00000800
     1592797000	     79538	8000260a	012da023	sw	x18,0(x27)	 x27:0x8ffffffc x18:0x00000800 PA:0x8ffffffc store:0x00000800 load:0xffffffff
     1592817000	     79539	8000260e	34102973	csrrs	x18,mepc,x0	  x0:0x00000000 x18=0x800091a8
     1592837000	     79540	80002612	34202973	csrrs	x18,mcause,x0	  x0:0x00000000 x18=0x00000002
     1592857000	     79541	80002616	4d8d	c.li	x27,3	 x27=0x00000003
     1592877000	     79542	80002618	01b91463	bne	x18,x27,80002620	 x18:0x00000002 x27:0x00000003
     1592917000	     79544	80002620	4da1	c.li	x27,8	 x27=0x00000008
     1592937000	     79545	80002622	05b90d63	beq	x18,x27,8000267c	 x18:0x00000002 x27:0x00000008
     1592957000	     79546	80002626	4da5	c.li	x27,9	 x27=0x00000009
     1592977000	     79547	80002628	05b90a63	beq	x18,x27,8000267c	 x18:0x00000002 x27:0x00000009
     1592997000	     79548	8000262c	4dad	c.li	x27,11	 x27=0x0000000b
     1593017000	     79549	8000262e	05b90763	beq	x18,x27,8000267c	 x18:0x00000002 x27:0x0000000b
     1593037000	     79550	80002632	4d85	c.li	x27,1	 x27=0x00000001
     1593057000	     79551	80002634	35b90363	beq	x18,x27,8000297a	 x18:0x00000002 x27:0x00000001
     1593077000	     79552	80002638	4d95	c.li	x27,5	 x27=0x00000005
     1593097000	     79553	8000263a	63b90963	beq	x18,x27,80002c6c	 x18:0x00000002 x27:0x00000005
     1593117000	     79554	8000263e	4d9d	c.li	x27,7	 x27=0x00000007
     1593137000	     79555	80002640	15b90ae3	beq	x18,x27,80002f94	 x18:0x00000002 x27:0x00000007
     1593157000	     79556	80002644	4db1	c.li	x27,12	 x27=0x0000000c
     1593177000	     79557	80002646	01b91463	bne	x18,x27,8000264e	 x18:0x00000002 x27:0x0000000c
     1593217000	     79559	8000264e	4db5	c.li	x27,13	 x27=0x0000000d
     1593237000	     79560	80002650	01b91463	bne	x18,x27,80002658	 x18:0x00000002 x27:0x0000000d
     1593277000	     79562	80002658	4dbd	c.li	x27,15	 x27=0x0000000f
     1593297000	     79563	8000265a	01b91463	bne	x18,x27,80002662	 x18:0x00000002 x27:0x0000000f
     1593337000	     79565	80002662	4d89	c.li	x27,2	 x27=0x00000002
     1593357000	     79566	80002664	01b91463	bne	x18,x27,8000266c	 x18:0x00000002 x27:0x00000002
     1593377000	     79567	80002668	45c0906f	jal	x0,8000bac4	  x0=0x00000000
     1593437000	     79570	8000bac4	90000db7	lui	x27,0x90000	 x27=0x90000000
     1593457000	     79571	8000bac8	1df1	c.addi	x27,-4	 x27:0x90000000 x27=0x8ffffffc
     1593477000	     79572	8000baca	4929	c.li	x18,10	 x18=0x0000000a
     1593497000	     79573	8000bacc	0922	c.slli	x18,0x8	 x18:0x0000000a x18=0x00000a00
     1593517000	     79574	8000bace	00090913	addi	x18,x18,0	 x18:0x00000a00 x18=0x00000a00
     1593577000	     79577	8000bad2	012da023	sw	x18,0(x27)	 x27:0x8ffffffc x18:0x00000a00 PA:0x8ffffffc store:0x00000a00 load:0xffffffff
     1593597000	     79578	8000bad6	90000db7	lui	x27,0x90000	 x27=0x90000000
     1593617000	     79579	8000bada	1df1	c.addi	x27,-4	 x27:0x90000000 x27=0x8ffffffc
     1593637000	     79580	8000badc	34200913	addi	x18,x0,834	  x0:0x00000000 x18=0x00000342
     1593657000	     79581	8000bae0	0922	c.slli	x18,0x8	 x18:0x00000342 x18=0x00034200
     1593677000	     79582	8000bae2	090d	c.addi	x18,3	 x18:0x00034200 x18=0x00034203
     1594237000	     79610	8000bae4	012da023	sw	x18,0(x27)	 x27:0x8ffffffc x18:0x00034203 PA:0x8ffffffc store:0x00034203 load:0xffffffff
     1594257000	     79611	8000bae8	34202973	csrrs	x18,mcause,x0	  x0:0x00000000 x18=0x00000002
     1594317000	     79614	8000baec	012da023	sw	x18,0(x27)	 x27:0x8ffffffc x18:0x00000002 PA:0x8ffffffc store:0x00000002 load:0xffffffff
     1594337000	     79615	8000baf0	34102973	csrrs	x18,mepc,x0	  x0:0x00000000 x18=0x800091a8
     1594357000	     79616	8000baf4	0911	c.addi	x18,4	 x18:0x800091a8 x18=0x800091ac
     1594377000	     79617	8000baf6	34191073	csrrw	x0,mepc,x18	 x18:0x800091ac  x0=0x00000000
     1594397000	     79618	8000bafa	000685b3	add	x11,x13,x0	 x13:0x80025c60  x0:0x00000000 x11=0x80025c60
     1594597000	     79628	8000bafe	0045a083	lw	x1,4(x11)	 x11:0x80025c60  x1=0x00000001 PA:0x80025c64 load:0x00000001
     1594677000	     79632	8000bb02	0085a103	lw	x2,8(x11)	 x11:0x80025c60  x2=0x00000000 PA:0x80025c68 load:0x00000000
     1594697000	     79633	8000bb06	00c5a183	lw	x3,12(x11)	 x11:0x80025c60  x3=0xffffffff PA:0x80025c6c load:0xffffffff
     1594837000	     79640	8000bb0a	0105a203	lw	x4,16(x11)	 x11:0x80025c60  x4=0x00000001 PA:0x80025c70 load:0x00000001
     1594897000	     79643	8000bb0e	0145a283	lw	x5,20(x11)	 x11:0x80025c60  x5=0x00000000 PA:0x80025c74 load:0x00000000
     1595017000	     79649	8000bb12	0185a303	lw	x6,24(x11)	 x11:0x80025c60  x6=0xffffffff PA:0x80025c78 load:0xffffffff
     1595477000	     79672	8000bb16	01c5a383	lw	x7,28(x11)	 x11:0x80025c60  x7=0x00000000 PA:0x80025c7c load:0x00000000
     1595537000	     79675	8000bb1a	5180	c.lw	x8,32(x11)	 x11:0x80025c60  x8=0xd23a5000 PA:0x80025c80 load:0xd23a5000
     1596137000	     79705	8000bb1c	51c4	c.lw	x9,36(x11)	 x11:0x80025c60  x9=0xc8ecc18a PA:0x80025c84 load:0xc8ecc18a
     1596237000	     79710	8000bb1e	5588	c.lw	x10,40(x11)	 x11:0x80025c60 x10=0xffffffff PA:0x80025c88 load:0xffffffff
     1596377000	     79717	8000bb20	55cc	c.lw	x11,44(x11)	 x11:0x80025c60 x11=0x80025c60 PA:0x80025c8c load:0x80025c60
     1596477000	     79722	8000bb22	5990	c.lw	x12,48(x11)	 x11:0x80025c60 x12=0x00000000 PA:0x80025c90 load:0x00000000
     1596537000	     79725	8000bb24	59d4	c.lw	x13,52(x11)	 x11:0x80025c60 x13=0x80025ce0 PA:0x80025c94 load:0x80025ce0
     1596557000	     79726	8000bb26	5d98	c.lw	x14,56(x11)	 x11:0x80025c60 x14=0x80025828 PA:0x80025c98 load:0x80025828
     1596637000	     79730	8000bb28	5ddc	c.lw	x15,60(x11)	 x11:0x80025c60 x15=0x00000000 PA:0x80025c9c load:0x00000000
     1596817000	     79739	8000bb2a	0405a803	lw	x16,64(x11)	 x11:0x80025c60 x16=0x00000000 PA:0x80025ca0 load:0x00000000
     1597317000	     79764	8000bb2e	0445a883	lw	x17,68(x11)	 x11:0x80025c60 x17=0xc8ecc18a PA:0x80025ca4 load:0xc8ecc18a
     1597377000	     79767	8000bb32	0485a903	lw	x18,72(x11)	 x11:0x80025c60 x18=0xffffffff PA:0x80025ca8 load:0xffffffff
     1597477000	     79772	8000bb36	04c5a983	lw	x19,76(x11)	 x11:0x80025c60 x19=0x00000000 PA:0x80025cac load:0x00000000
     1597637000	     79780	8000bb3a	0505aa03	lw	x20,80(x11)	 x11:0x80025c60 x20=0x00000000 PA:0x80025cb0 load:0x00000000
     1597657000	     79781	8000bb3e	0545aa83	lw	x21,84(x11)	 x11:0x80025c60 x21=0x00000000 PA:0x80025cb4 load:0x00000000
     1597677000	     79782	8000bb42	0585ab03	lw	x22,88(x11)	 x11:0x80025c60 x22=0x00000000 PA:0x80025cb8 load:0x00000000
     1597697000	     79783	8000bb46	05c5ab83	lw	x23,92(x11)	 x11:0x80025c60 x23=0x00000000 PA:0x80025cbc load:0x00000000
     1598037000	     79800	8000bb4a	0605ac03	lw	x24,96(x11)	 x11:0x80025c60 x24=0x00000000 PA:0x80025cc0 load:0x00000000
     1598097000	     79803	8000bb4e	0645ac83	lw	x25,100(x11)	 x11:0x80025c60 x25=0x00000001 PA:0x80025cc4 load:0x00000001
     1598117000	     79804	8000bb52	0685ad03	lw	x26,104(x11)	 x11:0x80025c60 x26=0x00000000 PA:0x80025cc8 load:0x00000000
     1598537000	     79825	8000bb56	06c5ad83	lw	x27,108(x11)	 x11:0x80025c60 x27=0x27026000 PA:0x80025ccc load:0x27026000
     1598597000	     79828	8000bb5a	0705ae03	lw	x28,112(x11)	 x11:0x80025c60 x28=0x00000697 PA:0x80025cd0 load:0x00000697
     1598797000	     79838	8000bb5e	0745ae83	lw	x29,116(x11)	 x11:0x80025c60 x29=0x00000000 PA:0x80025cd4 load:0x00000000
     1599137000	     79855	8000bb62	0785af03	lw	x30,120(x11)	 x11:0x80025c60 x30=0xfffff883 PA:0x80025cd8 load:0xfffff883
     1599277000	     79862	8000bb66	07c5af83	lw	x31,124(x11)	 x11:0x80025c60 x31=0x00000009 PA:0x80025cdc load:0x00000009
     1599297000	     79863	8000bb6a	08058593	addi	x11,x11,128	 x11:0x80025c60 x11=0x80025ce0
     1599317000	     79864	8000bb6e	000586b3	add	x13,x11,x0	 x11:0x80025ce0  x0:0x00000000 x13=0x80025ce0
     1599557000	     79876	8000bb72	428c	c.lw	x11,0(x13)	 x13:0x80025ce0 x11=0x80021e64 PA:0x80025ce0 load:0x80021e64
     1599577000	     79877	8000bb74	0691	c.addi	x13,4	 x13:0x80025ce0 x13=0x80025ce4
     1599597000	     79878	8000bb76	30200073	mret	
     1599657000	     79881	800091ac	02710c63	beq	x2,x7,800091e4	  x2:0x00000000  x7:0x00000000
     1599837000	     79890	800091e4	d4c12513	slti	x10,x2,-692	  x2:0x00000000 x10=0x00000000
     1599997000	     79898	800091e8	8715	c.srai	x14,0x5	 x14:0x80025828 x14=0xfc0012c1
     1600017000	     79899	800091ea	00ec1633	sll	x12,x24,x14	 x24:0x00000000 x14:0xfc0012c1 x12=0x00000000
     1600037000	     79900	800091ee	03176363	bltu	x14,x17,80009214	 x14:0xfc0012c1 x17:0xc8ecc18a
     1600137000	     79905	800091f2	40f65433	sra	x8,x12,x15	 x12:0x00000000 x15:0x00000000  x8=0x00000000
     1600177000	     79907	800091f6	02268963	beq	x13,x2,80009228	 x13:0x80025ce4  x2:0x00000000
     1600197000	     79908	800091fa	6c39	c.lui	x24,0xe	 x24=0x0000e000
     1600237000	     79910	800091fc	00201513	slli	x10,x0,0x2	  x0:0x00000000 x10=0x00000000
     1600397000	     79918	80009200	00ca	c.slli	x1,0x12	  x1:0x00000001  x1=0x00040000
     1600417000	     79919	80009202	0da48993	addi	x19,x9,218	  x9:0xc8ecc18a x19=0xc8ecc264
     1600437000	     79920	80009206	1398	c.addi4spn	x14,x2,480	 x14=0x000001e0
     1600457000	     79921	80009208	01b9dd63	bge	x19,x27,80009222	 x19:0xc8ecc264 x27:0x27026000
     1600617000	     79929	8000920c	3b402473	csrrs	x8,pmpaddr4,x0	  x0:0x00000000  x8=0x31111dba
     1600797000	     79938	80009210	005e9533	sll	x10,x29,x5	 x29:0x00000000  x5:0x00000000 x10=0x00000000
     1600917000	     79944	80009214	b85e51f3	csrrwi	x3,mhpmcounter5h,28	  x3=0x00000000
     1601077000	     79952	80009218	0040ddb3	srl	x27,x1,x4	  x1:0x00040000  x4:0x00000001 x27=0x00020000
     1601237000	     79960	8000921c	8e59	c.or	x12,x14	 x12:0x00000000 x14:0x000001e0 x12=0x000001e0
     1601257000	     79961	8000921e	01434d33	xor	x26,x6,x20	  x6:0xffffffff x20:0x00000000 x26=0xffffffff
     1601277000	     79962	80009222	855d	c.srai	x10,0x17	 x10:0x00000000 x10=0x00000000
     1601317000	     79964	80009224	022a1e33	mulh	x28,x20,x2	 x20:0x00000000  x2:0x00000000 x28=0x00000000
     1601337000	     79965	80009228	0000100f	fence.i	
     1601437000	     79970	8000922c	00f9ad33	slt	x26,x19,x15	 x19:0xc8ecc264 x15:0x00000000 x26=0x00000001
     1601477000	     79972	80009230	4f1a4037	lui	x0,0x4f1a4	  x0=0x00000000
     1601657000	     79981	80009234	02a6e733	rem	x14,x13,x10	 x13:0x80025ce4 x10:0x00000000 x14=0x80025ce4
     1602057000	     80001	80009238	019b6f63	bltu	x22,x25,80009256	 x22:0x00000000 x25:0x00000001
     1603217000	     80059	80009256	00b058b3	srl	x17,x0,x11	  x0:0x00000000 x11:0x80021e64 x17=0x00000000
     1603257000	     80061	8000925a	030b9a33	mulh	x20,x23,x16	 x23:0x00000000 x16:0x00000000 x20=0x00000000
     1603657000	     80081	8000925e	00519f93	slli	x31,x3,0x5	  x3:0x00000000 x31=0x00000000
     1603677000	     80082	80009262	b0b064f3	csrrsi	x9,mhpmcounter11,0	  x9=0x000000b8
     1603797000	     80088	80009266	01d35233	srl	x4,x6,x29	  x6:0xffffffff x29:0x00000000  x4=0xffffffff
     1603937000	     80095	8000926a	b913bf13	sltiu	x30,x7,-1135	  x7:0x00000000 x30=0x00000001
     1603957000	     80096	8000926e	56bd2c13	slti	x24,x26,1387	 x26:0x00000001 x24=0x00000001
     1603977000	     80097	80009272	8af1e093	ori	x1,x3,-1873	  x3:0x00000000  x1=0xfffff8af
     1604217000	     80109	80009276	027bbfb3	mulhu	x31,x23,x7	 x23:0x00000000  x7:0x00000000 x31=0x00000000
     1604237000	     80110	8000927a	00e89f13	slli	x30,x17,0xe	 x17:0x00000000 x30=0x00000000
     1604257000	     80111	8000927e	9bfd	c.andi	x15,-1	 x15:0x00000000 x15=0x00000000
     1604277000	     80112	80009280	60e5	c.lui	x1,0x19	  x1=0x00019000
     1604537000	     80125	80009282	9d1fa513	slti	x10,x31,-1583	 x31:0x00000000 x10=0x00000000
     1604557000	     80126	80009286	08f2	c.slli	x17,0x1c	 x17:0x00000000 x17=0x00000000
     1604577000	     80127	80009288	41f7df13	srai	x30,x15,0x1f	 x15:0x00000000 x30=0x00000000
     1604677000	     80132	8000928c	028ea1b3	mulhsu	x3,x29,x8	 x29:0x00000000  x8:0x31111dba  x3=0x00000000
     1604777000	     80137	80009290	6285	c.lui	x5,0x1	  x5=0x00001000
     1605197000	     80158	80009292	01e06233	or	x4,x0,x30	  x0:0x00000000 x30:0x00000000  x4=0x00000000
     1606177000	     80207	80009296	02557333	remu	x6,x10,x5	 x10:0x00000000  x5:0x00001000  x6=0x00000000
     1606217000	     80209	8000929a	02e02eb3	mulhsu	x29,x0,x14	  x0:0x00000000 x14:0x80025ce4 x29=0x00000000
     1606237000	     80210	8000929e	8eae	c.mv	x29,x11	  x0:0x00000000 x11:0x80021e64 x29=0x80021e64
     1606257000	     80211	800092a0	0846	c.slli	x16,0x11	 x16:0x00000000 x16=0x00000000
     1606277000	     80212	800092a2	157d	c.addi	x10,-1	 x10:0x00000000 x10=0xffffffff
     1606297000	     80213	800092a4	010f51b3	srl	x3,x30,x16	 x30:0x00000000 x16:0x00000000  x3=0x00000000
     1606317000	     80214	800092a8	03db0d63	beq	x22,x29,800092e2	 x22:0x00000000 x29:0x80021e64
     1606337000	     80215	800092ac	b7fc3413	sltiu	x8,x24,-1153	 x24:0x00000001  x8=0x00000001
     1606457000	     80221	800092b0	027a6d63	bltu	x20,x7,800092ea	 x20:0x00000000  x7:0x00000000
     1606537000	     80225	800092b4	8c0d	c.sub	x8,x11	  x8:0x00000001 x11:0x80021e64  x8=0x7ffde19d
     1606557000	     80226	800092b6	01b942b3	xor	x5,x18,x27	 x18:0xffffffff x27:0x00020000  x5=0xfffdffff
     1606577000	     80227	800092ba	8031	c.srli	x8,0xc	  x8:0x7ffde19d  x8=0x0007ffde
     1606597000	     80228	800092bc	8be6	c.mv	x23,x25	  x0:0x00000000 x25:0x00000001 x23=0x00000001
     1606617000	     80229	800092be	0ed5	c.addi	x29,21	 x29:0x80021e64 x29=0x80021e79
     1606637000	     80230	800092c0	30035573	csrrwi	x10,mstatus,6	 x10=0x00220088
     1606697000	     80233	800092c4	e229	c.bnez	x12,80009306	 x12:0x000001e0
     1608497000	     80323	80009306	02b3d4b3	divu	x9,x7,x11	  x7:0x00000000 x11:0x80021e64  x9=0x00000000
     1608517000	     80324	8000930a	00a1adb3	slt	x27,x3,x10	  x3:0x00000000 x10:0x00220088 x27=0x00000001
     1608537000	     80325	8000930e	40ae81b3	sub	x3,x29,x10	 x29:0x80021e79 x10:0x00220088  x3=0x7fe01df1
     1608557000	     80326	80009312	1f7d	c.addi	x30,-1	 x30:0x00000000 x30=0xffffffff
     1608577000	     80327	80009314	407e0db3	sub	x27,x28,x7	 x28:0x00000000  x7:0x00000000 x27=0x00000000
     1608597000	     80328	80009318	152aeb17	auipc	x22,0x152ae	 x22=0x952b7318
     1608617000	     80329	8000931c	00269333	sll	x6,x13,x2	 x13:0x80025ce4  x2:0x00000000  x6=0x80025ce4
     1608937000	     80345	80009320	51fd	c.li	x3,-1	  x3=0xffffffff
     1608957000	     80346	80009322	00208663	beq	x1,x2,8000932e	  x1:0x00019000  x2:0x00000000
     1608977000	     80347	80009326	6b05	c.lui	x22,0x1	 x22=0x00001000
     1608997000	     80348	80009328	e895	c.bnez	x9,8000935c	  x9:0x00000000
     1609017000	     80349	8000932a	f1191473	csrrw	x0,mvendorid,x0	  x0:0x00000000  x0=0x00000000
     1609417000	     80369	80002500	0800006f	jal	x0,80002580	  x0=0x00000000
     1609997000	     80398	80002580	16f1	c.addi	x13,-4	 x13:0x80025ce4 x13=0x80025ce0
     1610137000	     80405	80002582	c28c	c.sw	x11,0(x13)	 x13:0x80025ce0 x11:0x80021e64 PA:0x80025ce0 store:0x80021e64 load:0xffffffff
     1610157000	     80406	80002584	000685b3	add	x11,x13,x0	 x13:0x80025ce0  x0:0x00000000 x11=0x80025ce0
     1610337000	     80415	80002588	f8058593	addi	x11,x11,-128	 x11:0x80025ce0 x11=0x80025c60
     1610397000	     80418	8000258c	0015a223	sw	x1,4(x11)	 x11:0x80025c60  x1:0x00019000 PA:0x80025c64 store:0x00019000 load:0xffffffff
     1610697000	     80433	80002590	0025a423	sw	x2,8(x11)	 x11:0x80025c60  x2:0x00000000 PA:0x80025c68 store:0x00000000 load:0xffffffff
     1611177000	     80457	80002594	0035a623	sw	x3,12(x11)	 x11:0x80025c60  x3:0xffffffff PA:0x80025c6c store:0xffffffff load:0xffffffff
     1611237000	     80460	80002598	0045a823	sw	x4,16(x11)	 x11:0x80025c60  x4:0x00000000 PA:0x80025c70 store:0x00000000 load:0xffffffff
     1611837000	     80490	8000259c	0055aa23	sw	x5,20(x11)	 x11:0x80025c60  x5:0xfffdffff PA:0x80025c74 store:0xfffdffff load:0xffffffff
     1611897000	     80493	800025a0	0065ac23	sw	x6,24(x11)	 x11:0x80025c60  x6:0x80025ce4 PA:0x80025c78 store:0x80025ce4 load:0xffffffff
     1611917000	     80494	800025a4	0075ae23	sw	x7,28(x11)	 x11:0x80025c60  x7:0x00000000 PA:0x80025c7c store:0x00000000 load:0xffffffff
     1611937000	     80495	800025a8	d180	c.sw	x8,32(x11)	 x11:0x80025c60  x8:0x0007ffde PA:0x80025c80 store:0x0007ffde load:0xffffffff
     1612217000	     80509	800025aa	d1c4	c.sw	x9,36(x11)	 x11:0x80025c60  x9:0x00000000 PA:0x80025c84 store:0x00000000 load:0xffffffff
     1612277000	     80512	800025ac	d588	c.sw	x10,40(x11)	 x11:0x80025c60 x10:0x00220088 PA:0x80025c88 store:0x00220088 load:0xffffffff
     1612457000	     80521	800025ae	d5cc	c.sw	x11,44(x11)	 x11:0x80025c60 x11:0x80025c60 PA:0x80025c8c store:0x80025c60 load:0xffffffff
     1612697000	     80533	800025b0	d990	c.sw	x12,48(x11)	 x11:0x80025c60 x12:0x000001e0 PA:0x80025c90 store:0x000001e0 load:0xffffffff
     1612917000	     80544	800025b2	d9d4	c.sw	x13,52(x11)	 x11:0x80025c60 x13:0x80025ce0 PA:0x80025c94 store:0x80025ce0 load:0xffffffff
     1613337000	     80565	800025b4	dd98	c.sw	x14,56(x11)	 x11:0x80025c60 x14:0x80025ce4 PA:0x80025c98 store:0x80025ce4 load:0xffffffff
     1613397000	     80568	800025b6	dddc	c.sw	x15,60(x11)	 x11:0x80025c60 x15:0x00000000 PA:0x80025c9c store:0x00000000 load:0xffffffff
     1613417000	     80569	800025b8	0505a023	sw	x16,64(x11)	 x11:0x80025c60 x16:0x00000000 PA:0x80025ca0 store:0x00000000 load:0xffffffff
     1613497000	     80573	800025bc	0515a223	sw	x17,68(x11)	 x11:0x80025c60 x17:0x00000000 PA:0x80025ca4 store:0x00000000 load:0xffffffff
     1613557000	     80576	800025c0	0525a423	sw	x18,72(x11)	 x11:0x80025c60 x18:0xffffffff PA:0x80025ca8 store:0xffffffff load:0xffffffff
     1613697000	     80583	800025c4	0535a623	sw	x19,76(x11)	 x11:0x80025c60 x19:0xc8ecc264 PA:0x80025cac store:0xc8ecc264 load:0xffffffff
     1613797000	     80588	800025c8	0545a823	sw	x20,80(x11)	 x11:0x80025c60 x20:0x00000000 PA:0x80025cb0 store:0x00000000 load:0xffffffff
     1618897000	     80843	800025cc	0555aa23	sw	x21,84(x11)	 x11:0x80025c60 x21:0x00000000 PA:0x80025cb4 store:0x00000000 load:0xffffffff
     1619317000	     80864	800025d0	0565ac23	sw	x22,88(x11)	 x11:0x80025c60 x22:0x00001000 PA:0x80025cb8 store:0x00001000 load:0xffffffff
     1619377000	     80867	800025d4	0575ae23	sw	x23,92(x11)	 x11:0x80025c60 x23:0x00000001 PA:0x80025cbc store:0x00000001 load:0xffffffff
     1619397000	     80868	800025d8	0785a023	sw	x24,96(x11)	 x11:0x80025c60 x24:0x00000001 PA:0x80025cc0 store:0x00000001 load:0xffffffff
     1619417000	     80869	800025dc	0795a223	sw	x25,100(x11)	 x11:0x80025c60 x25:0x00000001 PA:0x80025cc4 store:0x00000001 load:0xffffffff
     1619437000	     80870	800025e0	07a5a423	sw	x26,104(x11)	 x11:0x80025c60 x26:0x00000001 PA:0x80025cc8 store:0x00000001 load:0xffffffff
     1619457000	     80871	800025e4	07b5a623	sw	x27,108(x11)	 x11:0x80025c60 x27:0x00000000 PA:0x80025ccc store:0x00000000 load:0xffffffff
     1619477000	     80872	800025e8	07c5a823	sw	x28,112(x11)	 x11:0x80025c60 x28:0x00000000 PA:0x80025cd0 store:0x00000000 load:0xffffffff
     1619677000	     80882	800025ec	07d5aa23	sw	x29,116(x11)	 x11:0x80025c60 x29:0x80021e79 PA:0x80025cd4 store:0x80021e79 load:0xffffffff
     1619697000	     80883	800025f0	07e5ac23	sw	x30,120(x11)	 x11:0x80025c60 x30:0xffffffff PA:0x80025cd8 store:0xffffffff load:0xffffffff
     1619917000	     80894	800025f4	07f5ae23	sw	x31,124(x11)	 x11:0x80025c60 x31:0x00000000 PA:0x80025cdc store:0x00000000 load:0xffffffff
     1619937000	     80895	800025f8	000586b3	add	x13,x11,x0	 x11:0x80025c60  x0:0x00000000 x13=0x80025c60
     1619957000	     80896	800025fc	90000db7	lui	x27,0x90000	 x27=0x90000000
     1619977000	     80897	80002600	1df1	c.addi	x27,-4	 x27:0x90000000 x27=0x8ffffffc
     1619997000	     80898	80002602	4921	c.li	x18,8	 x18=0x00000008
     1620017000	     80899	80002604	0922	c.slli	x18,0x8	 x18:0x00000008 x18=0x00000800
     1620037000	     80900	80002606	00090913	addi	x18,x18,0	 x18:0x00000800 x18=0x00000800
     1620497000	     80923	8000260a	012da023	sw	x18,0(x27)	 x27:0x8ffffffc x18:0x00000800 PA:0x8ffffffc store:0x00000800 load:0xffffffff
     1620517000	     80924	8000260e	34102973	csrrs	x18,mepc,x0	  x0:0x00000000 x18=0x8000932a
     1620537000	     80925	80002612	34202973	csrrs	x18,mcause,x0	  x0:0x00000000 x18=0x00000002
     1620557000	     80926	80002616	4d8d	c.li	x27,3	 x27=0x00000003
     1620577000	     80927	80002618	01b91463	bne	x18,x27,80002620	 x18:0x00000002 x27:0x00000003
     1620617000	     80929	80002620	4da1	c.li	x27,8	 x27=0x00000008
     1620637000	     80930	80002622	05b90d63	beq	x18,x27,8000267c	 x18:0x00000002 x27:0x00000008
     1620657000	     80931	80002626	4da5	c.li	x27,9	 x27=0x00000009
     1620917000	     80944	80002628	05b90a63	beq	x18,x27,8000267c	 x18:0x00000002 x27:0x00000009
     1620937000	     80945	8000262c	4dad	c.li	x27,11	 x27=0x0000000b
     1620957000	     80946	8000262e	05b90763	beq	x18,x27,8000267c	 x18:0x00000002 x27:0x0000000b
     1620977000	     80947	80002632	4d85	c.li	x27,1	 x27=0x00000001
     1620997000	     80948	80002634	35b90363	beq	x18,x27,8000297a	 x18:0x00000002 x27:0x00000001
     1621117000	     80954	80002638	4d95	c.li	x27,5	 x27=0x00000005
     1621177000	     80957	8000263a	63b90963	beq	x18,x27,80002c6c	 x18:0x00000002 x27:0x00000005
     1621197000	     80958	8000263e	4d9d	c.li	x27,7	 x27=0x00000007
     1621297000	     80963	80002640	15b90ae3	beq	x18,x27,80002f94	 x18:0x00000002 x27:0x00000007
     1621497000	     80973	80002644	4db1	c.li	x27,12	 x27=0x0000000c
     1621517000	     80974	80002646	01b91463	bne	x18,x27,8000264e	 x18:0x00000002 x27:0x0000000c
     1622297000	     81013	8000264e	4db5	c.li	x27,13	 x27=0x0000000d
     1622797000	     81038	80002650	01b91463	bne	x18,x27,80002658	 x18:0x00000002 x27:0x0000000d
     1623417000	     81069	80002658	4dbd	c.li	x27,15	 x27=0x0000000f
     1623437000	     81070	8000265a	01b91463	bne	x18,x27,80002662	 x18:0x00000002 x27:0x0000000f
     1623477000	     81072	80002662	4d89	c.li	x27,2	 x27=0x00000002
     1623497000	     81073	80002664	01b91463	bne	x18,x27,8000266c	 x18:0x00000002 x27:0x00000002
     1624197000	     81108	80002668	45c0906f	jal	x0,8000bac4	  x0=0x00000000
     1625137000	     81155	8000bac4	90000db7	lui	x27,0x90000	 x27=0x90000000
     1625317000	     81164	8000bac8	1df1	c.addi	x27,-4	 x27:0x90000000 x27=0x8ffffffc
     1625337000	     81165	8000baca	4929	c.li	x18,10	 x18=0x0000000a
     1625737000	     81185	8000bacc	0922	c.slli	x18,0x8	 x18:0x0000000a x18=0x00000a00
     1625857000	     81191	8000bace	00090913	addi	x18,x18,0	 x18:0x00000a00 x18=0x00000a00
     1626397000	     81218	8000bad2	012da023	sw	x18,0(x27)	 x27:0x8ffffffc x18:0x00000a00 PA:0x8ffffffc store:0x00000a00 load:0xffffffff
     1626417000	     81219	8000bad6	90000db7	lui	x27,0x90000	 x27=0x90000000
     1626437000	     81220	8000bada	1df1	c.addi	x27,-4	 x27:0x90000000 x27=0x8ffffffc
     1626457000	     81221	8000badc	34200913	addi	x18,x0,834	  x0:0x00000000 x18=0x00000342
     1626557000	     81226	8000bae0	0922	c.slli	x18,0x8	 x18:0x00000342 x18=0x00034200
     1626577000	     81227	8000bae2	090d	c.addi	x18,3	 x18:0x00034200 x18=0x00034203
     1626717000	     81234	8000bae4	012da023	sw	x18,0(x27)	 x27:0x8ffffffc x18:0x00034203 PA:0x8ffffffc store:0x00034203 load:0xffffffff
     1626997000	     81248	8000bae8	34202973	csrrs	x18,mcause,x0	  x0:0x00000000 x18=0x00000002
     1627057000	     81251	8000baec	012da023	sw	x18,0(x27)	 x27:0x8ffffffc x18:0x00000002 PA:0x8ffffffc store:0x00000002 load:0xffffffff
     1627077000	     81252	8000baf0	34102973	csrrs	x18,mepc,x0	  x0:0x00000000 x18=0x8000932a
     1627097000	     81253	8000baf4	0911	c.addi	x18,4	 x18:0x8000932a x18=0x8000932e
     1627337000	     81265	8000baf6	34191073	csrrw	x0,mepc,x18	 x18:0x8000932e  x0=0x00000000
     1627357000	     81266	8000bafa	000685b3	add	x11,x13,x0	 x13:0x80025c60  x0:0x00000000 x11=0x80025c60
     1627537000	     81275	8000bafe	0045a083	lw	x1,4(x11)	 x11:0x80025c60  x1=0x00019000 PA:0x80025c64 load:0x00019000
     1627817000	     81289	8000bb02	0085a103	lw	x2,8(x11)	 x11:0x80025c60  x2=0x00000000 PA:0x80025c68 load:0x00000000
     1627877000	     81292	8000bb06	00c5a183	lw	x3,12(x11)	 x11:0x80025c60  x3=0xffffffff PA:0x80025c6c load:0xffffffff
     1627897000	     81293	8000bb0a	0105a203	lw	x4,16(x11)	 x11:0x80025c60  x4=0x00000000 PA:0x80025c70 load:0x00000000
     1628057000	     81301	8000bb0e	0145a283	lw	x5,20(x11)	 x11:0x80025c60  x5=0xfffdffff PA:0x80025c74 load:0xfffdffff
     1628637000	     81330	8000bb12	0185a303	lw	x6,24(x11)	 x11:0x80025c60  x6=0x80025ce4 PA:0x80025c78 load:0x80025ce4
     1628697000	     81333	8000bb16	01c5a383	lw	x7,28(x11)	 x11:0x80025c60  x7=0x00000000 PA:0x80025c7c load:0x00000000
     1628717000	     81334	8000bb1a	5180	c.lw	x8,32(x11)	 x11:0x80025c60  x8=0x0007ffde PA:0x80025c80 load:0x0007ffde
     1628737000	     81335	8000bb1c	51c4	c.lw	x9,36(x11)	 x11:0x80025c60  x9=0x00000000 PA:0x80025c84 load:0x00000000
     1628777000	     81337	8000bb1e	5588	c.lw	x10,40(x11)	 x11:0x80025c60 x10=0x00220088 PA:0x80025c88 load:0x00220088
     1629377000	     81367	8000bb20	55cc	c.lw	x11,44(x11)	 x11:0x80025c60 x11=0x80025c60 PA:0x80025c8c load:0x80025c60
     1629457000	     81371	8000bb22	5990	c.lw	x12,48(x11)	 x11:0x80025c60 x12=0x000001e0 PA:0x80025c90 load:0x000001e0
     1629477000	     81372	8000bb24	59d4	c.lw	x13,52(x11)	 x11:0x80025c60 x13=0x80025ce0 PA:0x80025c94 load:0x80025ce0
     1629697000	     81383	8000bb26	5d98	c.lw	x14,56(x11)	 x11:0x80025c60 x14=0x80025ce4 PA:0x80025c98 load:0x80025ce4
     1629877000	     81392	8000bb28	5ddc	c.lw	x15,60(x11)	 x11:0x80025c60 x15=0x00000000 PA:0x80025c9c load:0x00000000
     1630337000	     81415	8000bb2a	0405a803	lw	x16,64(x11)	 x11:0x80025c60 x16=0x00000000 PA:0x80025ca0 load:0x00000000
     1630397000	     81418	8000bb2e	0445a883	lw	x17,68(x11)	 x11:0x80025c60 x17=0x00000000 PA:0x80025ca4 load:0x00000000
     1630477000	     81422	8000bb32	0485a903	lw	x18,72(x11)	 x11:0x80025c60 x18=0xffffffff PA:0x80025ca8 load:0xffffffff
     1630657000	     81431	8000bb36	04c5a983	lw	x19,76(x11)	 x11:0x80025c60 x19=0xc8ecc264 PA:0x80025cac load:0xc8ecc264
     1631117000	     81454	8000bb3a	0505aa03	lw	x20,80(x11)	 x11:0x80025c60 x20=0x00000000 PA:0x80025cb0 load:0x00000000
     1631177000	     81457	8000bb3e	0545aa83	lw	x21,84(x11)	 x11:0x80025c60 x21=0x00000000 PA:0x80025cb4 load:0x00000000
     1631197000	     81458	8000bb42	0585ab03	lw	x22,88(x11)	 x11:0x80025c60 x22=0x00001000 PA:0x80025cb8 load:0x00001000
     1631537000	     81475	8000bb46	05c5ab83	lw	x23,92(x11)	 x11:0x80025c60 x23=0x00000001 PA:0x80025cbc load:0x00000001
     1631797000	     81488	8000bb4a	0605ac03	lw	x24,96(x11)	 x11:0x80025c60 x24=0x00000001 PA:0x80025cc0 load:0x00000001
     1631897000	     81493	8000bb4e	0645ac83	lw	x25,100(x11)	 x11:0x80025c60 x25=0x00000001 PA:0x80025cc4 load:0x00000001
     1632437000	     81520	8000bb52	0685ad03	lw	x26,104(x11)	 x11:0x80025c60 x26=0x00000001 PA:0x80025cc8 load:0x00000001
     1632677000	     81532	8000bb56	06c5ad83	lw	x27,108(x11)	 x11:0x80025c60 x27=0x00000000 PA:0x80025ccc load:0x00000000
     1632957000	     81546	8000bb5a	0705ae03	lw	x28,112(x11)	 x11:0x80025c60 x28=0x00000000 PA:0x80025cd0 load:0x00000000
     1633017000	     81549	8000bb5e	0745ae83	lw	x29,116(x11)	 x11:0x80025c60 x29=0x80021e79 PA:0x80025cd4 load:0x80021e79
     1633037000	     81550	8000bb62	0785af03	lw	x30,120(x11)	 x11:0x80025c60 x30=0xffffffff PA:0x80025cd8 load:0xffffffff
     1633357000	     81566	8000bb66	07c5af83	lw	x31,124(x11)	 x11:0x80025c60 x31=0x00000000 PA:0x80025cdc load:0x00000000
     1633377000	     81567	8000bb6a	08058593	addi	x11,x11,128	 x11:0x80025c60 x11=0x80025ce0
     1633397000	     81568	8000bb6e	000586b3	add	x13,x11,x0	 x11:0x80025ce0  x0:0x00000000 x13=0x80025ce0
     1633557000	     81576	8000bb72	428c	c.lw	x11,0(x13)	 x13:0x80025ce0 x11=0x80021e64 PA:0x80025ce0 load:0x80021e64
     1633577000	     81577	8000bb74	0691	c.addi	x13,4	 x13:0x80025ce0 x13=0x80025ce4
     1633597000	     81578	8000bb76	30200073	mret	
     1633677000	     81582	8000932e	eb5f6d13	ori	x26,x30,-331	 x30:0xffffffff x26=0xffffffff
     1634417000	     81619	80009332	02ca7833	remu	x16,x20,x12	 x20:0x00000000 x12:0x000001e0 x16=0x00000000
     1634437000	     81620	80009336	40825213	srai	x4,x4,0x8	  x4:0x00000000  x4=0x00000000
     1634457000	     81621	8000933a	3b502173	csrrs	x2,pmpaddr5,x0	  x0:0x00000000  x2=0x355561fe
     1634477000	     81622	8000933e	8c9d	c.sub	x9,x15	  x9:0x00000000 x15:0x00000000  x9=0x00000000
     1634497000	     81623	80009340	007c5013	srli	x0,x24,0x7	 x24:0x00000001  x0=0x00000000
     1634517000	     81624	80009344	40675993	srai	x19,x14,0x6	 x14:0x80025ce4 x19=0xfe000973
     1634537000	     81625	80009348	cb05	c.beqz	x14,80009378	 x14:0x80025ce4
     1634557000	     81626	8000934a	8e31	c.xor	x12,x12	 x12:0x000001e0 x12:0x000001e0 x12=0x00000000
     1634597000	     81628	8000934c	03f527b3	mulhsu	x15,x10,x31	 x10:0x00220088 x31:0x00000000 x15=0x00000000
     1634617000	     81629	80009350	8d69	c.and	x10,x10	 x10:0x00220088 x10:0x00220088 x10=0x00220088
     1634637000	     81630	80009352	8241	c.srli	x12,0x10	 x12:0x00000000 x12=0x00000000
     1634657000	     81631	80009354	02b31963	bne	x6,x11,80009386	  x6:0x80025ce4 x11:0x80021e64
     1635897000	     81693	80009386	8f49	c.or	x14,x10	 x14:0x80025ce4 x10:0x00220088 x14=0x80225cec
     1636017000	     81699	80009388	014a2633	slt	x12,x20,x20	 x20:0x00000000 x20:0x00000000 x12=0x00000000
     1636197000	     81708	8000938c	01abd893	srli	x17,x23,0x1a	 x23:0x00000001 x17=0x00000000
     1636217000	     81709	80009390	0166c033	xor	x0,x13,x22	 x13:0x80025ce4 x22:0x00001000  x0=0x00000000
     1636237000	     81710	80009394	cb9d	c.beqz	x15,800093ca	 x15:0x00000000
     1636577000	     81727	800093ca	41bd8f33	sub	x30,x27,x27	 x27:0x00000000 x27:0x00000000 x30=0x00000000
     1637457000	     81771	800093ce	03385b33	divu	x22,x16,x19	 x16:0x00000000 x19:0xfe000973 x22=0x00000000
     1637477000	     81772	800093d2	0041b9b3	sltu	x19,x3,x4	  x3:0xffffffff  x4:0x00000000 x19=0x00000000
     1637517000	     81774	800093d6	03a6a933	mulhsu	x18,x13,x26	 x13:0x80025ce4 x26:0xffffffff x18=0x80025ce4
     1637537000	     81775	800093da	329e1e73	csrrw	x28,mhpmevent9,x28	 x28:0x00000000 x28=0x00000040
     1637597000	     81778	800093de	008fc0b3	xor	x1,x31,x8	 x31:0x00000000  x8:0x0007ffde  x1=0x0007ffde
     1638337000	     81815	800093e2	02834933	div	x18,x6,x8	  x6:0x80025ce4  x8:0x0007ffde x18=0xfffff001
     1638357000	     81816	800093e6	8cc5	c.or	x9,x9	  x9:0x00000000  x9:0x00000000  x9=0x00000000
     1638377000	     81817	800093e8	044cd063	bge	x25,x4,80009428	 x25:0x00000001  x4:0x00000000
     1638457000	     81821	80009428	401b5613	srai	x12,x22,0x1	 x22:0x00000000 x12=0x00000000
     1638477000	     81822	8000942c	00e4de33	srl	x28,x9,x14	  x9:0x00000000 x14:0x80225cec x28=0x00000000
     1638897000	     81843	80009430	29758913	addi	x18,x11,663	 x11:0x80021e64 x18=0x800220fb
     1638917000	     81844	80009434	41250f93	addi	x31,x10,1042	 x10:0x00220088 x31=0x0022049a
     1639657000	     81881	80009438	025f7cb3	remu	x25,x30,x5	 x30:0x00000000  x5:0xfffdffff x25=0x00000000
     1639677000	     81882	8000943c	eb940f13	addi	x30,x8,-327	  x8:0x0007ffde x30=0x0007fe97
     1639697000	     81883	80009440	340114f3	csrrw	x9,mscratch,x2	  x2:0x355561fe  x9=0x0000001d
     1639717000	     81884	80009444	ce8c3f93	sltiu	x31,x24,-792	 x24:0x00000001 x31=0x00000001
     1639737000	     81885	80009448	019b9463	bne	x23,x25,80009450	 x23:0x00000001 x25:0x00000000
     1640297000	     81913	80009450	9f0e	c.add	x30,x3	 x30:0x0007fe97  x3:0xffffffff x30=0x0007fe96
     1640317000	     81914	80009452	40d48b33	sub	x22,x9,x13	  x9:0x0000001d x13:0x80025ce4 x22=0x7ffda339
     1640337000	     81915	80009456	000fb233	sltu	x4,x31,x0	 x31:0x00000001  x0:0x00000000  x4=0x00000000
     1640757000	     81936	8000945a	0123ec33	or	x24,x7,x18	  x7:0x00000000 x18:0x800220fb x24=0x800220fb
     1640777000	     81937	8000945e	517d	c.li	x2,-1	  x2=0xffffffff
     1640797000	     81938	80009460	031f8433	mul	x8,x31,x17	 x31:0x00000001 x17:0x00000000  x8=0x00000000
     1640817000	     81939	80009464	015204b3	add	x9,x4,x21	  x4:0x00000000 x21:0x00000000  x9=0x00000000
     1641157000	     81956	80009468	02470763	beq	x14,x4,80009496	 x14:0x80225cec  x4:0x00000000
     1641257000	     81961	8000946c	8cbd	c.xor	x9,x15	  x9:0x00000000 x15:0x00000000  x9=0x00000000
     1641677000	     81982	8000946e	7b206cf3	csrrsi	x0,dscratch,0	  x0=0x00000000
     1641737000	     81985	80002500	0800006f	jal	x0,80002580	  x0=0x00000000
     1641797000	     81988	80002580	16f1	c.addi	x13,-4	 x13:0x80025ce4 x13=0x80025ce0
     1641917000	     81994	80002582	c28c	c.sw	x11,0(x13)	 x13:0x80025ce0 x11:0x80021e64 PA:0x80025ce0 store:0x80021e64 load:0xffffffff
     1641937000	     81995	80002584	000685b3	add	x11,x13,x0	 x13:0x80025ce0  x0:0x00000000 x11=0x80025ce0
     1641957000	     81996	80002588	f8058593	addi	x11,x11,-128	 x11:0x80025ce0 x11=0x80025c60
     1642197000	     82008	8000258c	0015a223	sw	x1,4(x11)	 x11:0x80025c60  x1:0x0007ffde PA:0x80025c64 store:0x0007ffde load:0xffffffff
     1642257000	     82011	80002590	0025a423	sw	x2,8(x11)	 x11:0x80025c60  x2:0xffffffff PA:0x80025c68 store:0xffffffff load:0xffffffff
     1642397000	     82018	80002594	0035a623	sw	x3,12(x11)	 x11:0x80025c60  x3:0xffffffff PA:0x80025c6c store:0xffffffff load:0xffffffff
     1642457000	     82021	80002598	0045a823	sw	x4,16(x11)	 x11:0x80025c60  x4:0x00000000 PA:0x80025c70 store:0x00000000 load:0xffffffff
     1642877000	     82042	8000259c	0055aa23	sw	x5,20(x11)	 x11:0x80025c60  x5:0xfffdffff PA:0x80025c74 store:0xfffdffff load:0xffffffff
     1643077000	     82052	800025a0	0065ac23	sw	x6,24(x11)	 x11:0x80025c60  x6:0x80025ce4 PA:0x80025c78 store:0x80025ce4 load:0xffffffff
     1643157000	     82056	800025a4	0075ae23	sw	x7,28(x11)	 x11:0x80025c60  x7:0x00000000 PA:0x80025c7c store:0x00000000 load:0xffffffff
     1643437000	     82070	800025a8	d180	c.sw	x8,32(x11)	 x11:0x80025c60  x8:0x00000000 PA:0x80025c80 store:0x00000000 load:0xffffffff
     1643537000	     82075	800025aa	d1c4	c.sw	x9,36(x11)	 x11:0x80025c60  x9:0x00000000 PA:0x80025c84 store:0x00000000 load:0xffffffff
     1643737000	     82085	800025ac	d588	c.sw	x10,40(x11)	 x11:0x80025c60 x10:0x00220088 PA:0x80025c88 store:0x00220088 load:0xffffffff
     1644077000	     82102	800025ae	d5cc	c.sw	x11,44(x11)	 x11:0x80025c60 x11:0x80025c60 PA:0x80025c8c store:0x80025c60 load:0xffffffff
     1644337000	     82115	800025b0	d990	c.sw	x12,48(x11)	 x11:0x80025c60 x12:0x00000000 PA:0x80025c90 store:0x00000000 load:0xffffffff
     1644357000	     82116	800025b2	d9d4	c.sw	x13,52(x11)	 x11:0x80025c60 x13:0x80025ce0 PA:0x80025c94 store:0x80025ce0 load:0xffffffff
     1644517000	     82124	800025b4	dd98	c.sw	x14,56(x11)	 x11:0x80025c60 x14:0x80225cec PA:0x80025c98 store:0x80225cec load:0xffffffff
     1644697000	     82133	800025b6	dddc	c.sw	x15,60(x11)	 x11:0x80025c60 x15:0x00000000 PA:0x80025c9c store:0x00000000 load:0xffffffff
     1644957000	     82146	800025b8	0505a023	sw	x16,64(x11)	 x11:0x80025c60 x16:0x00000000 PA:0x80025ca0 store:0x00000000 load:0xffffffff
     1644997000	     82148	800025bc	0515a223	sw	x17,68(x11)	 x11:0x80025c60 x17:0x00000000 PA:0x80025ca4 store:0x00000000 load:0xffffffff
     1645017000	     82149	800025c0	0525a423	sw	x18,72(x11)	 x11:0x80025c60 x18:0x800220fb PA:0x80025ca8 store:0x800220fb load:0xffffffff
     1645437000	     82170	800025c4	0535a623	sw	x19,76(x11)	 x11:0x80025c60 x19:0x00000000 PA:0x80025cac store:0x00000000 load:0xffffffff
     1645497000	     82173	800025c8	0545a823	sw	x20,80(x11)	 x11:0x80025c60 x20:0x00000000 PA:0x80025cb0 store:0x00000000 load:0xffffffff
     1645597000	     82178	800025cc	0555aa23	sw	x21,84(x11)	 x11:0x80025c60 x21:0x00000000 PA:0x80025cb4 store:0x00000000 load:0xffffffff
     1645657000	     82181	800025d0	0565ac23	sw	x22,88(x11)	 x11:0x80025c60 x22:0x7ffda339 PA:0x80025cb8 store:0x7ffda339 load:0xffffffff
     1645877000	     82192	800025d4	0575ae23	sw	x23,92(x11)	 x11:0x80025c60 x23:0x00000001 PA:0x80025cbc store:0x00000001 load:0xffffffff
     1645897000	     82193	800025d8	0785a023	sw	x24,96(x11)	 x11:0x80025c60 x24:0x800220fb PA:0x80025cc0 store:0x800220fb load:0xffffffff
     1645917000	     82194	800025dc	0795a223	sw	x25,100(x11)	 x11:0x80025c60 x25:0x00000000 PA:0x80025cc4 store:0x00000000 load:0xffffffff
     1645937000	     82195	800025e0	07a5a423	sw	x26,104(x11)	 x11:0x80025c60 x26:0xffffffff PA:0x80025cc8 store:0xffffffff load:0xffffffff
     1646217000	     82209	800025e4	07b5a623	sw	x27,108(x11)	 x11:0x80025c60 x27:0x00000000 PA:0x80025ccc store:0x00000000 load:0xffffffff
     1646857000	     82241	800025e8	07c5a823	sw	x28,112(x11)	 x11:0x80025c60 x28:0x00000000 PA:0x80025cd0 store:0x00000000 load:0xffffffff
     1646917000	     82244	800025ec	07d5aa23	sw	x29,116(x11)	 x11:0x80025c60 x29:0x80021e79 PA:0x80025cd4 store:0x80021e79 load:0xffffffff
     1647117000	     82254	800025f0	07e5ac23	sw	x30,120(x11)	 x11:0x80025c60 x30:0x0007fe96 PA:0x80025cd8 store:0x0007fe96 load:0xffffffff
     1647177000	     82257	800025f4	07f5ae23	sw	x31,124(x11)	 x11:0x80025c60 x31:0x00000001 PA:0x80025cdc store:0x00000001 load:0xffffffff
     1647197000	     82258	800025f8	000586b3	add	x13,x11,x0	 x11:0x80025c60  x0:0x00000000 x13=0x80025c60
     1647217000	     82259	800025fc	90000db7	lui	x27,0x90000	 x27=0x90000000
     1647237000	     82260	80002600	1df1	c.addi	x27,-4	 x27:0x90000000 x27=0x8ffffffc
     1647257000	     82261	80002602	4921	c.li	x18,8	 x18=0x00000008
     1647277000	     82262	80002604	0922	c.slli	x18,0x8	 x18:0x00000008 x18=0x00000800
     1647297000	     82263	80002606	00090913	addi	x18,x18,0	 x18:0x00000800 x18=0x00000800
     1647357000	     82266	8000260a	012da023	sw	x18,0(x27)	 x27:0x8ffffffc x18:0x00000800 PA:0x8ffffffc store:0x00000800 load:0xffffffff
     1647377000	     82267	8000260e	34102973	csrrs	x18,mepc,x0	  x0:0x00000000 x18=0x8000946e
     1647397000	     82268	80002612	34202973	csrrs	x18,mcause,x0	  x0:0x00000000 x18=0x00000002
     1647417000	     82269	80002616	4d8d	c.li	x27,3	 x27=0x00000003
     1647437000	     82270	80002618	01b91463	bne	x18,x27,80002620	 x18:0x00000002 x27:0x00000003
     1647477000	     82272	80002620	4da1	c.li	x27,8	 x27=0x00000008
     1647497000	     82273	80002622	05b90d63	beq	x18,x27,8000267c	 x18:0x00000002 x27:0x00000008
     1647517000	     82274	80002626	4da5	c.li	x27,9	 x27=0x00000009
     1647537000	     82275	80002628	05b90a63	beq	x18,x27,8000267c	 x18:0x00000002 x27:0x00000009
     1647557000	     82276	8000262c	4dad	c.li	x27,11	 x27=0x0000000b
     1647577000	     82277	8000262e	05b90763	beq	x18,x27,8000267c	 x18:0x00000002 x27:0x0000000b
     1647597000	     82278	80002632	4d85	c.li	x27,1	 x27=0x00000001
     1647617000	     82279	80002634	35b90363	beq	x18,x27,8000297a	 x18:0x00000002 x27:0x00000001
     1647637000	     82280	80002638	4d95	c.li	x27,5	 x27=0x00000005
     1647657000	     82281	8000263a	63b90963	beq	x18,x27,80002c6c	 x18:0x00000002 x27:0x00000005
     1647677000	     82282	8000263e	4d9d	c.li	x27,7	 x27=0x00000007
     1647697000	     82283	80002640	15b90ae3	beq	x18,x27,80002f94	 x18:0x00000002 x27:0x00000007
     1647717000	     82284	80002644	4db1	c.li	x27,12	 x27=0x0000000c
     1647737000	     82285	80002646	01b91463	bne	x18,x27,8000264e	 x18:0x00000002 x27:0x0000000c
     1647777000	     82287	8000264e	4db5	c.li	x27,13	 x27=0x0000000d
     1647797000	     82288	80002650	01b91463	bne	x18,x27,80002658	 x18:0x00000002 x27:0x0000000d
     1647837000	     82290	80002658	4dbd	c.li	x27,15	 x27=0x0000000f
     1647857000	     82291	8000265a	01b91463	bne	x18,x27,80002662	 x18:0x00000002 x27:0x0000000f
     1647897000	     82293	80002662	4d89	c.li	x27,2	 x27=0x00000002
     1647917000	     82294	80002664	01b91463	bne	x18,x27,8000266c	 x18:0x00000002 x27:0x00000002
     1647937000	     82295	80002668	45c0906f	jal	x0,8000bac4	  x0=0x00000000
     1647977000	     82297	8000bac4	90000db7	lui	x27,0x90000	 x27=0x90000000
     1647997000	     82298	8000bac8	1df1	c.addi	x27,-4	 x27:0x90000000 x27=0x8ffffffc
     1648017000	     82299	8000baca	4929	c.li	x18,10	 x18=0x0000000a
     1648037000	     82300	8000bacc	0922	c.slli	x18,0x8	 x18:0x0000000a x18=0x00000a00
     1648057000	     82301	8000bace	00090913	addi	x18,x18,0	 x18:0x00000a00 x18=0x00000a00
     1648517000	     82324	8000bad2	012da023	sw	x18,0(x27)	 x27:0x8ffffffc x18:0x00000a00 PA:0x8ffffffc store:0x00000a00 load:0xffffffff
     1648537000	     82325	8000bad6	90000db7	lui	x27,0x90000	 x27=0x90000000
     1648557000	     82326	8000bada	1df1	c.addi	x27,-4	 x27:0x90000000 x27=0x8ffffffc
     1648577000	     82327	8000badc	34200913	addi	x18,x0,834	  x0:0x00000000 x18=0x00000342
     1648597000	     82328	8000bae0	0922	c.slli	x18,0x8	 x18:0x00000342 x18=0x00034200
     1648617000	     82329	8000bae2	090d	c.addi	x18,3	 x18:0x00034200 x18=0x00034203
     1648677000	     82332	8000bae4	012da023	sw	x18,0(x27)	 x27:0x8ffffffc x18:0x00034203 PA:0x8ffffffc store:0x00034203 load:0xffffffff
     1648697000	     82333	8000bae8	34202973	csrrs	x18,mcause,x0	  x0:0x00000000 x18=0x00000002
     1648717000	     82334	8000baec	012da023	sw	x18,0(x27)	 x27:0x8ffffffc x18:0x00000002 PA:0x8ffffffc store:0x00000002 load:0xffffffff
     1648737000	     82335	8000baf0	34102973	csrrs	x18,mepc,x0	  x0:0x00000000 x18=0x8000946e
     1648757000	     82336	8000baf4	0911	c.addi	x18,4	 x18:0x8000946e x18=0x80009472
     1648777000	     82337	8000baf6	34191073	csrrw	x0,mepc,x18	 x18:0x80009472  x0=0x00000000
     1648797000	     82338	8000bafa	000685b3	add	x11,x13,x0	 x13:0x80025c60  x0:0x00000000 x11=0x80025c60
     1649057000	     82351	8000bafe	0045a083	lw	x1,4(x11)	 x11:0x80025c60  x1=0x0007ffde PA:0x80025c64 load:0x0007ffde
     1658377000	     82817	8000bb02	0085a103	lw	x2,8(x11)	 x11:0x80025c60  x2=0xffffffff PA:0x80025c68 load:0xffffffff
     1658437000	     82820	8000bb06	00c5a183	lw	x3,12(x11)	 x11:0x80025c60  x3=0xffffffff PA:0x80025c6c load:0xffffffff
     1658517000	     82824	8000bb0a	0105a203	lw	x4,16(x11)	 x11:0x80025c60  x4=0x00000000 PA:0x80025c70 load:0x00000000
     1658737000	     82835	8000bb0e	0145a283	lw	x5,20(x11)	 x11:0x80025c60  x5=0xfffdffff PA:0x80025c74 load:0xfffdffff
     1658797000	     82838	8000bb12	0185a303	lw	x6,24(x11)	 x11:0x80025c60  x6=0x80025ce4 PA:0x80025c78 load:0x80025ce4
     1658817000	     82839	8000bb16	01c5a383	lw	x7,28(x11)	 x11:0x80025c60  x7=0x00000000 PA:0x80025c7c load:0x00000000
     1658837000	     82840	8000bb1a	5180	c.lw	x8,32(x11)	 x11:0x80025c60  x8=0x00000000 PA:0x80025c80 load:0x00000000
     1658977000	     82847	8000bb1c	51c4	c.lw	x9,36(x11)	 x11:0x80025c60  x9=0x00000000 PA:0x80025c84 load:0x00000000
     1659097000	     82853	8000bb1e	5588	c.lw	x10,40(x11)	 x11:0x80025c60 x10=0x00220088 PA:0x80025c88 load:0x00220088
     1659157000	     82856	8000bb20	55cc	c.lw	x11,44(x11)	 x11:0x80025c60 x11=0x80025c60 PA:0x80025c8c load:0x80025c60
     1659257000	     82861	8000bb22	5990	c.lw	x12,48(x11)	 x11:0x80025c60 x12=0x00000000 PA:0x80025c90 load:0x00000000
     1659317000	     82864	8000bb24	59d4	c.lw	x13,52(x11)	 x11:0x80025c60 x13=0x80025ce0 PA:0x80025c94 load:0x80025ce0
     1659757000	     82886	8000bb26	5d98	c.lw	x14,56(x11)	 x11:0x80025c60 x14=0x80225cec PA:0x80025c98 load:0x80225cec
     1660197000	     82908	8000bb28	5ddc	c.lw	x15,60(x11)	 x11:0x80025c60 x15=0x00000000 PA:0x80025c9c load:0x00000000
     1660257000	     82911	8000bb2a	0405a803	lw	x16,64(x11)	 x11:0x80025c60 x16=0x00000000 PA:0x80025ca0 load:0x00000000
     1660277000	     82912	8000bb2e	0445a883	lw	x17,68(x11)	 x11:0x80025c60 x17=0x00000000 PA:0x80025ca4 load:0x00000000
     1660297000	     82913	8000bb32	0485a903	lw	x18,72(x11)	 x11:0x80025c60 x18=0x800220fb PA:0x80025ca8 load:0x800220fb
     1660597000	     82928	8000bb36	04c5a983	lw	x19,76(x11)	 x11:0x80025c60 x19=0x00000000 PA:0x80025cac load:0x00000000
     1660657000	     82931	8000bb3a	0505aa03	lw	x20,80(x11)	 x11:0x80025c60 x20=0x00000000 PA:0x80025cb0 load:0x00000000
     1660717000	     82934	8000bb3e	0545aa83	lw	x21,84(x11)	 x11:0x80025c60 x21=0x00000000 PA:0x80025cb4 load:0x00000000
     1661117000	     82954	8000bb42	0585ab03	lw	x22,88(x11)	 x11:0x80025c60 x22=0x7ffda339 PA:0x80025cb8 load:0x7ffda339
     1661497000	     82973	8000bb46	05c5ab83	lw	x23,92(x11)	 x11:0x80025c60 x23=0x00000001 PA:0x80025cbc load:0x00000001
     1662037000	     83000	8000bb4a	0605ac03	lw	x24,96(x11)	 x11:0x80025c60 x24=0x800220fb PA:0x80025cc0 load:0x800220fb
     1662457000	     83021	8000bb4e	0645ac83	lw	x25,100(x11)	 x11:0x80025c60 x25=0x00000000 PA:0x80025cc4 load:0x00000000
     1662517000	     83024	8000bb52	0685ad03	lw	x26,104(x11)	 x11:0x80025c60 x26=0xffffffff PA:0x80025cc8 load:0xffffffff
     1662857000	     83041	8000bb56	06c5ad83	lw	x27,108(x11)	 x11:0x80025c60 x27=0x00000000 PA:0x80025ccc load:0x00000000
     1663317000	     83064	8000bb5a	0705ae03	lw	x28,112(x11)	 x11:0x80025c60 x28=0x00000000 PA:0x80025cd0 load:0x00000000
     1663377000	     83067	8000bb5e	0745ae83	lw	x29,116(x11)	 x11:0x80025c60 x29=0x80021e79 PA:0x80025cd4 load:0x80021e79
     1663517000	     83074	8000bb62	0785af03	lw	x30,120(x11)	 x11:0x80025c60 x30=0x0007fe96 PA:0x80025cd8 load:0x0007fe96
     1663617000	     83079	8000bb66	07c5af83	lw	x31,124(x11)	 x11:0x80025c60 x31=0x00000001 PA:0x80025cdc load:0x00000001
     1663637000	     83080	8000bb6a	08058593	addi	x11,x11,128	 x11:0x80025c60 x11=0x80025ce0
     1663657000	     83081	8000bb6e	000586b3	add	x13,x11,x0	 x11:0x80025ce0  x0:0x00000000 x13=0x80025ce0
     1664017000	     83099	8000bb72	428c	c.lw	x11,0(x13)	 x13:0x80025ce0 x11=0x80021e64 PA:0x80025ce0 load:0x80021e64
     1664037000	     83100	8000bb74	0691	c.addi	x13,4	 x13:0x80025ce0 x13=0x80025ce4
     1664057000	     83101	8000bb76	30200073	mret	
     1664137000	     83105	80009472	325079f3	csrrci	x19,mhpmevent5,0	 x19=0x00000004
     1664157000	     83106	80009476	b0606673	csrrsi	x12,mhpmcounter6,0	 x12=0x0000017f
     1664177000	     83107	8000947a	30a81873	csrrw	x16,0x30a,x16	 x16:0x00000000 x16=0x00000000
     1664237000	     83110	8000947e	7a206af3	csrrsi	x21,tdata2,0	 x21=0x00000000
     1664257000	     83111	80009482	0ff0000f	fence	iorw,iorw	
     1664277000	     83112	80009486	8cdd	c.or	x9,x15	  x9:0x00000000 x15:0x00000000  x9=0x00000000
     1664297000	     83113	80009488	30403173	csrrc	x2,mie,x0	  x0:0x00000000  x2=0x00000000
     1664317000	     83114	8000948c	0001	c.addi	x0,0	  x0:0x00000000  x0=0x00000000
     1664337000	     83115	8000948e	3b807573	csrrci	x10,pmpaddr8,0	 x10=0x02222ecb
     1664457000	     83121	80009492	b89558f3	csrrwi	x17,mhpmcounter9h,10	 x17=0x00000000
     1664517000	     83124	80009496	014f2133	slt	x2,x30,x20	 x30:0x0007fe96 x20:0x00000000  x2=0x00000000
     1664537000	     83125	8000949a	0001	c.addi	x0,0	  x0:0x00000000  x0=0x00000000
     1664837000	     83140	8000949c	0034d193	srli	x3,x9,0x3	  x9:0x00000000  x3=0x00000000
     1664857000	     83141	800094a0	02fdc163	blt	x27,x15,800094c2	 x27:0x00000000 x15:0x00000000
     1664997000	     83148	800094a4	03929933	mulh	x18,x5,x25	  x5:0xfffdffff x25:0x00000000 x18=0x00000000
     1665217000	     83159	800094a8	40fc8733	sub	x14,x25,x15	 x25:0x00000000 x15:0x00000000 x14=0x00000000
     1665237000	     83160	800094ac	1dfd	c.addi	x27,-1	 x27:0x00000000 x27=0xffffffff
     1665657000	     83181	800094ae	3106d373	csrrwi	x6,0x310,13	  x6=0x00000000
     1665717000	     83184	800094b2	b0345173	csrrwi	x2,mhpmcounter3,8	  x2=0x040004fd
     1665777000	     83187	800094b6	02178433	mul	x8,x15,x1	 x15:0x00000000  x1:0x0007ffde  x8=0x00000000
     1665797000	     83188	800094ba	01a05c13	srli	x24,x0,0x1a	  x0:0x00000000 x24=0x00000000
     1665937000	     83195	800094be	92a4cd13	xori	x26,x9,-1750	  x9:0x00000000 x26=0xfffff92a
     1665957000	     83196	800094c2	9f16	c.add	x30,x5	 x30:0x0007fe96  x5:0xfffdffff x30=0x0005fe95
     1665977000	     83197	800094c4	3b607a73	csrrci	x20,pmpaddr6,0	 x20=0x3999a642
     1665997000	     83198	800094c8	02a10733	mul	x14,x2,x10	  x2:0x040004fd x10:0x02222ecb x14=0xd0836a9f
     1666017000	     83199	800094cc	8cf5	c.and	x9,x13	  x9:0x00000000 x13:0x80025ce4  x9=0x00000000
     1666037000	     83200	800094ce	01a11f33	sll	x30,x2,x26	  x2:0x040004fd x26:0xfffff92a x30=0x0013f400
     1666357000	     83216	800094d2	40a1d533	sra	x10,x3,x10	  x3:0x00000000 x10:0x02222ecb x10=0x00000000
     1666377000	     83217	800094d6	0b18	c.addi4spn	x14,x2,400	 x14=0x0400068d
     1666397000	     83218	800094d8	30001c73	csrrw	x24,mstatus,x0	  x0:0x00000000 x24=0x00000080
     1666457000	     83221	800094dc	00f95893	srli	x17,x18,0xf	 x18:0x00000000 x17=0x00000000
     1666797000	     83238	800094e0	db530913	addi	x18,x6,-587	  x6:0x00000000 x18=0xfffffdb5
     1666917000	     83244	800094e4	00ef1db3	sll	x27,x30,x14	 x30:0x0013f400 x14:0x0400068d x27=0x7e800000
     1666937000	     83245	800094e8	e811	c.bnez	x8,800094fc	  x8:0x00000000
     1666957000	     83246	800094ea	8e79	c.and	x12,x14	 x12:0x0000017f x14:0x0400068d x12=0x0000000d
     1666977000	     83247	800094ec	8455	c.srai	x8,0x15	  x8:0x00000000  x8=0x00000000
     1666997000	     83248	800094ee	00f7ecb3	or	x25,x15,x15	 x15:0x00000000 x15:0x00000000 x25=0x00000000
     1667037000	     83250	800094f2	027c6833	rem	x16,x24,x7	 x24:0x00000080  x7:0x00000000 x16=0x00000080
     1667817000	     83289	800094f6	02cf79b3	remu	x19,x30,x12	 x30:0x0013f400 x12:0x0000000d x19=0x00000004
     1667837000	     83290	800094fa	850d	c.srai	x10,0x3	 x10:0x00000000 x10=0x00000000
     1667857000	     83291	800094fc	d9959217	auipc	x4,0xd9959	  x4=0x599624fc
     1667877000	     83292	80009500	37740913	addi	x18,x8,887	  x8:0x00000000 x18=0x00000377
     1667897000	     83293	80009504	40215f93	srai	x31,x2,0x2	  x2:0x040004fd x31=0x0100013f
     1667917000	     83294	80009508	02ad8d63	beq	x27,x10,80009542	 x27:0x7e800000 x10:0x00000000
     1667937000	     83295	8000950c	1dfd	c.addi	x27,-1	 x27:0x7e800000 x27=0x7e7fffff
     1667957000	     83296	8000950e	e515	c.bnez	x10,8000953a	 x10:0x00000000
     1668377000	     83317	80009510	8c89	c.sub	x9,x10	  x9:0x00000000 x10:0x00000000  x9=0x00000000
     1668417000	     83319	80009512	03e72d33	mulhsu	x26,x14,x30	 x14:0x0400068d x30:0x0013f400 x26=0x00004fd0
     1668777000	     83337	80009516	01cb9a13	slli	x20,x23,0x1c	 x23:0x00000001 x20=0x10000000
     1668797000	     83338	8000951a	8fb1	c.xor	x15,x12	 x15:0x00000000 x12:0x0000000d x15=0x0000000d
     1669097000	     83353	8000951c	c986af13	slti	x30,x13,-872	 x13:0x80025ce4 x30=0x00000001
     1669517000	     83374	80009520	9b7d	c.andi	x14,-1	 x14:0x0400068d x14=0x0400068d
     1669577000	     83377	80009522	b8b068f3	csrrsi	x17,mhpmcounter11h,0	 x17=0x00000000
     1669997000	     83398	80009526	b83a5ef3	csrrwi	x29,mhpmcounter3h,20	 x29=0x00000000
     1670397000	     83418	8000952a	0005de33	srl	x28,x11,x0	 x11:0x80021e64  x0:0x00000000 x28=0x80021e64
     1670417000	     83419	8000952e	0001	c.addi	x0,0	  x0:0x00000000  x0=0x00000000
     1670817000	     83439	80009530	0011b9b3	sltu	x19,x3,x1	  x3:0x00000000  x1:0x0007ffde x19=0x00000001
     1670837000	     83440	80009534	4195	c.li	x3,5	  x3=0x00000005
     1670977000	     83447	80009536	03f0ee63	bltu	x1,x31,80009572	  x1:0x0007ffde x31:0x0100013f
     1671417000	     83469	80009572	8d25	c.xor	x10,x9	 x10:0x00000000  x9:0x00000000 x10=0x00000000
     1671437000	     83470	80009574	00f1d463	bge	x3,x15,8000957c	  x3:0x00000005 x15:0x0000000d
     1671657000	     83481	80009578	01405f93	srli	x31,x0,0x14	  x0:0x00000000 x31=0x00000000
     1671997000	     83498	8000957c	0052f233	and	x4,x5,x5	  x5:0xfffdffff  x5:0xfffdffff  x4=0xfffdffff
     1672157000	     83506	80009580	9352	c.add	x6,x20	  x6:0x00000000 x20:0x10000000  x6=0x10000000
     1672177000	     83507	80009582	0001	c.addi	x0,0	  x0:0x00000000  x0=0x00000000
     1672317000	     83514	80009584	419108b3	sub	x17,x2,x25	  x2:0x040004fd x25:0x00000000 x17=0x040004fd
     1672517000	     83524	80009588	7c12d673	csrrwi	x12,0x7c1,5	 x12=0x00000000
     1672577000	     83527	8000958c	01d9b533	sltu	x10,x19,x29	 x19:0x00000001 x29:0x00000000 x10=0x00000000
     1672597000	     83528	80009590	810d	c.srli	x10,0x3	 x10:0x00000000 x10=0x00000000
     1672677000	     83532	80009592	40c7de13	srai	x28,x15,0xc	 x15:0x0000000d x28=0x00000000
     1672697000	     83533	80009596	8e31	c.xor	x12,x12	 x12:0x00000000 x12:0x00000000 x12=0x00000000
     1672757000	     83536	80009598	020a3bb3	mulhu	x23,x20,x0	 x20:0x10000000  x0:0x00000000 x23=0x00000000
     1673157000	     83556	8000959c	6e75	c.lui	x28,0x1d	 x28=0x0001d000
     1673177000	     83557	8000959e	01a3e4b3	or	x9,x7,x26	  x7:0x00000000 x26:0x00004fd0  x9=0x00004fd0
     1673197000	     83558	800095a2	019b1293	slli	x5,x22,0x19	 x22:0x7ffda339  x5=0x72000000
     1673217000	     83559	800095a6	d6f28913	addi	x18,x5,-657	  x5:0x72000000 x18=0x71fffd6f
     1673637000	     83580	800095aa	01390c33	add	x24,x18,x19	 x18:0x71fffd6f x19:0x00000001 x24=0x71fffd70
     1673657000	     83581	800095ae	001ceeb3	or	x29,x25,x1	 x25:0x00000000  x1:0x0007ffde x29=0x0007ffde
     1673677000	     83582	800095b2	0000100f	fence.i	
     1674137000	     83605	800095b6	5ffd	c.li	x31,-1	 x31=0xffffffff
     1674157000	     83606	800095b8	8d4d	c.or	x10,x11	 x10:0x00000000 x11:0x80021e64 x10=0x80021e64
     1674177000	     83607	800095ba	61a5	c.lui	x3,0x9	  x3=0x00009000
     1674337000	     83615	800095bc	41018133	sub	x2,x3,x16	  x3:0x00009000 x16:0x00000080  x2=0x00008f80
     1674357000	     83616	800095c0	003faa33	slt	x20,x31,x3	 x31:0xffffffff  x3:0x00009000 x20=0x00000001
     1674557000	     83626	800095c4	03f06f63	bltu	x0,x31,80009602	  x0:0x00000000 x31:0xffffffff
     1674837000	     83640	80009602	028e48b3	div	x17,x28,x8	 x28:0x0001d000  x8:0x00000000 x17=0xffffffff
     1675017000	     83649	80009606	0276ed63	bltu	x13,x7,80009640	 x13:0x80025ce4  x7:0x00000000
     1675037000	     83650	8000960a	01c70f63	beq	x14,x28,80009628	 x14:0x0400068d x28:0x0001d000
     1675057000	     83651	8000960e	6355	c.lui	x6,0x15	  x6=0x00015000
     1675077000	     83652	80009610	0001	c.addi	x0,0	  x0:0x00000000  x0=0x00000000
     1675097000	     83653	80009612	0001	c.addi	x0,0	  x0:0x00000000  x0=0x00000000
     1675117000	     83654	80009614	018c3fb3	sltu	x31,x24,x24	 x24:0x71fffd70 x24:0x71fffd70 x31=0x00000000
     1675177000	     83657	80009618	ec4bc793	xori	x15,x23,-316	 x23:0x00000000 x15=0xfffffec4
     1676077000	     83702	8000961c	03cd5133	divu	x2,x26,x28	 x26:0x00004fd0 x28:0x0001d000  x2=0x00000000
     1676097000	     83703	80009620	0ff0000f	fence	iorw,iorw	
     1676117000	     83704	80009624	00c7da33	srl	x20,x15,x12	 x15:0xfffffec4 x12:0x00000000 x20=0xfffffec4
     1676137000	     83705	80009628	03850eb3	mul	x29,x10,x24	 x10:0x80021e64 x24:0x71fffd70 x29=0x82921fc0
     1676177000	     83707	8000962c	03d3a633	mulhsu	x12,x7,x29	  x7:0x00000000 x29:0x82921fc0 x12=0x00000000
     1676197000	     83708	80009630	01b46933	or	x18,x8,x27	  x8:0x00000000 x27:0x7e7fffff x18=0x7e7fffff
     1676217000	     83709	80009634	00199b33	sll	x22,x19,x1	 x19:0x00000001  x1:0x0007ffde x22=0x40000000
     1676757000	     83736	80009638	02fa	c.slli	x5,0x1e	  x5:0x72000000  x5=0x00000000
     1676777000	     83737	8000963a	6135	c.addi16sp	x2,352	  x2:0x00000000  x2=0x00000160
     1676797000	     83738	8000963c	f1307a73	csrrci	x20,mimpid,0	 x20=0x00000000
     1676837000	     83740	80009640	0394fd33	remu	x26,x9,x25	  x9:0x00004fd0 x25:0x00000000 x26=0x00004fd0
     1676857000	     83741	80009644	02588963	beq	x17,x5,80009676	 x17:0xffffffff  x5:0x00000000
     1676917000	     83744	80009648	80a9	c.srli	x9,0xa	  x9:0x00004fd0  x9=0x00000013
     1677137000	     83755	8000964a	00db1d93	slli	x27,x22,0xd	 x22:0x40000000 x27=0x00000000
     1677877000	     83792	8000964e	024c7eb3	remu	x29,x24,x4	 x24:0x71fffd70  x4:0xfffdffff x29=0x71fffd70
     1678617000	     83829	80009652	029f4033	div	x0,x30,x9	 x30:0x00000001  x9:0x00000013  x0=0x00000000
     1678637000	     83830	80009656	b86d37f3	csrrc	x15,mhpmcounter6h,x26	 x26:0x00004fd0 x15=0x00000000
     1678697000	     83833	8000965a	01bd7bb3	and	x23,x26,x27	 x26:0x00004fd0 x27:0x00000000 x23=0x00000000
     1678717000	     83834	8000965e	03320b33	mul	x22,x4,x19	  x4:0xfffdffff x19:0x00000001 x22=0xfffdffff
     1678737000	     83835	80009662	02ea0133	mul	x2,x20,x14	 x20:0x00000000 x14:0x0400068d  x2=0x00000000
     1678757000	     83836	80009666	0254dc63	bge	x9,x5,8000969e	  x9:0x00000013  x5:0x00000000
     1679557000	     83876	8000969e	b8a85373	csrrwi	x6,mhpmcounter10h,16	  x6=0x00000000
     1679617000	     83879	800096a2	1f80	c.addi4spn	x8,x2,1008	  x8=0x000003f0
     1679737000	     83885	800096a4	819df793	andi	x15,x27,-2023	 x27:0x00000000 x15=0x00000000
     1679757000	     83886	800096a8	8c8d	c.sub	x9,x11	  x9:0x00000013 x11:0x80021e64  x9=0x7ffde1af
     1679777000	     83887	800096aa	8811	c.andi	x8,4	  x8:0x000003f0  x8=0x00000000
     1679897000	     83893	800096ac	8795	c.srai	x15,0x5	 x15:0x00000000 x15=0x00000000
     1679917000	     83894	800096ae	9a72	c.add	x20,x28	 x20:0x00000000 x28:0x0001d000 x20=0x0001d000
     1679937000	     83895	800096b0	0c1c	c.addi4spn	x15,x2,528	 x15=0x00000210
     1679957000	     83896	800096b2	32b02b73	csrrs	x22,mhpmevent11,x0	  x0:0x00000000 x22=0x00000100
     1679977000	     83897	800096b6	7b202d73	csrrs	x0,dscratch,x0	  x0:0x00000000  x0=0x00000000
     1680617000	     83929	80002500	0800006f	jal	x0,80002580	  x0=0x00000000
     1681437000	     83970	80002580	16f1	c.addi	x13,-4	 x13:0x80025ce4 x13=0x80025ce0
     1681497000	     83973	80002582	c28c	c.sw	x11,0(x13)	 x13:0x80025ce0 x11:0x80021e64 PA:0x80025ce0 store:0x80021e64 load:0xffffffff
     1681517000	     83974	80002584	000685b3	add	x11,x13,x0	 x13:0x80025ce0  x0:0x00000000 x11=0x80025ce0
     1681577000	     83977	80002588	f8058593	addi	x11,x11,-128	 x11:0x80025ce0 x11=0x80025c60
     1681637000	     83980	8000258c	0015a223	sw	x1,4(x11)	 x11:0x80025c60  x1:0x0007ffde PA:0x80025c64 store:0x0007ffde load:0xffffffff
     1681777000	     83987	80002590	0025a423	sw	x2,8(x11)	 x11:0x80025c60  x2:0x00000000 PA:0x80025c68 store:0x00000000 load:0xffffffff
     1682537000	     84025	80002594	0035a623	sw	x3,12(x11)	 x11:0x80025c60  x3:0x00009000 PA:0x80025c6c store:0x00009000 load:0xffffffff
     1682597000	     84028	80002598	0045a823	sw	x4,16(x11)	 x11:0x80025c60  x4:0xfffdffff PA:0x80025c70 store:0xfffdffff load:0xffffffff
     1682617000	     84029	8000259c	0055aa23	sw	x5,20(x11)	 x11:0x80025c60  x5:0x00000000 PA:0x80025c74 store:0x00000000 load:0xffffffff
     1682637000	     84030	800025a0	0065ac23	sw	x6,24(x11)	 x11:0x80025c60  x6:0x00000000 PA:0x80025c78 store:0x00000000 load:0xffffffff
     1682697000	     84033	800025a4	0075ae23	sw	x7,28(x11)	 x11:0x80025c60  x7:0x00000000 PA:0x80025c7c store:0x00000000 load:0xffffffff
     1682897000	     84043	800025a8	d180	c.sw	x8,32(x11)	 x11:0x80025c60  x8:0x00000000 PA:0x80025c80 store:0x00000000 load:0xffffffff
     1682977000	     84047	800025aa	d1c4	c.sw	x9,36(x11)	 x11:0x80025c60  x9:0x7ffde1af PA:0x80025c84 store:0x7ffde1af load:0xffffffff
     1683037000	     84050	800025ac	d588	c.sw	x10,40(x11)	 x11:0x80025c60 x10:0x80021e64 PA:0x80025c88 store:0x80021e64 load:0xffffffff
     1683177000	     84057	800025ae	d5cc	c.sw	x11,44(x11)	 x11:0x80025c60 x11:0x80025c60 PA:0x80025c8c store:0x80025c60 load:0xffffffff
     1683357000	     84066	800025b0	d990	c.sw	x12,48(x11)	 x11:0x80025c60 x12:0x00000000 PA:0x80025c90 store:0x00000000 load:0xffffffff
     1683477000	     84072	800025b2	d9d4	c.sw	x13,52(x11)	 x11:0x80025c60 x13:0x80025ce0 PA:0x80025c94 store:0x80025ce0 load:0xffffffff
     1683977000	     84097	800025b4	dd98	c.sw	x14,56(x11)	 x11:0x80025c60 x14:0x0400068d PA:0x80025c98 store:0x0400068d load:0xffffffff
     1684237000	     84110	800025b6	dddc	c.sw	x15,60(x11)	 x11:0x80025c60 x15:0x00000210 PA:0x80025c9c store:0x00000210 load:0xffffffff
     1684657000	     84131	800025b8	0505a023	sw	x16,64(x11)	 x11:0x80025c60 x16:0x00000080 PA:0x80025ca0 store:0x00000080 load:0xffffffff
     1685317000	     84164	800025bc	0515a223	sw	x17,68(x11)	 x11:0x80025c60 x17:0xffffffff PA:0x80025ca4 store:0xffffffff load:0xffffffff
     1685377000	     84167	800025c0	0525a423	sw	x18,72(x11)	 x11:0x80025c60 x18:0x7e7fffff PA:0x80025ca8 store:0x7e7fffff load:0xffffffff
     1685397000	     84168	800025c4	0535a623	sw	x19,76(x11)	 x11:0x80025c60 x19:0x00000001 PA:0x80025cac store:0x00000001 load:0xffffffff
     1685617000	     84179	800025c8	0545a823	sw	x20,80(x11)	 x11:0x80025c60 x20:0x0001d000 PA:0x80025cb0 store:0x0001d000 load:0xffffffff
     1685837000	     84190	800025cc	0555aa23	sw	x21,84(x11)	 x11:0x80025c60 x21:0x00000000 PA:0x80025cb4 store:0x00000000 load:0xffffffff
     1685857000	     84191	800025d0	0565ac23	sw	x22,88(x11)	 x11:0x80025c60 x22:0x00000100 PA:0x80025cb8 store:0x00000100 load:0xffffffff
     1685877000	     84192	800025d4	0575ae23	sw	x23,92(x11)	 x11:0x80025c60 x23:0x00000000 PA:0x80025cbc store:0x00000000 load:0xffffffff
     1686297000	     84213	800025d8	0785a023	sw	x24,96(x11)	 x11:0x80025c60 x24:0x71fffd70 PA:0x80025cc0 store:0x71fffd70 load:0xffffffff
     1686357000	     84216	800025dc	0795a223	sw	x25,100(x11)	 x11:0x80025c60 x25:0x00000000 PA:0x80025cc4 store:0x00000000 load:0xffffffff
     1686377000	     84217	800025e0	07a5a423	sw	x26,104(x11)	 x11:0x80025c60 x26:0x00004fd0 PA:0x80025cc8 store:0x00004fd0 load:0xffffffff
     1686397000	     84218	800025e4	07b5a623	sw	x27,108(x11)	 x11:0x80025c60 x27:0x00000000 PA:0x80025ccc store:0x00000000 load:0xffffffff
     1686817000	     84239	800025e8	07c5a823	sw	x28,112(x11)	 x11:0x80025c60 x28:0x0001d000 PA:0x80025cd0 store:0x0001d000 load:0xffffffff
     1687277000	     84262	800025ec	07d5aa23	sw	x29,116(x11)	 x11:0x80025c60 x29:0x71fffd70 PA:0x80025cd4 store:0x71fffd70 load:0xffffffff
     1687337000	     84265	800025f0	07e5ac23	sw	x30,120(x11)	 x11:0x80025c60 x30:0x00000001 PA:0x80025cd8 store:0x00000001 load:0xffffffff
     1687357000	     84266	800025f4	07f5ae23	sw	x31,124(x11)	 x11:0x80025c60 x31:0x00000000 PA:0x80025cdc store:0x00000000 load:0xffffffff
     1687377000	     84267	800025f8	000586b3	add	x13,x11,x0	 x11:0x80025c60  x0:0x00000000 x13=0x80025c60
     1687397000	     84268	800025fc	90000db7	lui	x27,0x90000	 x27=0x90000000
     1687417000	     84269	80002600	1df1	c.addi	x27,-4	 x27:0x90000000 x27=0x8ffffffc
     1687437000	     84270	80002602	4921	c.li	x18,8	 x18=0x00000008
     1687457000	     84271	80002604	0922	c.slli	x18,0x8	 x18:0x00000008 x18=0x00000800
     1687517000	     84274	80002606	00090913	addi	x18,x18,0	 x18:0x00000800 x18=0x00000800
     1687977000	     84297	8000260a	012da023	sw	x18,0(x27)	 x27:0x8ffffffc x18:0x00000800 PA:0x8ffffffc store:0x00000800 load:0xffffffff
     1687997000	     84298	8000260e	34102973	csrrs	x18,mepc,x0	  x0:0x00000000 x18=0x800096b6
     1688017000	     84299	80002612	34202973	csrrs	x18,mcause,x0	  x0:0x00000000 x18=0x00000002
     1688037000	     84300	80002616	4d8d	c.li	x27,3	 x27=0x00000003
     1688057000	     84301	80002618	01b91463	bne	x18,x27,80002620	 x18:0x00000002 x27:0x00000003
     1688817000	     84339	80002620	4da1	c.li	x27,8	 x27=0x00000008
     1688857000	     84341	80002622	05b90d63	beq	x18,x27,8000267c	 x18:0x00000002 x27:0x00000008
     1688877000	     84342	80002626	4da5	c.li	x27,9	 x27=0x00000009
     1688897000	     84343	80002628	05b90a63	beq	x18,x27,8000267c	 x18:0x00000002 x27:0x00000009
     1688917000	     84344	8000262c	4dad	c.li	x27,11	 x27=0x0000000b
     1689037000	     84350	8000262e	05b90763	beq	x18,x27,8000267c	 x18:0x00000002 x27:0x0000000b
     1689057000	     84351	80002632	4d85	c.li	x27,1	 x27=0x00000001
     1689077000	     84352	80002634	35b90363	beq	x18,x27,8000297a	 x18:0x00000002 x27:0x00000001
     1689097000	     84353	80002638	4d95	c.li	x27,5	 x27=0x00000005
     1689257000	     84361	8000263a	63b90963	beq	x18,x27,80002c6c	 x18:0x00000002 x27:0x00000005
     1689277000	     84362	8000263e	4d9d	c.li	x27,7	 x27=0x00000007
     1689297000	     84363	80002640	15b90ae3	beq	x18,x27,80002f94	 x18:0x00000002 x27:0x00000007
     1689317000	     84364	80002644	4db1	c.li	x27,12	 x27=0x0000000c
     1689337000	     84365	80002646	01b91463	bne	x18,x27,8000264e	 x18:0x00000002 x27:0x0000000c
     1690057000	     84401	8000264e	4db5	c.li	x27,13	 x27=0x0000000d
     1690497000	     84423	80002650	01b91463	bne	x18,x27,80002658	 x18:0x00000002 x27:0x0000000d
     1690897000	     84443	80002658	4dbd	c.li	x27,15	 x27=0x0000000f
     1690917000	     84444	8000265a	01b91463	bne	x18,x27,80002662	 x18:0x00000002 x27:0x0000000f
     1691217000	     84459	80002662	4d89	c.li	x27,2	 x27=0x00000002
     1691237000	     84460	80002664	01b91463	bne	x18,x27,8000266c	 x18:0x00000002 x27:0x00000002
     1691257000	     84461	80002668	45c0906f	jal	x0,8000bac4	  x0=0x00000000
     1691737000	     84485	8000bac4	90000db7	lui	x27,0x90000	 x27=0x90000000
     1692117000	     84504	8000bac8	1df1	c.addi	x27,-4	 x27:0x90000000 x27=0x8ffffffc
     1692137000	     84505	8000baca	4929	c.li	x18,10	 x18=0x0000000a
     1692157000	     84506	8000bacc	0922	c.slli	x18,0x8	 x18:0x0000000a x18=0x00000a00
     1692197000	     84508	8000bace	00090913	addi	x18,x18,0	 x18:0x00000a00 x18=0x00000a00
     1692257000	     84511	8000bad2	012da023	sw	x18,0(x27)	 x27:0x8ffffffc x18:0x00000a00 PA:0x8ffffffc store:0x00000a00 load:0xffffffff
     1692277000	     84512	8000bad6	90000db7	lui	x27,0x90000	 x27=0x90000000
     1692297000	     84513	8000bada	1df1	c.addi	x27,-4	 x27:0x90000000 x27=0x8ffffffc
     1692317000	     84514	8000badc	34200913	addi	x18,x0,834	  x0:0x00000000 x18=0x00000342
     1692337000	     84515	8000bae0	0922	c.slli	x18,0x8	 x18:0x00000342 x18=0x00034200
     1692357000	     84516	8000bae2	090d	c.addi	x18,3	 x18:0x00034200 x18=0x00034203
     1692417000	     84519	8000bae4	012da023	sw	x18,0(x27)	 x27:0x8ffffffc x18:0x00034203 PA:0x8ffffffc store:0x00034203 load:0xffffffff
     1692437000	     84520	8000bae8	34202973	csrrs	x18,mcause,x0	  x0:0x00000000 x18=0x00000002
     1692477000	     84522	8000baec	012da023	sw	x18,0(x27)	 x27:0x8ffffffc x18:0x00000002 PA:0x8ffffffc store:0x00000002 load:0xffffffff
     1692797000	     84538	8000baf0	34102973	csrrs	x18,mepc,x0	  x0:0x00000000 x18=0x800096b6
     1692817000	     84539	8000baf4	0911	c.addi	x18,4	 x18:0x800096b6 x18=0x800096ba
     1692837000	     84540	8000baf6	34191073	csrrw	x0,mepc,x18	 x18:0x800096ba  x0=0x00000000
     1692857000	     84541	8000bafa	000685b3	add	x11,x13,x0	 x13:0x80025c60  x0:0x00000000 x11=0x80025c60
     1693277000	     84562	8000bafe	0045a083	lw	x1,4(x11)	 x11:0x80025c60  x1=0x0007ffde PA:0x80025c64 load:0x0007ffde
     1693597000	     84578	8000bb02	0085a103	lw	x2,8(x11)	 x11:0x80025c60  x2=0x00000000 PA:0x80025c68 load:0x00000000
     1693677000	     84582	8000bb06	00c5a183	lw	x3,12(x11)	 x11:0x80025c60  x3=0x00009000 PA:0x80025c6c load:0x00009000
     1693737000	     84585	8000bb0a	0105a203	lw	x4,16(x11)	 x11:0x80025c60  x4=0xfffdffff PA:0x80025c70 load:0xfffdffff
     1694277000	     84612	8000bb0e	0145a283	lw	x5,20(x11)	 x11:0x80025c60  x5=0x00000000 PA:0x80025c74 load:0x00000000
     1694457000	     84621	8000bb12	0185a303	lw	x6,24(x11)	 x11:0x80025c60  x6=0x00000000 PA:0x80025c78 load:0x00000000
     1694477000	     84622	8000bb16	01c5a383	lw	x7,28(x11)	 x11:0x80025c60  x7=0x00000000 PA:0x80025c7c load:0x00000000
     1694797000	     84638	8000bb1a	5180	c.lw	x8,32(x11)	 x11:0x80025c60  x8=0x00000000 PA:0x80025c80 load:0x00000000
     1694977000	     84647	8000bb1c	51c4	c.lw	x9,36(x11)	 x11:0x80025c60  x9=0x7ffde1af PA:0x80025c84 load:0x7ffde1af
     1695217000	     84659	8000bb1e	5588	c.lw	x10,40(x11)	 x11:0x80025c60 x10=0x80021e64 PA:0x80025c88 load:0x80021e64
     1695277000	     84662	8000bb20	55cc	c.lw	x11,44(x11)	 x11:0x80025c60 x11=0x80025c60 PA:0x80025c8c load:0x80025c60
     1695317000	     84664	8000bb22	5990	c.lw	x12,48(x11)	 x11:0x80025c60 x12=0x00000000 PA:0x80025c90 load:0x00000000
     1695377000	     84667	8000bb24	59d4	c.lw	x13,52(x11)	 x11:0x80025c60 x13=0x80025ce0 PA:0x80025c94 load:0x80025ce0
     1695397000	     84668	8000bb26	5d98	c.lw	x14,56(x11)	 x11:0x80025c60 x14=0x0400068d PA:0x80025c98 load:0x0400068d
     1695437000	     84670	8000bb28	5ddc	c.lw	x15,60(x11)	 x11:0x80025c60 x15=0x00000210 PA:0x80025c9c load:0x00000210
     1695797000	     84688	8000bb2a	0405a803	lw	x16,64(x11)	 x11:0x80025c60 x16=0x00000080 PA:0x80025ca0 load:0x00000080
     1695857000	     84691	8000bb2e	0445a883	lw	x17,68(x11)	 x11:0x80025c60 x17=0xffffffff PA:0x80025ca4 load:0xffffffff
     1695877000	     84692	8000bb32	0485a903	lw	x18,72(x11)	 x11:0x80025c60 x18=0x7e7fffff PA:0x80025ca8 load:0x7e7fffff
     1696577000	     84727	8000bb36	04c5a983	lw	x19,76(x11)	 x11:0x80025c60 x19=0x00000001 PA:0x80025cac load:0x00000001
     1696657000	     84731	8000bb3a	0505aa03	lw	x20,80(x11)	 x11:0x80025c60 x20=0x0001d000 PA:0x80025cb0 load:0x0001d000
     1696697000	     84733	8000bb3e	0545aa83	lw	x21,84(x11)	 x11:0x80025c60 x21=0x00000000 PA:0x80025cb4 load:0x00000000
     1696717000	     84734	8000bb42	0585ab03	lw	x22,88(x11)	 x11:0x80025c60 x22=0x00000100 PA:0x80025cb8 load:0x00000100
     1696977000	     84747	8000bb46	05c5ab83	lw	x23,92(x11)	 x11:0x80025c60 x23=0x00000000 PA:0x80025cbc load:0x00000000
     1697197000	     84758	8000bb4a	0605ac03	lw	x24,96(x11)	 x11:0x80025c60 x24=0x71fffd70 PA:0x80025cc0 load:0x71fffd70
     1697277000	     84762	8000bb4e	0645ac83	lw	x25,100(x11)	 x11:0x80025c60 x25=0x00000000 PA:0x80025cc4 load:0x00000000
     1697637000	     84780	8000bb52	0685ad03	lw	x26,104(x11)	 x11:0x80025c60 x26=0x00004fd0 PA:0x80025cc8 load:0x00004fd0
     1698217000	     84809	8000bb56	06c5ad83	lw	x27,108(x11)	 x11:0x80025c60 x27=0x00000000 PA:0x80025ccc load:0x00000000
     1698337000	     84815	8000bb5a	0705ae03	lw	x28,112(x11)	 x11:0x80025c60 x28=0x0001d000 PA:0x80025cd0 load:0x0001d000
     1698397000	     84818	8000bb5e	0745ae83	lw	x29,116(x11)	 x11:0x80025c60 x29=0x71fffd70 PA:0x80025cd4 load:0x71fffd70
     1698597000	     84828	8000bb62	0785af03	lw	x30,120(x11)	 x11:0x80025c60 x30=0x00000001 PA:0x80025cd8 load:0x00000001
     1698657000	     84831	8000bb66	07c5af83	lw	x31,124(x11)	 x11:0x80025c60 x31=0x00000000 PA:0x80025cdc load:0x00000000
     1698677000	     84832	8000bb6a	08058593	addi	x11,x11,128	 x11:0x80025c60 x11=0x80025ce0
     1698697000	     84833	8000bb6e	000586b3	add	x13,x11,x0	 x11:0x80025ce0  x0:0x00000000 x13=0x80025ce0
     1698877000	     84842	8000bb72	428c	c.lw	x11,0(x13)	 x13:0x80025ce0 x11=0x80021e64 PA:0x80025ce0 load:0x80021e64
     1698897000	     84843	8000bb74	0691	c.addi	x13,4	 x13:0x80025ce0 x13=0x80025ce4
     1698917000	     84844	8000bb76	30200073	mret	
     1698997000	     84848	800096ba	b035ab73	csrrs	x22,mhpmcounter3,x11	 x11:0x80021e64 x22=0x00000105
     1699077000	     84852	800096be	03cc2eb3	mulhsu	x29,x24,x28	 x24:0x71fffd70 x28:0x0001d000 x29=0x0000ce9f
     1699097000	     84853	800096c2	b5d66793	ori	x15,x12,-1187	 x12:0x00000000 x15=0xfffffb5d
     1699657000	     84881	800096c6	03c428b3	mulhsu	x17,x8,x28	  x8:0x00000000 x28:0x0001d000 x17=0x00000000
     1699677000	     84882	800096ca	8d59	c.or	x10,x14	 x10:0x80021e64 x14:0x0400068d x10=0x84021eed
     1700057000	     84901	800096cc	00eb5313	srli	x6,x22,0xe	 x22:0x00000105  x6=0x00000000
     1700077000	     84902	800096d0	b0789df3	csrrw	x27,mhpmcounter7,x17	 x17:0x00000000 x27=0x00000037
     1700137000	     84905	800096d4	07aa	c.slli	x15,0xa	 x15:0xfffffb5d x15=0xffed7400
     1700917000	     84944	800096d6	03bbde33	divu	x28,x23,x27	 x23:0x00000000 x27:0x00000037 x28=0x00000000
     1700937000	     84945	800096da	80ad	c.srli	x9,0xb	  x9:0x7ffde1af  x9=0x000fffbc
     1700957000	     84946	800096dc	03bc7e63	bgeu	x24,x27,80009718	 x24:0x71fffd70 x27:0x00000037
     1701317000	     84964	80009718	0120d793	srli	x15,x1,0x12	  x1:0x0007ffde x15=0x00000001
     1701337000	     84965	8000971c	32855ef3	csrrwi	x29,mhpmevent8,10	 x29=0x00000020
     1701397000	     84968	80009720	03e3d463	bge	x7,x30,80009748	  x7:0x00000000 x30:0x00000001
     1701417000	     84969	80009724	038182b3	mul	x5,x3,x24	  x3:0x00009000 x24:0x71fffd70  x5=0xfe8f0000
     1701497000	     84973	80009728	3765e913	ori	x18,x11,886	 x11:0x80021e64 x18=0x80021f76
     1701537000	     84975	8000972c	7a007f73	csrrci	x30,tselect,0	 x30=0x00000000
     1701557000	     84976	80009730	8d21	c.xor	x10,x8	 x10:0x84021eed  x8:0x00000000 x10=0x84021eed
     1701757000	     84986	80009732	01d6fe33	and	x28,x13,x29	 x13:0x80025ce4 x29:0x00000020 x28=0x00000020
     1701857000	     84991	80009736	02d89d63	bne	x17,x13,80009770	 x17:0x00000000 x13:0x80025ce4
     1702437000	     85020	80009770	019298b3	sll	x17,x5,x25	  x5:0xfe8f0000 x25:0x00000000 x17=0xfe8f0000
     1702617000	     85029	80009774	0239de63	bge	x19,x3,800097b0	 x19:0x00000001  x3:0x00009000
     1702637000	     85030	80009778	8c91	c.sub	x9,x12	  x9:0x000fffbc x12:0x00000000  x9=0x000fffbc
     1702697000	     85033	8000977a	000d0c63	beq	x26,x0,80009792	 x26:0x00004fd0  x0:0x00000000
     1702717000	     85034	8000977e	0708	c.addi4spn	x10,x2,896	 x10=0x00000380
     1702737000	     85035	80009780	00de3db3	sltu	x27,x28,x13	 x28:0x00000020 x13:0x80025ce4 x27=0x00000001
     1702917000	     85044	80009784	036381b3	mul	x3,x7,x22	  x7:0x00000000 x22:0x00000105  x3=0x00000000
     1702957000	     85046	80009788	03c21fb3	mulh	x31,x4,x28	  x4:0xfffdffff x28:0x00000020 x31=0xffffffff
     1703137000	     85055	8000978c	8269	c.srli	x12,0x1a	 x12:0x00000000 x12=0x00000000
     1703557000	     85076	8000978e	509d7893	andi	x17,x26,1289	 x26:0x00004fd0 x17=0x00000500
     1703597000	     85078	80009792	02097eb3	remu	x29,x18,x0	 x18:0x80021f76  x0:0x00000000 x29=0x80021f76
     1703617000	     85079	80009796	717d	c.addi16sp	x2,-16	  x2:0x00000000  x2=0xfffffff0
     1703637000	     85080	80009798	00c26a63	bltu	x4,x12,800097ac	  x4:0xfffdffff x12:0x00000000
     1703657000	     85081	8000979c	8f29	c.xor	x14,x10	 x14:0x0400068d x10:0x00000380 x14=0x0400050d
     1703677000	     85082	8000979e	0ff0000f	fence	iorw,iorw	
     1703797000	     85088	800097a2	018c3033	sltu	x0,x24,x24	 x24:0x71fffd70 x24:0x71fffd70  x0=0x00000000
     1703817000	     85089	800097a6	01815eb3	srl	x29,x2,x24	  x2:0xfffffff0 x24:0x71fffd70 x29=0x0000ffff
     1703837000	     85090	800097aa	4f49	c.li	x30,18	 x30=0x00000012
     1703857000	     85091	800097ac	035f6863	bltu	x30,x21,800097dc	 x30:0x00000012 x21:0x00000000
     1703917000	     85094	800097b0	0008c2b3	xor	x5,x17,x0	 x17:0x00000500  x0:0x00000000  x5=0x00000500
     1704157000	     85106	800097b4	015d1f93	slli	x31,x26,0x15	 x26:0x00004fd0 x31=0xfa000000
     1704197000	     85108	800097b8	8c8cff13	andi	x30,x25,-1848	 x25:0x00000000 x30=0x00000000
     1704937000	     85145	800097bc	03b9e7b3	rem	x15,x19,x27	 x19:0x00000001 x27:0x00000001 x15=0x00000000
     1704957000	     85146	800097c0	038d8b63	beq	x27,x24,800097f6	 x27:0x00000001 x24:0x71fffd70
     1704977000	     85147	800097c4	010127b3	slt	x15,x2,x16	  x2:0xfffffff0 x16:0x00000080 x15=0x00000001
     1705017000	     85149	800097c8	0357cab3	div	x21,x15,x21	 x15:0x00000001 x21:0x00000000 x21=0xffffffff
     1705037000	     85150	800097cc	00702fb3	slt	x31,x0,x7	  x0:0x00000000  x7:0x00000000 x31=0x00000000
     1705057000	     85151	800097d0	00c67933	and	x18,x12,x12	 x12:0x00000000 x12:0x00000000 x18=0x00000000
     1705077000	     85152	800097d4	f1311ef3	csrrw	x0,mimpid,x0	  x0:0x00000000  x0=0x00000000
     1705137000	     85155	80002500	0800006f	jal	x0,80002580	  x0=0x00000000
     1705197000	     85158	80002580	16f1	c.addi	x13,-4	 x13:0x80025ce4 x13=0x80025ce0
     1705277000	     85162	80002582	c28c	c.sw	x11,0(x13)	 x13:0x80025ce0 x11:0x80021e64 PA:0x80025ce0 store:0x80021e64 load:0xffffffff
     1705297000	     85163	80002584	000685b3	add	x11,x13,x0	 x13:0x80025ce0  x0:0x00000000 x11=0x80025ce0
     1705317000	     85164	80002588	f8058593	addi	x11,x11,-128	 x11:0x80025ce0 x11=0x80025c60
     1705777000	     85187	8000258c	0015a223	sw	x1,4(x11)	 x11:0x80025c60  x1:0x0007ffde PA:0x80025c64 store:0x0007ffde load:0xffffffff
     1705837000	     85190	80002590	0025a423	sw	x2,8(x11)	 x11:0x80025c60  x2:0xfffffff0 PA:0x80025c68 store:0xfffffff0 load:0xffffffff
     1706197000	     85208	80002594	0035a623	sw	x3,12(x11)	 x11:0x80025c60  x3:0x00000000 PA:0x80025c6c store:0x00000000 load:0xffffffff
     1706597000	     85228	80002598	0045a823	sw	x4,16(x11)	 x11:0x80025c60  x4:0xfffdffff PA:0x80025c70 store:0xfffdffff load:0xffffffff
     1706697000	     85233	8000259c	0055aa23	sw	x5,20(x11)	 x11:0x80025c60  x5:0x00000500 PA:0x80025c74 store:0x00000500 load:0xffffffff
     1707117000	     85254	800025a0	0065ac23	sw	x6,24(x11)	 x11:0x80025c60  x6:0x00000000 PA:0x80025c78 store:0x00000000 load:0xffffffff
     1707177000	     85257	800025a4	0075ae23	sw	x7,28(x11)	 x11:0x80025c60  x7:0x00000000 PA:0x80025c7c store:0x00000000 load:0xffffffff
     1707397000	     85268	800025a8	d180	c.sw	x8,32(x11)	 x11:0x80025c60  x8:0x00000000 PA:0x80025c80 store:0x00000000 load:0xffffffff
     1707417000	     85269	800025aa	d1c4	c.sw	x9,36(x11)	 x11:0x80025c60  x9:0x000fffbc PA:0x80025c84 store:0x000fffbc load:0xffffffff
     1707437000	     85270	800025ac	d588	c.sw	x10,40(x11)	 x11:0x80025c60 x10:0x00000380 PA:0x80025c88 store:0x00000380 load:0xffffffff
     1707657000	     85281	800025ae	d5cc	c.sw	x11,44(x11)	 x11:0x80025c60 x11:0x80025c60 PA:0x80025c8c store:0x80025c60 load:0xffffffff
     1708077000	     85302	800025b0	d990	c.sw	x12,48(x11)	 x11:0x80025c60 x12:0x00000000 PA:0x80025c90 store:0x00000000 load:0xffffffff
     1708137000	     85305	800025b2	d9d4	c.sw	x13,52(x11)	 x11:0x80025c60 x13:0x80025ce0 PA:0x80025c94 store:0x80025ce0 load:0xffffffff
     1708557000	     85326	800025b4	dd98	c.sw	x14,56(x11)	 x11:0x80025c60 x14:0x0400050d PA:0x80025c98 store:0x0400050d load:0xffffffff
     1708637000	     85330	800025b6	dddc	c.sw	x15,60(x11)	 x11:0x80025c60 x15:0x00000001 PA:0x80025c9c store:0x00000001 load:0xffffffff
     1708777000	     85337	800025b8	0505a023	sw	x16,64(x11)	 x11:0x80025c60 x16:0x00000080 PA:0x80025ca0 store:0x00000080 load:0xffffffff
     1709117000	     85354	800025bc	0515a223	sw	x17,68(x11)	 x11:0x80025c60 x17:0x00000500 PA:0x80025ca4 store:0x00000500 load:0xffffffff
     1709177000	     85357	800025c0	0525a423	sw	x18,72(x11)	 x11:0x80025c60 x18:0x00000000 PA:0x80025ca8 store:0x00000000 load:0xffffffff
     1709317000	     85364	800025c4	0535a623	sw	x19,76(x11)	 x11:0x80025c60 x19:0x00000001 PA:0x80025cac store:0x00000001 load:0xffffffff
     1709377000	     85367	800025c8	0545a823	sw	x20,80(x11)	 x11:0x80025c60 x20:0x0001d000 PA:0x80025cb0 store:0x0001d000 load:0xffffffff
     1709397000	     85368	800025cc	0555aa23	sw	x21,84(x11)	 x11:0x80025c60 x21:0xffffffff PA:0x80025cb4 store:0xffffffff load:0xffffffff
     1709417000	     85369	800025d0	0565ac23	sw	x22,88(x11)	 x11:0x80025c60 x22:0x00000105 PA:0x80025cb8 store:0x00000105 load:0xffffffff
     1709437000	     85370	800025d4	0575ae23	sw	x23,92(x11)	 x11:0x80025c60 x23:0x00000000 PA:0x80025cbc store:0x00000000 load:0xffffffff
     1709577000	     85377	800025d8	0785a023	sw	x24,96(x11)	 x11:0x80025c60 x24:0x71fffd70 PA:0x80025cc0 store:0x71fffd70 load:0xffffffff
     1709677000	     85382	800025dc	0795a223	sw	x25,100(x11)	 x11:0x80025c60 x25:0x00000000 PA:0x80025cc4 store:0x00000000 load:0xffffffff
     1710057000	     85401	800025e0	07a5a423	sw	x26,104(x11)	 x11:0x80025c60 x26:0x00004fd0 PA:0x80025cc8 store:0x00004fd0 load:0xffffffff
     1710117000	     85404	800025e4	07b5a623	sw	x27,108(x11)	 x11:0x80025c60 x27:0x00000001 PA:0x80025ccc store:0x00000001 load:0xffffffff
     1710177000	     85407	800025e8	07c5a823	sw	x28,112(x11)	 x11:0x80025c60 x28:0x00000020 PA:0x80025cd0 store:0x00000020 load:0xffffffff
     1710277000	     85412	800025ec	07d5aa23	sw	x29,116(x11)	 x11:0x80025c60 x29:0x0000ffff PA:0x80025cd4 store:0x0000ffff load:0xffffffff
     1710337000	     85415	800025f0	07e5ac23	sw	x30,120(x11)	 x11:0x80025c60 x30:0x00000000 PA:0x80025cd8 store:0x00000000 load:0xffffffff
     1710757000	     85436	800025f4	07f5ae23	sw	x31,124(x11)	 x11:0x80025c60 x31:0x00000000 PA:0x80025cdc store:0x00000000 load:0xffffffff
     1710777000	     85437	800025f8	000586b3	add	x13,x11,x0	 x11:0x80025c60  x0:0x00000000 x13=0x80025c60
     1710797000	     85438	800025fc	90000db7	lui	x27,0x90000	 x27=0x90000000
     1710817000	     85439	80002600	1df1	c.addi	x27,-4	 x27:0x90000000 x27=0x8ffffffc
     1710837000	     85440	80002602	4921	c.li	x18,8	 x18=0x00000008
     1710857000	     85441	80002604	0922	c.slli	x18,0x8	 x18:0x00000008 x18=0x00000800
     1710877000	     85442	80002606	00090913	addi	x18,x18,0	 x18:0x00000800 x18=0x00000800
     1711137000	     85455	8000260a	012da023	sw	x18,0(x27)	 x27:0x8ffffffc x18:0x00000800 PA:0x8ffffffc store:0x00000800 load:0xffffffff
     1711157000	     85456	8000260e	34102973	csrrs	x18,mepc,x0	  x0:0x00000000 x18=0x800097d4
     1711177000	     85457	80002612	34202973	csrrs	x18,mcause,x0	  x0:0x00000000 x18=0x00000002
     1711197000	     85458	80002616	4d8d	c.li	x27,3	 x27=0x00000003
     1711217000	     85459	80002618	01b91463	bne	x18,x27,80002620	 x18:0x00000002 x27:0x00000003
     1711257000	     85461	80002620	4da1	c.li	x27,8	 x27=0x00000008
     1711277000	     85462	80002622	05b90d63	beq	x18,x27,8000267c	 x18:0x00000002 x27:0x00000008
     1711297000	     85463	80002626	4da5	c.li	x27,9	 x27=0x00000009
     1711317000	     85464	80002628	05b90a63	beq	x18,x27,8000267c	 x18:0x00000002 x27:0x00000009
     1711337000	     85465	8000262c	4dad	c.li	x27,11	 x27=0x0000000b
     1711357000	     85466	8000262e	05b90763	beq	x18,x27,8000267c	 x18:0x00000002 x27:0x0000000b
     1711377000	     85467	80002632	4d85	c.li	x27,1	 x27=0x00000001
     1711397000	     85468	80002634	35b90363	beq	x18,x27,8000297a	 x18:0x00000002 x27:0x00000001
     1711417000	     85469	80002638	4d95	c.li	x27,5	 x27=0x00000005
     1711437000	     85470	8000263a	63b90963	beq	x18,x27,80002c6c	 x18:0x00000002 x27:0x00000005
     1711457000	     85471	8000263e	4d9d	c.li	x27,7	 x27=0x00000007
     1711477000	     85472	80002640	15b90ae3	beq	x18,x27,80002f94	 x18:0x00000002 x27:0x00000007
     1711497000	     85473	80002644	4db1	c.li	x27,12	 x27=0x0000000c
     1711517000	     85474	80002646	01b91463	bne	x18,x27,8000264e	 x18:0x00000002 x27:0x0000000c
     1711557000	     85476	8000264e	4db5	c.li	x27,13	 x27=0x0000000d
     1711577000	     85477	80002650	01b91463	bne	x18,x27,80002658	 x18:0x00000002 x27:0x0000000d
     1711617000	     85479	80002658	4dbd	c.li	x27,15	 x27=0x0000000f
     1711637000	     85480	8000265a	01b91463	bne	x18,x27,80002662	 x18:0x00000002 x27:0x0000000f
     1711677000	     85482	80002662	4d89	c.li	x27,2	 x27=0x00000002
     1711697000	     85483	80002664	01b91463	bne	x18,x27,8000266c	 x18:0x00000002 x27:0x00000002
     1711717000	     85484	80002668	45c0906f	jal	x0,8000bac4	  x0=0x00000000
     1711777000	     85487	8000bac4	90000db7	lui	x27,0x90000	 x27=0x90000000
     1711797000	     85488	8000bac8	1df1	c.addi	x27,-4	 x27:0x90000000 x27=0x8ffffffc
     1711817000	     85489	8000baca	4929	c.li	x18,10	 x18=0x0000000a
     1711837000	     85490	8000bacc	0922	c.slli	x18,0x8	 x18:0x0000000a x18=0x00000a00
     1711857000	     85491	8000bace	00090913	addi	x18,x18,0	 x18:0x00000a00 x18=0x00000a00
     1711917000	     85494	8000bad2	012da023	sw	x18,0(x27)	 x27:0x8ffffffc x18:0x00000a00 PA:0x8ffffffc store:0x00000a00 load:0xffffffff
     1711937000	     85495	8000bad6	90000db7	lui	x27,0x90000	 x27=0x90000000
     1711957000	     85496	8000bada	1df1	c.addi	x27,-4	 x27:0x90000000 x27=0x8ffffffc
     1711977000	     85497	8000badc	34200913	addi	x18,x0,834	  x0:0x00000000 x18=0x00000342
     1711997000	     85498	8000bae0	0922	c.slli	x18,0x8	 x18:0x00000342 x18=0x00034200
     1712017000	     85499	8000bae2	090d	c.addi	x18,3	 x18:0x00034200 x18=0x00034203
     1712077000	     85502	8000bae4	012da023	sw	x18,0(x27)	 x27:0x8ffffffc x18:0x00034203 PA:0x8ffffffc store:0x00034203 load:0xffffffff
     1712097000	     85503	8000bae8	34202973	csrrs	x18,mcause,x0	  x0:0x00000000 x18=0x00000002
     1712117000	     85504	8000baec	012da023	sw	x18,0(x27)	 x27:0x8ffffffc x18:0x00000002 PA:0x8ffffffc store:0x00000002 load:0xffffffff
     1712137000	     85505	8000baf0	34102973	csrrs	x18,mepc,x0	  x0:0x00000000 x18=0x800097d4
     1712157000	     85506	8000baf4	0911	c.addi	x18,4	 x18:0x800097d4 x18=0x800097d8
     1712177000	     85507	8000baf6	34191073	csrrw	x0,mepc,x18	 x18:0x800097d8  x0=0x00000000
     1712197000	     85508	8000bafa	000685b3	add	x11,x13,x0	 x13:0x80025c60  x0:0x00000000 x11=0x80025c60
     1712597000	     85528	8000bafe	0045a083	lw	x1,4(x11)	 x11:0x80025c60  x1=0x0007ffde PA:0x80025c64 load:0x0007ffde
     1712957000	     85546	8000bb02	0085a103	lw	x2,8(x11)	 x11:0x80025c60  x2=0xfffffff0 PA:0x80025c68 load:0xfffffff0
     1713137000	     85555	8000bb06	00c5a183	lw	x3,12(x11)	 x11:0x80025c60  x3=0x00000000 PA:0x80025c6c load:0x00000000
     1713237000	     85560	8000bb0a	0105a203	lw	x4,16(x11)	 x11:0x80025c60  x4=0xfffdffff PA:0x80025c70 load:0xfffdffff
     1713437000	     85570	8000bb0e	0145a283	lw	x5,20(x11)	 x11:0x80025c60  x5=0x00000500 PA:0x80025c74 load:0x00000500
     1713497000	     85573	8000bb12	0185a303	lw	x6,24(x11)	 x11:0x80025c60  x6=0x00000000 PA:0x80025c78 load:0x00000000
     1713537000	     85575	8000bb16	01c5a383	lw	x7,28(x11)	 x11:0x80025c60  x7=0x00000000 PA:0x80025c7c load:0x00000000
     1713557000	     85576	8000bb1a	5180	c.lw	x8,32(x11)	 x11:0x80025c60  x8=0x00000000 PA:0x80025c80 load:0x00000000
     1713777000	     85587	8000bb1c	51c4	c.lw	x9,36(x11)	 x11:0x80025c60  x9=0x000fffbc PA:0x80025c84 load:0x000fffbc
     1714037000	     85600	8000bb1e	5588	c.lw	x10,40(x11)	 x11:0x80025c60 x10=0x00000380 PA:0x80025c88 load:0x00000380
     1714497000	     85623	8000bb20	55cc	c.lw	x11,44(x11)	 x11:0x80025c60 x11=0x80025c60 PA:0x80025c8c load:0x80025c60
     1714577000	     85627	8000bb22	5990	c.lw	x12,48(x11)	 x11:0x80025c60 x12=0x00000000 PA:0x80025c90 load:0x00000000
     1714997000	     85648	8000bb24	59d4	c.lw	x13,52(x11)	 x11:0x80025c60 x13=0x80025ce0 PA:0x80025c94 load:0x80025ce0
     1715057000	     85651	8000bb26	5d98	c.lw	x14,56(x11)	 x11:0x80025c60 x14=0x0400050d PA:0x80025c98 load:0x0400050d
     1715077000	     85652	8000bb28	5ddc	c.lw	x15,60(x11)	 x11:0x80025c60 x15=0x00000001 PA:0x80025c9c load:0x00000001
     1715257000	     85661	8000bb2a	0405a803	lw	x16,64(x11)	 x11:0x80025c60 x16=0x00000080 PA:0x80025ca0 load:0x00000080
     1715917000	     85694	8000bb2e	0445a883	lw	x17,68(x11)	 x11:0x80025c60 x17=0x00000500 PA:0x80025ca4 load:0x00000500
     1716377000	     85717	8000bb32	0485a903	lw	x18,72(x11)	 x11:0x80025c60 x18=0x00000000 PA:0x80025ca8 load:0x00000000
     1716717000	     85734	8000bb36	04c5a983	lw	x19,76(x11)	 x11:0x80025c60 x19=0x00000001 PA:0x80025cac load:0x00000001
     1717097000	     85753	8000bb3a	0505aa03	lw	x20,80(x11)	 x11:0x80025c60 x20=0x0001d000 PA:0x80025cb0 load:0x0001d000
     1717157000	     85756	8000bb3e	0545aa83	lw	x21,84(x11)	 x11:0x80025c60 x21=0xffffffff PA:0x80025cb4 load:0xffffffff
     1717277000	     85762	8000bb42	0585ab03	lw	x22,88(x11)	 x11:0x80025c60 x22=0x00000105 PA:0x80025cb8 load:0x00000105
     1717297000	     85763	8000bb46	05c5ab83	lw	x23,92(x11)	 x11:0x80025c60 x23=0x00000000 PA:0x80025cbc load:0x00000000
     1717497000	     85773	8000bb4a	0605ac03	lw	x24,96(x11)	 x11:0x80025c60 x24=0x71fffd70 PA:0x80025cc0 load:0x71fffd70
     1717557000	     85776	8000bb4e	0645ac83	lw	x25,100(x11)	 x11:0x80025c60 x25=0x00000000 PA:0x80025cc4 load:0x00000000
     1717977000	     85797	8000bb52	0685ad03	lw	x26,104(x11)	 x11:0x80025c60 x26=0x00004fd0 PA:0x80025cc8 load:0x00004fd0
     1718437000	     85820	8000bb56	06c5ad83	lw	x27,108(x11)	 x11:0x80025c60 x27=0x00000001 PA:0x80025ccc load:0x00000001
     1718557000	     85826	8000bb5a	0705ae03	lw	x28,112(x11)	 x11:0x80025c60 x28=0x00000020 PA:0x80025cd0 load:0x00000020
     1718797000	     85838	8000bb5e	0745ae83	lw	x29,116(x11)	 x11:0x80025c60 x29=0x0000ffff PA:0x80025cd4 load:0x0000ffff
     1719057000	     85851	8000bb62	0785af03	lw	x30,120(x11)	 x11:0x80025c60 x30=0x00000000 PA:0x80025cd8 load:0x00000000
     1719317000	     85864	8000bb66	07c5af83	lw	x31,124(x11)	 x11:0x80025c60 x31=0x00000000 PA:0x80025cdc load:0x00000000
     1719337000	     85865	8000bb6a	08058593	addi	x11,x11,128	 x11:0x80025c60 x11=0x80025ce0
     1719357000	     85866	8000bb6e	000586b3	add	x13,x11,x0	 x11:0x80025ce0  x0:0x00000000 x13=0x80025ce0
     1719557000	     85876	8000bb72	428c	c.lw	x11,0(x13)	 x13:0x80025ce0 x11=0x80021e64 PA:0x80025ce0 load:0x80021e64
     1719577000	     85877	8000bb74	0691	c.addi	x13,4	 x13:0x80025ce0 x13=0x80025ce4
     1719597000	     85878	8000bb76	30200073	mret	
     1719657000	     85881	800097d8	7b303373	csrrc	x0,0x7b3,x0	  x0:0x00000000  x0=0x00000000
     1719717000	     85884	80002500	0800006f	jal	x0,80002580	  x0=0x00000000
     1719777000	     85887	80002580	16f1	c.addi	x13,-4	 x13:0x80025ce4 x13=0x80025ce0
     1719857000	     85891	80002582	c28c	c.sw	x11,0(x13)	 x13:0x80025ce0 x11:0x80021e64 PA:0x80025ce0 store:0x80021e64 load:0xffffffff
     1719877000	     85892	80002584	000685b3	add	x11,x13,x0	 x13:0x80025ce0  x0:0x00000000 x11=0x80025ce0
     1719897000	     85893	80002588	f8058593	addi	x11,x11,-128	 x11:0x80025ce0 x11=0x80025c60
     1719957000	     85896	8000258c	0015a223	sw	x1,4(x11)	 x11:0x80025c60  x1:0x0007ffde PA:0x80025c64 store:0x0007ffde load:0xffffffff
     1719977000	     85897	80002590	0025a423	sw	x2,8(x11)	 x11:0x80025c60  x2:0xfffffff0 PA:0x80025c68 store:0xfffffff0 load:0xffffffff
     1720217000	     85909	80002594	0035a623	sw	x3,12(x11)	 x11:0x80025c60  x3:0x00000000 PA:0x80025c6c store:0x00000000 load:0xffffffff
     1720457000	     85921	80002598	0045a823	sw	x4,16(x11)	 x11:0x80025c60  x4:0xfffdffff PA:0x80025c70 store:0xfffdffff load:0xffffffff
     1720877000	     85942	8000259c	0055aa23	sw	x5,20(x11)	 x11:0x80025c60  x5:0x00000500 PA:0x80025c74 store:0x00000500 load:0xffffffff
     1721337000	     85965	800025a0	0065ac23	sw	x6,24(x11)	 x11:0x80025c60  x6:0x00000000 PA:0x80025c78 store:0x00000000 load:0xffffffff
     1721397000	     85968	800025a4	0075ae23	sw	x7,28(x11)	 x11:0x80025c60  x7:0x00000000 PA:0x80025c7c store:0x00000000 load:0xffffffff
     1721617000	     85979	800025a8	d180	c.sw	x8,32(x11)	 x11:0x80025c60  x8:0x00000000 PA:0x80025c80 store:0x00000000 load:0xffffffff
     1721637000	     85980	800025aa	d1c4	c.sw	x9,36(x11)	 x11:0x80025c60  x9:0x000fffbc PA:0x80025c84 store:0x000fffbc load:0xffffffff
     1721657000	     85981	800025ac	d588	c.sw	x10,40(x11)	 x11:0x80025c60 x10:0x00000380 PA:0x80025c88 store:0x00000380 load:0xffffffff
     1721677000	     85982	800025ae	d5cc	c.sw	x11,44(x11)	 x11:0x80025c60 x11:0x80025c60 PA:0x80025c8c store:0x80025c60 load:0xffffffff
     1721697000	     85983	800025b0	d990	c.sw	x12,48(x11)	 x11:0x80025c60 x12:0x00000000 PA:0x80025c90 store:0x00000000 load:0xffffffff
     1721737000	     85985	800025b2	d9d4	c.sw	x13,52(x11)	 x11:0x80025c60 x13:0x80025ce0 PA:0x80025c94 store:0x80025ce0 load:0xffffffff
     1722257000	     86011	800025b4	dd98	c.sw	x14,56(x11)	 x11:0x80025c60 x14:0x0400050d PA:0x80025c98 store:0x0400050d load:0xffffffff
     1722717000	     86034	800025b6	dddc	c.sw	x15,60(x11)	 x11:0x80025c60 x15:0x00000001 PA:0x80025c9c store:0x00000001 load:0xffffffff
     1722797000	     86038	800025b8	0505a023	sw	x16,64(x11)	 x11:0x80025c60 x16:0x00000080 PA:0x80025ca0 store:0x00000080 load:0xffffffff
     1722917000	     86044	800025bc	0515a223	sw	x17,68(x11)	 x11:0x80025c60 x17:0x00000500 PA:0x80025ca4 store:0x00000500 load:0xffffffff
     1722937000	     86045	800025c0	0525a423	sw	x18,72(x11)	 x11:0x80025c60 x18:0x00000000 PA:0x80025ca8 store:0x00000000 load:0xffffffff
     1722957000	     86046	800025c4	0535a623	sw	x19,76(x11)	 x11:0x80025c60 x19:0x00000001 PA:0x80025cac store:0x00000001 load:0xffffffff
     1723117000	     86054	800025c8	0545a823	sw	x20,80(x11)	 x11:0x80025c60 x20:0x0001d000 PA:0x80025cb0 store:0x0001d000 load:0xffffffff
     1723537000	     86075	800025cc	0555aa23	sw	x21,84(x11)	 x11:0x80025c60 x21:0xffffffff PA:0x80025cb4 store:0xffffffff load:0xffffffff
     1723757000	     86086	800025d0	0565ac23	sw	x22,88(x11)	 x11:0x80025c60 x22:0x00000105 PA:0x80025cb8 store:0x00000105 load:0xffffffff
     1723917000	     86094	800025d4	0575ae23	sw	x23,92(x11)	 x11:0x80025c60 x23:0x00000000 PA:0x80025cbc store:0x00000000 load:0xffffffff
     1723977000	     86097	800025d8	0785a023	sw	x24,96(x11)	 x11:0x80025c60 x24:0x71fffd70 PA:0x80025cc0 store:0x71fffd70 load:0xffffffff
     1724037000	     86100	800025dc	0795a223	sw	x25,100(x11)	 x11:0x80025c60 x25:0x00000000 PA:0x80025cc4 store:0x00000000 load:0xffffffff
     1724097000	     86103	800025e0	07a5a423	sw	x26,104(x11)	 x11:0x80025c60 x26:0x00004fd0 PA:0x80025cc8 store:0x00004fd0 load:0xffffffff
     1724297000	     86113	800025e4	07b5a623	sw	x27,108(x11)	 x11:0x80025c60 x27:0x00000001 PA:0x80025ccc store:0x00000001 load:0xffffffff
     1724617000	     86129	800025e8	07c5a823	sw	x28,112(x11)	 x11:0x80025c60 x28:0x00000020 PA:0x80025cd0 store:0x00000020 load:0xffffffff
     1725077000	     86152	800025ec	07d5aa23	sw	x29,116(x11)	 x11:0x80025c60 x29:0x0000ffff PA:0x80025cd4 store:0x0000ffff load:0xffffffff
     1725137000	     86155	800025f0	07e5ac23	sw	x30,120(x11)	 x11:0x80025c60 x30:0x00000000 PA:0x80025cd8 store:0x00000000 load:0xffffffff
     1725237000	     86160	800025f4	07f5ae23	sw	x31,124(x11)	 x11:0x80025c60 x31:0x00000000 PA:0x80025cdc store:0x00000000 load:0xffffffff
     1725257000	     86161	800025f8	000586b3	add	x13,x11,x0	 x11:0x80025c60  x0:0x00000000 x13=0x80025c60
     1725277000	     86162	800025fc	90000db7	lui	x27,0x90000	 x27=0x90000000
     1725297000	     86163	80002600	1df1	c.addi	x27,-4	 x27:0x90000000 x27=0x8ffffffc
     1725317000	     86164	80002602	4921	c.li	x18,8	 x18=0x00000008
     1725337000	     86165	80002604	0922	c.slli	x18,0x8	 x18:0x00000008 x18=0x00000800
     1725357000	     86166	80002606	00090913	addi	x18,x18,0	 x18:0x00000800 x18=0x00000800
     1725377000	     86167	8000260a	012da023	sw	x18,0(x27)	 x27:0x8ffffffc x18:0x00000800 PA:0x8ffffffc store:0x00000800 load:0xffffffff
     1725397000	     86168	8000260e	34102973	csrrs	x18,mepc,x0	  x0:0x00000000 x18=0x800097d8
     1725417000	     86169	80002612	34202973	csrrs	x18,mcause,x0	  x0:0x00000000 x18=0x00000002
     1725437000	     86170	80002616	4d8d	c.li	x27,3	 x27=0x00000003
     1725457000	     86171	80002618	01b91463	bne	x18,x27,80002620	 x18:0x00000002 x27:0x00000003
     1725497000	     86173	80002620	4da1	c.li	x27,8	 x27=0x00000008
     1725517000	     86174	80002622	05b90d63	beq	x18,x27,8000267c	 x18:0x00000002 x27:0x00000008
     1725537000	     86175	80002626	4da5	c.li	x27,9	 x27=0x00000009
     1725557000	     86176	80002628	05b90a63	beq	x18,x27,8000267c	 x18:0x00000002 x27:0x00000009
     1725577000	     86177	8000262c	4dad	c.li	x27,11	 x27=0x0000000b
     1725597000	     86178	8000262e	05b90763	beq	x18,x27,8000267c	 x18:0x00000002 x27:0x0000000b
     1725617000	     86179	80002632	4d85	c.li	x27,1	 x27=0x00000001
     1725637000	     86180	80002634	35b90363	beq	x18,x27,8000297a	 x18:0x00000002 x27:0x00000001
     1725657000	     86181	80002638	4d95	c.li	x27,5	 x27=0x00000005
     1725677000	     86182	8000263a	63b90963	beq	x18,x27,80002c6c	 x18:0x00000002 x27:0x00000005
     1725697000	     86183	8000263e	4d9d	c.li	x27,7	 x27=0x00000007
     1725717000	     86184	80002640	15b90ae3	beq	x18,x27,80002f94	 x18:0x00000002 x27:0x00000007
     1725737000	     86185	80002644	4db1	c.li	x27,12	 x27=0x0000000c
     1725757000	     86186	80002646	01b91463	bne	x18,x27,8000264e	 x18:0x00000002 x27:0x0000000c
     1725797000	     86188	8000264e	4db5	c.li	x27,13	 x27=0x0000000d
     1725817000	     86189	80002650	01b91463	bne	x18,x27,80002658	 x18:0x00000002 x27:0x0000000d
     1725857000	     86191	80002658	4dbd	c.li	x27,15	 x27=0x0000000f
     1725877000	     86192	8000265a	01b91463	bne	x18,x27,80002662	 x18:0x00000002 x27:0x0000000f
     1725937000	     86195	80002662	4d89	c.li	x27,2	 x27=0x00000002
     1725957000	     86196	80002664	01b91463	bne	x18,x27,8000266c	 x18:0x00000002 x27:0x00000002
     1725977000	     86197	80002668	45c0906f	jal	x0,8000bac4	  x0=0x00000000
     1726017000	     86199	8000bac4	90000db7	lui	x27,0x90000	 x27=0x90000000
     1726037000	     86200	8000bac8	1df1	c.addi	x27,-4	 x27:0x90000000 x27=0x8ffffffc
     1726057000	     86201	8000baca	4929	c.li	x18,10	 x18=0x0000000a
     1726077000	     86202	8000bacc	0922	c.slli	x18,0x8	 x18:0x0000000a x18=0x00000a00
     1726097000	     86203	8000bace	00090913	addi	x18,x18,0	 x18:0x00000a00 x18=0x00000a00
     1726437000	     86220	8000bad2	012da023	sw	x18,0(x27)	 x27:0x8ffffffc x18:0x00000a00 PA:0x8ffffffc store:0x00000a00 load:0xffffffff
     1726457000	     86221	8000bad6	90000db7	lui	x27,0x90000	 x27=0x90000000
     1726477000	     86222	8000bada	1df1	c.addi	x27,-4	 x27:0x90000000 x27=0x8ffffffc
     1726497000	     86223	8000badc	34200913	addi	x18,x0,834	  x0:0x00000000 x18=0x00000342
     1726517000	     86224	8000bae0	0922	c.slli	x18,0x8	 x18:0x00000342 x18=0x00034200
     1726537000	     86225	8000bae2	090d	c.addi	x18,3	 x18:0x00034200 x18=0x00034203
     1726677000	     86232	8000bae4	012da023	sw	x18,0(x27)	 x27:0x8ffffffc x18:0x00034203 PA:0x8ffffffc store:0x00034203 load:0xffffffff
     1726697000	     86233	8000bae8	34202973	csrrs	x18,mcause,x0	  x0:0x00000000 x18=0x00000002
     1727017000	     86249	8000baec	012da023	sw	x18,0(x27)	 x27:0x8ffffffc x18:0x00000002 PA:0x8ffffffc store:0x00000002 load:0xffffffff
     1727037000	     86250	8000baf0	34102973	csrrs	x18,mepc,x0	  x0:0x00000000 x18=0x800097d8
     1727057000	     86251	8000baf4	0911	c.addi	x18,4	 x18:0x800097d8 x18=0x800097dc
     1727077000	     86252	8000baf6	34191073	csrrw	x0,mepc,x18	 x18:0x800097dc  x0=0x00000000
     1727097000	     86253	8000bafa	000685b3	add	x11,x13,x0	 x13:0x80025c60  x0:0x00000000 x11=0x80025c60
     1727157000	     86256	8000bafe	0045a083	lw	x1,4(x11)	 x11:0x80025c60  x1=0x0007ffde PA:0x80025c64 load:0x0007ffde
     1727177000	     86257	8000bb02	0085a103	lw	x2,8(x11)	 x11:0x80025c60  x2=0xfffffff0 PA:0x80025c68 load:0xfffffff0
     1727497000	     86273	8000bb06	00c5a183	lw	x3,12(x11)	 x11:0x80025c60  x3=0x00000000 PA:0x80025c6c load:0x00000000
     1728157000	     86306	8000bb0a	0105a203	lw	x4,16(x11)	 x11:0x80025c60  x4=0xfffdffff PA:0x80025c70 load:0xfffdffff
     1728217000	     86309	8000bb0e	0145a283	lw	x5,20(x11)	 x11:0x80025c60  x5=0x00000500 PA:0x80025c74 load:0x00000500
     1728237000	     86310	8000bb12	0185a303	lw	x6,24(x11)	 x11:0x80025c60  x6=0x00000000 PA:0x80025c78 load:0x00000000
     1728457000	     86321	8000bb16	01c5a383	lw	x7,28(x11)	 x11:0x80025c60  x7=0x00000000 PA:0x80025c7c load:0x00000000
     1728477000	     86322	8000bb1a	5180	c.lw	x8,32(x11)	 x11:0x80025c60  x8=0x00000000 PA:0x80025c80 load:0x00000000
     1728897000	     86343	8000bb1c	51c4	c.lw	x9,36(x11)	 x11:0x80025c60  x9=0x000fffbc PA:0x80025c84 load:0x000fffbc
     1728957000	     86346	8000bb1e	5588	c.lw	x10,40(x11)	 x11:0x80025c60 x10=0x00000380 PA:0x80025c88 load:0x00000380
     1729037000	     86350	8000bb20	55cc	c.lw	x11,44(x11)	 x11:0x80025c60 x11=0x80025c60 PA:0x80025c8c load:0x80025c60
     1729217000	     86359	8000bb22	5990	c.lw	x12,48(x11)	 x11:0x80025c60 x12=0x00000000 PA:0x80025c90 load:0x00000000
     1729577000	     86377	8000bb24	59d4	c.lw	x13,52(x11)	 x11:0x80025c60 x13=0x80025ce0 PA:0x80025c94 load:0x80025ce0
     1729637000	     86380	8000bb26	5d98	c.lw	x14,56(x11)	 x11:0x80025c60 x14=0x0400050d PA:0x80025c98 load:0x0400050d
     1729757000	     86386	8000bb28	5ddc	c.lw	x15,60(x11)	 x11:0x80025c60 x15=0x00000001 PA:0x80025c9c load:0x00000001
     1730057000	     86401	8000bb2a	0405a803	lw	x16,64(x11)	 x11:0x80025c60 x16=0x00000080 PA:0x80025ca0 load:0x00000080
     1730257000	     86411	8000bb2e	0445a883	lw	x17,68(x11)	 x11:0x80025c60 x17=0x00000500 PA:0x80025ca4 load:0x00000500
     1730317000	     86414	8000bb32	0485a903	lw	x18,72(x11)	 x11:0x80025c60 x18=0x00000000 PA:0x80025ca8 load:0x00000000
     1730557000	     86426	8000bb36	04c5a983	lw	x19,76(x11)	 x11:0x80025c60 x19=0x00000001 PA:0x80025cac load:0x00000001
     1730617000	     86429	8000bb3a	0505aa03	lw	x20,80(x11)	 x11:0x80025c60 x20=0x0001d000 PA:0x80025cb0 load:0x0001d000
     1730817000	     86439	8000bb3e	0545aa83	lw	x21,84(x11)	 x11:0x80025c60 x21=0xffffffff PA:0x80025cb4 load:0xffffffff
     1731237000	     86460	8000bb42	0585ab03	lw	x22,88(x11)	 x11:0x80025c60 x22=0x00000105 PA:0x80025cb8 load:0x00000105
     1731637000	     86480	8000bb46	05c5ab83	lw	x23,92(x11)	 x11:0x80025c60 x23=0x00000000 PA:0x80025cbc load:0x00000000
     1731697000	     86483	8000bb4a	0605ac03	lw	x24,96(x11)	 x11:0x80025c60 x24=0x71fffd70 PA:0x80025cc0 load:0x71fffd70
     1731717000	     86484	8000bb4e	0645ac83	lw	x25,100(x11)	 x11:0x80025c60 x25=0x00000000 PA:0x80025cc4 load:0x00000000
     1731737000	     86485	8000bb52	0685ad03	lw	x26,104(x11)	 x11:0x80025c60 x26=0x00004fd0 PA:0x80025cc8 load:0x00004fd0
     1732117000	     86504	8000bb56	06c5ad83	lw	x27,108(x11)	 x11:0x80025c60 x27=0x00000001 PA:0x80025ccc load:0x00000001
     1732397000	     86518	8000bb5a	0705ae03	lw	x28,112(x11)	 x11:0x80025c60 x28=0x00000020 PA:0x80025cd0 load:0x00000020
     1734137000	     86605	8000bb5e	0745ae83	lw	x29,116(x11)	 x11:0x80025c60 x29=0x0000ffff PA:0x80025cd4 load:0x0000ffff
     1734557000	     86626	8000bb62	0785af03	lw	x30,120(x11)	 x11:0x80025c60 x30=0x00000000 PA:0x80025cd8 load:0x00000000
     1734617000	     86629	8000bb66	07c5af83	lw	x31,124(x11)	 x11:0x80025c60 x31=0x00000000 PA:0x80025cdc load:0x00000000
     1734637000	     86630	8000bb6a	08058593	addi	x11,x11,128	 x11:0x80025c60 x11=0x80025ce0
     1734657000	     86631	8000bb6e	000586b3	add	x13,x11,x0	 x11:0x80025ce0  x0:0x00000000 x13=0x80025ce0
     1734917000	     86644	8000bb72	428c	c.lw	x11,0(x13)	 x13:0x80025ce0 x11=0x80021e64 PA:0x80025ce0 load:0x80021e64
     1734937000	     86645	8000bb74	0691	c.addi	x13,4	 x13:0x80025ce0 x13=0x80025ce4
     1734957000	     86646	8000bb76	30200073	mret	
     1735017000	     86649	800097dc	f1277273	csrrci	x0,marchid,14	  x0=0x00000000
     1735077000	     86652	80002500	0800006f	jal	x0,80002580	  x0=0x00000000
     1735117000	     86654	80002580	16f1	c.addi	x13,-4	 x13:0x80025ce4 x13=0x80025ce0
     1735557000	     86676	80002582	c28c	c.sw	x11,0(x13)	 x13:0x80025ce0 x11:0x80021e64 PA:0x80025ce0 store:0x80021e64 load:0xffffffff
     1735577000	     86677	80002584	000685b3	add	x11,x13,x0	 x13:0x80025ce0  x0:0x00000000 x11=0x80025ce0
     1735597000	     86678	80002588	f8058593	addi	x11,x11,-128	 x11:0x80025ce0 x11=0x80025c60
     1735917000	     86694	8000258c	0015a223	sw	x1,4(x11)	 x11:0x80025c60  x1:0x0007ffde PA:0x80025c64 store:0x0007ffde load:0xffffffff
     1735977000	     86697	80002590	0025a423	sw	x2,8(x11)	 x11:0x80025c60  x2:0xfffffff0 PA:0x80025c68 store:0xfffffff0 load:0xffffffff
     1736337000	     86715	80002594	0035a623	sw	x3,12(x11)	 x11:0x80025c60  x3:0x00000000 PA:0x80025c6c store:0x00000000 load:0xffffffff
     1736617000	     86729	80002598	0045a823	sw	x4,16(x11)	 x11:0x80025c60  x4:0xfffdffff PA:0x80025c70 store:0xfffdffff load:0xffffffff
     1736677000	     86732	8000259c	0055aa23	sw	x5,20(x11)	 x11:0x80025c60  x5:0x00000500 PA:0x80025c74 store:0x00000500 load:0xffffffff
     1736717000	     86734	800025a0	0065ac23	sw	x6,24(x11)	 x11:0x80025c60  x6:0x00000000 PA:0x80025c78 store:0x00000000 load:0xffffffff
     1736877000	     86742	800025a4	0075ae23	sw	x7,28(x11)	 x11:0x80025c60  x7:0x00000000 PA:0x80025c7c store:0x00000000 load:0xffffffff
     1737337000	     86765	800025a8	d180	c.sw	x8,32(x11)	 x11:0x80025c60  x8:0x00000000 PA:0x80025c80 store:0x00000000 load:0xffffffff
     1737617000	     86779	800025aa	d1c4	c.sw	x9,36(x11)	 x11:0x80025c60  x9:0x000fffbc PA:0x80025c84 store:0x000fffbc load:0xffffffff
     1737677000	     86782	800025ac	d588	c.sw	x10,40(x11)	 x11:0x80025c60 x10:0x00000380 PA:0x80025c88 store:0x00000380 load:0xffffffff
     1737697000	     86783	800025ae	d5cc	c.sw	x11,44(x11)	 x11:0x80025c60 x11:0x80025c60 PA:0x80025c8c store:0x80025c60 load:0xffffffff
     1737757000	     86786	800025b0	d990	c.sw	x12,48(x11)	 x11:0x80025c60 x12:0x00000000 PA:0x80025c90 store:0x00000000 load:0xffffffff
     1737777000	     86787	800025b2	d9d4	c.sw	x13,52(x11)	 x11:0x80025c60 x13:0x80025ce0 PA:0x80025c94 store:0x80025ce0 load:0xffffffff
     1737877000	     86792	800025b4	dd98	c.sw	x14,56(x11)	 x11:0x80025c60 x14:0x0400050d PA:0x80025c98 store:0x0400050d load:0xffffffff
     1738237000	     86810	800025b6	dddc	c.sw	x15,60(x11)	 x11:0x80025c60 x15:0x00000001 PA:0x80025c9c store:0x00000001 load:0xffffffff
     1738297000	     86813	800025b8	0505a023	sw	x16,64(x11)	 x11:0x80025c60 x16:0x00000080 PA:0x80025ca0 store:0x00000080 load:0xffffffff
     1738497000	     86823	800025bc	0515a223	sw	x17,68(x11)	 x11:0x80025c60 x17:0x00000500 PA:0x80025ca4 store:0x00000500 load:0xffffffff
     1738757000	     86836	800025c0	0525a423	sw	x18,72(x11)	 x11:0x80025c60 x18:0x00000000 PA:0x80025ca8 store:0x00000000 load:0xffffffff
     1738777000	     86837	800025c4	0535a623	sw	x19,76(x11)	 x11:0x80025c60 x19:0x00000001 PA:0x80025cac store:0x00000001 load:0xffffffff
     1738797000	     86838	800025c8	0545a823	sw	x20,80(x11)	 x11:0x80025c60 x20:0x0001d000 PA:0x80025cb0 store:0x0001d000 load:0xffffffff
     1739217000	     86859	800025cc	0555aa23	sw	x21,84(x11)	 x11:0x80025c60 x21:0xffffffff PA:0x80025cb4 store:0xffffffff load:0xffffffff
     1739277000	     86862	800025d0	0565ac23	sw	x22,88(x11)	 x11:0x80025c60 x22:0x00000105 PA:0x80025cb8 store:0x00000105 load:0xffffffff
     1739297000	     86863	800025d4	0575ae23	sw	x23,92(x11)	 x11:0x80025c60 x23:0x00000000 PA:0x80025cbc store:0x00000000 load:0xffffffff
     1739417000	     86869	800025d8	0785a023	sw	x24,96(x11)	 x11:0x80025c60 x24:0x71fffd70 PA:0x80025cc0 store:0x71fffd70 load:0xffffffff
     1739537000	     86875	800025dc	0795a223	sw	x25,100(x11)	 x11:0x80025c60 x25:0x00000000 PA:0x80025cc4 store:0x00000000 load:0xffffffff
     1739957000	     86896	800025e0	07a5a423	sw	x26,104(x11)	 x11:0x80025c60 x26:0x00004fd0 PA:0x80025cc8 store:0x00004fd0 load:0xffffffff
     1740137000	     86905	800025e4	07b5a623	sw	x27,108(x11)	 x11:0x80025c60 x27:0x00000001 PA:0x80025ccc store:0x00000001 load:0xffffffff
     1740197000	     86908	800025e8	07c5a823	sw	x28,112(x11)	 x11:0x80025c60 x28:0x00000020 PA:0x80025cd0 store:0x00000020 load:0xffffffff
     1740517000	     86924	800025ec	07d5aa23	sw	x29,116(x11)	 x11:0x80025c60 x29:0x0000ffff PA:0x80025cd4 store:0x0000ffff load:0xffffffff
     1740577000	     86927	800025f0	07e5ac23	sw	x30,120(x11)	 x11:0x80025c60 x30:0x00000000 PA:0x80025cd8 store:0x00000000 load:0xffffffff
     1740997000	     86948	800025f4	07f5ae23	sw	x31,124(x11)	 x11:0x80025c60 x31:0x00000000 PA:0x80025cdc store:0x00000000 load:0xffffffff
     1741017000	     86949	800025f8	000586b3	add	x13,x11,x0	 x11:0x80025c60  x0:0x00000000 x13=0x80025c60
     1741037000	     86950	800025fc	90000db7	lui	x27,0x90000	 x27=0x90000000
     1741057000	     86951	80002600	1df1	c.addi	x27,-4	 x27:0x90000000 x27=0x8ffffffc
     1741077000	     86952	80002602	4921	c.li	x18,8	 x18=0x00000008
     1741097000	     86953	80002604	0922	c.slli	x18,0x8	 x18:0x00000008 x18=0x00000800
     1741117000	     86954	80002606	00090913	addi	x18,x18,0	 x18:0x00000800 x18=0x00000800
     1741317000	     86964	8000260a	012da023	sw	x18,0(x27)	 x27:0x8ffffffc x18:0x00000800 PA:0x8ffffffc store:0x00000800 load:0xffffffff
     1741337000	     86965	8000260e	34102973	csrrs	x18,mepc,x0	  x0:0x00000000 x18=0x800097dc
     1741357000	     86966	80002612	34202973	csrrs	x18,mcause,x0	  x0:0x00000000 x18=0x00000002
     1741377000	     86967	80002616	4d8d	c.li	x27,3	 x27=0x00000003
     1741397000	     86968	80002618	01b91463	bne	x18,x27,80002620	 x18:0x00000002 x27:0x00000003
     1741437000	     86970	80002620	4da1	c.li	x27,8	 x27=0x00000008
     1741457000	     86971	80002622	05b90d63	beq	x18,x27,8000267c	 x18:0x00000002 x27:0x00000008
     1741477000	     86972	80002626	4da5	c.li	x27,9	 x27=0x00000009
     1741497000	     86973	80002628	05b90a63	beq	x18,x27,8000267c	 x18:0x00000002 x27:0x00000009
     1741517000	     86974	8000262c	4dad	c.li	x27,11	 x27=0x0000000b
     1741537000	     86975	8000262e	05b90763	beq	x18,x27,8000267c	 x18:0x00000002 x27:0x0000000b
     1741557000	     86976	80002632	4d85	c.li	x27,1	 x27=0x00000001
     1741577000	     86977	80002634	35b90363	beq	x18,x27,8000297a	 x18:0x00000002 x27:0x00000001
     1741597000	     86978	80002638	4d95	c.li	x27,5	 x27=0x00000005
     1741617000	     86979	8000263a	63b90963	beq	x18,x27,80002c6c	 x18:0x00000002 x27:0x00000005
     1741637000	     86980	8000263e	4d9d	c.li	x27,7	 x27=0x00000007
     1741657000	     86981	80002640	15b90ae3	beq	x18,x27,80002f94	 x18:0x00000002 x27:0x00000007
     1741677000	     86982	80002644	4db1	c.li	x27,12	 x27=0x0000000c
     1741697000	     86983	80002646	01b91463	bne	x18,x27,8000264e	 x18:0x00000002 x27:0x0000000c
     1741737000	     86985	8000264e	4db5	c.li	x27,13	 x27=0x0000000d
     1741757000	     86986	80002650	01b91463	bne	x18,x27,80002658	 x18:0x00000002 x27:0x0000000d
     1741817000	     86989	80002658	4dbd	c.li	x27,15	 x27=0x0000000f
     1741837000	     86990	8000265a	01b91463	bne	x18,x27,80002662	 x18:0x00000002 x27:0x0000000f
     1741877000	     86992	80002662	4d89	c.li	x27,2	 x27=0x00000002
     1741897000	     86993	80002664	01b91463	bne	x18,x27,8000266c	 x18:0x00000002 x27:0x00000002
     1741917000	     86994	80002668	45c0906f	jal	x0,8000bac4	  x0=0x00000000
     1741957000	     86996	8000bac4	90000db7	lui	x27,0x90000	 x27=0x90000000
     1741977000	     86997	8000bac8	1df1	c.addi	x27,-4	 x27:0x90000000 x27=0x8ffffffc
     1741997000	     86998	8000baca	4929	c.li	x18,10	 x18=0x0000000a
     1742017000	     86999	8000bacc	0922	c.slli	x18,0x8	 x18:0x0000000a x18=0x00000a00
     1742037000	     87000	8000bace	00090913	addi	x18,x18,0	 x18:0x00000a00 x18=0x00000a00
     1742297000	     87013	8000bad2	012da023	sw	x18,0(x27)	 x27:0x8ffffffc x18:0x00000a00 PA:0x8ffffffc store:0x00000a00 load:0xffffffff
     1742317000	     87014	8000bad6	90000db7	lui	x27,0x90000	 x27=0x90000000
     1742337000	     87015	8000bada	1df1	c.addi	x27,-4	 x27:0x90000000 x27=0x8ffffffc
     1742357000	     87016	8000badc	34200913	addi	x18,x0,834	  x0:0x00000000 x18=0x00000342
     1742377000	     87017	8000bae0	0922	c.slli	x18,0x8	 x18:0x00000342 x18=0x00034200
     1742397000	     87018	8000bae2	090d	c.addi	x18,3	 x18:0x00034200 x18=0x00034203
     1742517000	     87024	8000bae4	012da023	sw	x18,0(x27)	 x27:0x8ffffffc x18:0x00034203 PA:0x8ffffffc store:0x00034203 load:0xffffffff
     1742537000	     87025	8000bae8	34202973	csrrs	x18,mcause,x0	  x0:0x00000000 x18=0x00000002
     1742557000	     87026	8000baec	012da023	sw	x18,0(x27)	 x27:0x8ffffffc x18:0x00000002 PA:0x8ffffffc store:0x00000002 load:0xffffffff
     1742577000	     87027	8000baf0	34102973	csrrs	x18,mepc,x0	  x0:0x00000000 x18=0x800097dc
     1742597000	     87028	8000baf4	0911	c.addi	x18,4	 x18:0x800097dc x18=0x800097e0
     1742617000	     87029	8000baf6	34191073	csrrw	x0,mepc,x18	 x18:0x800097e0  x0=0x00000000
     1742637000	     87030	8000bafa	000685b3	add	x11,x13,x0	 x13:0x80025c60  x0:0x00000000 x11=0x80025c60
     1743017000	     87049	8000bafe	0045a083	lw	x1,4(x11)	 x11:0x80025c60  x1=0x0007ffde PA:0x80025c64 load:0x0007ffde
     1743277000	     87062	8000bb02	0085a103	lw	x2,8(x11)	 x11:0x80025c60  x2=0xfffffff0 PA:0x80025c68 load:0xfffffff0
     1743297000	     87063	8000bb06	00c5a183	lw	x3,12(x11)	 x11:0x80025c60  x3=0x00000000 PA:0x80025c6c load:0x00000000
     1743337000	     87065	8000bb0a	0105a203	lw	x4,16(x11)	 x11:0x80025c60  x4=0xfffdffff PA:0x80025c70 load:0xfffdffff
     1743357000	     87066	8000bb0e	0145a283	lw	x5,20(x11)	 x11:0x80025c60  x5=0x00000500 PA:0x80025c74 load:0x00000500
     1743757000	     87086	8000bb12	0185a303	lw	x6,24(x11)	 x11:0x80025c60  x6=0x00000000 PA:0x80025c78 load:0x00000000
     1743817000	     87089	8000bb16	01c5a383	lw	x7,28(x11)	 x11:0x80025c60  x7=0x00000000 PA:0x80025c7c load:0x00000000
     1743957000	     87096	8000bb1a	5180	c.lw	x8,32(x11)	 x11:0x80025c60  x8=0x00000000 PA:0x80025c80 load:0x00000000
     1744017000	     87099	8000bb1c	51c4	c.lw	x9,36(x11)	 x11:0x80025c60  x9=0x000fffbc PA:0x80025c84 load:0x000fffbc
     1744277000	     87112	8000bb1e	5588	c.lw	x10,40(x11)	 x11:0x80025c60 x10=0x00000380 PA:0x80025c88 load:0x00000380
     1744377000	     87117	8000bb20	55cc	c.lw	x11,44(x11)	 x11:0x80025c60 x11=0x80025c60 PA:0x80025c8c load:0x80025c60
     1744717000	     87134	8000bb22	5990	c.lw	x12,48(x11)	 x11:0x80025c60 x12=0x00000000 PA:0x80025c90 load:0x00000000
     1744777000	     87137	8000bb24	59d4	c.lw	x13,52(x11)	 x11:0x80025c60 x13=0x80025ce0 PA:0x80025c94 load:0x80025ce0
     1744797000	     87138	8000bb26	5d98	c.lw	x14,56(x11)	 x11:0x80025c60 x14=0x0400050d PA:0x80025c98 load:0x0400050d
     1744917000	     87144	8000bb28	5ddc	c.lw	x15,60(x11)	 x11:0x80025c60 x15=0x00000001 PA:0x80025c9c load:0x00000001
     1745197000	     87158	8000bb2a	0405a803	lw	x16,64(x11)	 x11:0x80025c60 x16=0x00000080 PA:0x80025ca0 load:0x00000080
     1745537000	     87175	8000bb2e	0445a883	lw	x17,68(x11)	 x11:0x80025c60 x17=0x00000500 PA:0x80025ca4 load:0x00000500
     1745597000	     87178	8000bb32	0485a903	lw	x18,72(x11)	 x11:0x80025c60 x18=0x00000000 PA:0x80025ca8 load:0x00000000
     1745617000	     87179	8000bb36	04c5a983	lw	x19,76(x11)	 x11:0x80025c60 x19=0x00000001 PA:0x80025cac load:0x00000001
     1745637000	     87180	8000bb3a	0505aa03	lw	x20,80(x11)	 x11:0x80025c60 x20=0x0001d000 PA:0x80025cb0 load:0x0001d000
     1745737000	     87185	8000bb3e	0545aa83	lw	x21,84(x11)	 x11:0x80025c60 x21=0xffffffff PA:0x80025cb4 load:0xffffffff
     1745797000	     87188	8000bb42	0585ab03	lw	x22,88(x11)	 x11:0x80025c60 x22=0x00000105 PA:0x80025cb8 load:0x00000105
     1746157000	     87206	8000bb46	05c5ab83	lw	x23,92(x11)	 x11:0x80025c60 x23=0x00000000 PA:0x80025cbc load:0x00000000
     1746217000	     87209	8000bb4a	0605ac03	lw	x24,96(x11)	 x11:0x80025c60 x24=0x71fffd70 PA:0x80025cc0 load:0x71fffd70
     1746317000	     87214	8000bb4e	0645ac83	lw	x25,100(x11)	 x11:0x80025c60 x25=0x00000000 PA:0x80025cc4 load:0x00000000
     1746537000	     87225	8000bb52	0685ad03	lw	x26,104(x11)	 x11:0x80025c60 x26=0x00004fd0 PA:0x80025cc8 load:0x00004fd0
     1746697000	     87233	8000bb56	06c5ad83	lw	x27,108(x11)	 x11:0x80025c60 x27=0x00000001 PA:0x80025ccc load:0x00000001
     1747077000	     87252	8000bb5a	0705ae03	lw	x28,112(x11)	 x11:0x80025c60 x28=0x00000020 PA:0x80025cd0 load:0x00000020
     1747237000	     87260	8000bb5e	0745ae83	lw	x29,116(x11)	 x11:0x80025c60 x29=0x0000ffff PA:0x80025cd4 load:0x0000ffff
     1747437000	     87270	8000bb62	0785af03	lw	x30,120(x11)	 x11:0x80025c60 x30=0x00000000 PA:0x80025cd8 load:0x00000000
     1747637000	     87280	8000bb66	07c5af83	lw	x31,124(x11)	 x11:0x80025c60 x31=0x00000000 PA:0x80025cdc load:0x00000000
     1747657000	     87281	8000bb6a	08058593	addi	x11,x11,128	 x11:0x80025c60 x11=0x80025ce0
     1747677000	     87282	8000bb6e	000586b3	add	x13,x11,x0	 x11:0x80025ce0  x0:0x00000000 x13=0x80025ce0
     1747817000	     87289	8000bb72	428c	c.lw	x11,0(x13)	 x13:0x80025ce0 x11=0x80021e64 PA:0x80025ce0 load:0x80021e64
     1747837000	     87290	8000bb74	0691	c.addi	x13,4	 x13:0x80025ce0 x13=0x80025ce4
     1747857000	     87291	8000bb76	30200073	mret	
     1748637000	     87330	800097e0	03444433	div	x8,x8,x20	  x8:0x00000000 x20:0x0001d000  x8=0x00000000
     1748657000	     87331	800097e4	6cdd	c.lui	x25,0x17	 x25=0x00017000
     1748697000	     87333	800097e6	02ad10b3	mulh	x1,x26,x10	 x26:0x00004fd0 x10:0x00000380  x1=0x00000000
     1748717000	     87334	800097ea	f12a5873	csrrwi	x0,marchid,20	  x0=0x00000000
     1748777000	     87337	80002500	0800006f	jal	x0,80002580	  x0=0x00000000
     1748817000	     87339	80002580	16f1	c.addi	x13,-4	 x13:0x80025ce4 x13=0x80025ce0
     1749137000	     87355	80002582	c28c	c.sw	x11,0(x13)	 x13:0x80025ce0 x11:0x80021e64 PA:0x80025ce0 store:0x80021e64 load:0xffffffff
     1749157000	     87356	80002584	000685b3	add	x11,x13,x0	 x13:0x80025ce0  x0:0x00000000 x11=0x80025ce0
     1749177000	     87357	80002588	f8058593	addi	x11,x11,-128	 x11:0x80025ce0 x11=0x80025c60
     1749317000	     87364	8000258c	0015a223	sw	x1,4(x11)	 x11:0x80025c60  x1:0x00000000 PA:0x80025c64 store:0x00000000 load:0xffffffff
     1749857000	     87391	80002590	0025a423	sw	x2,8(x11)	 x11:0x80025c60  x2:0xfffffff0 PA:0x80025c68 store:0xfffffff0 load:0xffffffff
     1749917000	     87394	80002594	0035a623	sw	x3,12(x11)	 x11:0x80025c60  x3:0x00000000 PA:0x80025c6c store:0x00000000 load:0xffffffff
     1750337000	     87415	80002598	0045a823	sw	x4,16(x11)	 x11:0x80025c60  x4:0xfffdffff PA:0x80025c70 store:0xfffdffff load:0xffffffff
     1750597000	     87428	8000259c	0055aa23	sw	x5,20(x11)	 x11:0x80025c60  x5:0x00000500 PA:0x80025c74 store:0x00000500 load:0xffffffff
     1750617000	     87429	800025a0	0065ac23	sw	x6,24(x11)	 x11:0x80025c60  x6:0x00000000 PA:0x80025c78 store:0x00000000 load:0xffffffff
     1751037000	     87450	800025a4	0075ae23	sw	x7,28(x11)	 x11:0x80025c60  x7:0x00000000 PA:0x80025c7c store:0x00000000 load:0xffffffff
     1751097000	     87453	800025a8	d180	c.sw	x8,32(x11)	 x11:0x80025c60  x8:0x00000000 PA:0x80025c80 store:0x00000000 load:0xffffffff
     1751317000	     87464	800025aa	d1c4	c.sw	x9,36(x11)	 x11:0x80025c60  x9:0x000fffbc PA:0x80025c84 store:0x000fffbc load:0xffffffff
     1751377000	     87467	800025ac	d588	c.sw	x10,40(x11)	 x11:0x80025c60 x10:0x00000380 PA:0x80025c88 store:0x00000380 load:0xffffffff
     1751397000	     87468	800025ae	d5cc	c.sw	x11,44(x11)	 x11:0x80025c60 x11:0x80025c60 PA:0x80025c8c store:0x80025c60 load:0xffffffff
     1751817000	     87489	800025b0	d990	c.sw	x12,48(x11)	 x11:0x80025c60 x12:0x00000000 PA:0x80025c90 store:0x00000000 load:0xffffffff
     1752077000	     87502	800025b2	d9d4	c.sw	x13,52(x11)	 x11:0x80025c60 x13:0x80025ce0 PA:0x80025c94 store:0x80025ce0 load:0xffffffff
     1752097000	     87503	800025b4	dd98	c.sw	x14,56(x11)	 x11:0x80025c60 x14:0x0400050d PA:0x80025c98 store:0x0400050d load:0xffffffff
     1752517000	     87524	800025b6	dddc	c.sw	x15,60(x11)	 x11:0x80025c60 x15:0x00000001 PA:0x80025c9c store:0x00000001 load:0xffffffff
     1752957000	     87546	800025b8	0505a023	sw	x16,64(x11)	 x11:0x80025c60 x16:0x00000080 PA:0x80025ca0 store:0x00000080 load:0xffffffff
     1753017000	     87549	800025bc	0515a223	sw	x17,68(x11)	 x11:0x80025c60 x17:0x00000500 PA:0x80025ca4 store:0x00000500 load:0xffffffff
     1753117000	     87554	800025c0	0525a423	sw	x18,72(x11)	 x11:0x80025c60 x18:0x00000000 PA:0x80025ca8 store:0x00000000 load:0xffffffff
     1753137000	     87555	800025c4	0535a623	sw	x19,76(x11)	 x11:0x80025c60 x19:0x00000001 PA:0x80025cac store:0x00000001 load:0xffffffff
     1753157000	     87556	800025c8	0545a823	sw	x20,80(x11)	 x11:0x80025c60 x20:0x0001d000 PA:0x80025cb0 store:0x0001d000 load:0xffffffff
     1753177000	     87557	800025cc	0555aa23	sw	x21,84(x11)	 x11:0x80025c60 x21:0xffffffff PA:0x80025cb4 store:0xffffffff load:0xffffffff
     1753197000	     87558	800025d0	0565ac23	sw	x22,88(x11)	 x11:0x80025c60 x22:0x00000105 PA:0x80025cb8 store:0x00000105 load:0xffffffff
     1753617000	     87579	800025d4	0575ae23	sw	x23,92(x11)	 x11:0x80025c60 x23:0x00000000 PA:0x80025cbc store:0x00000000 load:0xffffffff
     1754077000	     87602	800025d8	0785a023	sw	x24,96(x11)	 x11:0x80025c60 x24:0x71fffd70 PA:0x80025cc0 store:0x71fffd70 load:0xffffffff
     1754217000	     87609	800025dc	0795a223	sw	x25,100(x11)	 x11:0x80025c60 x25:0x00017000 PA:0x80025cc4 store:0x00017000 load:0xffffffff
     1754657000	     87631	800025e0	07a5a423	sw	x26,104(x11)	 x11:0x80025c60 x26:0x00004fd0 PA:0x80025cc8 store:0x00004fd0 load:0xffffffff
     1754717000	     87634	800025e4	07b5a623	sw	x27,108(x11)	 x11:0x80025c60 x27:0x00000001 PA:0x80025ccc store:0x00000001 load:0xffffffff
     1754937000	     87645	800025e8	07c5a823	sw	x28,112(x11)	 x11:0x80025c60 x28:0x00000020 PA:0x80025cd0 store:0x00000020 load:0xffffffff
     1754957000	     87646	800025ec	07d5aa23	sw	x29,116(x11)	 x11:0x80025c60 x29:0x0000ffff PA:0x80025cd4 store:0x0000ffff load:0xffffffff
     1755057000	     87651	800025f0	07e5ac23	sw	x30,120(x11)	 x11:0x80025c60 x30:0x00000000 PA:0x80025cd8 store:0x00000000 load:0xffffffff
     1755197000	     87658	800025f4	07f5ae23	sw	x31,124(x11)	 x11:0x80025c60 x31:0x00000000 PA:0x80025cdc store:0x00000000 load:0xffffffff
     1755217000	     87659	800025f8	000586b3	add	x13,x11,x0	 x11:0x80025c60  x0:0x00000000 x13=0x80025c60
     1755237000	     87660	800025fc	90000db7	lui	x27,0x90000	 x27=0x90000000
     1755257000	     87661	80002600	1df1	c.addi	x27,-4	 x27:0x90000000 x27=0x8ffffffc
     1755277000	     87662	80002602	4921	c.li	x18,8	 x18=0x00000008
     1755297000	     87663	80002604	0922	c.slli	x18,0x8	 x18:0x00000008 x18=0x00000800
     1755317000	     87664	80002606	00090913	addi	x18,x18,0	 x18:0x00000800 x18=0x00000800
     1755777000	     87687	8000260a	012da023	sw	x18,0(x27)	 x27:0x8ffffffc x18:0x00000800 PA:0x8ffffffc store:0x00000800 load:0xffffffff
     1755797000	     87688	8000260e	34102973	csrrs	x18,mepc,x0	  x0:0x00000000 x18=0x800097ea
     1755817000	     87689	80002612	34202973	csrrs	x18,mcause,x0	  x0:0x00000000 x18=0x00000002
     1755837000	     87690	80002616	4d8d	c.li	x27,3	 x27=0x00000003
     1755857000	     87691	80002618	01b91463	bne	x18,x27,80002620	 x18:0x00000002 x27:0x00000003
     1755897000	     87693	80002620	4da1	c.li	x27,8	 x27=0x00000008
     1755917000	     87694	80002622	05b90d63	beq	x18,x27,8000267c	 x18:0x00000002 x27:0x00000008
     1755937000	     87695	80002626	4da5	c.li	x27,9	 x27=0x00000009
     1755957000	     87696	80002628	05b90a63	beq	x18,x27,8000267c	 x18:0x00000002 x27:0x00000009
     1755977000	     87697	8000262c	4dad	c.li	x27,11	 x27=0x0000000b
     1759797000	     87888	8000262e	05b90763	beq	x18,x27,8000267c	 x18:0x00000002 x27:0x0000000b
     1759817000	     87889	80002632	4d85	c.li	x27,1	 x27=0x00000001
     1759837000	     87890	80002634	35b90363	beq	x18,x27,8000297a	 x18:0x00000002 x27:0x00000001
     1759857000	     87891	80002638	4d95	c.li	x27,5	 x27=0x00000005
     1759877000	     87892	8000263a	63b90963	beq	x18,x27,80002c6c	 x18:0x00000002 x27:0x00000005
     1759897000	     87893	8000263e	4d9d	c.li	x27,7	 x27=0x00000007
     1759917000	     87894	80002640	15b90ae3	beq	x18,x27,80002f94	 x18:0x00000002 x27:0x00000007
     1759937000	     87895	80002644	4db1	c.li	x27,12	 x27=0x0000000c
     1759957000	     87896	80002646	01b91463	bne	x18,x27,8000264e	 x18:0x00000002 x27:0x0000000c
     1759997000	     87898	8000264e	4db5	c.li	x27,13	 x27=0x0000000d
     1760017000	     87899	80002650	01b91463	bne	x18,x27,80002658	 x18:0x00000002 x27:0x0000000d
     1760057000	     87901	80002658	4dbd	c.li	x27,15	 x27=0x0000000f
     1760077000	     87902	8000265a	01b91463	bne	x18,x27,80002662	 x18:0x00000002 x27:0x0000000f
     1760137000	     87905	80002662	4d89	c.li	x27,2	 x27=0x00000002
     1760157000	     87906	80002664	01b91463	bne	x18,x27,8000266c	 x18:0x00000002 x27:0x00000002
     1760177000	     87907	80002668	45c0906f	jal	x0,8000bac4	  x0=0x00000000
     1760217000	     87909	8000bac4	90000db7	lui	x27,0x90000	 x27=0x90000000
     1760237000	     87910	8000bac8	1df1	c.addi	x27,-4	 x27:0x90000000 x27=0x8ffffffc
     1760257000	     87911	8000baca	4929	c.li	x18,10	 x18=0x0000000a
     1760277000	     87912	8000bacc	0922	c.slli	x18,0x8	 x18:0x0000000a x18=0x00000a00
     1760297000	     87913	8000bace	00090913	addi	x18,x18,0	 x18:0x00000a00 x18=0x00000a00
     1760497000	     87923	8000bad2	012da023	sw	x18,0(x27)	 x27:0x8ffffffc x18:0x00000a00 PA:0x8ffffffc store:0x00000a00 load:0xffffffff
     1760517000	     87924	8000bad6	90000db7	lui	x27,0x90000	 x27=0x90000000
     1760537000	     87925	8000bada	1df1	c.addi	x27,-4	 x27:0x90000000 x27=0x8ffffffc
     1760557000	     87926	8000badc	34200913	addi	x18,x0,834	  x0:0x00000000 x18=0x00000342
     1760577000	     87927	8000bae0	0922	c.slli	x18,0x8	 x18:0x00000342 x18=0x00034200
     1760597000	     87928	8000bae2	090d	c.addi	x18,3	 x18:0x00034200 x18=0x00034203
     1760657000	     87931	8000bae4	012da023	sw	x18,0(x27)	 x27:0x8ffffffc x18:0x00034203 PA:0x8ffffffc store:0x00034203 load:0xffffffff
     1760677000	     87932	8000bae8	34202973	csrrs	x18,mcause,x0	  x0:0x00000000 x18=0x00000002
     1760837000	     87940	8000baec	012da023	sw	x18,0(x27)	 x27:0x8ffffffc x18:0x00000002 PA:0x8ffffffc store:0x00000002 load:0xffffffff
     1760857000	     87941	8000baf0	34102973	csrrs	x18,mepc,x0	  x0:0x00000000 x18=0x800097ea
     1760877000	     87942	8000baf4	0911	c.addi	x18,4	 x18:0x800097ea x18=0x800097ee
     1760897000	     87943	8000baf6	34191073	csrrw	x0,mepc,x18	 x18:0x800097ee  x0=0x00000000
     1760917000	     87944	8000bafa	000685b3	add	x11,x13,x0	 x13:0x80025c60  x0:0x00000000 x11=0x80025c60
     1761097000	     87953	8000bafe	0045a083	lw	x1,4(x11)	 x11:0x80025c60  x1=0x00000000 PA:0x80025c64 load:0x00000000
     1761157000	     87956	8000bb02	0085a103	lw	x2,8(x11)	 x11:0x80025c60  x2=0xfffffff0 PA:0x80025c68 load:0xfffffff0
     1761197000	     87958	8000bb06	00c5a183	lw	x3,12(x11)	 x11:0x80025c60  x3=0x00000000 PA:0x80025c6c load:0x00000000
     1761297000	     87963	8000bb0a	0105a203	lw	x4,16(x11)	 x11:0x80025c60  x4=0xfffdffff PA:0x80025c70 load:0xfffdffff
     1761577000	     87977	8000bb0e	0145a283	lw	x5,20(x11)	 x11:0x80025c60  x5=0x00000500 PA:0x80025c74 load:0x00000500
     1762037000	     88000	8000bb12	0185a303	lw	x6,24(x11)	 x11:0x80025c60  x6=0x00000000 PA:0x80025c78 load:0x00000000
     1762097000	     88003	8000bb16	01c5a383	lw	x7,28(x11)	 x11:0x80025c60  x7=0x00000000 PA:0x80025c7c load:0x00000000
     1762137000	     88005	8000bb1a	5180	c.lw	x8,32(x11)	 x11:0x80025c60  x8=0x00000000 PA:0x80025c80 load:0x00000000
     1762557000	     88026	8000bb1c	51c4	c.lw	x9,36(x11)	 x11:0x80025c60  x9=0x000fffbc PA:0x80025c84 load:0x000fffbc
     1762677000	     88032	8000bb1e	5588	c.lw	x10,40(x11)	 x11:0x80025c60 x10=0x00000380 PA:0x80025c88 load:0x00000380
     1762797000	     88038	8000bb20	55cc	c.lw	x11,44(x11)	 x11:0x80025c60 x11=0x80025c60 PA:0x80025c8c load:0x80025c60
     1763277000	     88062	8000bb22	5990	c.lw	x12,48(x11)	 x11:0x80025c60 x12=0x00000000 PA:0x80025c90 load:0x00000000
     1763337000	     88065	8000bb24	59d4	c.lw	x13,52(x11)	 x11:0x80025c60 x13=0x80025ce0 PA:0x80025c94 load:0x80025ce0
     1763357000	     88066	8000bb26	5d98	c.lw	x14,56(x11)	 x11:0x80025c60 x14=0x0400050d PA:0x80025c98 load:0x0400050d
     1763377000	     88067	8000bb28	5ddc	c.lw	x15,60(x11)	 x11:0x80025c60 x15=0x00000001 PA:0x80025c9c load:0x00000001
     1763597000	     88078	8000bb2a	0405a803	lw	x16,64(x11)	 x11:0x80025c60 x16=0x00000080 PA:0x80025ca0 load:0x00000080
     1764017000	     88099	8000bb2e	0445a883	lw	x17,68(x11)	 x11:0x80025c60 x17=0x00000500 PA:0x80025ca4 load:0x00000500
     1764277000	     88112	8000bb32	0485a903	lw	x18,72(x11)	 x11:0x80025c60 x18=0x00000000 PA:0x80025ca8 load:0x00000000
     1764697000	     88133	8000bb36	04c5a983	lw	x19,76(x11)	 x11:0x80025c60 x19=0x00000001 PA:0x80025cac load:0x00000001
     1765037000	     88150	8000bb3a	0505aa03	lw	x20,80(x11)	 x11:0x80025c60 x20=0x0001d000 PA:0x80025cb0 load:0x0001d000
     1765097000	     88153	8000bb3e	0545aa83	lw	x21,84(x11)	 x11:0x80025c60 x21=0xffffffff PA:0x80025cb4 load:0xffffffff
     1765157000	     88156	8000bb42	0585ab03	lw	x22,88(x11)	 x11:0x80025c60 x22=0x00000105 PA:0x80025cb8 load:0x00000105
     1765377000	     88167	8000bb46	05c5ab83	lw	x23,92(x11)	 x11:0x80025c60 x23=0x00000000 PA:0x80025cbc load:0x00000000
     1765437000	     88170	8000bb4a	0605ac03	lw	x24,96(x11)	 x11:0x80025c60 x24=0x71fffd70 PA:0x80025cc0 load:0x71fffd70
     1765597000	     88178	8000bb4e	0645ac83	lw	x25,100(x11)	 x11:0x80025c60 x25=0x00017000 PA:0x80025cc4 load:0x00017000
     1765617000	     88179	8000bb52	0685ad03	lw	x26,104(x11)	 x11:0x80025c60 x26=0x00004fd0 PA:0x80025cc8 load:0x00004fd0
     1765977000	     88197	8000bb56	06c5ad83	lw	x27,108(x11)	 x11:0x80025c60 x27=0x00000001 PA:0x80025ccc load:0x00000001
     1766417000	     88219	8000bb5a	0705ae03	lw	x28,112(x11)	 x11:0x80025c60 x28=0x00000020 PA:0x80025cd0 load:0x00000020
     1766677000	     88232	8000bb5e	0745ae83	lw	x29,116(x11)	 x11:0x80025c60 x29=0x0000ffff PA:0x80025cd4 load:0x0000ffff
     1766717000	     88234	8000bb62	0785af03	lw	x30,120(x11)	 x11:0x80025c60 x30=0x00000000 PA:0x80025cd8 load:0x00000000
     1767137000	     88255	8000bb66	07c5af83	lw	x31,124(x11)	 x11:0x80025c60 x31=0x00000000 PA:0x80025cdc load:0x00000000
     1767157000	     88256	8000bb6a	08058593	addi	x11,x11,128	 x11:0x80025c60 x11=0x80025ce0
     1767177000	     88257	8000bb6e	000586b3	add	x13,x11,x0	 x11:0x80025ce0  x0:0x00000000 x13=0x80025ce0
     1767237000	     88260	8000bb72	428c	c.lw	x11,0(x13)	 x13:0x80025ce0 x11=0x80021e64 PA:0x80025ce0 load:0x80021e64
     1767257000	     88261	8000bb74	0691	c.addi	x13,4	 x13:0x80025ce0 x13=0x80025ce4
     1767277000	     88262	8000bb76	30200073	mret	
     1767357000	     88266	800097ee	005e1513	slli	x10,x28,0x5	 x28:0x00000020 x10=0x00000400
     1767377000	     88267	800097f2	000a6b33	or	x22,x20,x0	 x20:0x0001d000  x0:0x00000000 x22=0x0001d000
     1767397000	     88268	800097f6	e1d92eb7	lui	x29,0xe1d92	 x29=0xe1d92000
     1767417000	     88269	800097fa	41c65813	srai	x16,x12,0x1c	 x12:0x00000000 x16=0x00000000
     1767617000	     88279	800097fe	011d9b33	sll	x22,x27,x17	 x27:0x00000001 x17:0x00000500 x22=0x00000001
     1767957000	     88296	80009802	320062f3	csrrsi	x5,mcountinhibit,0	  x5=0x00000000
     1767977000	     88297	80009806	3ca1c193	xori	x3,x3,970	  x3:0x00000000  x3=0x000003ca
     1767997000	     88298	8000980a	8fe9	c.and	x15,x10	 x15:0x00000001 x10:0x00000400 x15=0x00000000
     1768277000	     88312	8000980c	b8a56ff3	csrrsi	x31,mhpmcounter10h,10	 x31=0x00000000
     1768517000	     88324	80009810	006af463	bgeu	x21,x6,80009818	 x21:0xffffffff  x6:0x00000000
     1769657000	     88381	80009818	01084833	xor	x16,x16,x16	 x16:0x00000000 x16:0x00000000 x16=0x00000000
     1769677000	     88382	8000981c	041d0163	beq	x26,x1,8000985e	 x26:0x00004fd0  x1:0x00000000
     1769697000	     88383	80009820	b8907bf3	csrrci	x23,mhpmcounter9h,0	 x23=0x00000000
     1769817000	     88389	80009824	0197cc63	blt	x15,x25,8000983c	 x15:0x00000000 x25:0x00017000
     1770177000	     88407	8000983c	41098cb3	sub	x25,x19,x16	 x19:0x00000001 x16:0x00000000 x25=0x00000001
     1770357000	     88416	80009840	19cfa613	slti	x12,x31,412	 x31:0x00000000 x12=0x00000001
     1770497000	     88423	80009844	c3a1	c.beqz	x15,80009884	 x15:0x00000000
     1771177000	     88457	80009884	40f50333	sub	x6,x10,x15	 x10:0x00000400 x15:0x00000000  x6=0x00000400
     1771357000	     88466	80009888	0ff0000f	fence	iorw,iorw	
     1771537000	     88475	8000988c	3b303bf3	csrrc	x23,pmpaddr3,x0	  x0:0x00000000 x23=0x2cccd975
     1771557000	     88476	80009890	f110fcf3	csrrci	x0,mvendorid,1	  x0=0x00000000
     1771617000	     88479	80002500	0800006f	jal	x0,80002580	  x0=0x00000000
     1771677000	     88482	80002580	16f1	c.addi	x13,-4	 x13:0x80025ce4 x13=0x80025ce0
     1771737000	     88485	80002582	c28c	c.sw	x11,0(x13)	 x13:0x80025ce0 x11:0x80021e64 PA:0x80025ce0 store:0x80021e64 load:0xffffffff
     1771757000	     88486	80002584	000685b3	add	x11,x13,x0	 x13:0x80025ce0  x0:0x00000000 x11=0x80025ce0
     1771777000	     88487	80002588	f8058593	addi	x11,x11,-128	 x11:0x80025ce0 x11=0x80025c60
     1772057000	     88501	8000258c	0015a223	sw	x1,4(x11)	 x11:0x80025c60  x1:0x00000000 PA:0x80025c64 store:0x00000000 load:0xffffffff
     1772217000	     88509	80002590	0025a423	sw	x2,8(x11)	 x11:0x80025c60  x2:0xfffffff0 PA:0x80025c68 store:0xfffffff0 load:0xffffffff
     1772357000	     88516	80002594	0035a623	sw	x3,12(x11)	 x11:0x80025c60  x3:0x000003ca PA:0x80025c6c store:0x000003ca load:0xffffffff
     1772497000	     88523	80002598	0045a823	sw	x4,16(x11)	 x11:0x80025c60  x4:0xfffdffff PA:0x80025c70 store:0xfffdffff load:0xffffffff
     1772917000	     88544	8000259c	0055aa23	sw	x5,20(x11)	 x11:0x80025c60  x5:0x00000000 PA:0x80025c74 store:0x00000000 load:0xffffffff
     1772997000	     88548	800025a0	0065ac23	sw	x6,24(x11)	 x11:0x80025c60  x6:0x00000400 PA:0x80025c78 store:0x00000400 load:0xffffffff
     1773297000	     88563	800025a4	0075ae23	sw	x7,28(x11)	 x11:0x80025c60  x7:0x00000000 PA:0x80025c7c store:0x00000000 load:0xffffffff
     1773337000	     88565	800025a8	d180	c.sw	x8,32(x11)	 x11:0x80025c60  x8:0x00000000 PA:0x80025c80 store:0x00000000 load:0xffffffff
     1773357000	     88566	800025aa	d1c4	c.sw	x9,36(x11)	 x11:0x80025c60  x9:0x000fffbc PA:0x80025c84 store:0x000fffbc load:0xffffffff
     1773437000	     88570	800025ac	d588	c.sw	x10,40(x11)	 x11:0x80025c60 x10:0x00000400 PA:0x80025c88 store:0x00000400 load:0xffffffff
     1773497000	     88573	800025ae	d5cc	c.sw	x11,44(x11)	 x11:0x80025c60 x11:0x80025c60 PA:0x80025c8c store:0x80025c60 load:0xffffffff
     1773897000	     88593	800025b0	d990	c.sw	x12,48(x11)	 x11:0x80025c60 x12:0x00000001 PA:0x80025c90 store:0x00000001 load:0xffffffff
     1774397000	     88618	800025b2	d9d4	c.sw	x13,52(x11)	 x11:0x80025c60 x13:0x80025ce0 PA:0x80025c94 store:0x80025ce0 load:0xffffffff
     1774457000	     88621	800025b4	dd98	c.sw	x14,56(x11)	 x11:0x80025c60 x14:0x0400050d PA:0x80025c98 store:0x0400050d load:0xffffffff
     1774477000	     88622	800025b6	dddc	c.sw	x15,60(x11)	 x11:0x80025c60 x15:0x00000000 PA:0x80025c9c store:0x00000000 load:0xffffffff
     1774657000	     88631	800025b8	0505a023	sw	x16,64(x11)	 x11:0x80025c60 x16:0x00000000 PA:0x80025ca0 store:0x00000000 load:0xffffffff
     1774717000	     88634	800025bc	0515a223	sw	x17,68(x11)	 x11:0x80025c60 x17:0x00000500 PA:0x80025ca4 store:0x00000500 load:0xffffffff
     1775057000	     88651	800025c0	0525a423	sw	x18,72(x11)	 x11:0x80025c60 x18:0x00000000 PA:0x80025ca8 store:0x00000000 load:0xffffffff
     1775117000	     88654	800025c4	0535a623	sw	x19,76(x11)	 x11:0x80025c60 x19:0x00000001 PA:0x80025cac store:0x00000001 load:0xffffffff
     1775237000	     88660	800025c8	0545a823	sw	x20,80(x11)	 x11:0x80025c60 x20:0x0001d000 PA:0x80025cb0 store:0x0001d000 load:0xffffffff
     1775777000	     88687	800025cc	0555aa23	sw	x21,84(x11)	 x11:0x80025c60 x21:0xffffffff PA:0x80025cb4 store:0xffffffff load:0xffffffff
     1775837000	     88690	800025d0	0565ac23	sw	x22,88(x11)	 x11:0x80025c60 x22:0x00000001 PA:0x80025cb8 store:0x00000001 load:0xffffffff
     1776017000	     88699	800025d4	0575ae23	sw	x23,92(x11)	 x11:0x80025c60 x23:0x2cccd975 PA:0x80025cbc store:0x2cccd975 load:0xffffffff
     1776077000	     88702	800025d8	0785a023	sw	x24,96(x11)	 x11:0x80025c60 x24:0x71fffd70 PA:0x80025cc0 store:0x71fffd70 load:0xffffffff
     1776497000	     88723	800025dc	0795a223	sw	x25,100(x11)	 x11:0x80025c60 x25:0x00000001 PA:0x80025cc4 store:0x00000001 load:0xffffffff
     1776557000	     88726	800025e0	07a5a423	sw	x26,104(x11)	 x11:0x80025c60 x26:0x00004fd0 PA:0x80025cc8 store:0x00004fd0 load:0xffffffff
     1777177000	     88757	800025e4	07b5a623	sw	x27,108(x11)	 x11:0x80025c60 x27:0x00000001 PA:0x80025ccc store:0x00000001 load:0xffffffff
     1777297000	     88763	800025e8	07c5a823	sw	x28,112(x11)	 x11:0x80025c60 x28:0x00000020 PA:0x80025cd0 store:0x00000020 load:0xffffffff
     1777357000	     88766	800025ec	07d5aa23	sw	x29,116(x11)	 x11:0x80025c60 x29:0xe1d92000 PA:0x80025cd4 store:0xe1d92000 load:0xffffffff
     1777657000	     88781	800025f0	07e5ac23	sw	x30,120(x11)	 x11:0x80025c60 x30:0x00000000 PA:0x80025cd8 store:0x00000000 load:0xffffffff
     1777917000	     88794	800025f4	07f5ae23	sw	x31,124(x11)	 x11:0x80025c60 x31:0x00000000 PA:0x80025cdc store:0x00000000 load:0xffffffff
     1777937000	     88795	800025f8	000586b3	add	x13,x11,x0	 x11:0x80025c60  x0:0x00000000 x13=0x80025c60
     1777957000	     88796	800025fc	90000db7	lui	x27,0x90000	 x27=0x90000000
     1777977000	     88797	80002600	1df1	c.addi	x27,-4	 x27:0x90000000 x27=0x8ffffffc
     1777997000	     88798	80002602	4921	c.li	x18,8	 x18=0x00000008
     1778017000	     88799	80002604	0922	c.slli	x18,0x8	 x18:0x00000008 x18=0x00000800
     1778037000	     88800	80002606	00090913	addi	x18,x18,0	 x18:0x00000800 x18=0x00000800
     1778137000	     88805	8000260a	012da023	sw	x18,0(x27)	 x27:0x8ffffffc x18:0x00000800 PA:0x8ffffffc store:0x00000800 load:0xffffffff
     1778157000	     88806	8000260e	34102973	csrrs	x18,mepc,x0	  x0:0x00000000 x18=0x80009890
     1778177000	     88807	80002612	34202973	csrrs	x18,mcause,x0	  x0:0x00000000 x18=0x00000002
     1778197000	     88808	80002616	4d8d	c.li	x27,3	 x27=0x00000003
     1778217000	     88809	80002618	01b91463	bne	x18,x27,80002620	 x18:0x00000002 x27:0x00000003
     1778257000	     88811	80002620	4da1	c.li	x27,8	 x27=0x00000008
     1778277000	     88812	80002622	05b90d63	beq	x18,x27,8000267c	 x18:0x00000002 x27:0x00000008
     1778297000	     88813	80002626	4da5	c.li	x27,9	 x27=0x00000009
     1778317000	     88814	80002628	05b90a63	beq	x18,x27,8000267c	 x18:0x00000002 x27:0x00000009
     1778337000	     88815	8000262c	4dad	c.li	x27,11	 x27=0x0000000b
     1778357000	     88816	8000262e	05b90763	beq	x18,x27,8000267c	 x18:0x00000002 x27:0x0000000b
     1778377000	     88817	80002632	4d85	c.li	x27,1	 x27=0x00000001
     1778397000	     88818	80002634	35b90363	beq	x18,x27,8000297a	 x18:0x00000002 x27:0x00000001
     1778417000	     88819	80002638	4d95	c.li	x27,5	 x27=0x00000005
     1778437000	     88820	8000263a	63b90963	beq	x18,x27,80002c6c	 x18:0x00000002 x27:0x00000005
     1778457000	     88821	8000263e	4d9d	c.li	x27,7	 x27=0x00000007
     1778477000	     88822	80002640	15b90ae3	beq	x18,x27,80002f94	 x18:0x00000002 x27:0x00000007
     1778497000	     88823	80002644	4db1	c.li	x27,12	 x27=0x0000000c
     1778517000	     88824	80002646	01b91463	bne	x18,x27,8000264e	 x18:0x00000002 x27:0x0000000c
     1778557000	     88826	8000264e	4db5	c.li	x27,13	 x27=0x0000000d
     1778577000	     88827	80002650	01b91463	bne	x18,x27,80002658	 x18:0x00000002 x27:0x0000000d
     1778617000	     88829	80002658	4dbd	c.li	x27,15	 x27=0x0000000f
     1778637000	     88830	8000265a	01b91463	bne	x18,x27,80002662	 x18:0x00000002 x27:0x0000000f
     1778697000	     88833	80002662	4d89	c.li	x27,2	 x27=0x00000002
     1778717000	     88834	80002664	01b91463	bne	x18,x27,8000266c	 x18:0x00000002 x27:0x00000002
     1778737000	     88835	80002668	45c0906f	jal	x0,8000bac4	  x0=0x00000000
     1778777000	     88837	8000bac4	90000db7	lui	x27,0x90000	 x27=0x90000000
     1778797000	     88838	8000bac8	1df1	c.addi	x27,-4	 x27:0x90000000 x27=0x8ffffffc
     1778817000	     88839	8000baca	4929	c.li	x18,10	 x18=0x0000000a
     1778837000	     88840	8000bacc	0922	c.slli	x18,0x8	 x18:0x0000000a x18=0x00000a00
     1778857000	     88841	8000bace	00090913	addi	x18,x18,0	 x18:0x00000a00 x18=0x00000a00
     1779057000	     88851	8000bad2	012da023	sw	x18,0(x27)	 x27:0x8ffffffc x18:0x00000a00 PA:0x8ffffffc store:0x00000a00 load:0xffffffff
     1779077000	     88852	8000bad6	90000db7	lui	x27,0x90000	 x27=0x90000000
     1779097000	     88853	8000bada	1df1	c.addi	x27,-4	 x27:0x90000000 x27=0x8ffffffc
     1779117000	     88854	8000badc	34200913	addi	x18,x0,834	  x0:0x00000000 x18=0x00000342
     1779137000	     88855	8000bae0	0922	c.slli	x18,0x8	 x18:0x00000342 x18=0x00034200
     1779157000	     88856	8000bae2	090d	c.addi	x18,3	 x18:0x00034200 x18=0x00034203
     1779337000	     88865	8000bae4	012da023	sw	x18,0(x27)	 x27:0x8ffffffc x18:0x00034203 PA:0x8ffffffc store:0x00034203 load:0xffffffff
     1779357000	     88866	8000bae8	34202973	csrrs	x18,mcause,x0	  x0:0x00000000 x18=0x00000002
     1779697000	     88883	8000baec	012da023	sw	x18,0(x27)	 x27:0x8ffffffc x18:0x00000002 PA:0x8ffffffc store:0x00000002 load:0xffffffff
     1779717000	     88884	8000baf0	34102973	csrrs	x18,mepc,x0	  x0:0x00000000 x18=0x80009890
     1779737000	     88885	8000baf4	0911	c.addi	x18,4	 x18:0x80009890 x18=0x80009894
     1779757000	     88886	8000baf6	34191073	csrrw	x0,mepc,x18	 x18:0x80009894  x0=0x00000000
     1779777000	     88887	8000bafa	000685b3	add	x11,x13,x0	 x13:0x80025c60  x0:0x00000000 x11=0x80025c60
     1779837000	     88890	8000bafe	0045a083	lw	x1,4(x11)	 x11:0x80025c60  x1=0x00000000 PA:0x80025c64 load:0x00000000
     1779937000	     88895	8000bb02	0085a103	lw	x2,8(x11)	 x11:0x80025c60  x2=0xfffffff0 PA:0x80025c68 load:0xfffffff0
     1779997000	     88898	8000bb06	00c5a183	lw	x3,12(x11)	 x11:0x80025c60  x3=0x000003ca PA:0x80025c6c load:0x000003ca
     1780297000	     88913	8000bb0a	0105a203	lw	x4,16(x11)	 x11:0x80025c60  x4=0xfffdffff PA:0x80025c70 load:0xfffdffff
     1780357000	     88916	8000bb0e	0145a283	lw	x5,20(x11)	 x11:0x80025c60  x5=0x00000000 PA:0x80025c74 load:0x00000000
     1780597000	     88928	8000bb12	0185a303	lw	x6,24(x11)	 x11:0x80025c60  x6=0x00000400 PA:0x80025c78 load:0x00000400
     1780777000	     88937	8000bb16	01c5a383	lw	x7,28(x11)	 x11:0x80025c60  x7=0x00000000 PA:0x80025c7c load:0x00000000
     1780817000	     88939	8000bb1a	5180	c.lw	x8,32(x11)	 x11:0x80025c60  x8=0x00000000 PA:0x80025c80 load:0x00000000
     1781237000	     88960	8000bb1c	51c4	c.lw	x9,36(x11)	 x11:0x80025c60  x9=0x000fffbc PA:0x80025c84 load:0x000fffbc
     1781697000	     88983	8000bb1e	5588	c.lw	x10,40(x11)	 x11:0x80025c60 x10=0x00000400 PA:0x80025c88 load:0x00000400
     1781757000	     88986	8000bb20	55cc	c.lw	x11,44(x11)	 x11:0x80025c60 x11=0x80025c60 PA:0x80025c8c load:0x80025c60
     1781797000	     88988	8000bb22	5990	c.lw	x12,48(x11)	 x11:0x80025c60 x12=0x00000001 PA:0x80025c90 load:0x00000001
     1781937000	     88995	8000bb24	59d4	c.lw	x13,52(x11)	 x11:0x80025c60 x13=0x80025ce0 PA:0x80025c94 load:0x80025ce0
     1781997000	     88998	8000bb26	5d98	c.lw	x14,56(x11)	 x11:0x80025c60 x14=0x0400050d PA:0x80025c98 load:0x0400050d
     1782017000	     88999	8000bb28	5ddc	c.lw	x15,60(x11)	 x11:0x80025c60 x15=0x00000000 PA:0x80025c9c load:0x00000000
     1782157000	     89006	8000bb2a	0405a803	lw	x16,64(x11)	 x11:0x80025c60 x16=0x00000000 PA:0x80025ca0 load:0x00000000
     1782497000	     89023	8000bb2e	0445a883	lw	x17,68(x11)	 x11:0x80025c60 x17=0x00000500 PA:0x80025ca4 load:0x00000500
     1782737000	     89035	8000bb32	0485a903	lw	x18,72(x11)	 x11:0x80025c60 x18=0x00000000 PA:0x80025ca8 load:0x00000000
     1782797000	     89038	8000bb36	04c5a983	lw	x19,76(x11)	 x11:0x80025c60 x19=0x00000001 PA:0x80025cac load:0x00000001
     1783217000	     89059	8000bb3a	0505aa03	lw	x20,80(x11)	 x11:0x80025c60 x20=0x0001d000 PA:0x80025cb0 load:0x0001d000
     1783277000	     89062	8000bb3e	0545aa83	lw	x21,84(x11)	 x11:0x80025c60 x21=0xffffffff PA:0x80025cb4 load:0xffffffff
     1783337000	     89065	8000bb42	0585ab03	lw	x22,88(x11)	 x11:0x80025c60 x22=0x00000001 PA:0x80025cb8 load:0x00000001
     1783377000	     89067	8000bb46	05c5ab83	lw	x23,92(x11)	 x11:0x80025c60 x23=0x2cccd975 PA:0x80025cbc load:0x2cccd975
     1783577000	     89077	8000bb4a	0605ac03	lw	x24,96(x11)	 x11:0x80025c60 x24=0x71fffd70 PA:0x80025cc0 load:0x71fffd70
     1783657000	     89081	8000bb4e	0645ac83	lw	x25,100(x11)	 x11:0x80025c60 x25=0x00000001 PA:0x80025cc4 load:0x00000001
     1784037000	     89100	8000bb52	0685ad03	lw	x26,104(x11)	 x11:0x80025c60 x26=0x00004fd0 PA:0x80025cc8 load:0x00004fd0
     1784277000	     89112	8000bb56	06c5ad83	lw	x27,108(x11)	 x11:0x80025c60 x27=0x00000001 PA:0x80025ccc load:0x00000001
     1784337000	     89115	8000bb5a	0705ae03	lw	x28,112(x11)	 x11:0x80025c60 x28=0x00000020 PA:0x80025cd0 load:0x00000020
     1784397000	     89118	8000bb5e	0745ae83	lw	x29,116(x11)	 x11:0x80025c60 x29=0xe1d92000 PA:0x80025cd4 load:0xe1d92000
     1784817000	     89139	8000bb62	0785af03	lw	x30,120(x11)	 x11:0x80025c60 x30=0x00000000 PA:0x80025cd8 load:0x00000000
     1785017000	     89149	8000bb66	07c5af83	lw	x31,124(x11)	 x11:0x80025c60 x31=0x00000000 PA:0x80025cdc load:0x00000000
     1785037000	     89150	8000bb6a	08058593	addi	x11,x11,128	 x11:0x80025c60 x11=0x80025ce0
     1785057000	     89151	8000bb6e	000586b3	add	x13,x11,x0	 x11:0x80025ce0  x0:0x00000000 x13=0x80025ce0
     1785297000	     89163	8000bb72	428c	c.lw	x11,0(x13)	 x13:0x80025ce0 x11=0x80021e64 PA:0x80025ce0 load:0x80021e64
     1785317000	     89164	8000bb74	0691	c.addi	x13,4	 x13:0x80025ce0 x13=0x80025ce4
     1785337000	     89165	8000bb76	30200073	mret	
     1785397000	     89168	80009894	00198863	beq	x19,x1,800098a4	 x19:0x00000001  x1:0x00000000
     1785417000	     89169	80009898	00fe90b3	sll	x1,x29,x15	 x29:0xe1d92000 x15:0x00000000  x1=0xe1d92000
     1785437000	     89170	8000989c	0026fd63	bgeu	x13,x2,800098b6	 x13:0x80025ce4  x2:0xfffffff0
     1786077000	     89202	800098a0	021c8ab3	mul	x21,x25,x1	 x25:0x00000001  x1:0xe1d92000 x21=0xe1d92000
     1786097000	     89203	800098a4	a6b4b513	sltiu	x10,x9,-1429	  x9:0x000fffbc x10=0x00000001
     1786137000	     89205	800098a8	03f69f33	mulh	x30,x13,x31	 x13:0x80025ce4 x31:0x00000000 x30=0x00000000
     1786157000	     89206	800098ac	b8b02c73	csrrs	x24,mhpmcounter11h,x0	  x0:0x00000000 x24=0x00000000
     1786517000	     89224	800098b0	717d	c.addi16sp	x2,-16	  x2:0xfffffff0  x2=0xffffffe0
     1786597000	     89228	800098b2	014da2b3	slt	x5,x27,x20	 x27:0x00000001 x20:0x0001d000  x5=0x00000001
     1787017000	     89249	800098b6	3a307df3	csrrci	x27,pmpcfg3,0	 x27=0x0f0f0f0f
     1787037000	     89250	800098ba	8d21	c.xor	x10,x8	 x10:0x00000001  x8:0x00000000 x10=0x00000001
     1787057000	     89251	800098bc	01592eb3	slt	x29,x18,x21	 x18:0x00000000 x21:0xe1d92000 x29=0x00000000
     1787077000	     89252	800098c0	20973e13	sltiu	x28,x14,521	 x14:0x0400050d x28=0x00000000
     1787257000	     89261	800098c4	ffff7397	auipc	x7,0xffff7	  x7=0x800008c4
     1787277000	     89262	800098c8	a9e38393	addi	x7,x7,-1378	  x7:0x800008c4  x7=0x80000362
     1787297000	     89263	800098cc	00038067	jalr	x0,0(x7)	  x7:0x80000362  x0=0x00000000
     1787937000	     89295	80000362	90000db7	lui	x27,0x90000	 x27=0x90000000
     1787957000	     89296	80000366	1de1	c.addi	x27,-8	 x27:0x90000000 x27=0x8ffffff8
     1788357000	     89316	80000368	4901	c.li	x18,0	 x18=0x00000000
     1788377000	     89317	8000036a	0922	c.slli	x18,0x8	 x18:0x00000000 x18=0x00000000
     1788777000	     89337	8000036c	0905	c.addi	x18,1	 x18:0x00000000 x18=0x00000001
     1788957000	     89346	8000036e	012da023	sw	x18,0(x27)	 x27:0x8ffffff8 x18:0x00000001 PA:0x8ffffff8 store:0x00000001 load:0xffffffff
     1788977000	     89347	80000372	00000073	ecall	
     1789037000	     89350	80002500	0800006f	jal	x0,80002580	  x0=0x00000000
     1789097000	     89353	80002580	16f1	c.addi	x13,-4	 x13:0x80025ce4 x13=0x80025ce0
     1789557000	     89376	80002582	c28c	c.sw	x11,0(x13)	 x13:0x80025ce0 x11:0x80021e64 PA:0x80025ce0 store:0x80021e64 load:0xffffffff
     1789577000	     89377	80002584	000685b3	add	x11,x13,x0	 x13:0x80025ce0  x0:0x00000000 x11=0x80025ce0
     1813297000	     90563	80002588	f8058593	addi	x11,x11,-128	 x11:0x80025ce0 x11=0x80025c60
     1813757000	     90586	8000258c	0015a223	sw	x1,4(x11)	 x11:0x80025c60  x1:0xe1d92000 PA:0x80025c64 store:0xe1d92000 load:0xffffffff
     1813817000	     90589	80002590	0025a423	sw	x2,8(x11)	 x11:0x80025c60  x2:0xffffffe0 PA:0x80025c68 store:0xffffffe0 load:0xffffffff
     1814157000	     90606	80002594	0035a623	sw	x3,12(x11)	 x11:0x80025c60  x3:0x000003ca PA:0x80025c6c store:0x000003ca load:0xffffffff
     1814417000	     90619	80002598	0045a823	sw	x4,16(x11)	 x11:0x80025c60  x4:0xfffdffff PA:0x80025c70 store:0xfffdffff load:0xffffffff
     1814477000	     90622	8000259c	0055aa23	sw	x5,20(x11)	 x11:0x80025c60  x5:0x00000001 PA:0x80025c74 store:0x00000001 load:0xffffffff
     1814497000	     90623	800025a0	0065ac23	sw	x6,24(x11)	 x11:0x80025c60  x6:0x00000400 PA:0x80025c78 store:0x00000400 load:0xffffffff
     1814537000	     90625	800025a4	0075ae23	sw	x7,28(x11)	 x11:0x80025c60  x7:0x80000362 PA:0x80025c7c store:0x80000362 load:0xffffffff
     1814557000	     90626	800025a8	d180	c.sw	x8,32(x11)	 x11:0x80025c60  x8:0x00000000 PA:0x80025c80 store:0x00000000 load:0xffffffff
     1814917000	     90644	800025aa	d1c4	c.sw	x9,36(x11)	 x11:0x80025c60  x9:0x000fffbc PA:0x80025c84 store:0x000fffbc load:0xffffffff
     1815217000	     90659	800025ac	d588	c.sw	x10,40(x11)	 x11:0x80025c60 x10:0x00000001 PA:0x80025c88 store:0x00000001 load:0xffffffff
     1815277000	     90662	800025ae	d5cc	c.sw	x11,44(x11)	 x11:0x80025c60 x11:0x80025c60 PA:0x80025c8c store:0x80025c60 load:0xffffffff
     1815297000	     90663	800025b0	d990	c.sw	x12,48(x11)	 x11:0x80025c60 x12:0x00000001 PA:0x80025c90 store:0x00000001 load:0xffffffff
     1815497000	     90673	800025b2	d9d4	c.sw	x13,52(x11)	 x11:0x80025c60 x13:0x80025ce0 PA:0x80025c94 store:0x80025ce0 load:0xffffffff
     1815557000	     90676	800025b4	dd98	c.sw	x14,56(x11)	 x11:0x80025c60 x14:0x0400050d PA:0x80025c98 store:0x0400050d load:0xffffffff
     1815577000	     90677	800025b6	dddc	c.sw	x15,60(x11)	 x11:0x80025c60 x15:0x00000000 PA:0x80025c9c store:0x00000000 load:0xffffffff
     1815997000	     90698	800025b8	0505a023	sw	x16,64(x11)	 x11:0x80025c60 x16:0x00000000 PA:0x80025ca0 store:0x00000000 load:0xffffffff
     1816197000	     90708	800025bc	0515a223	sw	x17,68(x11)	 x11:0x80025c60 x17:0x00000500 PA:0x80025ca4 store:0x00000500 load:0xffffffff
     1816217000	     90709	800025c0	0525a423	sw	x18,72(x11)	 x11:0x80025c60 x18:0x00000001 PA:0x80025ca8 store:0x00000001 load:0xffffffff
     1816377000	     90717	800025c4	0535a623	sw	x19,76(x11)	 x11:0x80025c60 x19:0x00000001 PA:0x80025cac store:0x00000001 load:0xffffffff
     1816437000	     90720	800025c8	0545a823	sw	x20,80(x11)	 x11:0x80025c60 x20:0x0001d000 PA:0x80025cb0 store:0x0001d000 load:0xffffffff
     1816457000	     90721	800025cc	0555aa23	sw	x21,84(x11)	 x11:0x80025c60 x21:0xe1d92000 PA:0x80025cb4 store:0xe1d92000 load:0xffffffff
     1816577000	     90727	800025d0	0565ac23	sw	x22,88(x11)	 x11:0x80025c60 x22:0x00000001 PA:0x80025cb8 store:0x00000001 load:0xffffffff
     1816637000	     90730	800025d4	0575ae23	sw	x23,92(x11)	 x11:0x80025c60 x23:0x2cccd975 PA:0x80025cbc store:0x2cccd975 load:0xffffffff
     1816657000	     90731	800025d8	0785a023	sw	x24,96(x11)	 x11:0x80025c60 x24:0x00000000 PA:0x80025cc0 store:0x00000000 load:0xffffffff
     1816677000	     90732	800025dc	0795a223	sw	x25,100(x11)	 x11:0x80025c60 x25:0x00000001 PA:0x80025cc4 store:0x00000001 load:0xffffffff
     1816777000	     90737	800025e0	07a5a423	sw	x26,104(x11)	 x11:0x80025c60 x26:0x00004fd0 PA:0x80025cc8 store:0x00004fd0 load:0xffffffff
     1816977000	     90747	800025e4	07b5a623	sw	x27,108(x11)	 x11:0x80025c60 x27:0x8ffffff8 PA:0x80025ccc store:0x8ffffff8 load:0xffffffff
     1817177000	     90757	800025e8	07c5a823	sw	x28,112(x11)	 x11:0x80025c60 x28:0x00000000 PA:0x80025cd0 store:0x00000000 load:0xffffffff
     1817457000	     90771	800025ec	07d5aa23	sw	x29,116(x11)	 x11:0x80025c60 x29:0x00000000 PA:0x80025cd4 store:0x00000000 load:0xffffffff
     1817477000	     90772	800025f0	07e5ac23	sw	x30,120(x11)	 x11:0x80025c60 x30:0x00000000 PA:0x80025cd8 store:0x00000000 load:0xffffffff
     1817597000	     90778	800025f4	07f5ae23	sw	x31,124(x11)	 x11:0x80025c60 x31:0x00000000 PA:0x80025cdc store:0x00000000 load:0xffffffff
     1817617000	     90779	800025f8	000586b3	add	x13,x11,x0	 x11:0x80025c60  x0:0x00000000 x13=0x80025c60
     1817637000	     90780	800025fc	90000db7	lui	x27,0x90000	 x27=0x90000000
     1817657000	     90781	80002600	1df1	c.addi	x27,-4	 x27:0x90000000 x27=0x8ffffffc
     1817677000	     90782	80002602	4921	c.li	x18,8	 x18=0x00000008
     1817697000	     90783	80002604	0922	c.slli	x18,0x8	 x18:0x00000008 x18=0x00000800
     1817717000	     90784	80002606	00090913	addi	x18,x18,0	 x18:0x00000800 x18=0x00000800
     1817777000	     90787	8000260a	012da023	sw	x18,0(x27)	 x27:0x8ffffffc x18:0x00000800 PA:0x8ffffffc store:0x00000800 load:0xffffffff
     1817797000	     90788	8000260e	34102973	csrrs	x18,mepc,x0	  x0:0x00000000 x18=0x80000372
     1817817000	     90789	80002612	34202973	csrrs	x18,mcause,x0	  x0:0x00000000 x18=0x0000000b
     1817837000	     90790	80002616	4d8d	c.li	x27,3	 x27=0x00000003
     1817857000	     90791	80002618	01b91463	bne	x18,x27,80002620	 x18:0x0000000b x27:0x00000003
     1817897000	     90793	80002620	4da1	c.li	x27,8	 x27=0x00000008
     1817917000	     90794	80002622	05b90d63	beq	x18,x27,8000267c	 x18:0x0000000b x27:0x00000008
     1817937000	     90795	80002626	4da5	c.li	x27,9	 x27=0x00000009
     1817957000	     90796	80002628	05b90a63	beq	x18,x27,8000267c	 x18:0x0000000b x27:0x00000009
     1817977000	     90797	8000262c	4dad	c.li	x27,11	 x27=0x0000000b
     1817997000	     90798	8000262e	05b90763	beq	x18,x27,8000267c	 x18:0x0000000b x27:0x0000000b
     1818477000	     90822	8000267c	90000db7	lui	x27,0x90000	 x27=0x90000000
     1818697000	     90833	80002680	1df1	c.addi	x27,-4	 x27:0x90000000 x27=0x8ffffffc
     1818717000	     90834	80002682	6905	c.lui	x18,0x1	 x18=0x00001000
     1818837000	     90840	80002684	b0090913	addi	x18,x18,-1280	 x18:0x00001000 x18=0x00000b00
     1818857000	     90841	80002688	0922	c.slli	x18,0x8	 x18:0x00000b00 x18=0x000b0000
     1818877000	     90842	8000268a	090d	c.addi	x18,3	 x18:0x000b0000 x18=0x000b0003
     1819117000	     90854	8000268c	012da023	sw	x18,0(x27)	 x27:0x8ffffffc x18:0x000b0003 PA:0x8ffffffc store:0x000b0003 load:0xffffffff
     1819137000	     90855	80002690	b0002973	csrrs	x18,mcycle,x0	  x0:0x00000000 x18=0x00003cfd
     1819157000	     90856	80002694	012da023	sw	x18,0(x27)	 x27:0x8ffffffc x18:0x00003cfd PA:0x8ffffffc store:0x00003cfd load:0xffffffff
     1819177000	     90857	80002698	90000db7	lui	x27,0x90000	 x27=0x90000000
     1819197000	     90858	8000269c	1df1	c.addi	x27,-4	 x27:0x90000000 x27=0x8ffffffc
     1819217000	     90859	8000269e	6905	c.lui	x18,0x1	 x18=0x00001000
     1819237000	     90860	800026a0	b8090913	addi	x18,x18,-1152	 x18:0x00001000 x18=0x00000b80
     1819337000	     90865	800026a4	0922	c.slli	x18,0x8	 x18:0x00000b80 x18=0x000b8000
     1819357000	     90866	800026a6	090d	c.addi	x18,3	 x18:0x000b8000 x18=0x000b8003
     1819577000	     90877	800026a8	012da023	sw	x18,0(x27)	 x27:0x8ffffffc x18:0x000b8003 PA:0x8ffffffc store:0x000b8003 load:0xffffffff
     1819597000	     90878	800026ac	b8002973	csrrs	x18,mcycleh,x0	  x0:0x00000000 x18=0x0000000c
     1819737000	     90885	800026b0	012da023	sw	x18,0(x27)	 x27:0x8ffffffc x18:0x0000000c PA:0x8ffffffc store:0x0000000c load:0xffffffff
     1819757000	     90886	800026b4	90000db7	lui	x27,0x90000	 x27=0x90000000
     1819777000	     90887	800026b8	1df1	c.addi	x27,-4	 x27:0x90000000 x27=0x8ffffffc
     1819797000	     90888	800026ba	6905	c.lui	x18,0x1	 x18=0x00001000
     1819817000	     90889	800026bc	b0390913	addi	x18,x18,-1277	 x18:0x00001000 x18=0x00000b03
     1819837000	     90890	800026c0	0922	c.slli	x18,0x8	 x18:0x00000b03 x18=0x000b0300
     1819857000	     90891	800026c2	090d	c.addi	x18,3	 x18:0x000b0300 x18=0x000b0303
     1819937000	     90895	800026c4	012da023	sw	x18,0(x27)	 x27:0x8ffffffc x18:0x000b0303 PA:0x8ffffffc store:0x000b0303 load:0xffffffff
     1819957000	     90896	800026c8	b0302973	csrrs	x18,mhpmcounter3,x0	  x0:0x00000000 x18=0x800227b6
     1820117000	     90904	800026cc	012da023	sw	x18,0(x27)	 x27:0x8ffffffc x18:0x800227b6 PA:0x8ffffffc store:0x800227b6 load:0xffffffff
     1820137000	     90905	800026d0	90000db7	lui	x27,0x90000	 x27=0x90000000
     1820397000	     90918	800026d4	1df1	c.addi	x27,-4	 x27:0x90000000 x27=0x8ffffffc
     1820417000	     90919	800026d6	6905	c.lui	x18,0x1	 x18=0x00001000
     1820557000	     90926	800026d8	b8390913	addi	x18,x18,-1149	 x18:0x00001000 x18=0x00000b83
     1820577000	     90927	800026dc	0922	c.slli	x18,0x8	 x18:0x00000b83 x18=0x000b8300
     1820597000	     90928	800026de	090d	c.addi	x18,3	 x18:0x000b8300 x18=0x000b8303
     1820917000	     90944	800026e0	012da023	sw	x18,0(x27)	 x27:0x8ffffffc x18:0x000b8303 PA:0x8ffffffc store:0x000b8303 load:0xffffffff
     1820937000	     90945	800026e4	b8302973	csrrs	x18,mhpmcounter3h,x0	  x0:0x00000000 x18=0x00000000
     1820997000	     90948	800026e8	012da023	sw	x18,0(x27)	 x27:0x8ffffffc x18:0x00000000 PA:0x8ffffffc store:0x00000000 load:0xffffffff
     1821017000	     90949	800026ec	90000db7	lui	x27,0x90000	 x27=0x90000000
     1821037000	     90950	800026f0	1df1	c.addi	x27,-4	 x27:0x90000000 x27=0x8ffffffc
     1821057000	     90951	800026f2	6905	c.lui	x18,0x1	 x18=0x00001000
     1821077000	     90952	800026f4	b0490913	addi	x18,x18,-1276	 x18:0x00001000 x18=0x00000b04
     1821097000	     90953	800026f8	0922	c.slli	x18,0x8	 x18:0x00000b04 x18=0x000b0400
     1821117000	     90954	800026fa	090d	c.addi	x18,3	 x18:0x000b0400 x18=0x000b0403
     1821177000	     90957	800026fc	012da023	sw	x18,0(x27)	 x27:0x8ffffffc x18:0x000b0403 PA:0x8ffffffc store:0x000b0403 load:0xffffffff
     1821197000	     90958	80002700	b0402973	csrrs	x18,mhpmcounter4,x0	  x0:0x00000000 x18=0x00007fa1
     1821417000	     90969	80002704	012da023	sw	x18,0(x27)	 x27:0x8ffffffc x18:0x00007fa1 PA:0x8ffffffc store:0x00007fa1 load:0xffffffff
     1821437000	     90970	80002708	90000db7	lui	x27,0x90000	 x27=0x90000000
     1821497000	     90973	8000270c	1df1	c.addi	x27,-4	 x27:0x90000000 x27=0x8ffffffc
     1821517000	     90974	8000270e	6905	c.lui	x18,0x1	 x18=0x00001000
     1821917000	     90994	80002710	b8490913	addi	x18,x18,-1148	 x18:0x00001000 x18=0x00000b84
     1821937000	     90995	80002714	0922	c.slli	x18,0x8	 x18:0x00000b84 x18=0x000b8400
     1821957000	     90996	80002716	090d	c.addi	x18,3	 x18:0x000b8400 x18=0x000b8403
     1822617000	     91029	80002718	012da023	sw	x18,0(x27)	 x27:0x8ffffffc x18:0x000b8403 PA:0x8ffffffc store:0x000b8403 load:0xffffffff
     1822637000	     91030	8000271c	b8402973	csrrs	x18,mhpmcounter4h,x0	  x0:0x00000000 x18=0x00000000
     1822697000	     91033	80002720	012da023	sw	x18,0(x27)	 x27:0x8ffffffc x18:0x00000000 PA:0x8ffffffc store:0x00000000 load:0xffffffff
     1822717000	     91034	80002724	90000db7	lui	x27,0x90000	 x27=0x90000000
     1822737000	     91035	80002728	1df1	c.addi	x27,-4	 x27:0x90000000 x27=0x8ffffffc
     1822757000	     91036	8000272a	6905	c.lui	x18,0x1	 x18=0x00001000
     1822777000	     91037	8000272c	b0590913	addi	x18,x18,-1275	 x18:0x00001000 x18=0x00000b05
     1822797000	     91038	80002730	0922	c.slli	x18,0x8	 x18:0x00000b05 x18=0x000b0500
     1822817000	     91039	80002732	090d	c.addi	x18,3	 x18:0x000b0500 x18=0x000b0503
     1822977000	     91047	80002734	012da023	sw	x18,0(x27)	 x27:0x8ffffffc x18:0x000b0503 PA:0x8ffffffc store:0x000b0503 load:0xffffffff
     1823037000	     91050	80002738	b0502973	csrrs	x18,mhpmcounter5,x0	  x0:0x00000000 x18=0x00000155
     1823357000	     91066	8000273c	012da023	sw	x18,0(x27)	 x27:0x8ffffffc x18:0x00000155 PA:0x8ffffffc store:0x00000155 load:0xffffffff
     1823597000	     91078	80002740	90000db7	lui	x27,0x90000	 x27=0x90000000
     1824017000	     91099	80002744	1df1	c.addi	x27,-4	 x27:0x90000000 x27=0x8ffffffc
     1824037000	     91100	80002746	6905	c.lui	x18,0x1	 x18=0x00001000
     1824157000	     91106	80002748	b8590913	addi	x18,x18,-1147	 x18:0x00001000 x18=0x00000b85
     1824177000	     91107	8000274c	0922	c.slli	x18,0x8	 x18:0x00000b85 x18=0x000b8500
     1824197000	     91108	8000274e	090d	c.addi	x18,3	 x18:0x000b8500 x18=0x000b8503
     1824557000	     91126	80002750	012da023	sw	x18,0(x27)	 x27:0x8ffffffc x18:0x000b8503 PA:0x8ffffffc store:0x000b8503 load:0xffffffff
     1824577000	     91127	80002754	b8502973	csrrs	x18,mhpmcounter5h,x0	  x0:0x00000000 x18=0x00000000
     1824817000	     91139	80002758	012da023	sw	x18,0(x27)	 x27:0x8ffffffc x18:0x00000000 PA:0x8ffffffc store:0x00000000 load:0xffffffff
     1824857000	     91141	8000275c	90000db7	lui	x27,0x90000	 x27=0x90000000
     1824997000	     91148	80002760	1df1	c.addi	x27,-4	 x27:0x90000000 x27=0x8ffffffc
     1825017000	     91149	80002762	6905	c.lui	x18,0x1	 x18=0x00001000
     1825417000	     91169	80002764	b0690913	addi	x18,x18,-1274	 x18:0x00001000 x18=0x00000b06
     1825777000	     91187	80002768	0922	c.slli	x18,0x8	 x18:0x00000b06 x18=0x000b0600
     1825797000	     91188	8000276a	090d	c.addi	x18,3	 x18:0x000b0600 x18=0x000b0603
     1826077000	     91202	8000276c	012da023	sw	x18,0(x27)	 x27:0x8ffffffc x18:0x000b0603 PA:0x8ffffffc store:0x000b0603 load:0xffffffff
     1826097000	     91203	80002770	b0602973	csrrs	x18,mhpmcounter6,x0	  x0:0x00000000 x18=0x0000028a
     1826157000	     91206	80002774	012da023	sw	x18,0(x27)	 x27:0x8ffffffc x18:0x0000028a PA:0x8ffffffc store:0x0000028a load:0xffffffff
     1826177000	     91207	80002778	90000db7	lui	x27,0x90000	 x27=0x90000000
     1826217000	     91209	8000277c	1df1	c.addi	x27,-4	 x27:0x90000000 x27=0x8ffffffc
     1826237000	     91210	8000277e	6905	c.lui	x18,0x1	 x18=0x00001000
     1826257000	     91211	80002780	b8690913	addi	x18,x18,-1146	 x18:0x00001000 x18=0x00000b86
     1826277000	     91212	80002784	0922	c.slli	x18,0x8	 x18:0x00000b86 x18=0x000b8600
     1826297000	     91213	80002786	090d	c.addi	x18,3	 x18:0x000b8600 x18=0x000b8603
     1826357000	     91216	80002788	012da023	sw	x18,0(x27)	 x27:0x8ffffffc x18:0x000b8603 PA:0x8ffffffc store:0x000b8603 load:0xffffffff
     1826377000	     91217	8000278c	b8602973	csrrs	x18,mhpmcounter6h,x0	  x0:0x00000000 x18=0x00000000
     1826597000	     91228	80002790	012da023	sw	x18,0(x27)	 x27:0x8ffffffc x18:0x00000000 PA:0x8ffffffc store:0x00000000 load:0xffffffff
     1826777000	     91237	80002794	90000db7	lui	x27,0x90000	 x27=0x90000000
     1826797000	     91238	80002798	1df1	c.addi	x27,-4	 x27:0x90000000 x27=0x8ffffffc
     1826817000	     91239	8000279a	6905	c.lui	x18,0x1	 x18=0x00001000
     1826837000	     91240	8000279c	b0790913	addi	x18,x18,-1273	 x18:0x00001000 x18=0x00000b07
     1826977000	     91247	800027a0	0922	c.slli	x18,0x8	 x18:0x00000b07 x18=0x000b0700
     1826997000	     91248	800027a2	090d	c.addi	x18,3	 x18:0x000b0700 x18=0x000b0703
     1827517000	     91274	800027a4	012da023	sw	x18,0(x27)	 x27:0x8ffffffc x18:0x000b0703 PA:0x8ffffffc store:0x000b0703 load:0xffffffff
     1827537000	     91275	800027a8	b0702973	csrrs	x18,mhpmcounter7,x0	  x0:0x00000000 x18=0x0000000c
     1827897000	     91293	800027ac	012da023	sw	x18,0(x27)	 x27:0x8ffffffc x18:0x0000000c PA:0x8ffffffc store:0x0000000c load:0xffffffff
     1827917000	     91294	800027b0	90000db7	lui	x27,0x90000	 x27=0x90000000
     1827937000	     91295	800027b4	1df1	c.addi	x27,-4	 x27:0x90000000 x27=0x8ffffffc
     1827957000	     91296	800027b6	6905	c.lui	x18,0x1	 x18=0x00001000
     1827977000	     91297	800027b8	b8790913	addi	x18,x18,-1145	 x18:0x00001000 x18=0x00000b87
     1827997000	     91298	800027bc	0922	c.slli	x18,0x8	 x18:0x00000b87 x18=0x000b8700
     1828017000	     91299	800027be	090d	c.addi	x18,3	 x18:0x000b8700 x18=0x000b8703
     1828077000	     91302	800027c0	012da023	sw	x18,0(x27)	 x27:0x8ffffffc x18:0x000b8703 PA:0x8ffffffc store:0x000b8703 load:0xffffffff
     1828197000	     91308	800027c4	b8702973	csrrs	x18,mhpmcounter7h,x0	  x0:0x00000000 x18=0x00000000
     1828257000	     91311	800027c8	012da023	sw	x18,0(x27)	 x27:0x8ffffffc x18:0x00000000 PA:0x8ffffffc store:0x00000000 load:0xffffffff
     1828277000	     91312	800027cc	90000db7	lui	x27,0x90000	 x27=0x90000000
     1828297000	     91313	800027d0	1df1	c.addi	x27,-4	 x27:0x90000000 x27=0x8ffffffc
     1828317000	     91314	800027d2	6905	c.lui	x18,0x1	 x18=0x00001000
     1828717000	     91334	800027d4	b0890913	addi	x18,x18,-1272	 x18:0x00001000 x18=0x00000b08
     1828797000	     91338	800027d8	0922	c.slli	x18,0x8	 x18:0x00000b08 x18=0x000b0800
     1828817000	     91339	800027da	090d	c.addi	x18,3	 x18:0x000b0800 x18=0x000b0803
     1829017000	     91349	800027dc	012da023	sw	x18,0(x27)	 x27:0x8ffffffc x18:0x000b0803 PA:0x8ffffffc store:0x000b0803 load:0xffffffff
     1829037000	     91350	800027e0	b0802973	csrrs	x18,mhpmcounter8,x0	  x0:0x00000000 x18=0x80021f72
     1829157000	     91356	800027e4	012da023	sw	x18,0(x27)	 x27:0x8ffffffc x18:0x80021f72 PA:0x8ffffffc store:0x80021f72 load:0xffffffff
     1829217000	     91359	800027e8	90000db7	lui	x27,0x90000	 x27=0x90000000
     1829237000	     91360	800027ec	1df1	c.addi	x27,-4	 x27:0x90000000 x27=0x8ffffffc
     1829257000	     91361	800027ee	6905	c.lui	x18,0x1	 x18=0x00001000
     1829277000	     91362	800027f0	b8890913	addi	x18,x18,-1144	 x18:0x00001000 x18=0x00000b88
     1829297000	     91363	800027f4	0922	c.slli	x18,0x8	 x18:0x00000b88 x18=0x000b8800
     1829317000	     91364	800027f6	090d	c.addi	x18,3	 x18:0x000b8800 x18=0x000b8803
     1829617000	     91379	800027f8	012da023	sw	x18,0(x27)	 x27:0x8ffffffc x18:0x000b8803 PA:0x8ffffffc store:0x000b8803 load:0xffffffff
     1829637000	     91380	800027fc	b8802973	csrrs	x18,mhpmcounter8h,x0	  x0:0x00000000 x18=0x00000000
     1830097000	     91403	80002800	012da023	sw	x18,0(x27)	 x27:0x8ffffffc x18:0x00000000 PA:0x8ffffffc store:0x00000000 load:0xffffffff
     1830117000	     91404	80002804	90000db7	lui	x27,0x90000	 x27=0x90000000
     1830137000	     91405	80002808	1df1	c.addi	x27,-4	 x27:0x90000000 x27=0x8ffffffc
     1830157000	     91406	8000280a	6905	c.lui	x18,0x1	 x18=0x00001000
     1830177000	     91407	8000280c	b0990913	addi	x18,x18,-1271	 x18:0x00001000 x18=0x00000b09
     1830197000	     91408	80002810	0922	c.slli	x18,0x8	 x18:0x00000b09 x18=0x000b0900
     1830217000	     91409	80002812	090d	c.addi	x18,3	 x18:0x000b0900 x18=0x000b0903
     1830277000	     91412	80002814	012da023	sw	x18,0(x27)	 x27:0x8ffffffc x18:0x000b0903 PA:0x8ffffffc store:0x000b0903 load:0xffffffff
     1830297000	     91413	80002818	b0902973	csrrs	x18,mhpmcounter9,x0	  x0:0x00000000 x18=0x000000d1
     1830497000	     91423	8000281c	012da023	sw	x18,0(x27)	 x27:0x8ffffffc x18:0x000000d1 PA:0x8ffffffc store:0x000000d1 load:0xffffffff
     1830517000	     91424	80002820	90000db7	lui	x27,0x90000	 x27=0x90000000
     1830757000	     91436	80002824	1df1	c.addi	x27,-4	 x27:0x90000000 x27=0x8ffffffc
     1830777000	     91437	80002826	6905	c.lui	x18,0x1	 x18=0x00001000
     1831177000	     91457	80002828	b8990913	addi	x18,x18,-1143	 x18:0x00001000 x18=0x00000b89
     1831197000	     91458	8000282c	0922	c.slli	x18,0x8	 x18:0x00000b89 x18=0x000b8900
     1831217000	     91459	8000282e	090d	c.addi	x18,3	 x18:0x000b8900 x18=0x000b8903
     1831757000	     91486	80002830	012da023	sw	x18,0(x27)	 x27:0x8ffffffc x18:0x000b8903 PA:0x8ffffffc store:0x000b8903 load:0xffffffff
     1831777000	     91487	80002834	b8902973	csrrs	x18,mhpmcounter9h,x0	  x0:0x00000000 x18=0x00000000
     1832037000	     91500	80002838	012da023	sw	x18,0(x27)	 x27:0x8ffffffc x18:0x00000000 PA:0x8ffffffc store:0x00000000 load:0xffffffff
     1832057000	     91501	8000283c	90000db7	lui	x27,0x90000	 x27=0x90000000
     1832077000	     91502	80002840	1df1	c.addi	x27,-4	 x27:0x90000000 x27=0x8ffffffc
     1832097000	     91503	80002842	6905	c.lui	x18,0x1	 x18=0x00001000
     1832117000	     91504	80002844	b0a90913	addi	x18,x18,-1270	 x18:0x00001000 x18=0x00000b0a
     1832397000	     91518	80002848	0922	c.slli	x18,0x8	 x18:0x00000b0a x18=0x000b0a00
     1832417000	     91519	8000284a	090d	c.addi	x18,3	 x18:0x000b0a00 x18=0x000b0a03
     1832477000	     91522	8000284c	012da023	sw	x18,0(x27)	 x27:0x8ffffffc x18:0x000b0a03 PA:0x8ffffffc store:0x000b0a03 load:0xffffffff
     1832497000	     91523	80002850	b0a02973	csrrs	x18,mhpmcounter10,x0	  x0:0x00000000 x18=0x0000035c
     1832517000	     91524	80002854	012da023	sw	x18,0(x27)	 x27:0x8ffffffc x18:0x0000035c PA:0x8ffffffc store:0x0000035c load:0xffffffff
     1832537000	     91525	80002858	90000db7	lui	x27,0x90000	 x27=0x90000000
     1832557000	     91526	8000285c	1df1	c.addi	x27,-4	 x27:0x90000000 x27=0x8ffffffc
     1832577000	     91527	8000285e	6905	c.lui	x18,0x1	 x18=0x00001000
     1832637000	     91530	80002860	b8a90913	addi	x18,x18,-1142	 x18:0x00001000 x18=0x00000b8a
     1833017000	     91549	80002864	0922	c.slli	x18,0x8	 x18:0x00000b8a x18=0x000b8a00
     1833037000	     91550	80002866	090d	c.addi	x18,3	 x18:0x000b8a00 x18=0x000b8a03
     1833097000	     91553	80002868	012da023	sw	x18,0(x27)	 x27:0x8ffffffc x18:0x000b8a03 PA:0x8ffffffc store:0x000b8a03 load:0xffffffff
     1833117000	     91554	8000286c	b8a02973	csrrs	x18,mhpmcounter10h,x0	  x0:0x00000000 x18=0x00000000
     1833397000	     91568	80002870	012da023	sw	x18,0(x27)	 x27:0x8ffffffc x18:0x00000000 PA:0x8ffffffc store:0x00000000 load:0xffffffff
     1833417000	     91569	80002874	90000db7	lui	x27,0x90000	 x27=0x90000000
     1833437000	     91570	80002878	1df1	c.addi	x27,-4	 x27:0x90000000 x27=0x8ffffffc
     1833457000	     91571	8000287a	6905	c.lui	x18,0x1	 x18=0x00001000
     1833477000	     91572	8000287c	b0b90913	addi	x18,x18,-1269	 x18:0x00001000 x18=0x00000b0b
     1833497000	     91573	80002880	0922	c.slli	x18,0x8	 x18:0x00000b0b x18=0x000b0b00
     1833517000	     91574	80002882	090d	c.addi	x18,3	 x18:0x000b0b00 x18=0x000b0b03
     1833757000	     91586	80002884	012da023	sw	x18,0(x27)	 x27:0x8ffffffc x18:0x000b0b03 PA:0x8ffffffc store:0x000b0b03 load:0xffffffff
     1833917000	     91594	80002888	b0b02973	csrrs	x18,mhpmcounter11,x0	  x0:0x00000000 x18=0x000000c6
     1833977000	     91597	8000288c	012da023	sw	x18,0(x27)	 x27:0x8ffffffc x18:0x000000c6 PA:0x8ffffffc store:0x000000c6 load:0xffffffff
     1833997000	     91598	80002890	90000db7	lui	x27,0x90000	 x27=0x90000000
     1834017000	     91599	80002894	1df1	c.addi	x27,-4	 x27:0x90000000 x27=0x8ffffffc
     1834037000	     91600	80002896	6905	c.lui	x18,0x1	 x18=0x00001000
     1834397000	     91618	80002898	b8b90913	addi	x18,x18,-1141	 x18:0x00001000 x18=0x00000b8b
     1834557000	     91626	8000289c	0922	c.slli	x18,0x8	 x18:0x00000b8b x18=0x000b8b00
     1834577000	     91627	8000289e	090d	c.addi	x18,3	 x18:0x000b8b00 x18=0x000b8b03
     1834697000	     91633	800028a0	012da023	sw	x18,0(x27)	 x27:0x8ffffffc x18:0x000b8b03 PA:0x8ffffffc store:0x000b8b03 load:0xffffffff
     1834717000	     91634	800028a4	b8b02973	csrrs	x18,mhpmcounter11h,x0	  x0:0x00000000 x18=0x00000000
     1834877000	     91642	800028a8	012da023	sw	x18,0(x27)	 x27:0x8ffffffc x18:0x00000000 PA:0x8ffffffc store:0x00000000 load:0xffffffff
     1834897000	     91643	800028ac	90000db7	lui	x27,0x90000	 x27=0x90000000
     1835177000	     91657	800028b0	1df1	c.addi	x27,-4	 x27:0x90000000 x27=0x8ffffffc
     1835197000	     91658	800028b2	6905	c.lui	x18,0x1	 x18=0x00001000
     1835217000	     91659	800028b4	b0c90913	addi	x18,x18,-1268	 x18:0x00001000 x18=0x00000b0c
     1835237000	     91660	800028b8	0922	c.slli	x18,0x8	 x18:0x00000b0c x18=0x000b0c00
     1835257000	     91661	800028ba	090d	c.addi	x18,3	 x18:0x000b0c00 x18=0x000b0c03
     1835517000	     91674	800028bc	012da023	sw	x18,0(x27)	 x27:0x8ffffffc x18:0x000b0c03 PA:0x8ffffffc store:0x000b0c03 load:0xffffffff
     1835757000	     91686	800028c0	b0c02973	csrrs	x18,mhpmcounter12,x0	  x0:0x00000000 x18=0x00001d34
     1835817000	     91689	800028c4	012da023	sw	x18,0(x27)	 x27:0x8ffffffc x18:0x00001d34 PA:0x8ffffffc store:0x00001d34 load:0xffffffff
     1835837000	     91690	800028c8	90000db7	lui	x27,0x90000	 x27=0x90000000
     1835857000	     91691	800028cc	1df1	c.addi	x27,-4	 x27:0x90000000 x27=0x8ffffffc
     1835877000	     91692	800028ce	6905	c.lui	x18,0x1	 x18=0x00001000
     1835897000	     91693	800028d0	b8c90913	addi	x18,x18,-1140	 x18:0x00001000 x18=0x00000b8c
     1835917000	     91694	800028d4	0922	c.slli	x18,0x8	 x18:0x00000b8c x18=0x000b8c00
     1835937000	     91695	800028d6	090d	c.addi	x18,3	 x18:0x000b8c00 x18=0x000b8c03
     1836317000	     91714	800028d8	012da023	sw	x18,0(x27)	 x27:0x8ffffffc x18:0x000b8c03 PA:0x8ffffffc store:0x000b8c03 load:0xffffffff
     1836337000	     91715	800028dc	b8c02973	csrrs	x18,mhpmcounter12h,x0	  x0:0x00000000 x18=0x00000000
     1836537000	     91725	800028e0	012da023	sw	x18,0(x27)	 x27:0x8ffffffc x18:0x00000000 PA:0x8ffffffc store:0x00000000 load:0xffffffff
     1836557000	     91726	800028e4	ffffd917	auipc	x18,0xffffd	 x18=0x7ffff8e4
     1836577000	     91727	800028e8	79c90913	addi	x18,x18,1948	 x18:0x7ffff8e4 x18=0x80000080
     1836917000	     91744	800028ec	00092023	sw	x0,0(x18)	 x18:0x80000080  x0:0x00000000 PA:0x80000080 store:0x00000000 load:0xffffffff
     1836937000	     91745	800028f0	00192223	sw	x1,4(x18)	 x18:0x80000080  x1:0xe1d92000 PA:0x80000084 store:0xe1d92000 load:0xffffffff
     1837177000	     91757	800028f4	00292423	sw	x2,8(x18)	 x18:0x80000080  x2:0xffffffe0 PA:0x80000088 store:0xffffffe0 load:0xffffffff
     1837237000	     91760	800028f8	00392623	sw	x3,12(x18)	 x18:0x80000080  x3:0x000003ca PA:0x8000008c store:0x000003ca load:0xffffffff
     1837257000	     91761	800028fc	00492823	sw	x4,16(x18)	 x18:0x80000080  x4:0xfffdffff PA:0x80000090 store:0xfffdffff load:0xffffffff
     1837417000	     91769	80002900	00592a23	sw	x5,20(x18)	 x18:0x80000080  x5:0x00000001 PA:0x80000094 store:0x00000001 load:0xffffffff
     1837477000	     91772	80002904	00692c23	sw	x6,24(x18)	 x18:0x80000080  x6:0x00000400 PA:0x80000098 store:0x00000400 load:0xffffffff
     1837617000	     91779	80002908	00792e23	sw	x7,28(x18)	 x18:0x80000080  x7:0x80000362 PA:0x8000009c store:0x80000362 load:0xffffffff
     1837637000	     91780	8000290c	02892023	sw	x8,32(x18)	 x18:0x80000080  x8:0x00000000 PA:0x800000a0 store:0x00000000 load:0xffffffff
     1837677000	     91782	80002910	02992223	sw	x9,36(x18)	 x18:0x80000080  x9:0x000fffbc PA:0x800000a4 store:0x000fffbc load:0xffffffff
     1838377000	     91817	80002914	02a92423	sw	x10,40(x18)	 x18:0x80000080 x10:0x00000001 PA:0x800000a8 store:0x00000001 load:0xffffffff
     1838597000	     91828	80002918	02b92623	sw	x11,44(x18)	 x18:0x80000080 x11:0x80025c60 PA:0x800000ac store:0x80025c60 load:0xffffffff
     1838657000	     91831	8000291c	02c92823	sw	x12,48(x18)	 x18:0x80000080 x12:0x00000001 PA:0x800000b0 store:0x00000001 load:0xffffffff
     1838717000	     91834	80002920	02d92a23	sw	x13,52(x18)	 x18:0x80000080 x13:0x80025c60 PA:0x800000b4 store:0x80025c60 load:0xffffffff
     1838877000	     91842	80002924	02e92c23	sw	x14,56(x18)	 x18:0x80000080 x14:0x0400050d PA:0x800000b8 store:0x0400050d load:0xffffffff
     1839397000	     91868	80002928	02f92e23	sw	x15,60(x18)	 x18:0x80000080 x15:0x00000000 PA:0x800000bc store:0x00000000 load:0xffffffff
     1839457000	     91871	8000292c	05092023	sw	x16,64(x18)	 x18:0x80000080 x16:0x00000000 PA:0x800000c0 store:0x00000000 load:0xffffffff
     1839957000	     91896	80002930	05192223	sw	x17,68(x18)	 x18:0x80000080 x17:0x00000500 PA:0x800000c4 store:0x00000500 load:0xffffffff
     1840017000	     91899	80002934	05292423	sw	x18,72(x18)	 x18:0x80000080 x18:0x80000080 PA:0x800000c8 store:0x80000080 load:0xffffffff
     1840337000	     91915	80002938	05392623	sw	x19,76(x18)	 x18:0x80000080 x19:0x00000001 PA:0x800000cc store:0x00000001 load:0xffffffff
     1840577000	     91927	8000293c	05492823	sw	x20,80(x18)	 x18:0x80000080 x20:0x0001d000 PA:0x800000d0 store:0x0001d000 load:0xffffffff
     1841017000	     91949	80002940	05592a23	sw	x21,84(x18)	 x18:0x80000080 x21:0xe1d92000 PA:0x800000d4 store:0xe1d92000 load:0xffffffff
     1841137000	     91955	80002944	05692c23	sw	x22,88(x18)	 x18:0x80000080 x22:0x00000001 PA:0x800000d8 store:0x00000001 load:0xffffffff
     1841297000	     91963	80002948	05792e23	sw	x23,92(x18)	 x18:0x80000080 x23:0x2cccd975 PA:0x800000dc store:0x2cccd975 load:0xffffffff
     1841377000	     91967	8000294c	07892023	sw	x24,96(x18)	 x18:0x80000080 x24:0x00000000 PA:0x800000e0 store:0x00000000 load:0xffffffff
     1848817000	     92339	80002950	07992223	sw	x25,100(x18)	 x18:0x80000080 x25:0x00000001 PA:0x800000e4 store:0x00000001 load:0xffffffff
     1849057000	     92351	80002954	07a92423	sw	x26,104(x18)	 x18:0x80000080 x26:0x00004fd0 PA:0x800000e8 store:0x00004fd0 load:0xffffffff
     1849317000	     92364	80002958	07b92623	sw	x27,108(x18)	 x18:0x80000080 x27:0x8ffffffc PA:0x800000ec store:0x8ffffffc load:0xffffffff
     1849497000	     92373	8000295c	07c92823	sw	x28,112(x18)	 x18:0x80000080 x28:0x00000000 PA:0x800000f0 store:0x00000000 load:0xffffffff
     1849977000	     92397	80002960	07d92a23	sw	x29,116(x18)	 x18:0x80000080 x29:0x00000000 PA:0x800000f4 store:0x00000000 load:0xffffffff
     1850037000	     92400	80002964	07e92c23	sw	x30,120(x18)	 x18:0x80000080 x30:0x00000000 PA:0x800000f8 store:0x00000000 load:0xffffffff
     1850057000	     92401	80002968	07f92e23	sw	x31,124(x18)	 x18:0x80000080 x31:0x00000000 PA:0x800000fc store:0x00000000 load:0xffffffff
     1850077000	     92402	8000296c	34102973	csrrs	x18,mepc,x0	  x0:0x00000000 x18=0x80000372
     1850097000	     92403	80002970	0911	c.addi	x18,4	 x18:0x80000372 x18=0x80000376
     1850117000	     92404	80002972	34191073	csrrw	x0,mepc,x18	 x18:0x80000376  x0=0x00000000
     1850137000	     92405	80002976	30200073	mret	
